
/home/yasuno/dev/RP2040/srcs/ps_2_freertos/ps_2_freertos.elf:     file format elf32-littlearm

Sections:
Idx Name          Size      VMA       LMA       File off  Algn
  0 .boot2        00000100  10000000  10000000  00001000  2**0
                  CONTENTS, ALLOC, LOAD, READONLY, CODE
  1 .text         00008e5c  10000100  10000100  00001100  2**4
                  CONTENTS, ALLOC, LOAD, READONLY, CODE
  2 .rodata       00000574  10008f60  10008f60  00009f60  2**3
                  CONTENTS, ALLOC, LOAD, READONLY, DATA
  3 .binary_info  0000002c  100094d4  100094d4  0000a4d4  2**2
                  CONTENTS, ALLOC, LOAD, READONLY, DATA
  4 .ram_vector_table 000000c0  20000000  20000000  0000c000  2**2
                  ALLOC
  5 .uninitialized_data 00000000  200000c0  200000c0  0000b308  2**0
                  CONTENTS
  6 .data         00000248  200000c0  10009500  0000b0c0  2**4
                  CONTENTS, ALLOC, LOAD, READONLY, CODE
  7 .tdata        00000000  20000308  20000308  0000b308  2**0
                  CONTENTS, ALLOC, LOAD, DATA, THREAD_LOCAL
  8 .tbss         00000000  20000308  20000308  00000000  2**0
                  ALLOC, THREAD_LOCAL
  9 .bss          00020828  20000308  10009748  0000b308  2**3
                  ALLOC
 10 .heap         00000800  20020b30  20020b30  0000b308  2**2
                  CONTENTS, READONLY
 11 .scratch_x    00000000  20040000  20040000  0000bb08  2**0
                  CONTENTS
 12 .scratch_y    00000000  20041000  20041000  0000bb08  2**0
                  CONTENTS
 13 .stack1_dummy 00000800  20040000  20040000  0000c000  2**2
                  ALLOC
 14 .stack_dummy  00000800  20041000  20041000  0000bb20  2**5
                  CONTENTS, READONLY
 15 .ARM.attributes 00000028  00000000  00000000  0000c320  2**0
                  CONTENTS, READONLY
 16 .comment      00000033  00000000  00000000  0000c348  2**0
                  CONTENTS, READONLY
 17 .debug_info   0003677c  00000000  00000000  0000c37b  2**0
                  CONTENTS, READONLY, DEBUGGING, OCTETS
 18 .debug_abbrev 00007d7e  00000000  00000000  00042af7  2**0
                  CONTENTS, READONLY, DEBUGGING, OCTETS
 19 .debug_loc    0002f897  00000000  00000000  0004a875  2**0
                  CONTENTS, READONLY, DEBUGGING, OCTETS
 20 .debug_aranges 00001888  00000000  00000000  0007a110  2**3
                  CONTENTS, READONLY, DEBUGGING, OCTETS
 21 .debug_ranges 0000f020  00000000  00000000  0007b998  2**3
                  CONTENTS, READONLY, DEBUGGING, OCTETS
 22 .debug_line   0002c34d  00000000  00000000  0008a9b8  2**0
                  CONTENTS, READONLY, DEBUGGING, OCTETS
 23 .debug_str    000089b7  00000000  00000000  000b6d05  2**0
                  CONTENTS, READONLY, DEBUGGING, OCTETS
 24 .debug_frame  00003838  00000000  00000000  000bf6bc  2**2
                  CONTENTS, READONLY, DEBUGGING, OCTETS

/home/yasuno/dev/RP2040/srcs/ps_2_freertos/ps_2_freertos.elf:     file format elf32-littlearm


Disassembly of section .boot2:

10000000 <__boot2_start__>:
10000000:	4b32b500 	.word	0x4b32b500
10000004:	60582021 	.word	0x60582021
10000008:	21026898 	.word	0x21026898
1000000c:	60984388 	.word	0x60984388
10000010:	611860d8 	.word	0x611860d8
10000014:	4b2e6158 	.word	0x4b2e6158
10000018:	60992100 	.word	0x60992100
1000001c:	61592102 	.word	0x61592102
10000020:	22f02101 	.word	0x22f02101
10000024:	492b5099 	.word	0x492b5099
10000028:	21016019 	.word	0x21016019
1000002c:	20356099 	.word	0x20356099
10000030:	f844f000 	.word	0xf844f000
10000034:	42902202 	.word	0x42902202
10000038:	2106d014 	.word	0x2106d014
1000003c:	f0006619 	.word	0xf0006619
10000040:	6e19f834 	.word	0x6e19f834
10000044:	66192101 	.word	0x66192101
10000048:	66182000 	.word	0x66182000
1000004c:	f000661a 	.word	0xf000661a
10000050:	6e19f82c 	.word	0x6e19f82c
10000054:	6e196e19 	.word	0x6e196e19
10000058:	f0002005 	.word	0xf0002005
1000005c:	2101f82f 	.word	0x2101f82f
10000060:	d1f94208 	.word	0xd1f94208
10000064:	60992100 	.word	0x60992100
10000068:	6019491b 	.word	0x6019491b
1000006c:	60592100 	.word	0x60592100
10000070:	481b491a 	.word	0x481b491a
10000074:	21016001 	.word	0x21016001
10000078:	21eb6099 	.word	0x21eb6099
1000007c:	21a06619 	.word	0x21a06619
10000080:	f0006619 	.word	0xf0006619
10000084:	2100f812 	.word	0x2100f812
10000088:	49166099 	.word	0x49166099
1000008c:	60014814 	.word	0x60014814
10000090:	60992101 	.word	0x60992101
10000094:	2800bc01 	.word	0x2800bc01
10000098:	4700d000 	.word	0x4700d000
1000009c:	49134812 	.word	0x49134812
100000a0:	c8036008 	.word	0xc8036008
100000a4:	8808f380 	.word	0x8808f380
100000a8:	b5034708 	.word	0xb5034708
100000ac:	20046a99 	.word	0x20046a99
100000b0:	d0fb4201 	.word	0xd0fb4201
100000b4:	42012001 	.word	0x42012001
100000b8:	bd03d1f8 	.word	0xbd03d1f8
100000bc:	6618b502 	.word	0x6618b502
100000c0:	f7ff6618 	.word	0xf7ff6618
100000c4:	6e18fff2 	.word	0x6e18fff2
100000c8:	bd026e18 	.word	0xbd026e18
100000cc:	40020000 	.word	0x40020000
100000d0:	18000000 	.word	0x18000000
100000d4:	00070000 	.word	0x00070000
100000d8:	005f0300 	.word	0x005f0300
100000dc:	00002221 	.word	0x00002221
100000e0:	180000f4 	.word	0x180000f4
100000e4:	a0002022 	.word	0xa0002022
100000e8:	10000100 	.word	0x10000100
100000ec:	e000ed08 	.word	0xe000ed08
	...
100000fc:	7a4eb274 	.word	0x7a4eb274

Disassembly of section .text:

10000100 <__VECTOR_TABLE>:
10000100:	20042000 	.word	0x20042000
10000104:	100001f7 	.word	0x100001f7
10000108:	100001c3 	.word	0x100001c3
1000010c:	100001c5 	.word	0x100001c5
10000110:	100001c1 	.word	0x100001c1
10000114:	100001c1 	.word	0x100001c1
10000118:	100001c1 	.word	0x100001c1
1000011c:	100001c1 	.word	0x100001c1
10000120:	100001c1 	.word	0x100001c1
10000124:	100001c1 	.word	0x100001c1
10000128:	100001c1 	.word	0x100001c1
1000012c:	100001c7 	.word	0x100001c7
10000130:	100001c1 	.word	0x100001c1
10000134:	100001c1 	.word	0x100001c1
10000138:	100001c9 	.word	0x100001c9
1000013c:	100001cb 	.word	0x100001cb
10000140:	100001cd 	.word	0x100001cd
10000144:	100001cd 	.word	0x100001cd
10000148:	100001cd 	.word	0x100001cd
1000014c:	100001cd 	.word	0x100001cd
10000150:	100001cd 	.word	0x100001cd
10000154:	100001cd 	.word	0x100001cd
10000158:	100001cd 	.word	0x100001cd
1000015c:	100001cd 	.word	0x100001cd
10000160:	100001cd 	.word	0x100001cd
10000164:	100001cd 	.word	0x100001cd
10000168:	100001cd 	.word	0x100001cd
1000016c:	100001cd 	.word	0x100001cd
10000170:	100001cd 	.word	0x100001cd
10000174:	100001cd 	.word	0x100001cd
10000178:	100001cd 	.word	0x100001cd
1000017c:	100001cd 	.word	0x100001cd
10000180:	100001cd 	.word	0x100001cd
10000184:	100001cd 	.word	0x100001cd
10000188:	100001cd 	.word	0x100001cd
1000018c:	100001cd 	.word	0x100001cd
10000190:	100001cd 	.word	0x100001cd
10000194:	100001cd 	.word	0x100001cd
10000198:	100001cd 	.word	0x100001cd
1000019c:	100001cd 	.word	0x100001cd
100001a0:	100001cd 	.word	0x100001cd
100001a4:	100001cd 	.word	0x100001cd
100001a8:	100001cd 	.word	0x100001cd
100001ac:	100001cd 	.word	0x100001cd
100001b0:	100001cd 	.word	0x100001cd
100001b4:	100001cd 	.word	0x100001cd
100001b8:	100001cd 	.word	0x100001cd
100001bc:	100001cd 	.word	0x100001cd

100001c0 <isr_invalid>:
100001c0:	be00      	bkpt	0x0000

100001c2 <isr_nmi>:
100001c2:	be00      	bkpt	0x0000

100001c4 <isr_hardfault>:
100001c4:	be00      	bkpt	0x0000

100001c6 <isr_svcall>:
100001c6:	be00      	bkpt	0x0000

100001c8 <isr_pendsv>:
100001c8:	be00      	bkpt	0x0000

100001ca <isr_systick>:
100001ca:	be00      	bkpt	0x0000

100001cc <__unhandled_user_irq>:
100001cc:	f3ef 8005 	mrs	r0, IPSR
100001d0:	3810      	subs	r0, #16

100001d2 <unhandled_user_irq_num_in_r0>:
100001d2:	be00      	bkpt	0x0000

100001d4 <binary_info_header>:
100001d4:	7188ebf2 	.word	0x7188ebf2
100001d8:	100094d4 	.word	0x100094d4
100001dc:	10009500 	.word	0x10009500
100001e0:	10000238 	.word	0x10000238
100001e4:	e71aa390 	.word	0xe71aa390

100001e8 <_entry_point>:
100001e8:	481e      	ldr	r0, [pc, #120]	; (10000264 <data_cpy_table+0x2c>)

100001ea <_enter_vtable_in_r0>:
100001ea:	491f      	ldr	r1, [pc, #124]	; (10000268 <data_cpy_table+0x30>)
100001ec:	6008      	str	r0, [r1, #0]
100001ee:	c806      	ldmia	r0!, {r1, r2}
100001f0:	f381 8808 	msr	MSP, r1
100001f4:	4710      	bx	r2

100001f6 <_reset_handler>:
100001f6:	481d      	ldr	r0, [pc, #116]	; (1000026c <data_cpy_table+0x34>)
100001f8:	6800      	ldr	r0, [r0, #0]
100001fa:	2800      	cmp	r0, #0
100001fc:	d001      	beq.n	10000202 <hold_non_core0_in_bootrom+0x4>

100001fe <hold_non_core0_in_bootrom>:
100001fe:	4819      	ldr	r0, [pc, #100]	; (10000264 <data_cpy_table+0x2c>)
10000200:	e7f3      	b.n	100001ea <_enter_vtable_in_r0>
10000202:	a40d      	add	r4, pc, #52	; (adr r4, 10000238 <data_cpy_table>)
10000204:	cc0e      	ldmia	r4!, {r1, r2, r3}
10000206:	2900      	cmp	r1, #0
10000208:	d002      	beq.n	10000210 <hold_non_core0_in_bootrom+0x12>
1000020a:	f000 f812 	bl	10000232 <data_cpy>
1000020e:	e7f9      	b.n	10000204 <hold_non_core0_in_bootrom+0x6>
10000210:	4917      	ldr	r1, [pc, #92]	; (10000270 <data_cpy_table+0x38>)
10000212:	4a18      	ldr	r2, [pc, #96]	; (10000274 <data_cpy_table+0x3c>)
10000214:	2000      	movs	r0, #0
10000216:	e000      	b.n	1000021a <bss_fill_test>

10000218 <bss_fill_loop>:
10000218:	c101      	stmia	r1!, {r0}

1000021a <bss_fill_test>:
1000021a:	4291      	cmp	r1, r2
1000021c:	d1fc      	bne.n	10000218 <bss_fill_loop>

1000021e <platform_entry>:
1000021e:	4916      	ldr	r1, [pc, #88]	; (10000278 <data_cpy_table+0x40>)
10000220:	4788      	blx	r1
10000222:	4916      	ldr	r1, [pc, #88]	; (1000027c <data_cpy_table+0x44>)
10000224:	4788      	blx	r1
10000226:	4916      	ldr	r1, [pc, #88]	; (10000280 <data_cpy_table+0x48>)
10000228:	4788      	blx	r1
1000022a:	be00      	bkpt	0x0000
1000022c:	e7fd      	b.n	1000022a <platform_entry+0xc>

1000022e <data_cpy_loop>:
1000022e:	c901      	ldmia	r1!, {r0}
10000230:	c201      	stmia	r2!, {r0}

10000232 <data_cpy>:
10000232:	429a      	cmp	r2, r3
10000234:	d3fb      	bcc.n	1000022e <data_cpy_loop>
10000236:	4770      	bx	lr

10000238 <data_cpy_table>:
10000238:	10009500 	.word	0x10009500
1000023c:	200000c0 	.word	0x200000c0
10000240:	20000308 	.word	0x20000308
10000244:	10009748 	.word	0x10009748
10000248:	20040000 	.word	0x20040000
1000024c:	20040000 	.word	0x20040000
10000250:	10009748 	.word	0x10009748
10000254:	20041000 	.word	0x20041000
10000258:	20041000 	.word	0x20041000
1000025c:	00000000 	.word	0x00000000
10000260:	4770      	bx	lr
10000262:	0000      	.short	0x0000
10000264:	00000000 	.word	0x00000000
10000268:	e000ed08 	.word	0xe000ed08
1000026c:	d0000000 	.word	0xd0000000
10000270:	20000308 	.word	0x20000308
10000274:	20020b30 	.word	0x20020b30
10000278:	100086fd 	.word	0x100086fd
1000027c:	100004d5 	.word	0x100004d5
10000280:	100086f5 	.word	0x100086f5

10000284 <_init>:
10000284:	b5f8      	push	{r3, r4, r5, r6, r7, lr}
10000286:	46c0      	nop			; (mov r8, r8)

10000288 <deregister_tm_clones>:
10000288:	4804      	ldr	r0, [pc, #16]	; (1000029c <deregister_tm_clones+0x14>)
1000028a:	4b05      	ldr	r3, [pc, #20]	; (100002a0 <deregister_tm_clones+0x18>)
1000028c:	b510      	push	{r4, lr}
1000028e:	4283      	cmp	r3, r0
10000290:	d003      	beq.n	1000029a <deregister_tm_clones+0x12>
10000292:	4b04      	ldr	r3, [pc, #16]	; (100002a4 <deregister_tm_clones+0x1c>)
10000294:	2b00      	cmp	r3, #0
10000296:	d000      	beq.n	1000029a <deregister_tm_clones+0x12>
10000298:	4798      	blx	r3
1000029a:	bd10      	pop	{r4, pc}
1000029c:	20000308 	.word	0x20000308
100002a0:	20000308 	.word	0x20000308
100002a4:	00000000 	.word	0x00000000

100002a8 <register_tm_clones>:
100002a8:	4806      	ldr	r0, [pc, #24]	; (100002c4 <register_tm_clones+0x1c>)
100002aa:	4907      	ldr	r1, [pc, #28]	; (100002c8 <register_tm_clones+0x20>)
100002ac:	1a09      	subs	r1, r1, r0
100002ae:	108b      	asrs	r3, r1, #2
100002b0:	0fc9      	lsrs	r1, r1, #31
100002b2:	18c9      	adds	r1, r1, r3
100002b4:	b510      	push	{r4, lr}
100002b6:	1049      	asrs	r1, r1, #1
100002b8:	d003      	beq.n	100002c2 <register_tm_clones+0x1a>
100002ba:	4b04      	ldr	r3, [pc, #16]	; (100002cc <register_tm_clones+0x24>)
100002bc:	2b00      	cmp	r3, #0
100002be:	d000      	beq.n	100002c2 <register_tm_clones+0x1a>
100002c0:	4798      	blx	r3
100002c2:	bd10      	pop	{r4, pc}
100002c4:	20000308 	.word	0x20000308
100002c8:	20000308 	.word	0x20000308
100002cc:	00000000 	.word	0x00000000

100002d0 <__do_global_dtors_aux>:
100002d0:	b510      	push	{r4, lr}
100002d2:	4c07      	ldr	r4, [pc, #28]	; (100002f0 <__do_global_dtors_aux+0x20>)
100002d4:	7823      	ldrb	r3, [r4, #0]
100002d6:	2b00      	cmp	r3, #0
100002d8:	d109      	bne.n	100002ee <__do_global_dtors_aux+0x1e>
100002da:	f7ff ffd5 	bl	10000288 <deregister_tm_clones>
100002de:	4b05      	ldr	r3, [pc, #20]	; (100002f4 <__do_global_dtors_aux+0x24>)
100002e0:	2b00      	cmp	r3, #0
100002e2:	d002      	beq.n	100002ea <__do_global_dtors_aux+0x1a>
100002e4:	4804      	ldr	r0, [pc, #16]	; (100002f8 <__do_global_dtors_aux+0x28>)
100002e6:	e000      	b.n	100002ea <__do_global_dtors_aux+0x1a>
100002e8:	bf00      	nop
100002ea:	2301      	movs	r3, #1
100002ec:	7023      	strb	r3, [r4, #0]
100002ee:	bd10      	pop	{r4, pc}
100002f0:	20000700 	.word	0x20000700
100002f4:	00000000 	.word	0x00000000
100002f8:	10008f5c 	.word	0x10008f5c

100002fc <frame_dummy>:
100002fc:	4b05      	ldr	r3, [pc, #20]	; (10000314 <frame_dummy+0x18>)
100002fe:	b510      	push	{r4, lr}
10000300:	2b00      	cmp	r3, #0
10000302:	d003      	beq.n	1000030c <frame_dummy+0x10>
10000304:	4904      	ldr	r1, [pc, #16]	; (10000318 <frame_dummy+0x1c>)
10000306:	4805      	ldr	r0, [pc, #20]	; (1000031c <frame_dummy+0x20>)
10000308:	e000      	b.n	1000030c <frame_dummy+0x10>
1000030a:	bf00      	nop
1000030c:	f7ff ffcc 	bl	100002a8 <register_tm_clones>
10000310:	bd10      	pop	{r4, pc}
10000312:	46c0      	nop			; (mov r8, r8)
10000314:	00000000 	.word	0x00000000
10000318:	20000704 	.word	0x20000704
1000031c:	10008f5c 	.word	0x10008f5c

10000320 <blink_task>:
10000320:	b5f0      	push	{r4, r5, r6, r7, lr}
10000322:	46c6      	mov	lr, r8
10000324:	25d0      	movs	r5, #208	; 0xd0
10000326:	2780      	movs	r7, #128	; 0x80
10000328:	b500      	push	{lr}
1000032a:	4810      	ldr	r0, [pc, #64]	; (1000036c <blink_task+0x4c>)
1000032c:	f008 fb7a 	bl	10008a24 <__wrap_puts>
10000330:	2019      	movs	r0, #25
10000332:	f004 ffed 	bl	10005310 <gpio_init>
10000336:	4b0e      	ldr	r3, [pc, #56]	; (10000370 <blink_task+0x50>)
10000338:	062d      	lsls	r5, r5, #24
1000033a:	04bf      	lsls	r7, r7, #18
1000033c:	2400      	movs	r4, #0
1000033e:	4698      	mov	r8, r3
10000340:	4e0c      	ldr	r6, [pc, #48]	; (10000374 <blink_task+0x54>)
10000342:	626f      	str	r7, [r5, #36]	; 0x24
10000344:	e006      	b.n	10000354 <blink_task+0x34>
10000346:	616f      	str	r7, [r5, #20]
10000348:	20fa      	movs	r0, #250	; 0xfa
1000034a:	2301      	movs	r3, #1
1000034c:	0040      	lsls	r0, r0, #1
1000034e:	405c      	eors	r4, r3
10000350:	f005 fd34 	bl	10005dbc <busy_wait_ms>
10000354:	6829      	ldr	r1, [r5, #0]
10000356:	6833      	ldr	r3, [r6, #0]
10000358:	428b      	cmp	r3, r1
1000035a:	d003      	beq.n	10000364 <blink_task+0x44>
1000035c:	4640      	mov	r0, r8
1000035e:	6031      	str	r1, [r6, #0]
10000360:	f008 fbea 	bl	10008b38 <__wrap_printf>
10000364:	2c00      	cmp	r4, #0
10000366:	d1ee      	bne.n	10000346 <blink_task+0x26>
10000368:	61af      	str	r7, [r5, #24]
1000036a:	e7ed      	b.n	10000348 <blink_task+0x28>
1000036c:	10008f60 	.word	0x10008f60
10000370:	10008f74 	.word	0x10008f74
10000374:	20000230 	.word	0x20000230

10000378 <main_task>:
10000378:	b5f0      	push	{r4, r5, r6, r7, lr}
1000037a:	46ce      	mov	lr, r9
1000037c:	4647      	mov	r7, r8
1000037e:	b580      	push	{r7, lr}
10000380:	b089      	sub	sp, #36	; 0x24
10000382:	ab05      	add	r3, sp, #20
10000384:	0019      	movs	r1, r3
10000386:	4a21      	ldr	r2, [pc, #132]	; (1000040c <main_task+0x94>)
10000388:	ca31      	ldmia	r2!, {r0, r4, r5}
1000038a:	c131      	stmia	r1!, {r0, r4, r5}
1000038c:	a902      	add	r1, sp, #8
1000038e:	000a      	movs	r2, r1
10000390:	cb31      	ldmia	r3!, {r0, r4, r5}
10000392:	c231      	stmia	r2!, {r0, r4, r5}
10000394:	4c1e      	ldr	r4, [pc, #120]	; (10000410 <main_task+0x98>)
10000396:	0020      	movs	r0, r4
10000398:	f000 fce0 	bl	10000d5c <async_context_freertos_init>
1000039c:	1e43      	subs	r3, r0, #1
1000039e:	4198      	sbcs	r0, r3
100003a0:	4240      	negs	r0, r0
100003a2:	4004      	ands	r4, r0
100003a4:	f005 fcd6 	bl	10005d54 <time_us_64>
100003a8:	1e0b      	subs	r3, r1, #0
100003aa:	db2b      	blt.n	10000404 <main_task+0x8c>
100003ac:	4919      	ldr	r1, [pc, #100]	; (10000414 <main_task+0x9c>)
100003ae:	27d0      	movs	r7, #208	; 0xd0
100003b0:	60cb      	str	r3, [r1, #12]
100003b2:	6823      	ldr	r3, [r4, #0]
100003b4:	6088      	str	r0, [r1, #8]
100003b6:	695b      	ldr	r3, [r3, #20]
100003b8:	0020      	movs	r0, r4
100003ba:	4798      	blx	r3
100003bc:	2300      	movs	r3, #0
100003be:	2280      	movs	r2, #128	; 0x80
100003c0:	9301      	str	r3, [sp, #4]
100003c2:	3301      	adds	r3, #1
100003c4:	9300      	str	r3, [sp, #0]
100003c6:	4914      	ldr	r1, [pc, #80]	; (10000418 <main_task+0xa0>)
100003c8:	2300      	movs	r3, #0
100003ca:	4814      	ldr	r0, [pc, #80]	; (1000041c <main_task+0xa4>)
100003cc:	0092      	lsls	r2, r2, #2
100003ce:	f003 fc5b 	bl	10003c88 <xTaskCreate>
100003d2:	4b13      	ldr	r3, [pc, #76]	; (10000420 <main_task+0xa8>)
100003d4:	2400      	movs	r4, #0
100003d6:	4699      	mov	r9, r3
100003d8:	4b12      	ldr	r3, [pc, #72]	; (10000424 <main_task+0xac>)
100003da:	4e13      	ldr	r6, [pc, #76]	; (10000428 <main_task+0xb0>)
100003dc:	4698      	mov	r8, r3
100003de:	063f      	lsls	r7, r7, #24
100003e0:	6839      	ldr	r1, [r7, #0]
100003e2:	6833      	ldr	r3, [r6, #0]
100003e4:	428b      	cmp	r3, r1
100003e6:	d003      	beq.n	100003f0 <main_task+0x78>
100003e8:	4648      	mov	r0, r9
100003ea:	6031      	str	r1, [r6, #0]
100003ec:	f008 fba4 	bl	10008b38 <__wrap_printf>
100003f0:	0021      	movs	r1, r4
100003f2:	4640      	mov	r0, r8
100003f4:	f008 fba0 	bl	10008b38 <__wrap_printf>
100003f8:	1c65      	adds	r5, r4, #1
100003fa:	480c      	ldr	r0, [pc, #48]	; (1000042c <main_task+0xb4>)
100003fc:	f003 ffda 	bl	100043b4 <vTaskDelay>
10000400:	002c      	movs	r4, r5
10000402:	e7ed      	b.n	100003e0 <main_task+0x68>
10000404:	2001      	movs	r0, #1
10000406:	4b0a      	ldr	r3, [pc, #40]	; (10000430 <main_task+0xb8>)
10000408:	4240      	negs	r0, r0
1000040a:	e7cf      	b.n	100003ac <main_task+0x34>
1000040c:	10009044 	.word	0x10009044
10000410:	20000308 	.word	0x20000308
10000414:	20000238 	.word	0x20000238
10000418:	10008f90 	.word	0x10008f90
1000041c:	10000321 	.word	0x10000321
10000420:	10008f9c 	.word	0x10008f9c
10000424:	10008fb8 	.word	0x10008fb8
10000428:	20000228 	.word	0x20000228
1000042c:	00000bb8 	.word	0x00000bb8
10000430:	7fffffff 	.word	0x7fffffff

10000434 <async_do_work>:
10000434:	b570      	push	{r4, r5, r6, lr}
10000436:	0004      	movs	r4, r0
10000438:	000d      	movs	r5, r1
1000043a:	f005 fc8b 	bl	10005d54 <time_us_64>
1000043e:	2300      	movs	r3, #0
10000440:	4a11      	ldr	r2, [pc, #68]	; (10000488 <async_do_work+0x54>)
10000442:	1812      	adds	r2, r2, r0
10000444:	414b      	adcs	r3, r1
10000446:	2b00      	cmp	r3, #0
10000448:	db19      	blt.n	1000047e <async_do_work+0x4a>
1000044a:	60aa      	str	r2, [r5, #8]
1000044c:	60eb      	str	r3, [r5, #12]
1000044e:	6823      	ldr	r3, [r4, #0]
10000450:	0029      	movs	r1, r5
10000452:	695b      	ldr	r3, [r3, #20]
10000454:	0020      	movs	r0, r4
10000456:	4798      	blx	r3
10000458:	4b0c      	ldr	r3, [pc, #48]	; (1000048c <async_do_work+0x58>)
1000045a:	480d      	ldr	r0, [pc, #52]	; (10000490 <async_do_work+0x5c>)
1000045c:	6819      	ldr	r1, [r3, #0]
1000045e:	1c4a      	adds	r2, r1, #1
10000460:	601a      	str	r2, [r3, #0]
10000462:	f008 fb69 	bl	10008b38 <__wrap_printf>
10000466:	23d0      	movs	r3, #208	; 0xd0
10000468:	061b      	lsls	r3, r3, #24
1000046a:	6819      	ldr	r1, [r3, #0]
1000046c:	4b09      	ldr	r3, [pc, #36]	; (10000494 <async_do_work+0x60>)
1000046e:	681a      	ldr	r2, [r3, #0]
10000470:	428a      	cmp	r2, r1
10000472:	d003      	beq.n	1000047c <async_do_work+0x48>
10000474:	4808      	ldr	r0, [pc, #32]	; (10000498 <async_do_work+0x64>)
10000476:	6019      	str	r1, [r3, #0]
10000478:	f008 fb5e 	bl	10008b38 <__wrap_printf>
1000047c:	bd70      	pop	{r4, r5, r6, pc}
1000047e:	2201      	movs	r2, #1
10000480:	4b06      	ldr	r3, [pc, #24]	; (1000049c <async_do_work+0x68>)
10000482:	4252      	negs	r2, r2
10000484:	e7e1      	b.n	1000044a <async_do_work+0x16>
10000486:	46c0      	nop			; (mov r8, r8)
10000488:	00989680 	.word	0x00989680
1000048c:	20000754 	.word	0x20000754
10000490:	10008fd8 	.word	0x10008fd8
10000494:	2000022c 	.word	0x2000022c
10000498:	10008ff4 	.word	0x10008ff4
1000049c:	7fffffff 	.word	0x7fffffff

100004a0 <vLaunch>:
100004a0:	b500      	push	{lr}
100004a2:	b085      	sub	sp, #20
100004a4:	ab03      	add	r3, sp, #12
100004a6:	9301      	str	r3, [sp, #4]
100004a8:	2280      	movs	r2, #128	; 0x80
100004aa:	2302      	movs	r3, #2
100004ac:	0092      	lsls	r2, r2, #2
100004ae:	9300      	str	r3, [sp, #0]
100004b0:	4906      	ldr	r1, [pc, #24]	; (100004cc <vLaunch+0x2c>)
100004b2:	2300      	movs	r3, #0
100004b4:	4806      	ldr	r0, [pc, #24]	; (100004d0 <vLaunch+0x30>)
100004b6:	f003 fbe7 	bl	10003c88 <xTaskCreate>
100004ba:	2101      	movs	r1, #1
100004bc:	9803      	ldr	r0, [sp, #12]
100004be:	f002 faab 	bl	10002a18 <vTaskCoreAffinitySet>
100004c2:	f003 fd75 	bl	10003fb0 <vTaskStartScheduler>
100004c6:	b005      	add	sp, #20
100004c8:	bd00      	pop	{pc}
100004ca:	46c0      	nop			; (mov r8, r8)
100004cc:	1000900c 	.word	0x1000900c
100004d0:	10000379 	.word	0x10000379

100004d4 <main>:
100004d4:	b510      	push	{r4, lr}
100004d6:	f008 fa53 	bl	10008980 <stdio_init_all>
100004da:	f000 f80d 	bl	100004f8 <spi_main>
100004de:	4904      	ldr	r1, [pc, #16]	; (100004f0 <main+0x1c>)
100004e0:	4804      	ldr	r0, [pc, #16]	; (100004f4 <main+0x20>)
100004e2:	f008 fb29 	bl	10008b38 <__wrap_printf>
100004e6:	f7ff ffdb 	bl	100004a0 <vLaunch>
100004ea:	2000      	movs	r0, #0
100004ec:	bd10      	pop	{r4, pc}
100004ee:	46c0      	nop			; (mov r8, r8)
100004f0:	10009018 	.word	0x10009018
100004f4:	10009028 	.word	0x10009028

100004f8 <spi_main>:
100004f8:	b5f0      	push	{r4, r5, r6, r7, lr}
100004fa:	46de      	mov	lr, fp
100004fc:	4657      	mov	r7, sl
100004fe:	464e      	mov	r6, r9
10000500:	4645      	mov	r5, r8
10000502:	b5e0      	push	{r5, r6, r7, lr}
10000504:	4c46      	ldr	r4, [pc, #280]	; (10000620 <spi_main+0x128>)
10000506:	4847      	ldr	r0, [pc, #284]	; (10000624 <spi_main+0x12c>)
10000508:	44a5      	add	sp, r4
1000050a:	4c47      	ldr	r4, [pc, #284]	; (10000628 <spi_main+0x130>)
1000050c:	f008 fa8a 	bl	10008a24 <__wrap_puts>
10000510:	4946      	ldr	r1, [pc, #280]	; (1000062c <spi_main+0x134>)
10000512:	0020      	movs	r0, r4
10000514:	f008 fc0e 	bl	10008d34 <spi_init>
10000518:	2302      	movs	r3, #2
1000051a:	204a      	movs	r0, #74	; 0x4a
1000051c:	4944      	ldr	r1, [pc, #272]	; (10000630 <spi_main+0x138>)
1000051e:	6862      	ldr	r2, [r4, #4]
10000520:	600b      	str	r3, [r1, #0]
10000522:	4688      	mov	r8, r1
10000524:	6821      	ldr	r1, [r4, #0]
10000526:	4f43      	ldr	r7, [pc, #268]	; (10000634 <spi_main+0x13c>)
10000528:	4048      	eors	r0, r1
1000052a:	21cf      	movs	r1, #207	; 0xcf
1000052c:	4001      	ands	r1, r0
1000052e:	4842      	ldr	r0, [pc, #264]	; (10000638 <spi_main+0x140>)
10000530:	401a      	ands	r2, r3
10000532:	6001      	str	r1, [r0, #0]
10000534:	4641      	mov	r1, r8
10000536:	603a      	str	r2, [r7, #0]
10000538:	6862      	ldr	r2, [r4, #4]
1000053a:	600b      	str	r3, [r1, #0]
1000053c:	401a      	ands	r2, r3
1000053e:	3302      	adds	r3, #2
10000540:	603b      	str	r3, [r7, #0]
10000542:	2101      	movs	r1, #1
10000544:	603a      	str	r2, [r7, #0]
10000546:	2010      	movs	r0, #16
10000548:	f004 fec8 	bl	100052dc <gpio_set_function>
1000054c:	2101      	movs	r1, #1
1000054e:	2012      	movs	r0, #18
10000550:	f004 fec4 	bl	100052dc <gpio_set_function>
10000554:	2101      	movs	r1, #1
10000556:	2013      	movs	r0, #19
10000558:	f004 fec0 	bl	100052dc <gpio_set_function>
1000055c:	4b37      	ldr	r3, [pc, #220]	; (1000063c <spi_main+0x144>)
1000055e:	2602      	movs	r6, #2
10000560:	469b      	mov	fp, r3
10000562:	4b37      	ldr	r3, [pc, #220]	; (10000640 <spi_main+0x148>)
10000564:	469a      	mov	sl, r3
10000566:	4b37      	ldr	r3, [pc, #220]	; (10000644 <spi_main+0x14c>)
10000568:	4699      	mov	r9, r3
1000056a:	e01b      	b.n	100005a4 <spi_main+0xac>
1000056c:	206f      	movs	r0, #111	; 0x6f
1000056e:	f008 fa0d 	bl	1000898c <__wrap_putchar>
10000572:	0021      	movs	r1, r4
10000574:	4650      	mov	r0, sl
10000576:	f008 fadf 	bl	10008b38 <__wrap_printf>
1000057a:	466b      	mov	r3, sp
1000057c:	881b      	ldrh	r3, [r3, #0]
1000057e:	421e      	tst	r6, r3
10000580:	d143      	bne.n	1000060a <spi_main+0x112>
10000582:	2050      	movs	r0, #80	; 0x50
10000584:	f008 fa02 	bl	1000898c <__wrap_putchar>
10000588:	466b      	mov	r3, sp
1000058a:	881b      	ldrh	r3, [r3, #0]
1000058c:	07db      	lsls	r3, r3, #31
1000058e:	d443      	bmi.n	10000618 <spi_main+0x120>
10000590:	482d      	ldr	r0, [pc, #180]	; (10000648 <spi_main+0x150>)
10000592:	f008 fad1 	bl	10008b38 <__wrap_printf>
10000596:	0029      	movs	r1, r5
10000598:	4648      	mov	r0, r9
1000059a:	f008 facd 	bl	10008b38 <__wrap_printf>
1000059e:	4643      	mov	r3, r8
100005a0:	601e      	str	r6, [r3, #0]
100005a2:	603e      	str	r6, [r7, #0]
100005a4:	466a      	mov	r2, sp
100005a6:	2301      	movs	r3, #1
100005a8:	2100      	movs	r1, #0
100005aa:	481f      	ldr	r0, [pc, #124]	; (10000628 <spi_main+0x130>)
100005ac:	f008 fca4 	bl	10008ef8 <__spi_read16_blocking_veneer>
100005b0:	466b      	mov	r3, sp
100005b2:	4658      	mov	r0, fp
100005b4:	8819      	ldrh	r1, [r3, #0]
100005b6:	f008 fabf 	bl	10008b38 <__wrap_printf>
100005ba:	466b      	mov	r3, sp
100005bc:	2240      	movs	r2, #64	; 0x40
100005be:	881b      	ldrh	r3, [r3, #0]
100005c0:	089c      	lsrs	r4, r3, #2
100005c2:	b2e4      	uxtb	r4, r4
100005c4:	09e5      	lsrs	r5, r4, #7
100005c6:	4222      	tst	r2, r4
100005c8:	d001      	beq.n	100005ce <spi_main+0xd6>
100005ca:	3a3e      	subs	r2, #62	; 0x3e
100005cc:	4315      	orrs	r5, r2
100005ce:	06a2      	lsls	r2, r4, #26
100005d0:	d501      	bpl.n	100005d6 <spi_main+0xde>
100005d2:	2204      	movs	r2, #4
100005d4:	4315      	orrs	r5, r2
100005d6:	06e2      	lsls	r2, r4, #27
100005d8:	d501      	bpl.n	100005de <spi_main+0xe6>
100005da:	2208      	movs	r2, #8
100005dc:	4315      	orrs	r5, r2
100005de:	0722      	lsls	r2, r4, #28
100005e0:	d501      	bpl.n	100005e6 <spi_main+0xee>
100005e2:	2210      	movs	r2, #16
100005e4:	4315      	orrs	r5, r2
100005e6:	0762      	lsls	r2, r4, #29
100005e8:	d501      	bpl.n	100005ee <spi_main+0xf6>
100005ea:	2220      	movs	r2, #32
100005ec:	4315      	orrs	r5, r2
100005ee:	4226      	tst	r6, r4
100005f0:	d001      	beq.n	100005f6 <spi_main+0xfe>
100005f2:	2240      	movs	r2, #64	; 0x40
100005f4:	4315      	orrs	r5, r2
100005f6:	07e2      	lsls	r2, r4, #31
100005f8:	d501      	bpl.n	100005fe <spi_main+0x106>
100005fa:	2280      	movs	r2, #128	; 0x80
100005fc:	4315      	orrs	r5, r2
100005fe:	055b      	lsls	r3, r3, #21
10000600:	d5b4      	bpl.n	1000056c <spi_main+0x74>
10000602:	2078      	movs	r0, #120	; 0x78
10000604:	f008 f9c2 	bl	1000898c <__wrap_putchar>
10000608:	e7b3      	b.n	10000572 <spi_main+0x7a>
1000060a:	2058      	movs	r0, #88	; 0x58
1000060c:	f008 f9be 	bl	1000898c <__wrap_putchar>
10000610:	466b      	mov	r3, sp
10000612:	881b      	ldrh	r3, [r3, #0]
10000614:	07db      	lsls	r3, r3, #31
10000616:	d5bb      	bpl.n	10000590 <spi_main+0x98>
10000618:	480c      	ldr	r0, [pc, #48]	; (1000064c <spi_main+0x154>)
1000061a:	f008 fa8d 	bl	10008b38 <__wrap_printf>
1000061e:	e7ba      	b.n	10000596 <spi_main+0x9e>
10000620:	fffffdfc 	.word	0xfffffdfc
10000624:	10009050 	.word	0x10009050
10000628:	4003c000 	.word	0x4003c000
1000062c:	000c3500 	.word	0x000c3500
10000630:	4003f004 	.word	0x4003f004
10000634:	4003e004 	.word	0x4003e004
10000638:	4003d000 	.word	0x4003d000
1000063c:	10009064 	.word	0x10009064
10000640:	10009070 	.word	0x10009070
10000644:	10009080 	.word	0x10009080
10000648:	10009078 	.word	0x10009078
1000064c:	1000907c 	.word	0x1000907c

10000650 <end_task_func>:
10000650:	2331      	movs	r3, #49	; 0x31
10000652:	2201      	movs	r2, #1
10000654:	54c2      	strb	r2, [r0, r3]
10000656:	2000      	movs	r0, #0
10000658:	4770      	bx	lr
1000065a:	46c0      	nop			; (mov r8, r8)

1000065c <async_context_freertos_lock_check>:
1000065c:	4770      	bx	lr
1000065e:	46c0      	nop			; (mov r8, r8)

10000660 <async_context_freertos_acquire_lock_blocking>:
10000660:	2101      	movs	r1, #1
10000662:	b510      	push	{r4, lr}
10000664:	4249      	negs	r1, r1
10000666:	0004      	movs	r4, r0
10000668:	6a00      	ldr	r0, [r0, #32]
1000066a:	f001 fd7f 	bl	1000216c <xQueueTakeMutexRecursive>
1000066e:	2230      	movs	r2, #48	; 0x30
10000670:	5ca3      	ldrb	r3, [r4, r2]
10000672:	3301      	adds	r3, #1
10000674:	54a3      	strb	r3, [r4, r2]
10000676:	bd10      	pop	{r4, pc}

10000678 <handle_sync_func_call>:
10000678:	b510      	push	{r4, lr}
1000067a:	694b      	ldr	r3, [r1, #20]
1000067c:	6988      	ldr	r0, [r1, #24]
1000067e:	000c      	movs	r4, r1
10000680:	4798      	blx	r3
10000682:	2300      	movs	r3, #0
10000684:	61e0      	str	r0, [r4, #28]
10000686:	2200      	movs	r2, #0
10000688:	2100      	movs	r1, #0
1000068a:	6920      	ldr	r0, [r4, #16]
1000068c:	f001 fa2c 	bl	10001ae8 <xQueueGenericSend>
10000690:	bd10      	pop	{r4, pc}
10000692:	46c0      	nop			; (mov r8, r8)

10000694 <async_context_freertos_wait_until>:
10000694:	b570      	push	{r4, r5, r6, lr}
10000696:	0014      	movs	r4, r2
10000698:	001d      	movs	r5, r3
1000069a:	f005 fb5b 	bl	10005d54 <time_us_64>
1000069e:	1a24      	subs	r4, r4, r0
100006a0:	418d      	sbcs	r5, r1
100006a2:	2d00      	cmp	r5, #0
100006a4:	dd03      	ble.n	100006ae <async_context_freertos_wait_until+0x1a>
100006a6:	4810      	ldr	r0, [pc, #64]	; (100006e8 <async_context_freertos_wait_until+0x54>)
100006a8:	f003 fe84 	bl	100043b4 <vTaskDelay>
100006ac:	bd70      	pop	{r4, r5, r6, pc}
100006ae:	2d00      	cmp	r5, #0
100006b0:	d117      	bne.n	100006e2 <async_context_freertos_wait_until+0x4e>
100006b2:	2c00      	cmp	r4, #0
100006b4:	d015      	beq.n	100006e2 <async_context_freertos_wait_until+0x4e>
100006b6:	4b0d      	ldr	r3, [pc, #52]	; (100006ec <async_context_freertos_wait_until+0x58>)
100006b8:	429c      	cmp	r4, r3
100006ba:	d8f4      	bhi.n	100006a6 <async_context_freertos_wait_until+0x12>
100006bc:	21fa      	movs	r1, #250	; 0xfa
100006be:	4b0c      	ldr	r3, [pc, #48]	; (100006f0 <async_context_freertos_wait_until+0x5c>)
100006c0:	0089      	lsls	r1, r1, #2
100006c2:	18e0      	adds	r0, r4, r3
100006c4:	f005 fe9a 	bl	100063fc <__wrap___aeabi_uidiv>
100006c8:	22fa      	movs	r2, #250	; 0xfa
100006ca:	2300      	movs	r3, #0
100006cc:	0092      	lsls	r2, r2, #2
100006ce:	2100      	movs	r1, #0
100006d0:	f006 fcb6 	bl	10007040 <__wrap___aeabi_lmul>
100006d4:	22fa      	movs	r2, #250	; 0xfa
100006d6:	2300      	movs	r3, #0
100006d8:	0092      	lsls	r2, r2, #2
100006da:	f005 fecd 	bl	10006478 <__wrap___aeabi_uldivmod>
100006de:	3001      	adds	r0, #1
100006e0:	e7e2      	b.n	100006a8 <async_context_freertos_wait_until+0x14>
100006e2:	2000      	movs	r0, #0
100006e4:	e7e0      	b.n	100006a8 <async_context_freertos_wait_until+0x14>
100006e6:	46c0      	nop			; (mov r8, r8)
100006e8:	0000ea61 	.word	0x0000ea61
100006ec:	03938700 	.word	0x03938700
100006f0:	000003e7 	.word	0x000003e7

100006f4 <async_context_freertos_deinit>:
100006f4:	b510      	push	{r4, lr}
100006f6:	6ac3      	ldr	r3, [r0, #44]	; 0x2c
100006f8:	0004      	movs	r4, r0
100006fa:	b082      	sub	sp, #8
100006fc:	2b00      	cmp	r3, #0
100006fe:	d004      	beq.n	1000070a <async_context_freertos_deinit+0x16>
10000700:	6803      	ldr	r3, [r0, #0]
10000702:	0002      	movs	r2, r0
10000704:	691b      	ldr	r3, [r3, #16]
10000706:	490e      	ldr	r1, [pc, #56]	; (10000740 <async_context_freertos_deinit+0x4c>)
10000708:	4798      	blx	r3
1000070a:	6aa0      	ldr	r0, [r4, #40]	; 0x28
1000070c:	2800      	cmp	r0, #0
1000070e:	d005      	beq.n	1000071c <async_context_freertos_deinit+0x28>
10000710:	2300      	movs	r3, #0
10000712:	2200      	movs	r2, #0
10000714:	2105      	movs	r1, #5
10000716:	9300      	str	r3, [sp, #0]
10000718:	f004 fc64 	bl	10004fe4 <xTimerGenericCommandFromTask>
1000071c:	6a20      	ldr	r0, [r4, #32]
1000071e:	2800      	cmp	r0, #0
10000720:	d001      	beq.n	10000726 <async_context_freertos_deinit+0x32>
10000722:	f001 fd3b 	bl	1000219c <vQueueDelete>
10000726:	6a60      	ldr	r0, [r4, #36]	; 0x24
10000728:	2800      	cmp	r0, #0
1000072a:	d001      	beq.n	10000730 <async_context_freertos_deinit+0x3c>
1000072c:	f001 fd36 	bl	1000219c <vQueueDelete>
10000730:	2238      	movs	r2, #56	; 0x38
10000732:	2100      	movs	r1, #0
10000734:	0020      	movs	r0, r4
10000736:	f006 fced 	bl	10007114 <__wrap_memset>
1000073a:	b002      	add	sp, #8
1000073c:	bd10      	pop	{r4, pc}
1000073e:	46c0      	nop			; (mov r8, r8)
10000740:	10000651 	.word	0x10000651

10000744 <async_context_freertos_execute_sync>:
10000744:	b5f0      	push	{r4, r5, r6, r7, lr}
10000746:	0004      	movs	r4, r0
10000748:	b08b      	sub	sp, #44	; 0x2c
1000074a:	6a00      	ldr	r0, [r0, #32]
1000074c:	000e      	movs	r6, r1
1000074e:	0015      	movs	r5, r2
10000750:	f001 f9bc 	bl	10001acc <xQueueGetMutexHolder>
10000754:	0007      	movs	r7, r0
10000756:	f002 ffd3 	bl	10003700 <xTaskGetCurrentTaskHandle>
1000075a:	4287      	cmp	r7, r0
1000075c:	d027      	beq.n	100007ae <async_context_freertos_execute_sync+0x6a>
1000075e:	4b15      	ldr	r3, [pc, #84]	; (100007b4 <async_context_freertos_execute_sync+0x70>)
10000760:	2203      	movs	r2, #3
10000762:	2100      	movs	r1, #0
10000764:	2001      	movs	r0, #1
10000766:	9303      	str	r3, [sp, #12]
10000768:	9607      	str	r6, [sp, #28]
1000076a:	9508      	str	r5, [sp, #32]
1000076c:	f001 f95e 	bl	10001a2c <xQueueGenericCreate>
10000770:	6823      	ldr	r3, [r4, #0]
10000772:	9006      	str	r0, [sp, #24]
10000774:	a902      	add	r1, sp, #8
10000776:	0020      	movs	r0, r4
10000778:	69db      	ldr	r3, [r3, #28]
1000077a:	4798      	blx	r3
1000077c:	6823      	ldr	r3, [r4, #0]
1000077e:	0020      	movs	r0, r4
10000780:	a902      	add	r1, sp, #8
10000782:	6a5b      	ldr	r3, [r3, #36]	; 0x24
10000784:	4798      	blx	r3
10000786:	2101      	movs	r1, #1
10000788:	9b06      	ldr	r3, [sp, #24]
1000078a:	4249      	negs	r1, r1
1000078c:	0018      	movs	r0, r3
1000078e:	9301      	str	r3, [sp, #4]
10000790:	f001 fc44 	bl	1000201c <xQueueSemaphoreTake>
10000794:	6823      	ldr	r3, [r4, #0]
10000796:	a902      	add	r1, sp, #8
10000798:	0020      	movs	r0, r4
1000079a:	6a1b      	ldr	r3, [r3, #32]
1000079c:	4798      	blx	r3
1000079e:	9b06      	ldr	r3, [sp, #24]
100007a0:	0018      	movs	r0, r3
100007a2:	9301      	str	r3, [sp, #4]
100007a4:	f001 fcfa 	bl	1000219c <vQueueDelete>
100007a8:	9809      	ldr	r0, [sp, #36]	; 0x24
100007aa:	b00b      	add	sp, #44	; 0x2c
100007ac:	bdf0      	pop	{r4, r5, r6, r7, pc}
100007ae:	f005 fd0b 	bl	100061c8 <hard_assertion_failure>
100007b2:	e7d4      	b.n	1000075e <async_context_freertos_execute_sync+0x1a>
100007b4:	10000679 	.word	0x10000679

100007b8 <async_context_freertos_wait_for_work_until>:
100007b8:	b5f8      	push	{r3, r4, r5, r6, r7, lr}
100007ba:	0007      	movs	r7, r0
100007bc:	0014      	movs	r4, r2
100007be:	001d      	movs	r5, r3
100007c0:	001e      	movs	r6, r3
100007c2:	4b1d      	ldr	r3, [pc, #116]	; (10000838 <async_context_freertos_wait_for_work_until+0x80>)
100007c4:	6a5a      	ldr	r2, [r3, #36]	; 0x24
100007c6:	4296      	cmp	r6, r2
100007c8:	d805      	bhi.n	100007d6 <async_context_freertos_wait_for_work_until+0x1e>
100007ca:	6a9b      	ldr	r3, [r3, #40]	; 0x28
100007cc:	42a3      	cmp	r3, r4
100007ce:	d300      	bcc.n	100007d2 <async_context_freertos_wait_for_work_until+0x1a>
100007d0:	bdf8      	pop	{r3, r4, r5, r6, r7, pc}
100007d2:	4296      	cmp	r6, r2
100007d4:	d1fc      	bne.n	100007d0 <async_context_freertos_wait_for_work_until+0x18>
100007d6:	f005 fabd 	bl	10005d54 <time_us_64>
100007da:	0022      	movs	r2, r4
100007dc:	002b      	movs	r3, r5
100007de:	1a12      	subs	r2, r2, r0
100007e0:	418b      	sbcs	r3, r1
100007e2:	0010      	movs	r0, r2
100007e4:	2b00      	cmp	r3, #0
100007e6:	dd06      	ble.n	100007f6 <async_context_freertos_wait_for_work_until+0x3e>
100007e8:	4914      	ldr	r1, [pc, #80]	; (1000083c <async_context_freertos_wait_for_work_until+0x84>)
100007ea:	6a78      	ldr	r0, [r7, #36]	; 0x24
100007ec:	f001 fc16 	bl	1000201c <xQueueSemaphoreTake>
100007f0:	2800      	cmp	r0, #0
100007f2:	d0e6      	beq.n	100007c2 <async_context_freertos_wait_for_work_until+0xa>
100007f4:	e7ec      	b.n	100007d0 <async_context_freertos_wait_for_work_until+0x18>
100007f6:	2b00      	cmp	r3, #0
100007f8:	d1ea      	bne.n	100007d0 <async_context_freertos_wait_for_work_until+0x18>
100007fa:	2a00      	cmp	r2, #0
100007fc:	d0e8      	beq.n	100007d0 <async_context_freertos_wait_for_work_until+0x18>
100007fe:	4b10      	ldr	r3, [pc, #64]	; (10000840 <async_context_freertos_wait_for_work_until+0x88>)
10000800:	429a      	cmp	r2, r3
10000802:	d8f1      	bhi.n	100007e8 <async_context_freertos_wait_for_work_until+0x30>
10000804:	4b0f      	ldr	r3, [pc, #60]	; (10000844 <async_context_freertos_wait_for_work_until+0x8c>)
10000806:	21fa      	movs	r1, #250	; 0xfa
10000808:	469c      	mov	ip, r3
1000080a:	0089      	lsls	r1, r1, #2
1000080c:	4460      	add	r0, ip
1000080e:	f005 fdf5 	bl	100063fc <__wrap___aeabi_uidiv>
10000812:	22fa      	movs	r2, #250	; 0xfa
10000814:	2300      	movs	r3, #0
10000816:	0092      	lsls	r2, r2, #2
10000818:	2100      	movs	r1, #0
1000081a:	f006 fc11 	bl	10007040 <__wrap___aeabi_lmul>
1000081e:	22fa      	movs	r2, #250	; 0xfa
10000820:	2300      	movs	r3, #0
10000822:	0092      	lsls	r2, r2, #2
10000824:	f005 fe28 	bl	10006478 <__wrap___aeabi_uldivmod>
10000828:	1c41      	adds	r1, r0, #1
1000082a:	6a78      	ldr	r0, [r7, #36]	; 0x24
1000082c:	f001 fbf6 	bl	1000201c <xQueueSemaphoreTake>
10000830:	2800      	cmp	r0, #0
10000832:	d0c6      	beq.n	100007c2 <async_context_freertos_wait_for_work_until+0xa>
10000834:	e7cc      	b.n	100007d0 <async_context_freertos_wait_for_work_until+0x18>
10000836:	46c0      	nop			; (mov r8, r8)
10000838:	40054000 	.word	0x40054000
1000083c:	0000ea61 	.word	0x0000ea61
10000840:	03938700 	.word	0x03938700
10000844:	000003e7 	.word	0x000003e7

10000848 <process_under_lock>:
10000848:	b5f0      	push	{r4, r5, r6, r7, lr}
1000084a:	46c6      	mov	lr, r8
1000084c:	4b1f      	ldr	r3, [pc, #124]	; (100008cc <process_under_lock+0x84>)
1000084e:	0006      	movs	r6, r0
10000850:	681f      	ldr	r7, [r3, #0]
10000852:	685b      	ldr	r3, [r3, #4]
10000854:	b500      	push	{lr}
10000856:	4698      	mov	r8, r3
10000858:	b082      	sub	sp, #8
1000085a:	0030      	movs	r0, r6
1000085c:	f000 fb24 	bl	10000ea8 <async_context_base_execute_once>
10000860:	0004      	movs	r4, r0
10000862:	000d      	movs	r5, r1
10000864:	42b8      	cmp	r0, r7
10000866:	d101      	bne.n	1000086c <process_under_lock+0x24>
10000868:	4541      	cmp	r1, r8
1000086a:	d02c      	beq.n	100008c6 <process_under_lock+0x7e>
1000086c:	f005 fa72 	bl	10005d54 <time_us_64>
10000870:	1a24      	subs	r4, r4, r0
10000872:	418d      	sbcs	r5, r1
10000874:	2d00      	cmp	r5, #0
10000876:	dd0c      	ble.n	10000892 <process_under_lock+0x4a>
10000878:	4a15      	ldr	r2, [pc, #84]	; (100008d0 <process_under_lock+0x88>)
1000087a:	2300      	movs	r3, #0
1000087c:	2104      	movs	r1, #4
1000087e:	6ab0      	ldr	r0, [r6, #40]	; 0x28
10000880:	9200      	str	r2, [sp, #0]
10000882:	f004 fbaf 	bl	10004fe4 <xTimerGenericCommandFromTask>
10000886:	2800      	cmp	r0, #0
10000888:	d0e7      	beq.n	1000085a <process_under_lock+0x12>
1000088a:	b002      	add	sp, #8
1000088c:	bc80      	pop	{r7}
1000088e:	46b8      	mov	r8, r7
10000890:	bdf0      	pop	{r4, r5, r6, r7, pc}
10000892:	2d00      	cmp	r5, #0
10000894:	d1e1      	bne.n	1000085a <process_under_lock+0x12>
10000896:	2c00      	cmp	r4, #0
10000898:	d0df      	beq.n	1000085a <process_under_lock+0x12>
1000089a:	4b0e      	ldr	r3, [pc, #56]	; (100008d4 <process_under_lock+0x8c>)
1000089c:	429c      	cmp	r4, r3
1000089e:	d8eb      	bhi.n	10000878 <process_under_lock+0x30>
100008a0:	21fa      	movs	r1, #250	; 0xfa
100008a2:	4b0d      	ldr	r3, [pc, #52]	; (100008d8 <process_under_lock+0x90>)
100008a4:	0089      	lsls	r1, r1, #2
100008a6:	18e0      	adds	r0, r4, r3
100008a8:	f005 fda8 	bl	100063fc <__wrap___aeabi_uidiv>
100008ac:	22fa      	movs	r2, #250	; 0xfa
100008ae:	2300      	movs	r3, #0
100008b0:	0092      	lsls	r2, r2, #2
100008b2:	2100      	movs	r1, #0
100008b4:	f006 fbc4 	bl	10007040 <__wrap___aeabi_lmul>
100008b8:	22fa      	movs	r2, #250	; 0xfa
100008ba:	2300      	movs	r3, #0
100008bc:	0092      	lsls	r2, r2, #2
100008be:	f005 fddb 	bl	10006478 <__wrap___aeabi_uldivmod>
100008c2:	1c42      	adds	r2, r0, #1
100008c4:	e7d9      	b.n	1000087a <process_under_lock+0x32>
100008c6:	2201      	movs	r2, #1
100008c8:	4252      	negs	r2, r2
100008ca:	e7d6      	b.n	1000087a <process_under_lock+0x32>
100008cc:	10009170 	.word	0x10009170
100008d0:	0000ea61 	.word	0x0000ea61
100008d4:	03938700 	.word	0x03938700
100008d8:	000003e7 	.word	0x000003e7

100008dc <async_context_freertos_release_lock>:
100008dc:	b570      	push	{r4, r5, r6, lr}
100008de:	2530      	movs	r5, #48	; 0x30
100008e0:	5d43      	ldrb	r3, [r0, r5]
100008e2:	0004      	movs	r4, r0
100008e4:	b082      	sub	sp, #8
100008e6:	2b01      	cmp	r3, #1
100008e8:	d006      	beq.n	100008f8 <async_context_freertos_release_lock+0x1c>
100008ea:	3b01      	subs	r3, #1
100008ec:	5563      	strb	r3, [r4, r5]
100008ee:	6a20      	ldr	r0, [r4, #32]
100008f0:	f001 fa16 	bl	10001d20 <xQueueGiveMutexRecursive>
100008f4:	b002      	add	sp, #8
100008f6:	bd70      	pop	{r4, r5, r6, pc}
100008f8:	6ac6      	ldr	r6, [r0, #44]	; 0x2c
100008fa:	f002 ff01 	bl	10003700 <xTaskGetCurrentTaskHandle>
100008fe:	4286      	cmp	r6, r0
10000900:	d029      	beq.n	10000956 <async_context_freertos_release_lock+0x7a>
10000902:	5d63      	ldrb	r3, [r4, r5]
10000904:	3b01      	subs	r3, #1
10000906:	5563      	strb	r3, [r4, r5]
10000908:	6a20      	ldr	r0, [r4, #32]
1000090a:	f001 fa09 	bl	10001d20 <xQueueGiveMutexRecursive>
1000090e:	6ae0      	ldr	r0, [r4, #44]	; 0x2c
10000910:	2800      	cmp	r0, #0
10000912:	d0ef      	beq.n	100008f4 <async_context_freertos_release_lock+0x18>
10000914:	f3ef 8505 	mrs	r5, IPSR
10000918:	b2ed      	uxtb	r5, r5
1000091a:	2d00      	cmp	r5, #0
1000091c:	d112      	bne.n	10000944 <async_context_freertos_release_lock+0x68>
1000091e:	f002 feef 	bl	10003700 <xTaskGetCurrentTaskHandle>
10000922:	6ae6      	ldr	r6, [r4, #44]	; 0x2c
10000924:	4286      	cmp	r6, r0
10000926:	d0e5      	beq.n	100008f4 <async_context_freertos_release_lock+0x18>
10000928:	2302      	movs	r3, #2
1000092a:	2200      	movs	r2, #0
1000092c:	2100      	movs	r1, #0
1000092e:	0030      	movs	r0, r6
10000930:	9500      	str	r5, [sp, #0]
10000932:	f003 ff65 	bl	10004800 <xTaskGenericNotify>
10000936:	2300      	movs	r3, #0
10000938:	2200      	movs	r2, #0
1000093a:	2100      	movs	r1, #0
1000093c:	6a60      	ldr	r0, [r4, #36]	; 0x24
1000093e:	f001 f8d3 	bl	10001ae8 <xQueueGenericSend>
10000942:	e7d7      	b.n	100008f4 <async_context_freertos_release_lock+0x18>
10000944:	2200      	movs	r2, #0
10000946:	2100      	movs	r1, #0
10000948:	f004 f84e 	bl	100049e8 <vTaskGenericNotifyGiveFromISR>
1000094c:	2100      	movs	r1, #0
1000094e:	6a60      	ldr	r0, [r4, #36]	; 0x24
10000950:	f001 fa98 	bl	10001e84 <xQueueGiveFromISR>
10000954:	e7ce      	b.n	100008f4 <async_context_freertos_release_lock+0x18>
10000956:	0020      	movs	r0, r4
10000958:	f7ff ff76 	bl	10000848 <process_under_lock>
1000095c:	5d63      	ldrb	r3, [r4, r5]
1000095e:	e7c4      	b.n	100008ea <async_context_freertos_release_lock+0xe>

10000960 <async_context_freertos_set_work_pending>:
10000960:	2301      	movs	r3, #1
10000962:	b570      	push	{r4, r5, r6, lr}
10000964:	0004      	movs	r4, r0
10000966:	6ac0      	ldr	r0, [r0, #44]	; 0x2c
10000968:	b082      	sub	sp, #8
1000096a:	720b      	strb	r3, [r1, #8]
1000096c:	2800      	cmp	r0, #0
1000096e:	d00c      	beq.n	1000098a <async_context_freertos_set_work_pending+0x2a>
10000970:	f3ef 8505 	mrs	r5, IPSR
10000974:	b2ed      	uxtb	r5, r5
10000976:	2d00      	cmp	r5, #0
10000978:	d009      	beq.n	1000098e <async_context_freertos_set_work_pending+0x2e>
1000097a:	2100      	movs	r1, #0
1000097c:	2200      	movs	r2, #0
1000097e:	f004 f833 	bl	100049e8 <vTaskGenericNotifyGiveFromISR>
10000982:	2100      	movs	r1, #0
10000984:	6a60      	ldr	r0, [r4, #36]	; 0x24
10000986:	f001 fa7d 	bl	10001e84 <xQueueGiveFromISR>
1000098a:	b002      	add	sp, #8
1000098c:	bd70      	pop	{r4, r5, r6, pc}
1000098e:	f002 feb7 	bl	10003700 <xTaskGetCurrentTaskHandle>
10000992:	6ae6      	ldr	r6, [r4, #44]	; 0x2c
10000994:	4286      	cmp	r6, r0
10000996:	d0f8      	beq.n	1000098a <async_context_freertos_set_work_pending+0x2a>
10000998:	2302      	movs	r3, #2
1000099a:	2200      	movs	r2, #0
1000099c:	2100      	movs	r1, #0
1000099e:	0030      	movs	r0, r6
100009a0:	9500      	str	r5, [sp, #0]
100009a2:	f003 ff2d 	bl	10004800 <xTaskGenericNotify>
100009a6:	2300      	movs	r3, #0
100009a8:	2200      	movs	r2, #0
100009aa:	2100      	movs	r1, #0
100009ac:	6a60      	ldr	r0, [r4, #36]	; 0x24
100009ae:	f001 f89b 	bl	10001ae8 <xQueueGenericSend>
100009b2:	e7ea      	b.n	1000098a <async_context_freertos_set_work_pending+0x2a>

100009b4 <timer_handler>:
100009b4:	b570      	push	{r4, r5, r6, lr}
100009b6:	b082      	sub	sp, #8
100009b8:	f004 fb36 	bl	10005028 <pvTimerGetTimerID>
100009bc:	0004      	movs	r4, r0
100009be:	6ac0      	ldr	r0, [r0, #44]	; 0x2c
100009c0:	2800      	cmp	r0, #0
100009c2:	d00c      	beq.n	100009de <timer_handler+0x2a>
100009c4:	f3ef 8505 	mrs	r5, IPSR
100009c8:	b2ed      	uxtb	r5, r5
100009ca:	2d00      	cmp	r5, #0
100009cc:	d009      	beq.n	100009e2 <timer_handler+0x2e>
100009ce:	2100      	movs	r1, #0
100009d0:	2200      	movs	r2, #0
100009d2:	f004 f809 	bl	100049e8 <vTaskGenericNotifyGiveFromISR>
100009d6:	2100      	movs	r1, #0
100009d8:	6a60      	ldr	r0, [r4, #36]	; 0x24
100009da:	f001 fa53 	bl	10001e84 <xQueueGiveFromISR>
100009de:	b002      	add	sp, #8
100009e0:	bd70      	pop	{r4, r5, r6, pc}
100009e2:	f002 fe8d 	bl	10003700 <xTaskGetCurrentTaskHandle>
100009e6:	6ae6      	ldr	r6, [r4, #44]	; 0x2c
100009e8:	4286      	cmp	r6, r0
100009ea:	d0f8      	beq.n	100009de <timer_handler+0x2a>
100009ec:	2302      	movs	r3, #2
100009ee:	2200      	movs	r2, #0
100009f0:	2100      	movs	r1, #0
100009f2:	0030      	movs	r0, r6
100009f4:	9500      	str	r5, [sp, #0]
100009f6:	f003 ff03 	bl	10004800 <xTaskGenericNotify>
100009fa:	2300      	movs	r3, #0
100009fc:	2200      	movs	r2, #0
100009fe:	2100      	movs	r1, #0
10000a00:	6a60      	ldr	r0, [r4, #36]	; 0x24
10000a02:	f001 f871 	bl	10001ae8 <xQueueGenericSend>
10000a06:	e7ea      	b.n	100009de <timer_handler+0x2a>

10000a08 <async_context_task>:
10000a08:	b5f0      	push	{r4, r5, r6, r7, lr}
10000a0a:	0004      	movs	r4, r0
10000a0c:	2631      	movs	r6, #49	; 0x31
10000a0e:	2530      	movs	r5, #48	; 0x30
10000a10:	b083      	sub	sp, #12
10000a12:	e008      	b.n	10000a26 <async_context_task+0x1e>
10000a14:	3b01      	subs	r3, #1
10000a16:	5563      	strb	r3, [r4, r5]
10000a18:	6a20      	ldr	r0, [r4, #32]
10000a1a:	f001 f981 	bl	10001d20 <xQueueGiveMutexRecursive>
10000a1e:	bf40      	sev
10000a20:	5da3      	ldrb	r3, [r4, r6]
10000a22:	2b00      	cmp	r3, #0
10000a24:	d135      	bne.n	10000a92 <async_context_task+0x8a>
10000a26:	2201      	movs	r2, #1
10000a28:	2100      	movs	r1, #0
10000a2a:	2000      	movs	r0, #0
10000a2c:	4252      	negs	r2, r2
10000a2e:	f003 fe3d 	bl	100046ac <ulTaskGenericNotifyTake>
10000a32:	5da3      	ldrb	r3, [r4, r6]
10000a34:	2b00      	cmp	r3, #0
10000a36:	d12c      	bne.n	10000a92 <async_context_task+0x8a>
10000a38:	2101      	movs	r1, #1
10000a3a:	6a20      	ldr	r0, [r4, #32]
10000a3c:	4249      	negs	r1, r1
10000a3e:	f001 fb95 	bl	1000216c <xQueueTakeMutexRecursive>
10000a42:	5d63      	ldrb	r3, [r4, r5]
10000a44:	0020      	movs	r0, r4
10000a46:	3301      	adds	r3, #1
10000a48:	5563      	strb	r3, [r4, r5]
10000a4a:	f7ff fefd 	bl	10000848 <process_under_lock>
10000a4e:	5d63      	ldrb	r3, [r4, r5]
10000a50:	2b01      	cmp	r3, #1
10000a52:	d1df      	bne.n	10000a14 <async_context_task+0xc>
10000a54:	6ae7      	ldr	r7, [r4, #44]	; 0x2c
10000a56:	f002 fe53 	bl	10003700 <xTaskGetCurrentTaskHandle>
10000a5a:	4287      	cmp	r7, r0
10000a5c:	d031      	beq.n	10000ac2 <async_context_task+0xba>
10000a5e:	5d63      	ldrb	r3, [r4, r5]
10000a60:	3b01      	subs	r3, #1
10000a62:	5563      	strb	r3, [r4, r5]
10000a64:	6a20      	ldr	r0, [r4, #32]
10000a66:	f001 f95b 	bl	10001d20 <xQueueGiveMutexRecursive>
10000a6a:	6ae0      	ldr	r0, [r4, #44]	; 0x2c
10000a6c:	2800      	cmp	r0, #0
10000a6e:	d0d6      	beq.n	10000a1e <async_context_task+0x16>
10000a70:	f3ef 8705 	mrs	r7, IPSR
10000a74:	b2ff      	uxtb	r7, r7
10000a76:	2f00      	cmp	r7, #0
10000a78:	d010      	beq.n	10000a9c <async_context_task+0x94>
10000a7a:	2200      	movs	r2, #0
10000a7c:	2100      	movs	r1, #0
10000a7e:	f003 ffb3 	bl	100049e8 <vTaskGenericNotifyGiveFromISR>
10000a82:	2100      	movs	r1, #0
10000a84:	6a60      	ldr	r0, [r4, #36]	; 0x24
10000a86:	f001 f9fd 	bl	10001e84 <xQueueGiveFromISR>
10000a8a:	bf40      	sev
10000a8c:	5da3      	ldrb	r3, [r4, r6]
10000a8e:	2b00      	cmp	r3, #0
10000a90:	d0c9      	beq.n	10000a26 <async_context_task+0x1e>
10000a92:	2000      	movs	r0, #0
10000a94:	f003 fb32 	bl	100040fc <vTaskDelete>
10000a98:	b003      	add	sp, #12
10000a9a:	bdf0      	pop	{r4, r5, r6, r7, pc}
10000a9c:	f002 fe30 	bl	10003700 <xTaskGetCurrentTaskHandle>
10000aa0:	0003      	movs	r3, r0
10000aa2:	6ae0      	ldr	r0, [r4, #44]	; 0x2c
10000aa4:	4298      	cmp	r0, r3
10000aa6:	d0ba      	beq.n	10000a1e <async_context_task+0x16>
10000aa8:	2302      	movs	r3, #2
10000aaa:	2200      	movs	r2, #0
10000aac:	2100      	movs	r1, #0
10000aae:	9700      	str	r7, [sp, #0]
10000ab0:	f003 fea6 	bl	10004800 <xTaskGenericNotify>
10000ab4:	2300      	movs	r3, #0
10000ab6:	2200      	movs	r2, #0
10000ab8:	2100      	movs	r1, #0
10000aba:	6a60      	ldr	r0, [r4, #36]	; 0x24
10000abc:	f001 f814 	bl	10001ae8 <xQueueGenericSend>
10000ac0:	e7ad      	b.n	10000a1e <async_context_task+0x16>
10000ac2:	0020      	movs	r0, r4
10000ac4:	f7ff fec0 	bl	10000848 <process_under_lock>
10000ac8:	5d63      	ldrb	r3, [r4, r5]
10000aca:	e7a3      	b.n	10000a14 <async_context_task+0xc>

10000acc <async_context_freertos_remove_at_time_worker>:
10000acc:	b5f0      	push	{r4, r5, r6, r7, lr}
10000ace:	000e      	movs	r6, r1
10000ad0:	2101      	movs	r1, #1
10000ad2:	0004      	movs	r4, r0
10000ad4:	2530      	movs	r5, #48	; 0x30
10000ad6:	b083      	sub	sp, #12
10000ad8:	4249      	negs	r1, r1
10000ada:	6a00      	ldr	r0, [r0, #32]
10000adc:	f001 fb46 	bl	1000216c <xQueueTakeMutexRecursive>
10000ae0:	5d63      	ldrb	r3, [r4, r5]
10000ae2:	0031      	movs	r1, r6
10000ae4:	3301      	adds	r3, #1
10000ae6:	5563      	strb	r3, [r4, r5]
10000ae8:	0020      	movs	r0, r4
10000aea:	f000 f9a3 	bl	10000e34 <async_context_base_remove_at_time_worker>
10000aee:	5d63      	ldrb	r3, [r4, r5]
10000af0:	0006      	movs	r6, r0
10000af2:	2b01      	cmp	r3, #1
10000af4:	d007      	beq.n	10000b06 <async_context_freertos_remove_at_time_worker+0x3a>
10000af6:	3b01      	subs	r3, #1
10000af8:	5563      	strb	r3, [r4, r5]
10000afa:	6a20      	ldr	r0, [r4, #32]
10000afc:	f001 f910 	bl	10001d20 <xQueueGiveMutexRecursive>
10000b00:	0030      	movs	r0, r6
10000b02:	b003      	add	sp, #12
10000b04:	bdf0      	pop	{r4, r5, r6, r7, pc}
10000b06:	6ae7      	ldr	r7, [r4, #44]	; 0x2c
10000b08:	f002 fdfa 	bl	10003700 <xTaskGetCurrentTaskHandle>
10000b0c:	4287      	cmp	r7, r0
10000b0e:	d029      	beq.n	10000b64 <async_context_freertos_remove_at_time_worker+0x98>
10000b10:	5d63      	ldrb	r3, [r4, r5]
10000b12:	3b01      	subs	r3, #1
10000b14:	5563      	strb	r3, [r4, r5]
10000b16:	6a20      	ldr	r0, [r4, #32]
10000b18:	f001 f902 	bl	10001d20 <xQueueGiveMutexRecursive>
10000b1c:	6ae0      	ldr	r0, [r4, #44]	; 0x2c
10000b1e:	2800      	cmp	r0, #0
10000b20:	d0ee      	beq.n	10000b00 <async_context_freertos_remove_at_time_worker+0x34>
10000b22:	f3ef 8505 	mrs	r5, IPSR
10000b26:	b2ed      	uxtb	r5, r5
10000b28:	2d00      	cmp	r5, #0
10000b2a:	d112      	bne.n	10000b52 <async_context_freertos_remove_at_time_worker+0x86>
10000b2c:	f002 fde8 	bl	10003700 <xTaskGetCurrentTaskHandle>
10000b30:	6ae7      	ldr	r7, [r4, #44]	; 0x2c
10000b32:	4287      	cmp	r7, r0
10000b34:	d0e4      	beq.n	10000b00 <async_context_freertos_remove_at_time_worker+0x34>
10000b36:	2302      	movs	r3, #2
10000b38:	2200      	movs	r2, #0
10000b3a:	2100      	movs	r1, #0
10000b3c:	0038      	movs	r0, r7
10000b3e:	9500      	str	r5, [sp, #0]
10000b40:	f003 fe5e 	bl	10004800 <xTaskGenericNotify>
10000b44:	2300      	movs	r3, #0
10000b46:	2200      	movs	r2, #0
10000b48:	2100      	movs	r1, #0
10000b4a:	6a60      	ldr	r0, [r4, #36]	; 0x24
10000b4c:	f000 ffcc 	bl	10001ae8 <xQueueGenericSend>
10000b50:	e7d6      	b.n	10000b00 <async_context_freertos_remove_at_time_worker+0x34>
10000b52:	2200      	movs	r2, #0
10000b54:	2100      	movs	r1, #0
10000b56:	f003 ff47 	bl	100049e8 <vTaskGenericNotifyGiveFromISR>
10000b5a:	2100      	movs	r1, #0
10000b5c:	6a60      	ldr	r0, [r4, #36]	; 0x24
10000b5e:	f001 f991 	bl	10001e84 <xQueueGiveFromISR>
10000b62:	e7cd      	b.n	10000b00 <async_context_freertos_remove_at_time_worker+0x34>
10000b64:	0020      	movs	r0, r4
10000b66:	f7ff fe6f 	bl	10000848 <process_under_lock>
10000b6a:	5d63      	ldrb	r3, [r4, r5]
10000b6c:	e7c3      	b.n	10000af6 <async_context_freertos_remove_at_time_worker+0x2a>
10000b6e:	46c0      	nop			; (mov r8, r8)

10000b70 <async_context_freertos_add_when_pending_worker>:
10000b70:	b5f0      	push	{r4, r5, r6, r7, lr}
10000b72:	000e      	movs	r6, r1
10000b74:	2101      	movs	r1, #1
10000b76:	0004      	movs	r4, r0
10000b78:	2530      	movs	r5, #48	; 0x30
10000b7a:	b083      	sub	sp, #12
10000b7c:	4249      	negs	r1, r1
10000b7e:	6a00      	ldr	r0, [r0, #32]
10000b80:	f001 faf4 	bl	1000216c <xQueueTakeMutexRecursive>
10000b84:	5d63      	ldrb	r3, [r4, r5]
10000b86:	0031      	movs	r1, r6
10000b88:	3301      	adds	r3, #1
10000b8a:	5563      	strb	r3, [r4, r5]
10000b8c:	0020      	movs	r0, r4
10000b8e:	f000 f965 	bl	10000e5c <async_context_base_add_when_pending_worker>
10000b92:	5d63      	ldrb	r3, [r4, r5]
10000b94:	0006      	movs	r6, r0
10000b96:	2b01      	cmp	r3, #1
10000b98:	d007      	beq.n	10000baa <async_context_freertos_add_when_pending_worker+0x3a>
10000b9a:	3b01      	subs	r3, #1
10000b9c:	5563      	strb	r3, [r4, r5]
10000b9e:	6a20      	ldr	r0, [r4, #32]
10000ba0:	f001 f8be 	bl	10001d20 <xQueueGiveMutexRecursive>
10000ba4:	0030      	movs	r0, r6
10000ba6:	b003      	add	sp, #12
10000ba8:	bdf0      	pop	{r4, r5, r6, r7, pc}
10000baa:	6ae7      	ldr	r7, [r4, #44]	; 0x2c
10000bac:	f002 fda8 	bl	10003700 <xTaskGetCurrentTaskHandle>
10000bb0:	4287      	cmp	r7, r0
10000bb2:	d029      	beq.n	10000c08 <async_context_freertos_add_when_pending_worker+0x98>
10000bb4:	5d63      	ldrb	r3, [r4, r5]
10000bb6:	3b01      	subs	r3, #1
10000bb8:	5563      	strb	r3, [r4, r5]
10000bba:	6a20      	ldr	r0, [r4, #32]
10000bbc:	f001 f8b0 	bl	10001d20 <xQueueGiveMutexRecursive>
10000bc0:	6ae0      	ldr	r0, [r4, #44]	; 0x2c
10000bc2:	2800      	cmp	r0, #0
10000bc4:	d0ee      	beq.n	10000ba4 <async_context_freertos_add_when_pending_worker+0x34>
10000bc6:	f3ef 8505 	mrs	r5, IPSR
10000bca:	b2ed      	uxtb	r5, r5
10000bcc:	2d00      	cmp	r5, #0
10000bce:	d112      	bne.n	10000bf6 <async_context_freertos_add_when_pending_worker+0x86>
10000bd0:	f002 fd96 	bl	10003700 <xTaskGetCurrentTaskHandle>
10000bd4:	6ae7      	ldr	r7, [r4, #44]	; 0x2c
10000bd6:	4287      	cmp	r7, r0
10000bd8:	d0e4      	beq.n	10000ba4 <async_context_freertos_add_when_pending_worker+0x34>
10000bda:	2302      	movs	r3, #2
10000bdc:	2200      	movs	r2, #0
10000bde:	2100      	movs	r1, #0
10000be0:	0038      	movs	r0, r7
10000be2:	9500      	str	r5, [sp, #0]
10000be4:	f003 fe0c 	bl	10004800 <xTaskGenericNotify>
10000be8:	2300      	movs	r3, #0
10000bea:	2200      	movs	r2, #0
10000bec:	2100      	movs	r1, #0
10000bee:	6a60      	ldr	r0, [r4, #36]	; 0x24
10000bf0:	f000 ff7a 	bl	10001ae8 <xQueueGenericSend>
10000bf4:	e7d6      	b.n	10000ba4 <async_context_freertos_add_when_pending_worker+0x34>
10000bf6:	2200      	movs	r2, #0
10000bf8:	2100      	movs	r1, #0
10000bfa:	f003 fef5 	bl	100049e8 <vTaskGenericNotifyGiveFromISR>
10000bfe:	2100      	movs	r1, #0
10000c00:	6a60      	ldr	r0, [r4, #36]	; 0x24
10000c02:	f001 f93f 	bl	10001e84 <xQueueGiveFromISR>
10000c06:	e7cd      	b.n	10000ba4 <async_context_freertos_add_when_pending_worker+0x34>
10000c08:	0020      	movs	r0, r4
10000c0a:	f7ff fe1d 	bl	10000848 <process_under_lock>
10000c0e:	5d63      	ldrb	r3, [r4, r5]
10000c10:	e7c3      	b.n	10000b9a <async_context_freertos_add_when_pending_worker+0x2a>
10000c12:	46c0      	nop			; (mov r8, r8)

10000c14 <async_context_freertos_remove_when_pending_worker>:
10000c14:	b5f0      	push	{r4, r5, r6, r7, lr}
10000c16:	000e      	movs	r6, r1
10000c18:	2101      	movs	r1, #1
10000c1a:	0004      	movs	r4, r0
10000c1c:	2530      	movs	r5, #48	; 0x30
10000c1e:	b083      	sub	sp, #12
10000c20:	4249      	negs	r1, r1
10000c22:	6a00      	ldr	r0, [r0, #32]
10000c24:	f001 faa2 	bl	1000216c <xQueueTakeMutexRecursive>
10000c28:	5d63      	ldrb	r3, [r4, r5]
10000c2a:	0031      	movs	r1, r6
10000c2c:	3301      	adds	r3, #1
10000c2e:	5563      	strb	r3, [r4, r5]
10000c30:	0020      	movs	r0, r4
10000c32:	f000 f925 	bl	10000e80 <async_context_base_remove_when_pending_worker>
10000c36:	5d63      	ldrb	r3, [r4, r5]
10000c38:	0006      	movs	r6, r0
10000c3a:	2b01      	cmp	r3, #1
10000c3c:	d007      	beq.n	10000c4e <async_context_freertos_remove_when_pending_worker+0x3a>
10000c3e:	3b01      	subs	r3, #1
10000c40:	5563      	strb	r3, [r4, r5]
10000c42:	6a20      	ldr	r0, [r4, #32]
10000c44:	f001 f86c 	bl	10001d20 <xQueueGiveMutexRecursive>
10000c48:	0030      	movs	r0, r6
10000c4a:	b003      	add	sp, #12
10000c4c:	bdf0      	pop	{r4, r5, r6, r7, pc}
10000c4e:	6ae7      	ldr	r7, [r4, #44]	; 0x2c
10000c50:	f002 fd56 	bl	10003700 <xTaskGetCurrentTaskHandle>
10000c54:	4287      	cmp	r7, r0
10000c56:	d029      	beq.n	10000cac <async_context_freertos_remove_when_pending_worker+0x98>
10000c58:	5d63      	ldrb	r3, [r4, r5]
10000c5a:	3b01      	subs	r3, #1
10000c5c:	5563      	strb	r3, [r4, r5]
10000c5e:	6a20      	ldr	r0, [r4, #32]
10000c60:	f001 f85e 	bl	10001d20 <xQueueGiveMutexRecursive>
10000c64:	6ae0      	ldr	r0, [r4, #44]	; 0x2c
10000c66:	2800      	cmp	r0, #0
10000c68:	d0ee      	beq.n	10000c48 <async_context_freertos_remove_when_pending_worker+0x34>
10000c6a:	f3ef 8505 	mrs	r5, IPSR
10000c6e:	b2ed      	uxtb	r5, r5
10000c70:	2d00      	cmp	r5, #0
10000c72:	d112      	bne.n	10000c9a <async_context_freertos_remove_when_pending_worker+0x86>
10000c74:	f002 fd44 	bl	10003700 <xTaskGetCurrentTaskHandle>
10000c78:	6ae7      	ldr	r7, [r4, #44]	; 0x2c
10000c7a:	4287      	cmp	r7, r0
10000c7c:	d0e4      	beq.n	10000c48 <async_context_freertos_remove_when_pending_worker+0x34>
10000c7e:	2302      	movs	r3, #2
10000c80:	2200      	movs	r2, #0
10000c82:	2100      	movs	r1, #0
10000c84:	0038      	movs	r0, r7
10000c86:	9500      	str	r5, [sp, #0]
10000c88:	f003 fdba 	bl	10004800 <xTaskGenericNotify>
10000c8c:	2300      	movs	r3, #0
10000c8e:	2200      	movs	r2, #0
10000c90:	2100      	movs	r1, #0
10000c92:	6a60      	ldr	r0, [r4, #36]	; 0x24
10000c94:	f000 ff28 	bl	10001ae8 <xQueueGenericSend>
10000c98:	e7d6      	b.n	10000c48 <async_context_freertos_remove_when_pending_worker+0x34>
10000c9a:	2200      	movs	r2, #0
10000c9c:	2100      	movs	r1, #0
10000c9e:	f003 fea3 	bl	100049e8 <vTaskGenericNotifyGiveFromISR>
10000ca2:	2100      	movs	r1, #0
10000ca4:	6a60      	ldr	r0, [r4, #36]	; 0x24
10000ca6:	f001 f8ed 	bl	10001e84 <xQueueGiveFromISR>
10000caa:	e7cd      	b.n	10000c48 <async_context_freertos_remove_when_pending_worker+0x34>
10000cac:	0020      	movs	r0, r4
10000cae:	f7ff fdcb 	bl	10000848 <process_under_lock>
10000cb2:	5d63      	ldrb	r3, [r4, r5]
10000cb4:	e7c3      	b.n	10000c3e <async_context_freertos_remove_when_pending_worker+0x2a>
10000cb6:	46c0      	nop			; (mov r8, r8)

10000cb8 <async_context_freertos_add_at_time_worker>:
10000cb8:	b5f0      	push	{r4, r5, r6, r7, lr}
10000cba:	000e      	movs	r6, r1
10000cbc:	2101      	movs	r1, #1
10000cbe:	0004      	movs	r4, r0
10000cc0:	2530      	movs	r5, #48	; 0x30
10000cc2:	b083      	sub	sp, #12
10000cc4:	4249      	negs	r1, r1
10000cc6:	6a00      	ldr	r0, [r0, #32]
10000cc8:	f001 fa50 	bl	1000216c <xQueueTakeMutexRecursive>
10000ccc:	5d63      	ldrb	r3, [r4, r5]
10000cce:	0031      	movs	r1, r6
10000cd0:	3301      	adds	r3, #1
10000cd2:	5563      	strb	r3, [r4, r5]
10000cd4:	0020      	movs	r0, r4
10000cd6:	f000 f899 	bl	10000e0c <async_context_base_add_at_time_worker>
10000cda:	5d63      	ldrb	r3, [r4, r5]
10000cdc:	0006      	movs	r6, r0
10000cde:	2b01      	cmp	r3, #1
10000ce0:	d007      	beq.n	10000cf2 <async_context_freertos_add_at_time_worker+0x3a>
10000ce2:	3b01      	subs	r3, #1
10000ce4:	5563      	strb	r3, [r4, r5]
10000ce6:	6a20      	ldr	r0, [r4, #32]
10000ce8:	f001 f81a 	bl	10001d20 <xQueueGiveMutexRecursive>
10000cec:	0030      	movs	r0, r6
10000cee:	b003      	add	sp, #12
10000cf0:	bdf0      	pop	{r4, r5, r6, r7, pc}
10000cf2:	6ae7      	ldr	r7, [r4, #44]	; 0x2c
10000cf4:	f002 fd04 	bl	10003700 <xTaskGetCurrentTaskHandle>
10000cf8:	4287      	cmp	r7, r0
10000cfa:	d029      	beq.n	10000d50 <async_context_freertos_add_at_time_worker+0x98>
10000cfc:	5d63      	ldrb	r3, [r4, r5]
10000cfe:	3b01      	subs	r3, #1
10000d00:	5563      	strb	r3, [r4, r5]
10000d02:	6a20      	ldr	r0, [r4, #32]
10000d04:	f001 f80c 	bl	10001d20 <xQueueGiveMutexRecursive>
10000d08:	6ae0      	ldr	r0, [r4, #44]	; 0x2c
10000d0a:	2800      	cmp	r0, #0
10000d0c:	d0ee      	beq.n	10000cec <async_context_freertos_add_at_time_worker+0x34>
10000d0e:	f3ef 8505 	mrs	r5, IPSR
10000d12:	b2ed      	uxtb	r5, r5
10000d14:	2d00      	cmp	r5, #0
10000d16:	d112      	bne.n	10000d3e <async_context_freertos_add_at_time_worker+0x86>
10000d18:	f002 fcf2 	bl	10003700 <xTaskGetCurrentTaskHandle>
10000d1c:	6ae7      	ldr	r7, [r4, #44]	; 0x2c
10000d1e:	4287      	cmp	r7, r0
10000d20:	d0e4      	beq.n	10000cec <async_context_freertos_add_at_time_worker+0x34>
10000d22:	2302      	movs	r3, #2
10000d24:	2200      	movs	r2, #0
10000d26:	2100      	movs	r1, #0
10000d28:	0038      	movs	r0, r7
10000d2a:	9500      	str	r5, [sp, #0]
10000d2c:	f003 fd68 	bl	10004800 <xTaskGenericNotify>
10000d30:	2300      	movs	r3, #0
10000d32:	2200      	movs	r2, #0
10000d34:	2100      	movs	r1, #0
10000d36:	6a60      	ldr	r0, [r4, #36]	; 0x24
10000d38:	f000 fed6 	bl	10001ae8 <xQueueGenericSend>
10000d3c:	e7d6      	b.n	10000cec <async_context_freertos_add_at_time_worker+0x34>
10000d3e:	2200      	movs	r2, #0
10000d40:	2100      	movs	r1, #0
10000d42:	f003 fe51 	bl	100049e8 <vTaskGenericNotifyGiveFromISR>
10000d46:	2100      	movs	r1, #0
10000d48:	6a60      	ldr	r0, [r4, #36]	; 0x24
10000d4a:	f001 f89b 	bl	10001e84 <xQueueGiveFromISR>
10000d4e:	e7cd      	b.n	10000cec <async_context_freertos_add_at_time_worker+0x34>
10000d50:	0020      	movs	r0, r4
10000d52:	f7ff fd79 	bl	10000848 <process_under_lock>
10000d56:	5d63      	ldrb	r3, [r4, r5]
10000d58:	e7c3      	b.n	10000ce2 <async_context_freertos_add_at_time_worker+0x2a>
10000d5a:	46c0      	nop			; (mov r8, r8)

10000d5c <async_context_freertos_init>:
10000d5c:	b570      	push	{r4, r5, r6, lr}
10000d5e:	0004      	movs	r4, r0
10000d60:	b082      	sub	sp, #8
10000d62:	2234      	movs	r2, #52	; 0x34
10000d64:	000d      	movs	r5, r1
10000d66:	3004      	adds	r0, #4
10000d68:	2100      	movs	r1, #0
10000d6a:	f006 f9d3 	bl	10007114 <__wrap_memset>
10000d6e:	4b22      	ldr	r3, [pc, #136]	; (10000df8 <async_context_freertos_init+0x9c>)
10000d70:	26d0      	movs	r6, #208	; 0xd0
10000d72:	6023      	str	r3, [r4, #0]
10000d74:	2301      	movs	r3, #1
10000d76:	0636      	lsls	r6, r6, #24
10000d78:	8323      	strh	r3, [r4, #24]
10000d7a:	6833      	ldr	r3, [r6, #0]
10000d7c:	2004      	movs	r0, #4
10000d7e:	76a3      	strb	r3, [r4, #26]
10000d80:	f000 ff98 	bl	10001cb4 <xQueueCreateMutex>
10000d84:	2203      	movs	r2, #3
10000d86:	2100      	movs	r1, #0
10000d88:	6220      	str	r0, [r4, #32]
10000d8a:	2001      	movs	r0, #1
10000d8c:	f000 fe4e 	bl	10001a2c <xQueueGenericCreate>
10000d90:	2101      	movs	r1, #1
10000d92:	4b1a      	ldr	r3, [pc, #104]	; (10000dfc <async_context_freertos_init+0xa0>)
10000d94:	6260      	str	r0, [r4, #36]	; 0x24
10000d96:	9300      	str	r3, [sp, #0]
10000d98:	2200      	movs	r2, #0
10000d9a:	0023      	movs	r3, r4
10000d9c:	4818      	ldr	r0, [pc, #96]	; (10000e00 <async_context_freertos_init+0xa4>)
10000d9e:	4249      	negs	r1, r1
10000da0:	f004 f8c4 	bl	10004f2c <xTimerCreate>
10000da4:	6a23      	ldr	r3, [r4, #32]
10000da6:	62a0      	str	r0, [r4, #40]	; 0x28
10000da8:	2b00      	cmp	r3, #0
10000daa:	d01b      	beq.n	10000de4 <async_context_freertos_init+0x88>
10000dac:	6a63      	ldr	r3, [r4, #36]	; 0x24
10000dae:	2b00      	cmp	r3, #0
10000db0:	d018      	beq.n	10000de4 <async_context_freertos_init+0x88>
10000db2:	2800      	cmp	r0, #0
10000db4:	d016      	beq.n	10000de4 <async_context_freertos_init+0x88>
10000db6:	0023      	movs	r3, r4
10000db8:	332c      	adds	r3, #44	; 0x2c
10000dba:	9301      	str	r3, [sp, #4]
10000dbc:	682b      	ldr	r3, [r5, #0]
10000dbe:	686a      	ldr	r2, [r5, #4]
10000dc0:	9300      	str	r3, [sp, #0]
10000dc2:	4910      	ldr	r1, [pc, #64]	; (10000e04 <async_context_freertos_init+0xa8>)
10000dc4:	0023      	movs	r3, r4
10000dc6:	4810      	ldr	r0, [pc, #64]	; (10000e08 <async_context_freertos_init+0xac>)
10000dc8:	f002 ff5e 	bl	10003c88 <xTaskCreate>
10000dcc:	2801      	cmp	r0, #1
10000dce:	d109      	bne.n	10000de4 <async_context_freertos_init+0x88>
10000dd0:	68ab      	ldr	r3, [r5, #8]
10000dd2:	1c5a      	adds	r2, r3, #1
10000dd4:	d00d      	beq.n	10000df2 <async_context_freertos_init+0x96>
10000dd6:	2101      	movs	r1, #1
10000dd8:	6ae0      	ldr	r0, [r4, #44]	; 0x2c
10000dda:	4099      	lsls	r1, r3
10000ddc:	f001 fe1c 	bl	10002a18 <vTaskCoreAffinitySet>
10000de0:	2001      	movs	r0, #1
10000de2:	e004      	b.n	10000dee <async_context_freertos_init+0x92>
10000de4:	6823      	ldr	r3, [r4, #0]
10000de6:	0020      	movs	r0, r4
10000de8:	6b5b      	ldr	r3, [r3, #52]	; 0x34
10000dea:	4798      	blx	r3
10000dec:	2000      	movs	r0, #0
10000dee:	b002      	add	sp, #8
10000df0:	bd70      	pop	{r4, r5, r6, pc}
10000df2:	6833      	ldr	r3, [r6, #0]
10000df4:	e7ef      	b.n	10000dd6 <async_context_freertos_init+0x7a>
10000df6:	46c0      	nop			; (mov r8, r8)
10000df8:	100090c0 	.word	0x100090c0
10000dfc:	100009b5 	.word	0x100009b5
10000e00:	10009098 	.word	0x10009098
10000e04:	100090ac 	.word	0x100090ac
10000e08:	10000a09 	.word	0x10000a09

10000e0c <async_context_base_add_at_time_worker>:
10000e0c:	0002      	movs	r2, r0
10000e0e:	6883      	ldr	r3, [r0, #8]
10000e10:	3208      	adds	r2, #8
10000e12:	2b00      	cmp	r3, #0
10000e14:	d104      	bne.n	10000e20 <async_context_base_add_at_time_worker+0x14>
10000e16:	e007      	b.n	10000e28 <async_context_base_add_at_time_worker+0x1c>
10000e18:	001a      	movs	r2, r3
10000e1a:	681b      	ldr	r3, [r3, #0]
10000e1c:	2b00      	cmp	r3, #0
10000e1e:	d003      	beq.n	10000e28 <async_context_base_add_at_time_worker+0x1c>
10000e20:	4299      	cmp	r1, r3
10000e22:	d1f9      	bne.n	10000e18 <async_context_base_add_at_time_worker+0xc>
10000e24:	2000      	movs	r0, #0
10000e26:	e003      	b.n	10000e30 <async_context_base_add_at_time_worker+0x24>
10000e28:	2300      	movs	r3, #0
10000e2a:	2001      	movs	r0, #1
10000e2c:	6011      	str	r1, [r2, #0]
10000e2e:	600b      	str	r3, [r1, #0]
10000e30:	4770      	bx	lr
10000e32:	46c0      	nop			; (mov r8, r8)

10000e34 <async_context_base_remove_at_time_worker>:
10000e34:	6883      	ldr	r3, [r0, #8]
10000e36:	2b00      	cmp	r3, #0
10000e38:	d008      	beq.n	10000e4c <async_context_base_remove_at_time_worker+0x18>
10000e3a:	4299      	cmp	r1, r3
10000e3c:	d102      	bne.n	10000e44 <async_context_base_remove_at_time_worker+0x10>
10000e3e:	e007      	b.n	10000e50 <async_context_base_remove_at_time_worker+0x1c>
10000e40:	4299      	cmp	r1, r3
10000e42:	d007      	beq.n	10000e54 <async_context_base_remove_at_time_worker+0x20>
10000e44:	001a      	movs	r2, r3
10000e46:	681b      	ldr	r3, [r3, #0]
10000e48:	2b00      	cmp	r3, #0
10000e4a:	d1f9      	bne.n	10000e40 <async_context_base_remove_at_time_worker+0xc>
10000e4c:	2000      	movs	r0, #0
10000e4e:	4770      	bx	lr
10000e50:	0002      	movs	r2, r0
10000e52:	3208      	adds	r2, #8
10000e54:	680b      	ldr	r3, [r1, #0]
10000e56:	2001      	movs	r0, #1
10000e58:	6013      	str	r3, [r2, #0]
10000e5a:	e7f8      	b.n	10000e4e <async_context_base_remove_at_time_worker+0x1a>

10000e5c <async_context_base_add_when_pending_worker>:
10000e5c:	6843      	ldr	r3, [r0, #4]
10000e5e:	1d02      	adds	r2, r0, #4
10000e60:	2b00      	cmp	r3, #0
10000e62:	d104      	bne.n	10000e6e <async_context_base_add_when_pending_worker+0x12>
10000e64:	e007      	b.n	10000e76 <async_context_base_add_when_pending_worker+0x1a>
10000e66:	001a      	movs	r2, r3
10000e68:	681b      	ldr	r3, [r3, #0]
10000e6a:	2b00      	cmp	r3, #0
10000e6c:	d003      	beq.n	10000e76 <async_context_base_add_when_pending_worker+0x1a>
10000e6e:	4299      	cmp	r1, r3
10000e70:	d1f9      	bne.n	10000e66 <async_context_base_add_when_pending_worker+0xa>
10000e72:	2000      	movs	r0, #0
10000e74:	e003      	b.n	10000e7e <async_context_base_add_when_pending_worker+0x22>
10000e76:	2300      	movs	r3, #0
10000e78:	2001      	movs	r0, #1
10000e7a:	6011      	str	r1, [r2, #0]
10000e7c:	600b      	str	r3, [r1, #0]
10000e7e:	4770      	bx	lr

10000e80 <async_context_base_remove_when_pending_worker>:
10000e80:	6843      	ldr	r3, [r0, #4]
10000e82:	2b00      	cmp	r3, #0
10000e84:	d008      	beq.n	10000e98 <async_context_base_remove_when_pending_worker+0x18>
10000e86:	4299      	cmp	r1, r3
10000e88:	d102      	bne.n	10000e90 <async_context_base_remove_when_pending_worker+0x10>
10000e8a:	e007      	b.n	10000e9c <async_context_base_remove_when_pending_worker+0x1c>
10000e8c:	4299      	cmp	r1, r3
10000e8e:	d006      	beq.n	10000e9e <async_context_base_remove_when_pending_worker+0x1e>
10000e90:	001a      	movs	r2, r3
10000e92:	681b      	ldr	r3, [r3, #0]
10000e94:	2b00      	cmp	r3, #0
10000e96:	d1f9      	bne.n	10000e8c <async_context_base_remove_when_pending_worker+0xc>
10000e98:	2000      	movs	r0, #0
10000e9a:	4770      	bx	lr
10000e9c:	1d02      	adds	r2, r0, #4
10000e9e:	680b      	ldr	r3, [r1, #0]
10000ea0:	2001      	movs	r0, #1
10000ea2:	6013      	str	r3, [r2, #0]
10000ea4:	e7f9      	b.n	10000e9a <async_context_base_remove_when_pending_worker+0x1a>
10000ea6:	46c0      	nop			; (mov r8, r8)

10000ea8 <async_context_base_execute_once>:
10000ea8:	b5f8      	push	{r3, r4, r5, r6, r7, lr}
10000eaa:	4647      	mov	r7, r8
10000eac:	46ce      	mov	lr, r9
10000eae:	6883      	ldr	r3, [r0, #8]
10000eb0:	4680      	mov	r8, r0
10000eb2:	b580      	push	{r7, lr}
10000eb4:	2b00      	cmp	r3, #0
10000eb6:	d029      	beq.n	10000f0c <async_context_base_execute_once+0x64>
10000eb8:	2308      	movs	r3, #8
10000eba:	4443      	add	r3, r8
10000ebc:	4699      	mov	r9, r3
10000ebe:	f004 ff49 	bl	10005d54 <time_us_64>
10000ec2:	4643      	mov	r3, r8
10000ec4:	689e      	ldr	r6, [r3, #8]
10000ec6:	0004      	movs	r4, r0
10000ec8:	000d      	movs	r5, r1
10000eca:	2e00      	cmp	r6, #0
10000ecc:	d058      	beq.n	10000f80 <async_context_base_execute_once+0xd8>
10000ece:	2300      	movs	r3, #0
10000ed0:	464f      	mov	r7, r9
10000ed2:	469c      	mov	ip, r3
10000ed4:	68b2      	ldr	r2, [r6, #8]
10000ed6:	68f3      	ldr	r3, [r6, #12]
10000ed8:	0020      	movs	r0, r4
10000eda:	0029      	movs	r1, r5
10000edc:	1a80      	subs	r0, r0, r2
10000ede:	4199      	sbcs	r1, r3
10000ee0:	2900      	cmp	r1, #0
10000ee2:	db02      	blt.n	10000eea <async_context_base_execute_once+0x42>
10000ee4:	0014      	movs	r4, r2
10000ee6:	001d      	movs	r5, r3
10000ee8:	46bc      	mov	ip, r7
10000eea:	0037      	movs	r7, r6
10000eec:	6836      	ldr	r6, [r6, #0]
10000eee:	2e00      	cmp	r6, #0
10000ef0:	d1f0      	bne.n	10000ed4 <async_context_base_execute_once+0x2c>
10000ef2:	4663      	mov	r3, ip
10000ef4:	2b00      	cmp	r3, #0
10000ef6:	d043      	beq.n	10000f80 <async_context_base_execute_once+0xd8>
10000ef8:	6819      	ldr	r1, [r3, #0]
10000efa:	4640      	mov	r0, r8
10000efc:	680a      	ldr	r2, [r1, #0]
10000efe:	601a      	str	r2, [r3, #0]
10000f00:	684b      	ldr	r3, [r1, #4]
10000f02:	4798      	blx	r3
10000f04:	4643      	mov	r3, r8
10000f06:	689b      	ldr	r3, [r3, #8]
10000f08:	2b00      	cmp	r3, #0
10000f0a:	d1d8      	bne.n	10000ebe <async_context_base_execute_once+0x16>
10000f0c:	4643      	mov	r3, r8
10000f0e:	685c      	ldr	r4, [r3, #4]
10000f10:	2c00      	cmp	r4, #0
10000f12:	d031      	beq.n	10000f78 <async_context_base_execute_once+0xd0>
10000f14:	2500      	movs	r5, #0
10000f16:	7a23      	ldrb	r3, [r4, #8]
10000f18:	2b00      	cmp	r3, #0
10000f1a:	d029      	beq.n	10000f70 <async_context_base_execute_once+0xc8>
10000f1c:	0021      	movs	r1, r4
10000f1e:	6863      	ldr	r3, [r4, #4]
10000f20:	7225      	strb	r5, [r4, #8]
10000f22:	4640      	mov	r0, r8
10000f24:	4798      	blx	r3
10000f26:	6824      	ldr	r4, [r4, #0]
10000f28:	2c00      	cmp	r4, #0
10000f2a:	d1f4      	bne.n	10000f16 <async_context_base_execute_once+0x6e>
10000f2c:	4b17      	ldr	r3, [pc, #92]	; (10000f8c <async_context_base_execute_once+0xe4>)
10000f2e:	6818      	ldr	r0, [r3, #0]
10000f30:	6859      	ldr	r1, [r3, #4]
10000f32:	4643      	mov	r3, r8
10000f34:	689e      	ldr	r6, [r3, #8]
10000f36:	2e00      	cmp	r6, #0
10000f38:	d104      	bne.n	10000f44 <async_context_base_execute_once+0x9c>
10000f3a:	e012      	b.n	10000f62 <async_context_base_execute_once+0xba>
10000f3c:	0020      	movs	r0, r4
10000f3e:	0029      	movs	r1, r5
10000f40:	2e00      	cmp	r6, #0
10000f42:	d00e      	beq.n	10000f62 <async_context_base_execute_once+0xba>
10000f44:	0033      	movs	r3, r6
10000f46:	0002      	movs	r2, r0
10000f48:	689c      	ldr	r4, [r3, #8]
10000f4a:	68dd      	ldr	r5, [r3, #12]
10000f4c:	000b      	movs	r3, r1
10000f4e:	1b12      	subs	r2, r2, r4
10000f50:	41ab      	sbcs	r3, r5
10000f52:	6836      	ldr	r6, [r6, #0]
10000f54:	2b00      	cmp	r3, #0
10000f56:	dcf1      	bgt.n	10000f3c <async_context_base_execute_once+0x94>
10000f58:	d1f2      	bne.n	10000f40 <async_context_base_execute_once+0x98>
10000f5a:	2a00      	cmp	r2, #0
10000f5c:	d1ee      	bne.n	10000f3c <async_context_base_execute_once+0x94>
10000f5e:	2e00      	cmp	r6, #0
10000f60:	d1f0      	bne.n	10000f44 <async_context_base_execute_once+0x9c>
10000f62:	4643      	mov	r3, r8
10000f64:	6118      	str	r0, [r3, #16]
10000f66:	6159      	str	r1, [r3, #20]
10000f68:	bcc0      	pop	{r6, r7}
10000f6a:	46b9      	mov	r9, r7
10000f6c:	46b0      	mov	r8, r6
10000f6e:	bdf8      	pop	{r3, r4, r5, r6, r7, pc}
10000f70:	6824      	ldr	r4, [r4, #0]
10000f72:	2c00      	cmp	r4, #0
10000f74:	d1cf      	bne.n	10000f16 <async_context_base_execute_once+0x6e>
10000f76:	e7d9      	b.n	10000f2c <async_context_base_execute_once+0x84>
10000f78:	4b04      	ldr	r3, [pc, #16]	; (10000f8c <async_context_base_execute_once+0xe4>)
10000f7a:	6818      	ldr	r0, [r3, #0]
10000f7c:	6859      	ldr	r1, [r3, #4]
10000f7e:	e7f0      	b.n	10000f62 <async_context_base_execute_once+0xba>
10000f80:	4643      	mov	r3, r8
10000f82:	685c      	ldr	r4, [r3, #4]
10000f84:	2c00      	cmp	r4, #0
10000f86:	d1c5      	bne.n	10000f14 <async_context_base_execute_once+0x6c>
10000f88:	e7d0      	b.n	10000f2c <async_context_base_execute_once+0x84>
10000f8a:	46c0      	nop			; (mov r8, r8)
10000f8c:	10009170 	.word	0x10009170

10000f90 <panic>:
10000f90:	b40f      	push	{r0, r1, r2, r3}
10000f92:	b500      	push	{lr}
10000f94:	4808      	ldr	r0, [pc, #32]	; (10000fb8 <panic+0x28>)
10000f96:	b083      	sub	sp, #12
10000f98:	f007 fd44 	bl	10008a24 <__wrap_puts>
10000f9c:	9b04      	ldr	r3, [sp, #16]
10000f9e:	2b00      	cmp	r3, #0
10000fa0:	d007      	beq.n	10000fb2 <panic+0x22>
10000fa2:	a905      	add	r1, sp, #20
10000fa4:	0018      	movs	r0, r3
10000fa6:	9101      	str	r1, [sp, #4]
10000fa8:	f007 fb8a 	bl	100086c0 <weak_raw_vprintf>
10000fac:	4803      	ldr	r0, [pc, #12]	; (10000fbc <panic+0x2c>)
10000fae:	f007 fd39 	bl	10008a24 <__wrap_puts>
10000fb2:	2001      	movs	r0, #1
10000fb4:	f007 fb9c 	bl	100086f0 <_exit>
10000fb8:	100090f8 	.word	0x100090f8
10000fbc:	10008f8c 	.word	0x10008f8c

10000fc0 <panic_unsupported>:
10000fc0:	b510      	push	{r4, lr}
10000fc2:	4801      	ldr	r0, [pc, #4]	; (10000fc8 <panic_unsupported+0x8>)
10000fc4:	f7ff ffe4 	bl	10000f90 <panic>
10000fc8:	10009108 	.word	0x10009108

10000fcc <pvPortMalloc>:
10000fcc:	b5f0      	push	{r4, r5, r6, r7, lr}
10000fce:	46c6      	mov	lr, r8
10000fd0:	1e43      	subs	r3, r0, #1
10000fd2:	b500      	push	{lr}
10000fd4:	330a      	adds	r3, #10
10000fd6:	d814      	bhi.n	10001002 <pvPortMalloc+0x36>
10000fd8:	2307      	movs	r3, #7
10000fda:	001a      	movs	r2, r3
10000fdc:	3008      	adds	r0, #8
10000fde:	0004      	movs	r4, r0
10000fe0:	4002      	ands	r2, r0
10000fe2:	4203      	tst	r3, r0
10000fe4:	d005      	beq.n	10000ff2 <pvPortMalloc+0x26>
10000fe6:	3301      	adds	r3, #1
10000fe8:	1a9b      	subs	r3, r3, r2
10000fea:	43da      	mvns	r2, r3
10000fec:	4282      	cmp	r2, r0
10000fee:	d308      	bcc.n	10001002 <pvPortMalloc+0x36>
10000ff0:	18c4      	adds	r4, r0, r3
10000ff2:	f001 fdd3 	bl	10002b9c <vTaskSuspendAll>
10000ff6:	4a34      	ldr	r2, [pc, #208]	; (100010c8 <pvPortMalloc+0xfc>)
10000ff8:	0027      	movs	r7, r4
10000ffa:	6815      	ldr	r5, [r2, #0]
10000ffc:	2d00      	cmp	r5, #0
10000ffe:	d129      	bne.n	10001054 <pvPortMalloc+0x88>
10001000:	e00e      	b.n	10001020 <pvPortMalloc+0x54>
10001002:	f001 fdcb 	bl	10002b9c <vTaskSuspendAll>
10001006:	4a30      	ldr	r2, [pc, #192]	; (100010c8 <pvPortMalloc+0xfc>)
10001008:	6813      	ldr	r3, [r2, #0]
1000100a:	2b00      	cmp	r3, #0
1000100c:	d006      	beq.n	1000101c <pvPortMalloc+0x50>
1000100e:	2500      	movs	r5, #0
10001010:	f003 f9c4 	bl	1000439c <xTaskResumeAll>
10001014:	0028      	movs	r0, r5
10001016:	bc80      	pop	{r7}
10001018:	46b8      	mov	r8, r7
1000101a:	bdf0      	pop	{r4, r5, r6, r7, pc}
1000101c:	2700      	movs	r7, #0
1000101e:	2400      	movs	r4, #0
10001020:	2007      	movs	r0, #7
10001022:	492a      	ldr	r1, [pc, #168]	; (100010cc <pvPortMalloc+0x100>)
10001024:	4208      	tst	r0, r1
10001026:	d148      	bne.n	100010ba <pvPortMalloc+0xee>
10001028:	2380      	movs	r3, #128	; 0x80
1000102a:	029b      	lsls	r3, r3, #10
1000102c:	18cd      	adds	r5, r1, r3
1000102e:	0008      	movs	r0, r1
10001030:	000b      	movs	r3, r1
10001032:	2100      	movs	r1, #0
10001034:	4e26      	ldr	r6, [pc, #152]	; (100010d0 <pvPortMalloc+0x104>)
10001036:	3d08      	subs	r5, #8
10001038:	6071      	str	r1, [r6, #4]
1000103a:	6030      	str	r0, [r6, #0]
1000103c:	2607      	movs	r6, #7
1000103e:	43b5      	bics	r5, r6
10001040:	6015      	str	r5, [r2, #0]
10001042:	4a24      	ldr	r2, [pc, #144]	; (100010d4 <pvPortMalloc+0x108>)
10001044:	1aeb      	subs	r3, r5, r3
10001046:	6013      	str	r3, [r2, #0]
10001048:	4a23      	ldr	r2, [pc, #140]	; (100010d8 <pvPortMalloc+0x10c>)
1000104a:	6069      	str	r1, [r5, #4]
1000104c:	6029      	str	r1, [r5, #0]
1000104e:	6013      	str	r3, [r2, #0]
10001050:	6043      	str	r3, [r0, #4]
10001052:	6005      	str	r5, [r0, #0]
10001054:	2f00      	cmp	r7, #0
10001056:	ddda      	ble.n	1000100e <pvPortMalloc+0x42>
10001058:	4f1f      	ldr	r7, [pc, #124]	; (100010d8 <pvPortMalloc+0x10c>)
1000105a:	683e      	ldr	r6, [r7, #0]
1000105c:	42a6      	cmp	r6, r4
1000105e:	d3d6      	bcc.n	1000100e <pvPortMalloc+0x42>
10001060:	481b      	ldr	r0, [pc, #108]	; (100010d0 <pvPortMalloc+0x104>)
10001062:	6803      	ldr	r3, [r0, #0]
10001064:	e004      	b.n	10001070 <pvPortMalloc+0xa4>
10001066:	681a      	ldr	r2, [r3, #0]
10001068:	2a00      	cmp	r2, #0
1000106a:	d004      	beq.n	10001076 <pvPortMalloc+0xaa>
1000106c:	0018      	movs	r0, r3
1000106e:	0013      	movs	r3, r2
10001070:	6859      	ldr	r1, [r3, #4]
10001072:	42a1      	cmp	r1, r4
10001074:	d3f7      	bcc.n	10001066 <pvPortMalloc+0x9a>
10001076:	42ab      	cmp	r3, r5
10001078:	d0c9      	beq.n	1000100e <pvPortMalloc+0x42>
1000107a:	001d      	movs	r5, r3
1000107c:	681a      	ldr	r2, [r3, #0]
1000107e:	3508      	adds	r5, #8
10001080:	4690      	mov	r8, r2
10001082:	6002      	str	r2, [r0, #0]
10001084:	1b0a      	subs	r2, r1, r4
10001086:	2a10      	cmp	r2, #16
10001088:	d905      	bls.n	10001096 <pvPortMalloc+0xca>
1000108a:	1919      	adds	r1, r3, r4
1000108c:	604a      	str	r2, [r1, #4]
1000108e:	4642      	mov	r2, r8
10001090:	600a      	str	r2, [r1, #0]
10001092:	6001      	str	r1, [r0, #0]
10001094:	0021      	movs	r1, r4
10001096:	4a0f      	ldr	r2, [pc, #60]	; (100010d4 <pvPortMalloc+0x108>)
10001098:	1a76      	subs	r6, r6, r1
1000109a:	6810      	ldr	r0, [r2, #0]
1000109c:	603e      	str	r6, [r7, #0]
1000109e:	4286      	cmp	r6, r0
100010a0:	d200      	bcs.n	100010a4 <pvPortMalloc+0xd8>
100010a2:	6016      	str	r6, [r2, #0]
100010a4:	2280      	movs	r2, #128	; 0x80
100010a6:	0612      	lsls	r2, r2, #24
100010a8:	4311      	orrs	r1, r2
100010aa:	2200      	movs	r2, #0
100010ac:	601a      	str	r2, [r3, #0]
100010ae:	4a0b      	ldr	r2, [pc, #44]	; (100010dc <pvPortMalloc+0x110>)
100010b0:	6059      	str	r1, [r3, #4]
100010b2:	6813      	ldr	r3, [r2, #0]
100010b4:	3301      	adds	r3, #1
100010b6:	6013      	str	r3, [r2, #0]
100010b8:	e7aa      	b.n	10001010 <pvPortMalloc+0x44>
100010ba:	1dcb      	adds	r3, r1, #7
100010bc:	4383      	bics	r3, r0
100010be:	2080      	movs	r0, #128	; 0x80
100010c0:	0280      	lsls	r0, r0, #10
100010c2:	180d      	adds	r5, r1, r0
100010c4:	0018      	movs	r0, r3
100010c6:	e7b4      	b.n	10001032 <pvPortMalloc+0x66>
100010c8:	20000784 	.word	0x20000784
100010cc:	20000a28 	.word	0x20000a28
100010d0:	20020ae8 	.word	0x20020ae8
100010d4:	20020ab8 	.word	0x20020ab8
100010d8:	20020aa8 	.word	0x20020aa8
100010dc:	20020ac4 	.word	0x20020ac4

100010e0 <vPortFree>:
100010e0:	b570      	push	{r4, r5, r6, lr}
100010e2:	2800      	cmp	r0, #0
100010e4:	d007      	beq.n	100010f6 <vPortFree+0x16>
100010e6:	3808      	subs	r0, #8
100010e8:	6843      	ldr	r3, [r0, #4]
100010ea:	0004      	movs	r4, r0
100010ec:	2b00      	cmp	r3, #0
100010ee:	da02      	bge.n	100010f6 <vPortFree+0x16>
100010f0:	6802      	ldr	r2, [r0, #0]
100010f2:	2a00      	cmp	r2, #0
100010f4:	d000      	beq.n	100010f8 <vPortFree+0x18>
100010f6:	bd70      	pop	{r4, r5, r6, pc}
100010f8:	005b      	lsls	r3, r3, #1
100010fa:	085b      	lsrs	r3, r3, #1
100010fc:	6043      	str	r3, [r0, #4]
100010fe:	0005      	movs	r5, r0
10001100:	f001 fd4c 	bl	10002b9c <vTaskSuspendAll>
10001104:	4a15      	ldr	r2, [pc, #84]	; (1000115c <vPortFree+0x7c>)
10001106:	6861      	ldr	r1, [r4, #4]
10001108:	6813      	ldr	r3, [r2, #0]
1000110a:	185b      	adds	r3, r3, r1
1000110c:	6013      	str	r3, [r2, #0]
1000110e:	4b14      	ldr	r3, [pc, #80]	; (10001160 <vPortFree+0x80>)
10001110:	001a      	movs	r2, r3
10001112:	681b      	ldr	r3, [r3, #0]
10001114:	429c      	cmp	r4, r3
10001116:	d8fb      	bhi.n	10001110 <vPortFree+0x30>
10001118:	6850      	ldr	r0, [r2, #4]
1000111a:	1816      	adds	r6, r2, r0
1000111c:	42b4      	cmp	r4, r6
1000111e:	d018      	beq.n	10001152 <vPortFree+0x72>
10001120:	1868      	adds	r0, r5, r1
10001122:	4283      	cmp	r3, r0
10001124:	d00a      	beq.n	1000113c <vPortFree+0x5c>
10001126:	602b      	str	r3, [r5, #0]
10001128:	42aa      	cmp	r2, r5
1000112a:	d000      	beq.n	1000112e <vPortFree+0x4e>
1000112c:	6015      	str	r5, [r2, #0]
1000112e:	4a0d      	ldr	r2, [pc, #52]	; (10001164 <vPortFree+0x84>)
10001130:	6813      	ldr	r3, [r2, #0]
10001132:	3301      	adds	r3, #1
10001134:	6013      	str	r3, [r2, #0]
10001136:	f003 f931 	bl	1000439c <xTaskResumeAll>
1000113a:	e7dc      	b.n	100010f6 <vPortFree+0x16>
1000113c:	480a      	ldr	r0, [pc, #40]	; (10001168 <vPortFree+0x88>)
1000113e:	6800      	ldr	r0, [r0, #0]
10001140:	4283      	cmp	r3, r0
10001142:	d0f0      	beq.n	10001126 <vPortFree+0x46>
10001144:	6858      	ldr	r0, [r3, #4]
10001146:	681b      	ldr	r3, [r3, #0]
10001148:	4684      	mov	ip, r0
1000114a:	4461      	add	r1, ip
1000114c:	6069      	str	r1, [r5, #4]
1000114e:	602b      	str	r3, [r5, #0]
10001150:	e7ea      	b.n	10001128 <vPortFree+0x48>
10001152:	1809      	adds	r1, r1, r0
10001154:	0015      	movs	r5, r2
10001156:	6051      	str	r1, [r2, #4]
10001158:	e7e2      	b.n	10001120 <vPortFree+0x40>
1000115a:	46c0      	nop			; (mov r8, r8)
1000115c:	20020aa8 	.word	0x20020aa8
10001160:	20020ae8 	.word	0x20020ae8
10001164:	20020ac8 	.word	0x20020ac8
10001168:	20000784 	.word	0x20000784

1000116c <vPortSVCHandler>:
1000116c:	4770      	bx	lr
1000116e:	46c0      	nop			; (mov r8, r8)

10001170 <vPortStartFirstTask>:
10001170:	a10b      	add	r1, pc, #44	; (adr r1, 100011a0 <ulAsmLocals>)
10001172:	c90c      	ldmia	r1!, {r2, r3}
10001174:	6812      	ldr	r2, [r2, #0]
10001176:	0092      	lsls	r2, r2, #2
10001178:	589b      	ldr	r3, [r3, r2]
1000117a:	6818      	ldr	r0, [r3, #0]
1000117c:	3020      	adds	r0, #32
1000117e:	f380 8809 	msr	PSP, r0
10001182:	2002      	movs	r0, #2
10001184:	f380 8814 	msr	CONTROL, r0
10001188:	f3bf 8f6f 	isb	sy
1000118c:	bc3f      	pop	{r0, r1, r2, r3, r4, r5}
1000118e:	46ae      	mov	lr, r5
10001190:	bc08      	pop	{r3}
10001192:	bc04      	pop	{r2}
10001194:	b662      	cpsie	i
10001196:	4718      	bx	r3
10001198:	46c0      	nop			; (mov r8, r8)
1000119a:	46c0      	nop			; (mov r8, r8)
1000119c:	46c0      	nop			; (mov r8, r8)
1000119e:	46c0      	nop			; (mov r8, r8)

100011a0 <ulAsmLocals>:
100011a0:	d0000000 	.word	0xd0000000
100011a4:	20000774 	.word	0x20000774

100011a8 <prvFIFOInterruptHandler>:
100011a8:	23d0      	movs	r3, #208	; 0xd0
100011aa:	061b      	lsls	r3, r3, #24
100011ac:	6d1a      	ldr	r2, [r3, #80]	; 0x50
100011ae:	07d2      	lsls	r2, r2, #31
100011b0:	d504      	bpl.n	100011bc <prvFIFOInterruptHandler+0x14>
100011b2:	2101      	movs	r1, #1
100011b4:	6d9a      	ldr	r2, [r3, #88]	; 0x58
100011b6:	6d1a      	ldr	r2, [r3, #80]	; 0x50
100011b8:	4211      	tst	r1, r2
100011ba:	d1fb      	bne.n	100011b4 <prvFIFOInterruptHandler+0xc>
100011bc:	23d0      	movs	r3, #208	; 0xd0
100011be:	22ff      	movs	r2, #255	; 0xff
100011c0:	061b      	lsls	r3, r3, #24
100011c2:	651a      	str	r2, [r3, #80]	; 0x50
100011c4:	2280      	movs	r2, #128	; 0x80
100011c6:	4b02      	ldr	r3, [pc, #8]	; (100011d0 <prvFIFOInterruptHandler+0x28>)
100011c8:	0552      	lsls	r2, r2, #21
100011ca:	601a      	str	r2, [r3, #0]
100011cc:	4770      	bx	lr
100011ce:	46c0      	nop			; (mov r8, r8)
100011d0:	e000ed04 	.word	0xe000ed04
	...

100011e0 <xPortPendSVHandler>:
100011e0:	f3ef 8109 	mrs	r1, PSP
100011e4:	a01a      	add	r0, pc, #104	; (adr r0, 10001250 <ulAsmLocals2>)
100011e6:	c80c      	ldmia	r0!, {r2, r3}
100011e8:	6810      	ldr	r0, [r2, #0]
100011ea:	0080      	lsls	r0, r0, #2
100011ec:	181b      	adds	r3, r3, r0
100011ee:	6818      	ldr	r0, [r3, #0]
100011f0:	3920      	subs	r1, #32
100011f2:	6001      	str	r1, [r0, #0]
100011f4:	c1f0      	stmia	r1!, {r4, r5, r6, r7}
100011f6:	4644      	mov	r4, r8
100011f8:	464d      	mov	r5, r9
100011fa:	4656      	mov	r6, sl
100011fc:	465f      	mov	r7, fp
100011fe:	c1f0      	stmia	r1!, {r4, r5, r6, r7}
10001200:	6e14      	ldr	r4, [r2, #96]	; 0x60
10001202:	6e55      	ldr	r5, [r2, #100]	; 0x64
10001204:	6f56      	ldr	r6, [r2, #116]	; 0x74
10001206:	6f17      	ldr	r7, [r2, #112]	; 0x70
10001208:	3930      	subs	r1, #48	; 0x30
1000120a:	c1f0      	stmia	r1!, {r4, r5, r6, r7}
1000120c:	6810      	ldr	r0, [r2, #0]
1000120e:	b508      	push	{r3, lr}
10001210:	b672      	cpsid	i
10001212:	f001 fe6d 	bl	10002ef0 <vTaskSwitchContext>
10001216:	b662      	cpsie	i
10001218:	bc0c      	pop	{r2, r3}
1000121a:	6811      	ldr	r1, [r2, #0]
1000121c:	6808      	ldr	r0, [r1, #0]
1000121e:	3010      	adds	r0, #16
10001220:	c8f0      	ldmia	r0!, {r4, r5, r6, r7}
10001222:	46a0      	mov	r8, r4
10001224:	46a9      	mov	r9, r5
10001226:	46b2      	mov	sl, r6
10001228:	46bb      	mov	fp, r7
1000122a:	f380 8809 	msr	PSP, r0
1000122e:	220d      	movs	r2, #13
10001230:	0712      	lsls	r2, r2, #28
10001232:	3830      	subs	r0, #48	; 0x30
10001234:	c8f0      	ldmia	r0!, {r4, r5, r6, r7}
10001236:	6614      	str	r4, [r2, #96]	; 0x60
10001238:	6655      	str	r5, [r2, #100]	; 0x64
1000123a:	6756      	str	r6, [r2, #116]	; 0x74
1000123c:	6717      	str	r7, [r2, #112]	; 0x70
1000123e:	c8f0      	ldmia	r0!, {r4, r5, r6, r7}
10001240:	4718      	bx	r3
10001242:	46c0      	nop			; (mov r8, r8)
10001244:	46c0      	nop			; (mov r8, r8)
10001246:	46c0      	nop			; (mov r8, r8)
10001248:	46c0      	nop			; (mov r8, r8)
1000124a:	46c0      	nop			; (mov r8, r8)
1000124c:	46c0      	nop			; (mov r8, r8)
1000124e:	46c0      	nop			; (mov r8, r8)

10001250 <ulAsmLocals2>:
10001250:	d0000000 	.word	0xd0000000
10001254:	20000774 	.word	0x20000774

10001258 <xPortSysTickHandler>:
10001258:	b510      	push	{r4, lr}
1000125a:	f003 f92b 	bl	100044b4 <vTaskEnterCriticalFromISR>
1000125e:	0004      	movs	r4, r0
10001260:	f001 fd16 	bl	10002c90 <xTaskIncrementTick>
10001264:	2800      	cmp	r0, #0
10001266:	d003      	beq.n	10001270 <xPortSysTickHandler+0x18>
10001268:	2280      	movs	r2, #128	; 0x80
1000126a:	4b03      	ldr	r3, [pc, #12]	; (10001278 <xPortSysTickHandler+0x20>)
1000126c:	0552      	lsls	r2, r2, #21
1000126e:	601a      	str	r2, [r3, #0]
10001270:	0020      	movs	r0, r4
10001272:	f003 f9b1 	bl	100045d8 <vTaskExitCriticalFromISR>
10001276:	bd10      	pop	{r4, pc}
10001278:	e000ed04 	.word	0xe000ed04

1000127c <prvTaskExitError>:
1000127c:	b510      	push	{r4, lr}
1000127e:	f7ff fe9f 	bl	10000fc0 <panic_unsupported>
10001282:	46c0      	nop			; (mov r8, r8)

10001284 <pxPortInitialiseStack>:
10001284:	b510      	push	{r4, lr}
10001286:	2480      	movs	r4, #128	; 0x80
10001288:	1f03      	subs	r3, r0, #4
1000128a:	0464      	lsls	r4, r4, #17
1000128c:	601c      	str	r4, [r3, #0]
1000128e:	3b04      	subs	r3, #4
10001290:	6019      	str	r1, [r3, #0]
10001292:	4903      	ldr	r1, [pc, #12]	; (100012a0 <pxPortInitialiseStack+0x1c>)
10001294:	3b04      	subs	r3, #4
10001296:	6019      	str	r1, [r3, #0]
10001298:	3b14      	subs	r3, #20
1000129a:	3840      	subs	r0, #64	; 0x40
1000129c:	601a      	str	r2, [r3, #0]
1000129e:	bd10      	pop	{r4, pc}
100012a0:	1000127d 	.word	0x1000127d

100012a4 <vPortYield>:
100012a4:	2280      	movs	r2, #128	; 0x80
100012a6:	4b04      	ldr	r3, [pc, #16]	; (100012b8 <vPortYield+0x14>)
100012a8:	0552      	lsls	r2, r2, #21
100012aa:	601a      	str	r2, [r3, #0]
100012ac:	f3bf 8f4f 	dsb	sy
100012b0:	f3bf 8f6f 	isb	sy
100012b4:	4770      	bx	lr
100012b6:	46c0      	nop			; (mov r8, r8)
100012b8:	e000ed04 	.word	0xe000ed04

100012bc <vPortEnableInterrupts>:
100012bc:	23d0      	movs	r3, #208	; 0xd0
100012be:	061b      	lsls	r3, r3, #24
100012c0:	681b      	ldr	r3, [r3, #0]
100012c2:	4908      	ldr	r1, [pc, #32]	; (100012e4 <vPortEnableInterrupts+0x28>)
100012c4:	009b      	lsls	r3, r3, #2
100012c6:	585a      	ldr	r2, [r3, r1]
100012c8:	2a00      	cmp	r2, #0
100012ca:	d008      	beq.n	100012de <vPortEnableInterrupts+0x22>
100012cc:	2000      	movs	r0, #0
100012ce:	5058      	str	r0, [r3, r1]
100012d0:	4905      	ldr	r1, [pc, #20]	; (100012e8 <vPortEnableInterrupts+0x2c>)
100012d2:	585b      	ldr	r3, [r3, r1]
100012d4:	f3bf 8f5f 	dmb	sy
100012d8:	6010      	str	r0, [r2, #0]
100012da:	f383 8810 	msr	PRIMASK, r3
100012de:	b662      	cpsie	i
100012e0:	4770      	bx	lr
100012e2:	46c0      	nop			; (mov r8, r8)
100012e4:	20000a10 	.word	0x20000a10
100012e8:	20020a30 	.word	0x20020a30

100012ec <ulSetInterruptMaskFromISR>:
100012ec:	f3ef 8010 	mrs	r0, PRIMASK
100012f0:	b672      	cpsid	i
100012f2:	4770      	bx	lr

100012f4 <vClearInterruptMaskFromISR>:
100012f4:	f380 8810 	msr	PRIMASK, r0
100012f8:	4770      	bx	lr
100012fa:	46c0      	nop			; (mov r8, r8)

100012fc <vYieldCore>:
100012fc:	23d0      	movs	r3, #208	; 0xd0
100012fe:	2200      	movs	r2, #0
10001300:	061b      	lsls	r3, r3, #24
10001302:	655a      	str	r2, [r3, #84]	; 0x54
10001304:	4770      	bx	lr
10001306:	46c0      	nop			; (mov r8, r8)

10001308 <vPortSetupTimerInterrupt>:
10001308:	2300      	movs	r3, #0
1000130a:	b510      	push	{r4, lr}
1000130c:	4a08      	ldr	r2, [pc, #32]	; (10001330 <vPortSetupTimerInterrupt+0x28>)
1000130e:	4c09      	ldr	r4, [pc, #36]	; (10001334 <vPortSetupTimerInterrupt+0x2c>)
10001310:	2005      	movs	r0, #5
10001312:	6023      	str	r3, [r4, #0]
10001314:	6013      	str	r3, [r2, #0]
10001316:	f003 ff93 	bl	10005240 <clock_get_hz>
1000131a:	21fa      	movs	r1, #250	; 0xfa
1000131c:	0089      	lsls	r1, r1, #2
1000131e:	f005 f86d 	bl	100063fc <__wrap___aeabi_uidiv>
10001322:	4b05      	ldr	r3, [pc, #20]	; (10001338 <vPortSetupTimerInterrupt+0x30>)
10001324:	3801      	subs	r0, #1
10001326:	6018      	str	r0, [r3, #0]
10001328:	2307      	movs	r3, #7
1000132a:	6023      	str	r3, [r4, #0]
1000132c:	bd10      	pop	{r4, pc}
1000132e:	46c0      	nop			; (mov r8, r8)
10001330:	e000e018 	.word	0xe000e018
10001334:	e000e010 	.word	0xe000e010
10001338:	e000e014 	.word	0xe000e014

1000133c <xPortStartSchedulerOnCore.isra.0>:
1000133c:	b570      	push	{r4, r5, r6, lr}
1000133e:	4b22      	ldr	r3, [pc, #136]	; (100013c8 <xPortStartSchedulerOnCore.isra.0+0x8c>)
10001340:	781a      	ldrb	r2, [r3, #0]
10001342:	23d0      	movs	r3, #208	; 0xd0
10001344:	061b      	lsls	r3, r3, #24
10001346:	681b      	ldr	r3, [r3, #0]
10001348:	429a      	cmp	r2, r3
1000134a:	d030      	beq.n	100013ae <xPortStartSchedulerOnCore.isra.0+0x72>
1000134c:	23ff      	movs	r3, #255	; 0xff
1000134e:	4a1f      	ldr	r2, [pc, #124]	; (100013cc <xPortStartSchedulerOnCore.isra.0+0x90>)
10001350:	041b      	lsls	r3, r3, #16
10001352:	6811      	ldr	r1, [r2, #0]
10001354:	200e      	movs	r0, #14
10001356:	430b      	orrs	r3, r1
10001358:	6013      	str	r3, [r2, #0]
1000135a:	491d      	ldr	r1, [pc, #116]	; (100013d0 <xPortStartSchedulerOnCore.isra.0+0x94>)
1000135c:	f004 fe10 	bl	10005f80 <exception_set_exclusive_handler>
10001360:	200b      	movs	r0, #11
10001362:	491c      	ldr	r1, [pc, #112]	; (100013d4 <xPortStartSchedulerOnCore.isra.0+0x98>)
10001364:	f004 fe0c 	bl	10005f80 <exception_set_exclusive_handler>
10001368:	23d0      	movs	r3, #208	; 0xd0
1000136a:	22ff      	movs	r2, #255	; 0xff
1000136c:	061b      	lsls	r3, r3, #24
1000136e:	651a      	str	r2, [r3, #80]	; 0x50
10001370:	6d1a      	ldr	r2, [r3, #80]	; 0x50
10001372:	07d2      	lsls	r2, r2, #31
10001374:	d504      	bpl.n	10001380 <xPortStartSchedulerOnCore.isra.0+0x44>
10001376:	2101      	movs	r1, #1
10001378:	6d9a      	ldr	r2, [r3, #88]	; 0x58
1000137a:	6d1a      	ldr	r2, [r3, #80]	; 0x50
1000137c:	4211      	tst	r1, r2
1000137e:	d1fb      	bne.n	10001378 <xPortStartSchedulerOnCore.isra.0+0x3c>
10001380:	25d0      	movs	r5, #208	; 0xd0
10001382:	062d      	lsls	r5, r5, #24
10001384:	682c      	ldr	r4, [r5, #0]
10001386:	21ff      	movs	r1, #255	; 0xff
10001388:	340f      	adds	r4, #15
1000138a:	0020      	movs	r0, r4
1000138c:	f004 f91c 	bl	100055c8 <irq_set_priority>
10001390:	0020      	movs	r0, r4
10001392:	4911      	ldr	r1, [pc, #68]	; (100013d8 <xPortStartSchedulerOnCore.isra.0+0x9c>)
10001394:	f004 f80c 	bl	100053b0 <irq_set_exclusive_handler>
10001398:	2101      	movs	r1, #1
1000139a:	0020      	movs	r0, r4
1000139c:	f003 ffea 	bl	10005374 <irq_set_enabled>
100013a0:	f7ff fee6 	bl	10001170 <vPortStartFirstTask>
100013a4:	6828      	ldr	r0, [r5, #0]
100013a6:	f001 fda3 	bl	10002ef0 <vTaskSwitchContext>
100013aa:	f7ff fe09 	bl	10000fc0 <panic_unsupported>
100013ae:	f7ff ffab 	bl	10001308 <vPortSetupTimerInterrupt>
100013b2:	23ff      	movs	r3, #255	; 0xff
100013b4:	4a05      	ldr	r2, [pc, #20]	; (100013cc <xPortStartSchedulerOnCore.isra.0+0x90>)
100013b6:	061b      	lsls	r3, r3, #24
100013b8:	6811      	ldr	r1, [r2, #0]
100013ba:	200f      	movs	r0, #15
100013bc:	430b      	orrs	r3, r1
100013be:	6013      	str	r3, [r2, #0]
100013c0:	4906      	ldr	r1, [pc, #24]	; (100013dc <xPortStartSchedulerOnCore.isra.0+0xa0>)
100013c2:	f004 fddd 	bl	10005f80 <exception_set_exclusive_handler>
100013c6:	e7c1      	b.n	1000134c <xPortStartSchedulerOnCore.isra.0+0x10>
100013c8:	20000250 	.word	0x20000250
100013cc:	e000ed20 	.word	0xe000ed20
100013d0:	100011e1 	.word	0x100011e1
100013d4:	1000116d 	.word	0x1000116d
100013d8:	100011a9 	.word	0x100011a9
100013dc:	10001259 	.word	0x10001259

100013e0 <prvDisableInterruptsAndPortStartSchedulerOnCore>:
100013e0:	b510      	push	{r4, lr}
100013e2:	b672      	cpsid	i
100013e4:	f7ff ffaa 	bl	1000133c <xPortStartSchedulerOnCore.isra.0>

100013e8 <xPortStartScheduler>:
100013e8:	b510      	push	{r4, lr}
100013ea:	200e      	movs	r0, #14
100013ec:	f003 ff5c 	bl	100052a8 <spin_lock_claim>
100013f0:	200f      	movs	r0, #15
100013f2:	f003 ff59 	bl	100052a8 <spin_lock_claim>
100013f6:	2200      	movs	r2, #0
100013f8:	4b03      	ldr	r3, [pc, #12]	; (10001408 <xPortStartScheduler+0x20>)
100013fa:	4804      	ldr	r0, [pc, #16]	; (1000140c <xPortStartScheduler+0x24>)
100013fc:	701a      	strb	r2, [r3, #0]
100013fe:	f004 fe2d 	bl	1000605c <multicore_launch_core1>
10001402:	f7ff ff9b 	bl	1000133c <xPortStartSchedulerOnCore.isra.0>
10001406:	46c0      	nop			; (mov r8, r8)
10001408:	20000250 	.word	0x20000250
1000140c:	100013e1 	.word	0x100013e1

10001410 <ulPortLockGetCurrentOwnerId>:
10001410:	b510      	push	{r4, lr}
10001412:	4b0a      	ldr	r3, [pc, #40]	; (1000143c <ulPortLockGetCurrentOwnerId+0x2c>)
10001414:	781b      	ldrb	r3, [r3, #0]
10001416:	2bff      	cmp	r3, #255	; 0xff
10001418:	d00c      	beq.n	10001434 <ulPortLockGetCurrentOwnerId+0x24>
1000141a:	f3ef 8005 	mrs	r0, IPSR
1000141e:	2800      	cmp	r0, #0
10001420:	d005      	beq.n	1000142e <ulPortLockGetCurrentOwnerId+0x1e>
10001422:	23d0      	movs	r3, #208	; 0xd0
10001424:	061b      	lsls	r3, r3, #24
10001426:	681b      	ldr	r3, [r3, #0]
10001428:	0040      	lsls	r0, r0, #1
1000142a:	18c0      	adds	r0, r0, r3
1000142c:	bd10      	pop	{r4, pc}
1000142e:	f002 f967 	bl	10003700 <xTaskGetCurrentTaskHandle>
10001432:	e7fb      	b.n	1000142c <ulPortLockGetCurrentOwnerId+0x1c>
10001434:	23d0      	movs	r3, #208	; 0xd0
10001436:	061b      	lsls	r3, r3, #24
10001438:	6818      	ldr	r0, [r3, #0]
1000143a:	e7f7      	b.n	1000142c <ulPortLockGetCurrentOwnerId+0x1c>
1000143c:	20000250 	.word	0x20000250

10001440 <vPortLockInternalSpinUnlockWithNotify>:
10001440:	b500      	push	{lr}
10001442:	4a1c      	ldr	r2, [pc, #112]	; (100014b4 <vPortLockInternalSpinUnlockWithNotify+0x74>)
10001444:	000b      	movs	r3, r1
10001446:	7812      	ldrb	r2, [r2, #0]
10001448:	b083      	sub	sp, #12
1000144a:	2aff      	cmp	r2, #255	; 0xff
1000144c:	d029      	beq.n	100014a2 <vPortLockInternalSpinUnlockWithNotify+0x62>
1000144e:	491a      	ldr	r1, [pc, #104]	; (100014b8 <vPortLockInternalSpinUnlockWithNotify+0x78>)
10001450:	6802      	ldr	r2, [r0, #0]
10001452:	468c      	mov	ip, r1
10001454:	2102      	movs	r1, #2
10001456:	4462      	add	r2, ip
10001458:	1092      	asrs	r2, r2, #2
1000145a:	31ff      	adds	r1, #255	; 0xff
1000145c:	4091      	lsls	r1, r2
1000145e:	0a09      	lsrs	r1, r1, #8
10001460:	bf40      	sev
10001462:	6800      	ldr	r0, [r0, #0]
10001464:	f3bf 8f5f 	dmb	sy
10001468:	2200      	movs	r2, #0
1000146a:	6002      	str	r2, [r0, #0]
1000146c:	f383 8810 	msr	PRIMASK, r3
10001470:	f3ef 8305 	mrs	r3, IPSR
10001474:	b2db      	uxtb	r3, r3
10001476:	2b00      	cmp	r3, #0
10001478:	d105      	bne.n	10001486 <vPortLockInternalSpinUnlockWithNotify+0x46>
1000147a:	4b10      	ldr	r3, [pc, #64]	; (100014bc <vPortLockInternalSpinUnlockWithNotify+0x7c>)
1000147c:	6818      	ldr	r0, [r3, #0]
1000147e:	f000 f94d 	bl	1000171c <xEventGroupSetBits>
10001482:	b003      	add	sp, #12
10001484:	bd00      	pop	{pc}
10001486:	4b0d      	ldr	r3, [pc, #52]	; (100014bc <vPortLockInternalSpinUnlockWithNotify+0x7c>)
10001488:	9201      	str	r2, [sp, #4]
1000148a:	6818      	ldr	r0, [r3, #0]
1000148c:	aa01      	add	r2, sp, #4
1000148e:	f000 f98d 	bl	100017ac <xEventGroupSetBitsFromISR>
10001492:	9b01      	ldr	r3, [sp, #4]
10001494:	2b00      	cmp	r3, #0
10001496:	d0f4      	beq.n	10001482 <vPortLockInternalSpinUnlockWithNotify+0x42>
10001498:	2280      	movs	r2, #128	; 0x80
1000149a:	4b09      	ldr	r3, [pc, #36]	; (100014c0 <vPortLockInternalSpinUnlockWithNotify+0x80>)
1000149c:	0552      	lsls	r2, r2, #21
1000149e:	601a      	str	r2, [r3, #0]
100014a0:	e7ef      	b.n	10001482 <vPortLockInternalSpinUnlockWithNotify+0x42>
100014a2:	bf40      	sev
100014a4:	6802      	ldr	r2, [r0, #0]
100014a6:	f3bf 8f5f 	dmb	sy
100014aa:	2100      	movs	r1, #0
100014ac:	6011      	str	r1, [r2, #0]
100014ae:	f383 8810 	msr	PRIMASK, r3
100014b2:	e7e6      	b.n	10001482 <vPortLockInternalSpinUnlockWithNotify+0x42>
100014b4:	20000250 	.word	0x20000250
100014b8:	2fffff00 	.word	0x2fffff00
100014bc:	20020aa4 	.word	0x20020aa4
100014c0:	e000ed04 	.word	0xe000ed04

100014c4 <xPortLockInternalSpinUnlockWithBestEffortWaitOrTimeout>:
100014c4:	b5f0      	push	{r4, r5, r6, r7, lr}
100014c6:	001d      	movs	r5, r3
100014c8:	4b31      	ldr	r3, [pc, #196]	; (10001590 <xPortLockInternalSpinUnlockWithBestEffortWaitOrTimeout+0xcc>)
100014ca:	0007      	movs	r7, r0
100014cc:	781b      	ldrb	r3, [r3, #0]
100014ce:	000e      	movs	r6, r1
100014d0:	0014      	movs	r4, r2
100014d2:	b083      	sub	sp, #12
100014d4:	2bff      	cmp	r3, #255	; 0xff
100014d6:	d04e      	beq.n	10001576 <xPortLockInternalSpinUnlockWithBestEffortWaitOrTimeout+0xb2>
100014d8:	f004 fc3c 	bl	10005d54 <time_us_64>
100014dc:	0022      	movs	r2, r4
100014de:	002b      	movs	r3, r5
100014e0:	1a12      	subs	r2, r2, r0
100014e2:	418b      	sbcs	r3, r1
100014e4:	2101      	movs	r1, #1
100014e6:	482b      	ldr	r0, [pc, #172]	; (10001594 <xPortLockInternalSpinUnlockWithBestEffortWaitOrTimeout+0xd0>)
100014e8:	4249      	negs	r1, r1
100014ea:	1880      	adds	r0, r0, r2
100014ec:	4159      	adcs	r1, r3
100014ee:	2900      	cmp	r1, #0
100014f0:	dc21      	bgt.n	10001536 <xPortLockInternalSpinUnlockWithBestEffortWaitOrTimeout+0x72>
100014f2:	d01c      	beq.n	1000152e <xPortLockInternalSpinUnlockWithBestEffortWaitOrTimeout+0x6a>
100014f4:	683b      	ldr	r3, [r7, #0]
100014f6:	f3bf 8f5f 	dmb	sy
100014fa:	2200      	movs	r2, #0
100014fc:	601a      	str	r2, [r3, #0]
100014fe:	f386 8810 	msr	PRIMASK, r6
10001502:	4b25      	ldr	r3, [pc, #148]	; (10001598 <xPortLockInternalSpinUnlockWithBestEffortWaitOrTimeout+0xd4>)
10001504:	6a5a      	ldr	r2, [r3, #36]	; 0x24
10001506:	4295      	cmp	r5, r2
10001508:	d90a      	bls.n	10001520 <xPortLockInternalSpinUnlockWithBestEffortWaitOrTimeout+0x5c>
1000150a:	2280      	movs	r2, #128	; 0x80
1000150c:	4b23      	ldr	r3, [pc, #140]	; (1000159c <xPortLockInternalSpinUnlockWithBestEffortWaitOrTimeout+0xd8>)
1000150e:	0552      	lsls	r2, r2, #21
10001510:	601a      	str	r2, [r3, #0]
10001512:	f3bf 8f4f 	dsb	sy
10001516:	f3bf 8f6f 	isb	sy
1000151a:	2000      	movs	r0, #0
1000151c:	b003      	add	sp, #12
1000151e:	bdf0      	pop	{r4, r5, r6, r7, pc}
10001520:	6a9b      	ldr	r3, [r3, #40]	; 0x28
10001522:	2001      	movs	r0, #1
10001524:	42a3      	cmp	r3, r4
10001526:	d2f9      	bcs.n	1000151c <xPortLockInternalSpinUnlockWithBestEffortWaitOrTimeout+0x58>
10001528:	4295      	cmp	r5, r2
1000152a:	d1f7      	bne.n	1000151c <xPortLockInternalSpinUnlockWithBestEffortWaitOrTimeout+0x58>
1000152c:	e7ed      	b.n	1000150a <xPortLockInternalSpinUnlockWithBestEffortWaitOrTimeout+0x46>
1000152e:	23fa      	movs	r3, #250	; 0xfa
10001530:	009b      	lsls	r3, r3, #2
10001532:	4298      	cmp	r0, r3
10001534:	d3de      	bcc.n	100014f4 <xPortLockInternalSpinUnlockWithBestEffortWaitOrTimeout+0x30>
10001536:	22fa      	movs	r2, #250	; 0xfa
10001538:	2300      	movs	r3, #0
1000153a:	0092      	lsls	r2, r2, #2
1000153c:	f004 ff84 	bl	10006448 <__wrap___aeabi_ldivmod>
10001540:	1e03      	subs	r3, r0, #0
10001542:	d0d7      	beq.n	100014f4 <xPortLockInternalSpinUnlockWithBestEffortWaitOrTimeout+0x30>
10001544:	22d0      	movs	r2, #208	; 0xd0
10001546:	0612      	lsls	r2, r2, #24
10001548:	6811      	ldr	r1, [r2, #0]
1000154a:	4815      	ldr	r0, [pc, #84]	; (100015a0 <xPortLockInternalSpinUnlockWithBestEffortWaitOrTimeout+0xdc>)
1000154c:	683a      	ldr	r2, [r7, #0]
1000154e:	0089      	lsls	r1, r1, #2
10001550:	500a      	str	r2, [r1, r0]
10001552:	4814      	ldr	r0, [pc, #80]	; (100015a4 <xPortLockInternalSpinUnlockWithBestEffortWaitOrTimeout+0xe0>)
10001554:	500e      	str	r6, [r1, r0]
10001556:	4914      	ldr	r1, [pc, #80]	; (100015a8 <xPortLockInternalSpinUnlockWithBestEffortWaitOrTimeout+0xe4>)
10001558:	468c      	mov	ip, r1
1000155a:	2102      	movs	r1, #2
1000155c:	4462      	add	r2, ip
1000155e:	1092      	asrs	r2, r2, #2
10001560:	31ff      	adds	r1, #255	; 0xff
10001562:	4091      	lsls	r1, r2
10001564:	4a11      	ldr	r2, [pc, #68]	; (100015ac <xPortLockInternalSpinUnlockWithBestEffortWaitOrTimeout+0xe8>)
10001566:	0a09      	lsrs	r1, r1, #8
10001568:	6810      	ldr	r0, [r2, #0]
1000156a:	9300      	str	r3, [sp, #0]
1000156c:	2201      	movs	r2, #1
1000156e:	2300      	movs	r3, #0
10001570:	f000 f878 	bl	10001664 <xEventGroupWaitBits>
10001574:	e7c5      	b.n	10001502 <xPortLockInternalSpinUnlockWithBestEffortWaitOrTimeout+0x3e>
10001576:	6803      	ldr	r3, [r0, #0]
10001578:	f3bf 8f5f 	dmb	sy
1000157c:	2200      	movs	r2, #0
1000157e:	601a      	str	r2, [r3, #0]
10001580:	f381 8810 	msr	PRIMASK, r1
10001584:	0020      	movs	r0, r4
10001586:	0029      	movs	r1, r5
10001588:	f004 fb62 	bl	10005c50 <best_effort_wfe_or_timeout>
1000158c:	e7c6      	b.n	1000151c <xPortLockInternalSpinUnlockWithBestEffortWaitOrTimeout+0x58>
1000158e:	46c0      	nop			; (mov r8, r8)
10001590:	20000250 	.word	0x20000250
10001594:	fffffc18 	.word	0xfffffc18
10001598:	40054000 	.word	0x40054000
1000159c:	e000ed04 	.word	0xe000ed04
100015a0:	20000a10 	.word	0x20000a10
100015a4:	20020a30 	.word	0x20020a30
100015a8:	2fffff00 	.word	0x2fffff00
100015ac:	20020aa4 	.word	0x20020aa4

100015b0 <prvRuntimeInitializer>:
100015b0:	b510      	push	{r4, lr}
100015b2:	f000 f84b 	bl	1000164c <xEventGroupCreate>
100015b6:	4b01      	ldr	r3, [pc, #4]	; (100015bc <prvRuntimeInitializer+0xc>)
100015b8:	6018      	str	r0, [r3, #0]
100015ba:	bd10      	pop	{r4, pc}
100015bc:	20020aa4 	.word	0x20020aa4

100015c0 <vEventGroupSetBitsCallback>:
100015c0:	b5f8      	push	{r3, r4, r5, r6, r7, lr}
100015c2:	46de      	mov	lr, fp
100015c4:	4657      	mov	r7, sl
100015c6:	464e      	mov	r6, r9
100015c8:	4645      	mov	r5, r8
100015ca:	b5e0      	push	{r5, r6, r7, lr}
100015cc:	0005      	movs	r5, r0
100015ce:	000f      	movs	r7, r1
100015d0:	0006      	movs	r6, r0
100015d2:	f001 fae3 	bl	10002b9c <vTaskSuspendAll>
100015d6:	6829      	ldr	r1, [r5, #0]
100015d8:	692c      	ldr	r4, [r5, #16]
100015da:	4339      	orrs	r1, r7
100015dc:	360c      	adds	r6, #12
100015de:	6029      	str	r1, [r5, #0]
100015e0:	42a6      	cmp	r6, r4
100015e2:	d02a      	beq.n	1000163a <vEventGroupSetBitsCallback+0x7a>
100015e4:	2300      	movs	r3, #0
100015e6:	4698      	mov	r8, r3
100015e8:	2380      	movs	r3, #128	; 0x80
100015ea:	04db      	lsls	r3, r3, #19
100015ec:	469b      	mov	fp, r3
100015ee:	2380      	movs	r3, #128	; 0x80
100015f0:	045b      	lsls	r3, r3, #17
100015f2:	469a      	mov	sl, r3
100015f4:	2380      	movs	r3, #128	; 0x80
100015f6:	049b      	lsls	r3, r3, #18
100015f8:	4699      	mov	r9, r3
100015fa:	e00e      	b.n	1000161a <vEventGroupSetBitsCallback+0x5a>
100015fc:	420b      	tst	r3, r1
100015fe:	d00a      	beq.n	10001616 <vEventGroupSetBitsCallback+0x56>
10001600:	4657      	mov	r7, sl
10001602:	423a      	tst	r2, r7
10001604:	d002      	beq.n	1000160c <vEventGroupSetBitsCallback+0x4c>
10001606:	4642      	mov	r2, r8
10001608:	431a      	orrs	r2, r3
1000160a:	4690      	mov	r8, r2
1000160c:	464b      	mov	r3, r9
1000160e:	4319      	orrs	r1, r3
10001610:	f002 ff02 	bl	10004418 <vTaskRemoveFromUnorderedEventList>
10001614:	6829      	ldr	r1, [r5, #0]
10001616:	42a6      	cmp	r6, r4
10001618:	d00d      	beq.n	10001636 <vEventGroupSetBitsCallback+0x76>
1000161a:	0020      	movs	r0, r4
1000161c:	465f      	mov	r7, fp
1000161e:	6802      	ldr	r2, [r0, #0]
10001620:	6864      	ldr	r4, [r4, #4]
10001622:	0213      	lsls	r3, r2, #8
10001624:	0a1b      	lsrs	r3, r3, #8
10001626:	423a      	tst	r2, r7
10001628:	d0e8      	beq.n	100015fc <vEventGroupSetBitsCallback+0x3c>
1000162a:	001f      	movs	r7, r3
1000162c:	400f      	ands	r7, r1
1000162e:	42bb      	cmp	r3, r7
10001630:	d0e6      	beq.n	10001600 <vEventGroupSetBitsCallback+0x40>
10001632:	42a6      	cmp	r6, r4
10001634:	d1f1      	bne.n	1000161a <vEventGroupSetBitsCallback+0x5a>
10001636:	4643      	mov	r3, r8
10001638:	4399      	bics	r1, r3
1000163a:	6029      	str	r1, [r5, #0]
1000163c:	f002 feae 	bl	1000439c <xTaskResumeAll>
10001640:	bcf0      	pop	{r4, r5, r6, r7}
10001642:	46bb      	mov	fp, r7
10001644:	46b2      	mov	sl, r6
10001646:	46a9      	mov	r9, r5
10001648:	46a0      	mov	r8, r4
1000164a:	bdf8      	pop	{r3, r4, r5, r6, r7, pc}

1000164c <xEventGroupCreate>:
1000164c:	b510      	push	{r4, lr}
1000164e:	201c      	movs	r0, #28
10001650:	f7ff fcbc 	bl	10000fcc <pvPortMalloc>
10001654:	1e04      	subs	r4, r0, #0
10001656:	d003      	beq.n	10001660 <xEventGroupCreate+0x14>
10001658:	2300      	movs	r3, #0
1000165a:	c008      	stmia	r0!, {r3}
1000165c:	f000 f8b0 	bl	100017c0 <vListInitialise>
10001660:	0020      	movs	r0, r4
10001662:	bd10      	pop	{r4, pc}

10001664 <xEventGroupWaitBits>:
10001664:	b5f0      	push	{r4, r5, r6, r7, lr}
10001666:	46c6      	mov	lr, r8
10001668:	0006      	movs	r6, r0
1000166a:	b500      	push	{lr}
1000166c:	000d      	movs	r5, r1
1000166e:	4690      	mov	r8, r2
10001670:	001f      	movs	r7, r3
10001672:	f001 fa93 	bl	10002b9c <vTaskSuspendAll>
10001676:	6834      	ldr	r4, [r6, #0]
10001678:	2f00      	cmp	r7, #0
1000167a:	d10a      	bne.n	10001692 <xEventGroupWaitBits+0x2e>
1000167c:	4225      	tst	r5, r4
1000167e:	d00c      	beq.n	1000169a <xEventGroupWaitBits+0x36>
10001680:	4643      	mov	r3, r8
10001682:	2b00      	cmp	r3, #0
10001684:	d00c      	beq.n	100016a0 <xEventGroupWaitBits+0x3c>
10001686:	0023      	movs	r3, r4
10001688:	43ab      	bics	r3, r5
1000168a:	6033      	str	r3, [r6, #0]
1000168c:	f002 fe86 	bl	1000439c <xTaskResumeAll>
10001690:	e008      	b.n	100016a4 <xEventGroupWaitBits+0x40>
10001692:	002b      	movs	r3, r5
10001694:	4023      	ands	r3, r4
10001696:	429d      	cmp	r5, r3
10001698:	d0f2      	beq.n	10001680 <xEventGroupWaitBits+0x1c>
1000169a:	9b06      	ldr	r3, [sp, #24]
1000169c:	2b00      	cmp	r3, #0
1000169e:	d105      	bne.n	100016ac <xEventGroupWaitBits+0x48>
100016a0:	f002 fe7c 	bl	1000439c <xTaskResumeAll>
100016a4:	0020      	movs	r0, r4
100016a6:	bc80      	pop	{r7}
100016a8:	46b8      	mov	r8, r7
100016aa:	bdf0      	pop	{r4, r5, r6, r7, pc}
100016ac:	4643      	mov	r3, r8
100016ae:	2b00      	cmp	r3, #0
100016b0:	d116      	bne.n	100016e0 <xEventGroupWaitBits+0x7c>
100016b2:	2180      	movs	r1, #128	; 0x80
100016b4:	2300      	movs	r3, #0
100016b6:	04c9      	lsls	r1, r1, #19
100016b8:	2f00      	cmp	r7, #0
100016ba:	d100      	bne.n	100016be <xEventGroupWaitBits+0x5a>
100016bc:	0019      	movs	r1, r3
100016be:	9a06      	ldr	r2, [sp, #24]
100016c0:	4329      	orrs	r1, r5
100016c2:	1d30      	adds	r0, r6, #4
100016c4:	f001 fe3e 	bl	10003344 <vTaskPlaceOnUnorderedEventList>
100016c8:	f002 fe68 	bl	1000439c <xTaskResumeAll>
100016cc:	2800      	cmp	r0, #0
100016ce:	d01c      	beq.n	1000170a <xEventGroupWaitBits+0xa6>
100016d0:	f002 ffb4 	bl	1000463c <uxTaskResetEventItemValue>
100016d4:	0004      	movs	r4, r0
100016d6:	0183      	lsls	r3, r0, #6
100016d8:	d507      	bpl.n	100016ea <xEventGroupWaitBits+0x86>
100016da:	0224      	lsls	r4, r4, #8
100016dc:	0a24      	lsrs	r4, r4, #8
100016de:	e7e1      	b.n	100016a4 <xEventGroupWaitBits+0x40>
100016e0:	21a0      	movs	r1, #160	; 0xa0
100016e2:	2380      	movs	r3, #128	; 0x80
100016e4:	04c9      	lsls	r1, r1, #19
100016e6:	045b      	lsls	r3, r3, #17
100016e8:	e7e6      	b.n	100016b8 <xEventGroupWaitBits+0x54>
100016ea:	f002 f9e7 	bl	10003abc <vTaskEnterCritical>
100016ee:	6834      	ldr	r4, [r6, #0]
100016f0:	2f00      	cmp	r7, #0
100016f2:	d10d      	bne.n	10001710 <xEventGroupWaitBits+0xac>
100016f4:	422c      	tst	r4, r5
100016f6:	d005      	beq.n	10001704 <xEventGroupWaitBits+0xa0>
100016f8:	4643      	mov	r3, r8
100016fa:	2b00      	cmp	r3, #0
100016fc:	d002      	beq.n	10001704 <xEventGroupWaitBits+0xa0>
100016fe:	0023      	movs	r3, r4
10001700:	43ab      	bics	r3, r5
10001702:	6033      	str	r3, [r6, #0]
10001704:	f002 ff18 	bl	10004538 <vTaskExitCritical>
10001708:	e7e7      	b.n	100016da <xEventGroupWaitBits+0x76>
1000170a:	f002 f9c3 	bl	10003a94 <vTaskYieldWithinAPI>
1000170e:	e7df      	b.n	100016d0 <xEventGroupWaitBits+0x6c>
10001710:	0023      	movs	r3, r4
10001712:	402b      	ands	r3, r5
10001714:	429d      	cmp	r5, r3
10001716:	d1f5      	bne.n	10001704 <xEventGroupWaitBits+0xa0>
10001718:	e7ee      	b.n	100016f8 <xEventGroupWaitBits+0x94>
1000171a:	46c0      	nop			; (mov r8, r8)

1000171c <xEventGroupSetBits>:
1000171c:	b5f8      	push	{r3, r4, r5, r6, r7, lr}
1000171e:	46de      	mov	lr, fp
10001720:	4657      	mov	r7, sl
10001722:	464e      	mov	r6, r9
10001724:	4645      	mov	r5, r8
10001726:	b5e0      	push	{r5, r6, r7, lr}
10001728:	0005      	movs	r5, r0
1000172a:	000f      	movs	r7, r1
1000172c:	0006      	movs	r6, r0
1000172e:	f001 fa35 	bl	10002b9c <vTaskSuspendAll>
10001732:	6829      	ldr	r1, [r5, #0]
10001734:	692c      	ldr	r4, [r5, #16]
10001736:	4339      	orrs	r1, r7
10001738:	360c      	adds	r6, #12
1000173a:	6029      	str	r1, [r5, #0]
1000173c:	42a6      	cmp	r6, r4
1000173e:	d02a      	beq.n	10001796 <xEventGroupSetBits+0x7a>
10001740:	2300      	movs	r3, #0
10001742:	4698      	mov	r8, r3
10001744:	2380      	movs	r3, #128	; 0x80
10001746:	04db      	lsls	r3, r3, #19
10001748:	469b      	mov	fp, r3
1000174a:	2380      	movs	r3, #128	; 0x80
1000174c:	045b      	lsls	r3, r3, #17
1000174e:	469a      	mov	sl, r3
10001750:	2380      	movs	r3, #128	; 0x80
10001752:	049b      	lsls	r3, r3, #18
10001754:	4699      	mov	r9, r3
10001756:	e00e      	b.n	10001776 <xEventGroupSetBits+0x5a>
10001758:	4219      	tst	r1, r3
1000175a:	d00a      	beq.n	10001772 <xEventGroupSetBits+0x56>
1000175c:	4657      	mov	r7, sl
1000175e:	423a      	tst	r2, r7
10001760:	d002      	beq.n	10001768 <xEventGroupSetBits+0x4c>
10001762:	4642      	mov	r2, r8
10001764:	431a      	orrs	r2, r3
10001766:	4690      	mov	r8, r2
10001768:	464b      	mov	r3, r9
1000176a:	4319      	orrs	r1, r3
1000176c:	f002 fe54 	bl	10004418 <vTaskRemoveFromUnorderedEventList>
10001770:	6829      	ldr	r1, [r5, #0]
10001772:	42a6      	cmp	r6, r4
10001774:	d00d      	beq.n	10001792 <xEventGroupSetBits+0x76>
10001776:	0020      	movs	r0, r4
10001778:	465f      	mov	r7, fp
1000177a:	6802      	ldr	r2, [r0, #0]
1000177c:	6864      	ldr	r4, [r4, #4]
1000177e:	0213      	lsls	r3, r2, #8
10001780:	0a1b      	lsrs	r3, r3, #8
10001782:	423a      	tst	r2, r7
10001784:	d0e8      	beq.n	10001758 <xEventGroupSetBits+0x3c>
10001786:	000f      	movs	r7, r1
10001788:	401f      	ands	r7, r3
1000178a:	429f      	cmp	r7, r3
1000178c:	d0e6      	beq.n	1000175c <xEventGroupSetBits+0x40>
1000178e:	42a6      	cmp	r6, r4
10001790:	d1f1      	bne.n	10001776 <xEventGroupSetBits+0x5a>
10001792:	4643      	mov	r3, r8
10001794:	4399      	bics	r1, r3
10001796:	6029      	str	r1, [r5, #0]
10001798:	f002 fe00 	bl	1000439c <xTaskResumeAll>
1000179c:	6828      	ldr	r0, [r5, #0]
1000179e:	bcf0      	pop	{r4, r5, r6, r7}
100017a0:	46bb      	mov	fp, r7
100017a2:	46b2      	mov	sl, r6
100017a4:	46a9      	mov	r9, r5
100017a6:	46a0      	mov	r8, r4
100017a8:	bdf8      	pop	{r3, r4, r5, r6, r7, pc}
100017aa:	46c0      	nop			; (mov r8, r8)

100017ac <xEventGroupSetBitsFromISR>:
100017ac:	b510      	push	{r4, lr}
100017ae:	0013      	movs	r3, r2
100017b0:	000a      	movs	r2, r1
100017b2:	0001      	movs	r1, r0
100017b4:	4801      	ldr	r0, [pc, #4]	; (100017bc <xEventGroupSetBitsFromISR+0x10>)
100017b6:	f003 fc41 	bl	1000503c <xTimerPendFunctionCallFromISR>
100017ba:	bd10      	pop	{r4, pc}
100017bc:	100015c1 	.word	0x100015c1

100017c0 <vListInitialise>:
100017c0:	0003      	movs	r3, r0
100017c2:	3308      	adds	r3, #8
100017c4:	2201      	movs	r2, #1
100017c6:	6043      	str	r3, [r0, #4]
100017c8:	60c3      	str	r3, [r0, #12]
100017ca:	6103      	str	r3, [r0, #16]
100017cc:	2300      	movs	r3, #0
100017ce:	4252      	negs	r2, r2
100017d0:	6082      	str	r2, [r0, #8]
100017d2:	6003      	str	r3, [r0, #0]
100017d4:	4770      	bx	lr
100017d6:	46c0      	nop			; (mov r8, r8)

100017d8 <vListInitialiseItem>:
100017d8:	2300      	movs	r3, #0
100017da:	6103      	str	r3, [r0, #16]
100017dc:	4770      	bx	lr
100017de:	46c0      	nop			; (mov r8, r8)

100017e0 <vListInsertEnd>:
100017e0:	6843      	ldr	r3, [r0, #4]
100017e2:	689a      	ldr	r2, [r3, #8]
100017e4:	604b      	str	r3, [r1, #4]
100017e6:	608a      	str	r2, [r1, #8]
100017e8:	689a      	ldr	r2, [r3, #8]
100017ea:	6051      	str	r1, [r2, #4]
100017ec:	6099      	str	r1, [r3, #8]
100017ee:	6803      	ldr	r3, [r0, #0]
100017f0:	6108      	str	r0, [r1, #16]
100017f2:	3301      	adds	r3, #1
100017f4:	6003      	str	r3, [r0, #0]
100017f6:	4770      	bx	lr

100017f8 <vListInsert>:
100017f8:	0003      	movs	r3, r0
100017fa:	b530      	push	{r4, r5, lr}
100017fc:	680c      	ldr	r4, [r1, #0]
100017fe:	3308      	adds	r3, #8
10001800:	1c62      	adds	r2, r4, #1
10001802:	d00d      	beq.n	10001820 <vListInsert+0x28>
10001804:	001a      	movs	r2, r3
10001806:	685b      	ldr	r3, [r3, #4]
10001808:	681d      	ldr	r5, [r3, #0]
1000180a:	42a5      	cmp	r5, r4
1000180c:	d9fa      	bls.n	10001804 <vListInsert+0xc>
1000180e:	604b      	str	r3, [r1, #4]
10001810:	6099      	str	r1, [r3, #8]
10001812:	6803      	ldr	r3, [r0, #0]
10001814:	608a      	str	r2, [r1, #8]
10001816:	3301      	adds	r3, #1
10001818:	6051      	str	r1, [r2, #4]
1000181a:	6108      	str	r0, [r1, #16]
1000181c:	6003      	str	r3, [r0, #0]
1000181e:	bd30      	pop	{r4, r5, pc}
10001820:	6902      	ldr	r2, [r0, #16]
10001822:	6853      	ldr	r3, [r2, #4]
10001824:	e7f3      	b.n	1000180e <vListInsert+0x16>
10001826:	46c0      	nop			; (mov r8, r8)

10001828 <uxListRemove>:
10001828:	6903      	ldr	r3, [r0, #16]
1000182a:	6841      	ldr	r1, [r0, #4]
1000182c:	6882      	ldr	r2, [r0, #8]
1000182e:	608a      	str	r2, [r1, #8]
10001830:	6051      	str	r1, [r2, #4]
10001832:	6859      	ldr	r1, [r3, #4]
10001834:	4281      	cmp	r1, r0
10001836:	d005      	beq.n	10001844 <uxListRemove+0x1c>
10001838:	2200      	movs	r2, #0
1000183a:	6102      	str	r2, [r0, #16]
1000183c:	681a      	ldr	r2, [r3, #0]
1000183e:	1e50      	subs	r0, r2, #1
10001840:	6018      	str	r0, [r3, #0]
10001842:	4770      	bx	lr
10001844:	605a      	str	r2, [r3, #4]
10001846:	e7f7      	b.n	10001838 <uxListRemove+0x10>

10001848 <prvUnlockQueue>:
10001848:	b5f0      	push	{r4, r5, r6, r7, lr}
1000184a:	46de      	mov	lr, fp
1000184c:	464e      	mov	r6, r9
1000184e:	4657      	mov	r7, sl
10001850:	4645      	mov	r5, r8
10001852:	b5e0      	push	{r5, r6, r7, lr}
10001854:	b085      	sub	sp, #20
10001856:	0006      	movs	r6, r0
10001858:	f002 f930 	bl	10003abc <vTaskEnterCritical>
1000185c:	2345      	movs	r3, #69	; 0x45
1000185e:	5cf4      	ldrb	r4, [r6, r3]
10001860:	b264      	sxtb	r4, r4
10001862:	2c00      	cmp	r4, #0
10001864:	dd21      	ble.n	100018aa <prvUnlockQueue+0x62>
10001866:	3b21      	subs	r3, #33	; 0x21
10001868:	4699      	mov	r9, r3
1000186a:	3321      	adds	r3, #33	; 0x21
1000186c:	469b      	mov	fp, r3
1000186e:	44b1      	add	r9, r6
10001870:	e009      	b.n	10001886 <prvUnlockQueue+0x3e>
10001872:	6bab      	ldr	r3, [r5, #56]	; 0x38
10001874:	6bea      	ldr	r2, [r5, #60]	; 0x3c
10001876:	9603      	str	r6, [sp, #12]
10001878:	4293      	cmp	r3, r2
1000187a:	d345      	bcc.n	10001908 <prvUnlockQueue+0xc0>
1000187c:	3c01      	subs	r4, #1
1000187e:	b2e3      	uxtb	r3, r4
10001880:	b264      	sxtb	r4, r4
10001882:	2b00      	cmp	r3, #0
10001884:	d011      	beq.n	100018aa <prvUnlockQueue+0x62>
10001886:	6cb5      	ldr	r5, [r6, #72]	; 0x48
10001888:	2d00      	cmp	r5, #0
1000188a:	d1f2      	bne.n	10001872 <prvUnlockQueue+0x2a>
1000188c:	6a73      	ldr	r3, [r6, #36]	; 0x24
1000188e:	2b00      	cmp	r3, #0
10001890:	d00b      	beq.n	100018aa <prvUnlockQueue+0x62>
10001892:	4648      	mov	r0, r9
10001894:	f001 fdea 	bl	1000346c <xTaskRemoveFromEventList>
10001898:	2800      	cmp	r0, #0
1000189a:	d0ef      	beq.n	1000187c <prvUnlockQueue+0x34>
1000189c:	f001 ff26 	bl	100036ec <vTaskMissedYield>
100018a0:	3c01      	subs	r4, #1
100018a2:	b2e3      	uxtb	r3, r4
100018a4:	b264      	sxtb	r4, r4
100018a6:	2b00      	cmp	r3, #0
100018a8:	d1ed      	bne.n	10001886 <prvUnlockQueue+0x3e>
100018aa:	2345      	movs	r3, #69	; 0x45
100018ac:	22ff      	movs	r2, #255	; 0xff
100018ae:	54f2      	strb	r2, [r6, r3]
100018b0:	f002 fe42 	bl	10004538 <vTaskExitCritical>
100018b4:	f002 f902 	bl	10003abc <vTaskEnterCritical>
100018b8:	2344      	movs	r3, #68	; 0x44
100018ba:	5cf4      	ldrb	r4, [r6, r3]
100018bc:	b264      	sxtb	r4, r4
100018be:	2c00      	cmp	r4, #0
100018c0:	dd16      	ble.n	100018f0 <prvUnlockQueue+0xa8>
100018c2:	0035      	movs	r5, r6
100018c4:	3510      	adds	r5, #16
100018c6:	e004      	b.n	100018d2 <prvUnlockQueue+0x8a>
100018c8:	3c01      	subs	r4, #1
100018ca:	b2e2      	uxtb	r2, r4
100018cc:	b264      	sxtb	r4, r4
100018ce:	2a00      	cmp	r2, #0
100018d0:	d00e      	beq.n	100018f0 <prvUnlockQueue+0xa8>
100018d2:	6933      	ldr	r3, [r6, #16]
100018d4:	2b00      	cmp	r3, #0
100018d6:	d00b      	beq.n	100018f0 <prvUnlockQueue+0xa8>
100018d8:	0028      	movs	r0, r5
100018da:	f001 fdc7 	bl	1000346c <xTaskRemoveFromEventList>
100018de:	2800      	cmp	r0, #0
100018e0:	d0f2      	beq.n	100018c8 <prvUnlockQueue+0x80>
100018e2:	3c01      	subs	r4, #1
100018e4:	f001 ff02 	bl	100036ec <vTaskMissedYield>
100018e8:	b2e2      	uxtb	r2, r4
100018ea:	b264      	sxtb	r4, r4
100018ec:	2a00      	cmp	r2, #0
100018ee:	d1f0      	bne.n	100018d2 <prvUnlockQueue+0x8a>
100018f0:	2344      	movs	r3, #68	; 0x44
100018f2:	22ff      	movs	r2, #255	; 0xff
100018f4:	54f2      	strb	r2, [r6, r3]
100018f6:	f002 fe1f 	bl	10004538 <vTaskExitCritical>
100018fa:	b005      	add	sp, #20
100018fc:	bcf0      	pop	{r4, r5, r6, r7}
100018fe:	46bb      	mov	fp, r7
10001900:	46b2      	mov	sl, r6
10001902:	46a9      	mov	r9, r5
10001904:	46a0      	mov	r8, r4
10001906:	bdf0      	pop	{r4, r5, r6, r7, pc}
10001908:	465b      	mov	r3, fp
1000190a:	6c2a      	ldr	r2, [r5, #64]	; 0x40
1000190c:	5cef      	ldrb	r7, [r5, r3]
1000190e:	6bab      	ldr	r3, [r5, #56]	; 0x38
10001910:	b27f      	sxtb	r7, r7
10001912:	4698      	mov	r8, r3
10001914:	2a00      	cmp	r2, #0
10001916:	d113      	bne.n	10001940 <prvUnlockQueue+0xf8>
10001918:	682b      	ldr	r3, [r5, #0]
1000191a:	9301      	str	r3, [sp, #4]
1000191c:	2b00      	cmp	r3, #0
1000191e:	d030      	beq.n	10001982 <prvUnlockQueue+0x13a>
10001920:	2300      	movs	r3, #0
10001922:	469a      	mov	sl, r3
10001924:	4643      	mov	r3, r8
10001926:	3301      	adds	r3, #1
10001928:	63ab      	str	r3, [r5, #56]	; 0x38
1000192a:	1c7b      	adds	r3, r7, #1
1000192c:	d117      	bne.n	1000195e <prvUnlockQueue+0x116>
1000192e:	6a6b      	ldr	r3, [r5, #36]	; 0x24
10001930:	2b00      	cmp	r3, #0
10001932:	d11d      	bne.n	10001970 <prvUnlockQueue+0x128>
10001934:	4653      	mov	r3, sl
10001936:	2b00      	cmp	r3, #0
10001938:	d0a0      	beq.n	1000187c <prvUnlockQueue+0x34>
1000193a:	f001 fed7 	bl	100036ec <vTaskMissedYield>
1000193e:	e7af      	b.n	100018a0 <prvUnlockQueue+0x58>
10001940:	6868      	ldr	r0, [r5, #4]
10001942:	a903      	add	r1, sp, #12
10001944:	f005 fbec 	bl	10007120 <__wrap___aeabi_memcpy>
10001948:	6c2a      	ldr	r2, [r5, #64]	; 0x40
1000194a:	686b      	ldr	r3, [r5, #4]
1000194c:	4694      	mov	ip, r2
1000194e:	68aa      	ldr	r2, [r5, #8]
10001950:	4463      	add	r3, ip
10001952:	606b      	str	r3, [r5, #4]
10001954:	4293      	cmp	r3, r2
10001956:	d3e3      	bcc.n	10001920 <prvUnlockQueue+0xd8>
10001958:	682b      	ldr	r3, [r5, #0]
1000195a:	606b      	str	r3, [r5, #4]
1000195c:	e7e0      	b.n	10001920 <prvUnlockQueue+0xd8>
1000195e:	f001 f991 	bl	10002c84 <uxTaskGetNumberOfTasks>
10001962:	42b8      	cmp	r0, r7
10001964:	d9e6      	bls.n	10001934 <prvUnlockQueue+0xec>
10001966:	465b      	mov	r3, fp
10001968:	3701      	adds	r7, #1
1000196a:	b27f      	sxtb	r7, r7
1000196c:	54ef      	strb	r7, [r5, r3]
1000196e:	e7e1      	b.n	10001934 <prvUnlockQueue+0xec>
10001970:	0028      	movs	r0, r5
10001972:	3024      	adds	r0, #36	; 0x24
10001974:	f001 fd7a 	bl	1000346c <xTaskRemoveFromEventList>
10001978:	2800      	cmp	r0, #0
1000197a:	d0db      	beq.n	10001934 <prvUnlockQueue+0xec>
1000197c:	f001 feb6 	bl	100036ec <vTaskMissedYield>
10001980:	e78e      	b.n	100018a0 <prvUnlockQueue+0x58>
10001982:	68a8      	ldr	r0, [r5, #8]
10001984:	f001 ffc6 	bl	10003914 <xTaskPriorityDisinherit>
10001988:	9b01      	ldr	r3, [sp, #4]
1000198a:	4682      	mov	sl, r0
1000198c:	60ab      	str	r3, [r5, #8]
1000198e:	e7c9      	b.n	10001924 <prvUnlockQueue+0xdc>

10001990 <prvNotifyQueueSetContainer>:
10001990:	b5f0      	push	{r4, r5, r6, r7, lr}
10001992:	46c6      	mov	lr, r8
10001994:	b500      	push	{lr}
10001996:	6c84      	ldr	r4, [r0, #72]	; 0x48
10001998:	b082      	sub	sp, #8
1000199a:	6ba3      	ldr	r3, [r4, #56]	; 0x38
1000199c:	6be2      	ldr	r2, [r4, #60]	; 0x3c
1000199e:	2500      	movs	r5, #0
100019a0:	9001      	str	r0, [sp, #4]
100019a2:	4293      	cmp	r3, r2
100019a4:	d304      	bcc.n	100019b0 <prvNotifyQueueSetContainer+0x20>
100019a6:	0028      	movs	r0, r5
100019a8:	b002      	add	sp, #8
100019aa:	bc80      	pop	{r7}
100019ac:	46b8      	mov	r8, r7
100019ae:	bdf0      	pop	{r4, r5, r6, r7, pc}
100019b0:	2345      	movs	r3, #69	; 0x45
100019b2:	6c22      	ldr	r2, [r4, #64]	; 0x40
100019b4:	5ce6      	ldrb	r6, [r4, r3]
100019b6:	6ba7      	ldr	r7, [r4, #56]	; 0x38
100019b8:	b276      	sxtb	r6, r6
100019ba:	2a00      	cmp	r2, #0
100019bc:	d01c      	beq.n	100019f8 <prvNotifyQueueSetContainer+0x68>
100019be:	6860      	ldr	r0, [r4, #4]
100019c0:	a901      	add	r1, sp, #4
100019c2:	f005 fbad 	bl	10007120 <__wrap___aeabi_memcpy>
100019c6:	6c22      	ldr	r2, [r4, #64]	; 0x40
100019c8:	6863      	ldr	r3, [r4, #4]
100019ca:	4694      	mov	ip, r2
100019cc:	68a2      	ldr	r2, [r4, #8]
100019ce:	4463      	add	r3, ip
100019d0:	6063      	str	r3, [r4, #4]
100019d2:	4293      	cmp	r3, r2
100019d4:	d314      	bcc.n	10001a00 <prvNotifyQueueSetContainer+0x70>
100019d6:	6823      	ldr	r3, [r4, #0]
100019d8:	6063      	str	r3, [r4, #4]
100019da:	3701      	adds	r7, #1
100019dc:	63a7      	str	r7, [r4, #56]	; 0x38
100019de:	1c73      	adds	r3, r6, #1
100019e0:	d113      	bne.n	10001a0a <prvNotifyQueueSetContainer+0x7a>
100019e2:	6a63      	ldr	r3, [r4, #36]	; 0x24
100019e4:	2b00      	cmp	r3, #0
100019e6:	d0de      	beq.n	100019a6 <prvNotifyQueueSetContainer+0x16>
100019e8:	0020      	movs	r0, r4
100019ea:	3024      	adds	r0, #36	; 0x24
100019ec:	f001 fd3e 	bl	1000346c <xTaskRemoveFromEventList>
100019f0:	2800      	cmp	r0, #0
100019f2:	d0d8      	beq.n	100019a6 <prvNotifyQueueSetContainer+0x16>
100019f4:	2501      	movs	r5, #1
100019f6:	e7d6      	b.n	100019a6 <prvNotifyQueueSetContainer+0x16>
100019f8:	6823      	ldr	r3, [r4, #0]
100019fa:	4698      	mov	r8, r3
100019fc:	2b00      	cmp	r3, #0
100019fe:	d00d      	beq.n	10001a1c <prvNotifyQueueSetContainer+0x8c>
10001a00:	3701      	adds	r7, #1
10001a02:	2500      	movs	r5, #0
10001a04:	63a7      	str	r7, [r4, #56]	; 0x38
10001a06:	1c73      	adds	r3, r6, #1
10001a08:	d0eb      	beq.n	100019e2 <prvNotifyQueueSetContainer+0x52>
10001a0a:	f001 f93b 	bl	10002c84 <uxTaskGetNumberOfTasks>
10001a0e:	4286      	cmp	r6, r0
10001a10:	d2c9      	bcs.n	100019a6 <prvNotifyQueueSetContainer+0x16>
10001a12:	2345      	movs	r3, #69	; 0x45
10001a14:	3601      	adds	r6, #1
10001a16:	b276      	sxtb	r6, r6
10001a18:	54e6      	strb	r6, [r4, r3]
10001a1a:	e7c4      	b.n	100019a6 <prvNotifyQueueSetContainer+0x16>
10001a1c:	68a0      	ldr	r0, [r4, #8]
10001a1e:	f001 ff79 	bl	10003914 <xTaskPriorityDisinherit>
10001a22:	4643      	mov	r3, r8
10001a24:	0005      	movs	r5, r0
10001a26:	60a3      	str	r3, [r4, #8]
10001a28:	e7d7      	b.n	100019da <prvNotifyQueueSetContainer+0x4a>
10001a2a:	46c0      	nop			; (mov r8, r8)

10001a2c <xQueueGenericCreate>:
10001a2c:	b5f8      	push	{r3, r4, r5, r6, r7, lr}
10001a2e:	0005      	movs	r5, r0
10001a30:	000e      	movs	r6, r1
10001a32:	0017      	movs	r7, r2
10001a34:	2800      	cmp	r0, #0
10001a36:	d046      	beq.n	10001ac6 <xQueueGenericCreate+0x9a>
10001a38:	0c0b      	lsrs	r3, r1, #16
10001a3a:	0c02      	lsrs	r2, r0, #16
10001a3c:	2b00      	cmp	r3, #0
10001a3e:	d134      	bne.n	10001aaa <xQueueGenericCreate+0x7e>
10001a40:	1c33      	adds	r3, r6, #0
10001a42:	2a00      	cmp	r2, #0
10001a44:	d135      	bne.n	10001ab2 <xQueueGenericCreate+0x86>
10001a46:	0030      	movs	r0, r6
10001a48:	4368      	muls	r0, r5
10001a4a:	0003      	movs	r3, r0
10001a4c:	3355      	adds	r3, #85	; 0x55
10001a4e:	d83a      	bhi.n	10001ac6 <xQueueGenericCreate+0x9a>
10001a50:	3054      	adds	r0, #84	; 0x54
10001a52:	f7ff fabb 	bl	10000fcc <pvPortMalloc>
10001a56:	1e04      	subs	r4, r0, #0
10001a58:	d035      	beq.n	10001ac6 <xQueueGenericCreate+0x9a>
10001a5a:	0003      	movs	r3, r0
10001a5c:	2e00      	cmp	r6, #0
10001a5e:	d000      	beq.n	10001a62 <xQueueGenericCreate+0x36>
10001a60:	3354      	adds	r3, #84	; 0x54
10001a62:	6023      	str	r3, [r4, #0]
10001a64:	63e5      	str	r5, [r4, #60]	; 0x3c
10001a66:	6426      	str	r6, [r4, #64]	; 0x40
10001a68:	f002 f828 	bl	10003abc <vTaskEnterCritical>
10001a6c:	6c21      	ldr	r1, [r4, #64]	; 0x40
10001a6e:	6be3      	ldr	r3, [r4, #60]	; 0x3c
10001a70:	6822      	ldr	r2, [r4, #0]
10001a72:	434b      	muls	r3, r1
10001a74:	18d0      	adds	r0, r2, r3
10001a76:	1a5b      	subs	r3, r3, r1
10001a78:	18d3      	adds	r3, r2, r3
10001a7a:	6062      	str	r2, [r4, #4]
10001a7c:	60e3      	str	r3, [r4, #12]
10001a7e:	2500      	movs	r5, #0
10001a80:	23ff      	movs	r3, #255	; 0xff
10001a82:	2244      	movs	r2, #68	; 0x44
10001a84:	60a0      	str	r0, [r4, #8]
10001a86:	0020      	movs	r0, r4
10001a88:	63a5      	str	r5, [r4, #56]	; 0x38
10001a8a:	54a3      	strb	r3, [r4, r2]
10001a8c:	3201      	adds	r2, #1
10001a8e:	54a3      	strb	r3, [r4, r2]
10001a90:	3010      	adds	r0, #16
10001a92:	f7ff fe95 	bl	100017c0 <vListInitialise>
10001a96:	0020      	movs	r0, r4
10001a98:	3024      	adds	r0, #36	; 0x24
10001a9a:	f7ff fe91 	bl	100017c0 <vListInitialise>
10001a9e:	f002 fd4b 	bl	10004538 <vTaskExitCritical>
10001aa2:	2350      	movs	r3, #80	; 0x50
10001aa4:	54e7      	strb	r7, [r4, r3]
10001aa6:	64a5      	str	r5, [r4, #72]	; 0x48
10001aa8:	e00e      	b.n	10001ac8 <xQueueGenericCreate+0x9c>
10001aaa:	2a00      	cmp	r2, #0
10001aac:	d10b      	bne.n	10001ac6 <xQueueGenericCreate+0x9a>
10001aae:	1c1a      	adds	r2, r3, #0
10001ab0:	1c03      	adds	r3, r0, #0
10001ab2:	b2b0      	uxth	r0, r6
10001ab4:	b2a9      	uxth	r1, r5
10001ab6:	4341      	muls	r1, r0
10001ab8:	b298      	uxth	r0, r3
10001aba:	b293      	uxth	r3, r2
10001abc:	4343      	muls	r3, r0
10001abe:	0c09      	lsrs	r1, r1, #16
10001ac0:	185b      	adds	r3, r3, r1
10001ac2:	0c1b      	lsrs	r3, r3, #16
10001ac4:	d0bf      	beq.n	10001a46 <xQueueGenericCreate+0x1a>
10001ac6:	2400      	movs	r4, #0
10001ac8:	0020      	movs	r0, r4
10001aca:	bdf8      	pop	{r3, r4, r5, r6, r7, pc}

10001acc <xQueueGetMutexHolder>:
10001acc:	b570      	push	{r4, r5, r6, lr}
10001ace:	0004      	movs	r4, r0
10001ad0:	f001 fff4 	bl	10003abc <vTaskEnterCritical>
10001ad4:	6823      	ldr	r3, [r4, #0]
10001ad6:	2500      	movs	r5, #0
10001ad8:	2b00      	cmp	r3, #0
10001ada:	d100      	bne.n	10001ade <xQueueGetMutexHolder+0x12>
10001adc:	68a5      	ldr	r5, [r4, #8]
10001ade:	f002 fd2b 	bl	10004538 <vTaskExitCritical>
10001ae2:	0028      	movs	r0, r5
10001ae4:	bd70      	pop	{r4, r5, r6, pc}
10001ae6:	46c0      	nop			; (mov r8, r8)

10001ae8 <xQueueGenericSend>:
10001ae8:	b5f0      	push	{r4, r5, r6, r7, lr}
10001aea:	46ce      	mov	lr, r9
10001aec:	4647      	mov	r7, r8
10001aee:	0004      	movs	r4, r0
10001af0:	001e      	movs	r6, r3
10001af2:	2300      	movs	r3, #0
10001af4:	b580      	push	{r7, lr}
10001af6:	b085      	sub	sp, #20
10001af8:	4699      	mov	r9, r3
10001afa:	9201      	str	r2, [sp, #4]
10001afc:	4688      	mov	r8, r1
10001afe:	f001 ffdd 	bl	10003abc <vTaskEnterCritical>
10001b02:	6ba3      	ldr	r3, [r4, #56]	; 0x38
10001b04:	6be2      	ldr	r2, [r4, #60]	; 0x3c
10001b06:	2700      	movs	r7, #0
10001b08:	2544      	movs	r5, #68	; 0x44
10001b0a:	4293      	cmp	r3, r2
10001b0c:	d337      	bcc.n	10001b7e <xQueueGenericSend+0x96>
10001b0e:	2e02      	cmp	r6, #2
10001b10:	d072      	beq.n	10001bf8 <xQueueGenericSend+0x110>
10001b12:	9b01      	ldr	r3, [sp, #4]
10001b14:	2b00      	cmp	r3, #0
10001b16:	d100      	bne.n	10001b1a <xQueueGenericSend+0x32>
10001b18:	e08a      	b.n	10001c30 <xQueueGenericSend+0x148>
10001b1a:	2f00      	cmp	r7, #0
10001b1c:	d068      	beq.n	10001bf0 <xQueueGenericSend+0x108>
10001b1e:	f002 fd0b 	bl	10004538 <vTaskExitCritical>
10001b22:	f001 f83b 	bl	10002b9c <vTaskSuspendAll>
10001b26:	f001 ffc9 	bl	10003abc <vTaskEnterCritical>
10001b2a:	5d62      	ldrb	r2, [r4, r5]
10001b2c:	b252      	sxtb	r2, r2
10001b2e:	1c53      	adds	r3, r2, #1
10001b30:	d101      	bne.n	10001b36 <xQueueGenericSend+0x4e>
10001b32:	464b      	mov	r3, r9
10001b34:	5563      	strb	r3, [r4, r5]
10001b36:	2345      	movs	r3, #69	; 0x45
10001b38:	5ce2      	ldrb	r2, [r4, r3]
10001b3a:	b252      	sxtb	r2, r2
10001b3c:	3201      	adds	r2, #1
10001b3e:	d101      	bne.n	10001b44 <xQueueGenericSend+0x5c>
10001b40:	464a      	mov	r2, r9
10001b42:	54e2      	strb	r2, [r4, r3]
10001b44:	f002 fcf8 	bl	10004538 <vTaskExitCritical>
10001b48:	a901      	add	r1, sp, #4
10001b4a:	a802      	add	r0, sp, #8
10001b4c:	f001 fd04 	bl	10003558 <xTaskCheckForTimeOut>
10001b50:	2800      	cmp	r0, #0
10001b52:	d000      	beq.n	10001b56 <xQueueGenericSend+0x6e>
10001b54:	e074      	b.n	10001c40 <xQueueGenericSend+0x158>
10001b56:	f001 ffb1 	bl	10003abc <vTaskEnterCritical>
10001b5a:	6ba3      	ldr	r3, [r4, #56]	; 0x38
10001b5c:	6be2      	ldr	r2, [r4, #60]	; 0x3c
10001b5e:	4293      	cmp	r3, r2
10001b60:	d034      	beq.n	10001bcc <xQueueGenericSend+0xe4>
10001b62:	f002 fce9 	bl	10004538 <vTaskExitCritical>
10001b66:	0020      	movs	r0, r4
10001b68:	f7ff fe6e 	bl	10001848 <prvUnlockQueue>
10001b6c:	f002 fc16 	bl	1000439c <xTaskResumeAll>
10001b70:	2701      	movs	r7, #1
10001b72:	f001 ffa3 	bl	10003abc <vTaskEnterCritical>
10001b76:	6ba3      	ldr	r3, [r4, #56]	; 0x38
10001b78:	6be2      	ldr	r2, [r4, #60]	; 0x3c
10001b7a:	4293      	cmp	r3, r2
10001b7c:	d2c7      	bcs.n	10001b0e <xQueueGenericSend+0x26>
10001b7e:	6c22      	ldr	r2, [r4, #64]	; 0x40
10001b80:	6ba7      	ldr	r7, [r4, #56]	; 0x38
10001b82:	6ba5      	ldr	r5, [r4, #56]	; 0x38
10001b84:	2a00      	cmp	r2, #0
10001b86:	d03c      	beq.n	10001c02 <xQueueGenericSend+0x11a>
10001b88:	4641      	mov	r1, r8
10001b8a:	2e00      	cmp	r6, #0
10001b8c:	d000      	beq.n	10001b90 <xQueueGenericSend+0xa8>
10001b8e:	e084      	b.n	10001c9a <xQueueGenericSend+0x1b2>
10001b90:	6860      	ldr	r0, [r4, #4]
10001b92:	f005 fac5 	bl	10007120 <__wrap___aeabi_memcpy>
10001b96:	6c22      	ldr	r2, [r4, #64]	; 0x40
10001b98:	6863      	ldr	r3, [r4, #4]
10001b9a:	4694      	mov	ip, r2
10001b9c:	68a2      	ldr	r2, [r4, #8]
10001b9e:	4463      	add	r3, ip
10001ba0:	6063      	str	r3, [r4, #4]
10001ba2:	4293      	cmp	r3, r2
10001ba4:	d301      	bcc.n	10001baa <xQueueGenericSend+0xc2>
10001ba6:	6823      	ldr	r3, [r4, #0]
10001ba8:	6063      	str	r3, [r4, #4]
10001baa:	6ca3      	ldr	r3, [r4, #72]	; 0x48
10001bac:	3501      	adds	r5, #1
10001bae:	63a5      	str	r5, [r4, #56]	; 0x38
10001bb0:	2b00      	cmp	r3, #0
10001bb2:	d134      	bne.n	10001c1e <xQueueGenericSend+0x136>
10001bb4:	6a63      	ldr	r3, [r4, #36]	; 0x24
10001bb6:	2b00      	cmp	r3, #0
10001bb8:	d036      	beq.n	10001c28 <xQueueGenericSend+0x140>
10001bba:	0020      	movs	r0, r4
10001bbc:	3024      	adds	r0, #36	; 0x24
10001bbe:	f001 fc55 	bl	1000346c <xTaskRemoveFromEventList>
10001bc2:	2800      	cmp	r0, #0
10001bc4:	d030      	beq.n	10001c28 <xQueueGenericSend+0x140>
10001bc6:	f001 ff65 	bl	10003a94 <vTaskYieldWithinAPI>
10001bca:	e02d      	b.n	10001c28 <xQueueGenericSend+0x140>
10001bcc:	f002 fcb4 	bl	10004538 <vTaskExitCritical>
10001bd0:	0020      	movs	r0, r4
10001bd2:	9901      	ldr	r1, [sp, #4]
10001bd4:	3010      	adds	r0, #16
10001bd6:	f001 fb11 	bl	100031fc <vTaskPlaceOnEventList>
10001bda:	0020      	movs	r0, r4
10001bdc:	f7ff fe34 	bl	10001848 <prvUnlockQueue>
10001be0:	f002 fbdc 	bl	1000439c <xTaskResumeAll>
10001be4:	2800      	cmp	r0, #0
10001be6:	d1c3      	bne.n	10001b70 <xQueueGenericSend+0x88>
10001be8:	f001 ff54 	bl	10003a94 <vTaskYieldWithinAPI>
10001bec:	2701      	movs	r7, #1
10001bee:	e7c0      	b.n	10001b72 <xQueueGenericSend+0x8a>
10001bf0:	a802      	add	r0, sp, #8
10001bf2:	f001 fca5 	bl	10003540 <vTaskInternalSetTimeOutState>
10001bf6:	e792      	b.n	10001b1e <xQueueGenericSend+0x36>
10001bf8:	6c22      	ldr	r2, [r4, #64]	; 0x40
10001bfa:	6ba7      	ldr	r7, [r4, #56]	; 0x38
10001bfc:	6ba5      	ldr	r5, [r4, #56]	; 0x38
10001bfe:	2a00      	cmp	r2, #0
10001c00:	d125      	bne.n	10001c4e <xQueueGenericSend+0x166>
10001c02:	6823      	ldr	r3, [r4, #0]
10001c04:	2000      	movs	r0, #0
10001c06:	4698      	mov	r8, r3
10001c08:	2b00      	cmp	r3, #0
10001c0a:	d040      	beq.n	10001c8e <xQueueGenericSend+0x1a6>
10001c0c:	6ca3      	ldr	r3, [r4, #72]	; 0x48
10001c0e:	3501      	adds	r5, #1
10001c10:	63a5      	str	r5, [r4, #56]	; 0x38
10001c12:	2b00      	cmp	r3, #0
10001c14:	d035      	beq.n	10001c82 <xQueueGenericSend+0x19a>
10001c16:	2e02      	cmp	r6, #2
10001c18:	d101      	bne.n	10001c1e <xQueueGenericSend+0x136>
10001c1a:	2f00      	cmp	r7, #0
10001c1c:	d104      	bne.n	10001c28 <xQueueGenericSend+0x140>
10001c1e:	0020      	movs	r0, r4
10001c20:	f7ff feb6 	bl	10001990 <prvNotifyQueueSetContainer>
10001c24:	2800      	cmp	r0, #0
10001c26:	d1ce      	bne.n	10001bc6 <xQueueGenericSend+0xde>
10001c28:	f002 fc86 	bl	10004538 <vTaskExitCritical>
10001c2c:	2001      	movs	r0, #1
10001c2e:	e002      	b.n	10001c36 <xQueueGenericSend+0x14e>
10001c30:	f002 fc82 	bl	10004538 <vTaskExitCritical>
10001c34:	2000      	movs	r0, #0
10001c36:	b005      	add	sp, #20
10001c38:	bcc0      	pop	{r6, r7}
10001c3a:	46b9      	mov	r9, r7
10001c3c:	46b0      	mov	r8, r6
10001c3e:	bdf0      	pop	{r4, r5, r6, r7, pc}
10001c40:	0020      	movs	r0, r4
10001c42:	f7ff fe01 	bl	10001848 <prvUnlockQueue>
10001c46:	f002 fba9 	bl	1000439c <xTaskResumeAll>
10001c4a:	2000      	movs	r0, #0
10001c4c:	e7f3      	b.n	10001c36 <xQueueGenericSend+0x14e>
10001c4e:	4641      	mov	r1, r8
10001c50:	68e0      	ldr	r0, [r4, #12]
10001c52:	f005 fa65 	bl	10007120 <__wrap___aeabi_memcpy>
10001c56:	68e1      	ldr	r1, [r4, #12]
10001c58:	6c23      	ldr	r3, [r4, #64]	; 0x40
10001c5a:	425a      	negs	r2, r3
10001c5c:	1acb      	subs	r3, r1, r3
10001c5e:	6821      	ldr	r1, [r4, #0]
10001c60:	60e3      	str	r3, [r4, #12]
10001c62:	428b      	cmp	r3, r1
10001c64:	d205      	bcs.n	10001c72 <xQueueGenericSend+0x18a>
10001c66:	68a3      	ldr	r3, [r4, #8]
10001c68:	469c      	mov	ip, r3
10001c6a:	4462      	add	r2, ip
10001c6c:	60e2      	str	r2, [r4, #12]
10001c6e:	2e02      	cmp	r6, #2
10001c70:	d19b      	bne.n	10001baa <xQueueGenericSend+0xc2>
10001c72:	2d00      	cmp	r5, #0
10001c74:	d100      	bne.n	10001c78 <xQueueGenericSend+0x190>
10001c76:	3501      	adds	r5, #1
10001c78:	6ca3      	ldr	r3, [r4, #72]	; 0x48
10001c7a:	63a5      	str	r5, [r4, #56]	; 0x38
10001c7c:	2b00      	cmp	r3, #0
10001c7e:	d1cc      	bne.n	10001c1a <xQueueGenericSend+0x132>
10001c80:	e798      	b.n	10001bb4 <xQueueGenericSend+0xcc>
10001c82:	6a63      	ldr	r3, [r4, #36]	; 0x24
10001c84:	2b00      	cmp	r3, #0
10001c86:	d198      	bne.n	10001bba <xQueueGenericSend+0xd2>
10001c88:	2800      	cmp	r0, #0
10001c8a:	d19c      	bne.n	10001bc6 <xQueueGenericSend+0xde>
10001c8c:	e7cc      	b.n	10001c28 <xQueueGenericSend+0x140>
10001c8e:	68a0      	ldr	r0, [r4, #8]
10001c90:	f001 fe40 	bl	10003914 <xTaskPriorityDisinherit>
10001c94:	4643      	mov	r3, r8
10001c96:	60a3      	str	r3, [r4, #8]
10001c98:	e7b8      	b.n	10001c0c <xQueueGenericSend+0x124>
10001c9a:	68e0      	ldr	r0, [r4, #12]
10001c9c:	f005 fa40 	bl	10007120 <__wrap___aeabi_memcpy>
10001ca0:	68e1      	ldr	r1, [r4, #12]
10001ca2:	6c23      	ldr	r3, [r4, #64]	; 0x40
10001ca4:	425a      	negs	r2, r3
10001ca6:	1acb      	subs	r3, r1, r3
10001ca8:	6821      	ldr	r1, [r4, #0]
10001caa:	60e3      	str	r3, [r4, #12]
10001cac:	428b      	cmp	r3, r1
10001cae:	d2de      	bcs.n	10001c6e <xQueueGenericSend+0x186>
10001cb0:	e7d9      	b.n	10001c66 <xQueueGenericSend+0x17e>
10001cb2:	46c0      	nop			; (mov r8, r8)

10001cb4 <xQueueCreateMutex>:
10001cb4:	b570      	push	{r4, r5, r6, lr}
10001cb6:	0006      	movs	r6, r0
10001cb8:	2054      	movs	r0, #84	; 0x54
10001cba:	f7ff f987 	bl	10000fcc <pvPortMalloc>
10001cbe:	1e04      	subs	r4, r0, #0
10001cc0:	d02c      	beq.n	10001d1c <xQueueCreateMutex+0x68>
10001cc2:	2500      	movs	r5, #0
10001cc4:	2301      	movs	r3, #1
10001cc6:	6000      	str	r0, [r0, #0]
10001cc8:	63c3      	str	r3, [r0, #60]	; 0x3c
10001cca:	6405      	str	r5, [r0, #64]	; 0x40
10001ccc:	f001 fef6 	bl	10003abc <vTaskEnterCritical>
10001cd0:	6c21      	ldr	r1, [r4, #64]	; 0x40
10001cd2:	6be3      	ldr	r3, [r4, #60]	; 0x3c
10001cd4:	6822      	ldr	r2, [r4, #0]
10001cd6:	434b      	muls	r3, r1
10001cd8:	18d0      	adds	r0, r2, r3
10001cda:	1a5b      	subs	r3, r3, r1
10001cdc:	18d3      	adds	r3, r2, r3
10001cde:	6062      	str	r2, [r4, #4]
10001ce0:	60e3      	str	r3, [r4, #12]
10001ce2:	2244      	movs	r2, #68	; 0x44
10001ce4:	23ff      	movs	r3, #255	; 0xff
10001ce6:	60a0      	str	r0, [r4, #8]
10001ce8:	0020      	movs	r0, r4
10001cea:	63a5      	str	r5, [r4, #56]	; 0x38
10001cec:	54a3      	strb	r3, [r4, r2]
10001cee:	3201      	adds	r2, #1
10001cf0:	54a3      	strb	r3, [r4, r2]
10001cf2:	3010      	adds	r0, #16
10001cf4:	f7ff fd64 	bl	100017c0 <vListInitialise>
10001cf8:	0020      	movs	r0, r4
10001cfa:	3024      	adds	r0, #36	; 0x24
10001cfc:	f7ff fd60 	bl	100017c0 <vListInitialise>
10001d00:	f002 fc1a 	bl	10004538 <vTaskExitCritical>
10001d04:	2350      	movs	r3, #80	; 0x50
10001d06:	2200      	movs	r2, #0
10001d08:	54e6      	strb	r6, [r4, r3]
10001d0a:	2100      	movs	r1, #0
10001d0c:	2300      	movs	r3, #0
10001d0e:	0020      	movs	r0, r4
10001d10:	64a5      	str	r5, [r4, #72]	; 0x48
10001d12:	60a5      	str	r5, [r4, #8]
10001d14:	6025      	str	r5, [r4, #0]
10001d16:	60e5      	str	r5, [r4, #12]
10001d18:	f7ff fee6 	bl	10001ae8 <xQueueGenericSend>
10001d1c:	0020      	movs	r0, r4
10001d1e:	bd70      	pop	{r4, r5, r6, pc}

10001d20 <xQueueGiveMutexRecursive>:
10001d20:	b570      	push	{r4, r5, r6, lr}
10001d22:	0004      	movs	r4, r0
10001d24:	6886      	ldr	r6, [r0, #8]
10001d26:	f001 fceb 	bl	10003700 <xTaskGetCurrentTaskHandle>
10001d2a:	2500      	movs	r5, #0
10001d2c:	4286      	cmp	r6, r0
10001d2e:	d001      	beq.n	10001d34 <xQueueGiveMutexRecursive+0x14>
10001d30:	0028      	movs	r0, r5
10001d32:	bd70      	pop	{r4, r5, r6, pc}
10001d34:	68e3      	ldr	r3, [r4, #12]
10001d36:	3501      	adds	r5, #1
10001d38:	3b01      	subs	r3, #1
10001d3a:	60e3      	str	r3, [r4, #12]
10001d3c:	2b00      	cmp	r3, #0
10001d3e:	d1f7      	bne.n	10001d30 <xQueueGiveMutexRecursive+0x10>
10001d40:	2200      	movs	r2, #0
10001d42:	2100      	movs	r1, #0
10001d44:	0020      	movs	r0, r4
10001d46:	f7ff fecf 	bl	10001ae8 <xQueueGenericSend>
10001d4a:	e7f1      	b.n	10001d30 <xQueueGiveMutexRecursive+0x10>

10001d4c <xQueueGenericSendFromISR>:
10001d4c:	b5f8      	push	{r3, r4, r5, r6, r7, lr}
10001d4e:	464e      	mov	r6, r9
10001d50:	46de      	mov	lr, fp
10001d52:	4657      	mov	r7, sl
10001d54:	4645      	mov	r5, r8
10001d56:	0004      	movs	r4, r0
10001d58:	b5e0      	push	{r5, r6, r7, lr}
10001d5a:	4691      	mov	r9, r2
10001d5c:	001d      	movs	r5, r3
10001d5e:	000f      	movs	r7, r1
10001d60:	f002 fba8 	bl	100044b4 <vTaskEnterCriticalFromISR>
10001d64:	6ba3      	ldr	r3, [r4, #56]	; 0x38
10001d66:	6be2      	ldr	r2, [r4, #60]	; 0x3c
10001d68:	0006      	movs	r6, r0
10001d6a:	4293      	cmp	r3, r2
10001d6c:	d33a      	bcc.n	10001de4 <xQueueGenericSendFromISR+0x98>
10001d6e:	2d02      	cmp	r5, #2
10001d70:	d00a      	beq.n	10001d88 <xQueueGenericSendFromISR+0x3c>
10001d72:	2400      	movs	r4, #0
10001d74:	0030      	movs	r0, r6
10001d76:	f002 fc2f 	bl	100045d8 <vTaskExitCriticalFromISR>
10001d7a:	0020      	movs	r0, r4
10001d7c:	bcf0      	pop	{r4, r5, r6, r7}
10001d7e:	46bb      	mov	fp, r7
10001d80:	46b2      	mov	sl, r6
10001d82:	46a9      	mov	r9, r5
10001d84:	46a0      	mov	r8, r4
10001d86:	bdf8      	pop	{r3, r4, r5, r6, r7, pc}
10001d88:	2345      	movs	r3, #69	; 0x45
10001d8a:	5ce3      	ldrb	r3, [r4, r3]
10001d8c:	6c22      	ldr	r2, [r4, #64]	; 0x40
10001d8e:	b25b      	sxtb	r3, r3
10001d90:	4698      	mov	r8, r3
10001d92:	6ba3      	ldr	r3, [r4, #56]	; 0x38
10001d94:	469b      	mov	fp, r3
10001d96:	6ba3      	ldr	r3, [r4, #56]	; 0x38
10001d98:	469a      	mov	sl, r3
10001d9a:	2a00      	cmp	r2, #0
10001d9c:	d02d      	beq.n	10001dfa <xQueueGenericSendFromISR+0xae>
10001d9e:	0039      	movs	r1, r7
10001da0:	68e0      	ldr	r0, [r4, #12]
10001da2:	f005 f9bd 	bl	10007120 <__wrap___aeabi_memcpy>
10001da6:	68e1      	ldr	r1, [r4, #12]
10001da8:	6c23      	ldr	r3, [r4, #64]	; 0x40
10001daa:	425a      	negs	r2, r3
10001dac:	1acb      	subs	r3, r1, r3
10001dae:	6821      	ldr	r1, [r4, #0]
10001db0:	60e3      	str	r3, [r4, #12]
10001db2:	428b      	cmp	r3, r1
10001db4:	d203      	bcs.n	10001dbe <xQueueGenericSendFromISR+0x72>
10001db6:	68a3      	ldr	r3, [r4, #8]
10001db8:	469c      	mov	ip, r3
10001dba:	4462      	add	r2, ip
10001dbc:	60e2      	str	r2, [r4, #12]
10001dbe:	4653      	mov	r3, sl
10001dc0:	2d02      	cmp	r5, #2
10001dc2:	d054      	beq.n	10001e6e <xQueueGenericSendFromISR+0x122>
10001dc4:	3301      	adds	r3, #1
10001dc6:	63a3      	str	r3, [r4, #56]	; 0x38
10001dc8:	4643      	mov	r3, r8
10001dca:	3301      	adds	r3, #1
10001dcc:	d01e      	beq.n	10001e0c <xQueueGenericSendFromISR+0xc0>
10001dce:	f000 ff59 	bl	10002c84 <uxTaskGetNumberOfTasks>
10001dd2:	4580      	cmp	r8, r0
10001dd4:	d22d      	bcs.n	10001e32 <xQueueGenericSendFromISR+0xe6>
10001dd6:	4643      	mov	r3, r8
10001dd8:	2245      	movs	r2, #69	; 0x45
10001dda:	3301      	adds	r3, #1
10001ddc:	b25b      	sxtb	r3, r3
10001dde:	54a3      	strb	r3, [r4, r2]
10001de0:	2401      	movs	r4, #1
10001de2:	e7c7      	b.n	10001d74 <xQueueGenericSendFromISR+0x28>
10001de4:	2345      	movs	r3, #69	; 0x45
10001de6:	5ce3      	ldrb	r3, [r4, r3]
10001de8:	6c22      	ldr	r2, [r4, #64]	; 0x40
10001dea:	b25b      	sxtb	r3, r3
10001dec:	4698      	mov	r8, r3
10001dee:	6ba3      	ldr	r3, [r4, #56]	; 0x38
10001df0:	469b      	mov	fp, r3
10001df2:	6ba3      	ldr	r3, [r4, #56]	; 0x38
10001df4:	469a      	mov	sl, r3
10001df6:	2a00      	cmp	r2, #0
10001df8:	d11d      	bne.n	10001e36 <xQueueGenericSendFromISR+0xea>
10001dfa:	6827      	ldr	r7, [r4, #0]
10001dfc:	2f00      	cmp	r7, #0
10001dfe:	d03a      	beq.n	10001e76 <xQueueGenericSendFromISR+0x12a>
10001e00:	4653      	mov	r3, sl
10001e02:	3301      	adds	r3, #1
10001e04:	63a3      	str	r3, [r4, #56]	; 0x38
10001e06:	4643      	mov	r3, r8
10001e08:	3301      	adds	r3, #1
10001e0a:	d1e0      	bne.n	10001dce <xQueueGenericSendFromISR+0x82>
10001e0c:	6ca3      	ldr	r3, [r4, #72]	; 0x48
10001e0e:	2b00      	cmp	r3, #0
10001e10:	d022      	beq.n	10001e58 <xQueueGenericSendFromISR+0x10c>
10001e12:	2d02      	cmp	r5, #2
10001e14:	d102      	bne.n	10001e1c <xQueueGenericSendFromISR+0xd0>
10001e16:	465b      	mov	r3, fp
10001e18:	2b00      	cmp	r3, #0
10001e1a:	d10a      	bne.n	10001e32 <xQueueGenericSendFromISR+0xe6>
10001e1c:	0020      	movs	r0, r4
10001e1e:	f7ff fdb7 	bl	10001990 <prvNotifyQueueSetContainer>
10001e22:	2800      	cmp	r0, #0
10001e24:	d005      	beq.n	10001e32 <xQueueGenericSendFromISR+0xe6>
10001e26:	464b      	mov	r3, r9
10001e28:	2b00      	cmp	r3, #0
10001e2a:	d002      	beq.n	10001e32 <xQueueGenericSendFromISR+0xe6>
10001e2c:	2301      	movs	r3, #1
10001e2e:	464a      	mov	r2, r9
10001e30:	6013      	str	r3, [r2, #0]
10001e32:	2401      	movs	r4, #1
10001e34:	e79e      	b.n	10001d74 <xQueueGenericSendFromISR+0x28>
10001e36:	2d00      	cmp	r5, #0
10001e38:	d1b1      	bne.n	10001d9e <xQueueGenericSendFromISR+0x52>
10001e3a:	0039      	movs	r1, r7
10001e3c:	6860      	ldr	r0, [r4, #4]
10001e3e:	f005 f96f 	bl	10007120 <__wrap___aeabi_memcpy>
10001e42:	6c22      	ldr	r2, [r4, #64]	; 0x40
10001e44:	6863      	ldr	r3, [r4, #4]
10001e46:	4694      	mov	ip, r2
10001e48:	68a2      	ldr	r2, [r4, #8]
10001e4a:	4463      	add	r3, ip
10001e4c:	6063      	str	r3, [r4, #4]
10001e4e:	4293      	cmp	r3, r2
10001e50:	d3d6      	bcc.n	10001e00 <xQueueGenericSendFromISR+0xb4>
10001e52:	6823      	ldr	r3, [r4, #0]
10001e54:	6063      	str	r3, [r4, #4]
10001e56:	e7d3      	b.n	10001e00 <xQueueGenericSendFromISR+0xb4>
10001e58:	6a63      	ldr	r3, [r4, #36]	; 0x24
10001e5a:	2b00      	cmp	r3, #0
10001e5c:	d0e9      	beq.n	10001e32 <xQueueGenericSendFromISR+0xe6>
10001e5e:	0020      	movs	r0, r4
10001e60:	3024      	adds	r0, #36	; 0x24
10001e62:	f001 fb03 	bl	1000346c <xTaskRemoveFromEventList>
10001e66:	2800      	cmp	r0, #0
10001e68:	d1dd      	bne.n	10001e26 <xQueueGenericSendFromISR+0xda>
10001e6a:	2401      	movs	r4, #1
10001e6c:	e782      	b.n	10001d74 <xQueueGenericSendFromISR+0x28>
10001e6e:	2b00      	cmp	r3, #0
10001e70:	d1c8      	bne.n	10001e04 <xQueueGenericSendFromISR+0xb8>
10001e72:	3301      	adds	r3, #1
10001e74:	e7a7      	b.n	10001dc6 <xQueueGenericSendFromISR+0x7a>
10001e76:	68a0      	ldr	r0, [r4, #8]
10001e78:	f001 fd4c 	bl	10003914 <xTaskPriorityDisinherit>
10001e7c:	4653      	mov	r3, sl
10001e7e:	60a7      	str	r7, [r4, #8]
10001e80:	3301      	adds	r3, #1
10001e82:	e7bf      	b.n	10001e04 <xQueueGenericSendFromISR+0xb8>

10001e84 <xQueueGiveFromISR>:
10001e84:	b5f0      	push	{r4, r5, r6, r7, lr}
10001e86:	46c6      	mov	lr, r8
10001e88:	0004      	movs	r4, r0
10001e8a:	b500      	push	{lr}
10001e8c:	000e      	movs	r6, r1
10001e8e:	f002 fb11 	bl	100044b4 <vTaskEnterCriticalFromISR>
10001e92:	6ba3      	ldr	r3, [r4, #56]	; 0x38
10001e94:	6be2      	ldr	r2, [r4, #60]	; 0x3c
10001e96:	0005      	movs	r5, r0
10001e98:	2700      	movs	r7, #0
10001e9a:	429a      	cmp	r2, r3
10001e9c:	d914      	bls.n	10001ec8 <xQueueGiveFromISR+0x44>
10001e9e:	2245      	movs	r2, #69	; 0x45
10001ea0:	5ca7      	ldrb	r7, [r4, r2]
10001ea2:	3301      	adds	r3, #1
10001ea4:	b27f      	sxtb	r7, r7
10001ea6:	4690      	mov	r8, r2
10001ea8:	63a3      	str	r3, [r4, #56]	; 0x38
10001eaa:	1c7b      	adds	r3, r7, #1
10001eac:	d113      	bne.n	10001ed6 <xQueueGiveFromISR+0x52>
10001eae:	6ca3      	ldr	r3, [r4, #72]	; 0x48
10001eb0:	2b00      	cmp	r3, #0
10001eb2:	d01a      	beq.n	10001eea <xQueueGiveFromISR+0x66>
10001eb4:	0020      	movs	r0, r4
10001eb6:	f7ff fd6b 	bl	10001990 <prvNotifyQueueSetContainer>
10001eba:	2800      	cmp	r0, #0
10001ebc:	d013      	beq.n	10001ee6 <xQueueGiveFromISR+0x62>
10001ebe:	2e00      	cmp	r6, #0
10001ec0:	d011      	beq.n	10001ee6 <xQueueGiveFromISR+0x62>
10001ec2:	2301      	movs	r3, #1
10001ec4:	2701      	movs	r7, #1
10001ec6:	6033      	str	r3, [r6, #0]
10001ec8:	0028      	movs	r0, r5
10001eca:	f002 fb85 	bl	100045d8 <vTaskExitCriticalFromISR>
10001ece:	0038      	movs	r0, r7
10001ed0:	bc80      	pop	{r7}
10001ed2:	46b8      	mov	r8, r7
10001ed4:	bdf0      	pop	{r4, r5, r6, r7, pc}
10001ed6:	f000 fed5 	bl	10002c84 <uxTaskGetNumberOfTasks>
10001eda:	4287      	cmp	r7, r0
10001edc:	d203      	bcs.n	10001ee6 <xQueueGiveFromISR+0x62>
10001ede:	4643      	mov	r3, r8
10001ee0:	3701      	adds	r7, #1
10001ee2:	b27f      	sxtb	r7, r7
10001ee4:	54e7      	strb	r7, [r4, r3]
10001ee6:	2701      	movs	r7, #1
10001ee8:	e7ee      	b.n	10001ec8 <xQueueGiveFromISR+0x44>
10001eea:	6a63      	ldr	r3, [r4, #36]	; 0x24
10001eec:	2b00      	cmp	r3, #0
10001eee:	d0fa      	beq.n	10001ee6 <xQueueGiveFromISR+0x62>
10001ef0:	0020      	movs	r0, r4
10001ef2:	3024      	adds	r0, #36	; 0x24
10001ef4:	f001 faba 	bl	1000346c <xTaskRemoveFromEventList>
10001ef8:	2800      	cmp	r0, #0
10001efa:	d1e0      	bne.n	10001ebe <xQueueGiveFromISR+0x3a>
10001efc:	2701      	movs	r7, #1
10001efe:	e7e3      	b.n	10001ec8 <xQueueGiveFromISR+0x44>

10001f00 <xQueueReceive>:
10001f00:	b5f0      	push	{r4, r5, r6, r7, lr}
10001f02:	4647      	mov	r7, r8
10001f04:	46ce      	mov	lr, r9
10001f06:	0004      	movs	r4, r0
10001f08:	b580      	push	{r7, lr}
10001f0a:	b085      	sub	sp, #20
10001f0c:	4688      	mov	r8, r1
10001f0e:	9201      	str	r2, [sp, #4]
10001f10:	f001 fdd4 	bl	10003abc <vTaskEnterCritical>
10001f14:	6ba7      	ldr	r7, [r4, #56]	; 0x38
10001f16:	2f00      	cmp	r7, #0
10001f18:	d15e      	bne.n	10001fd8 <xQueueReceive+0xd8>
10001f1a:	9b01      	ldr	r3, [sp, #4]
10001f1c:	2b00      	cmp	r3, #0
10001f1e:	d03b      	beq.n	10001f98 <xQueueReceive+0x98>
10001f20:	a802      	add	r0, sp, #8
10001f22:	f001 fb0d 	bl	10003540 <vTaskInternalSetTimeOutState>
10001f26:	2300      	movs	r3, #0
10001f28:	2644      	movs	r6, #68	; 0x44
10001f2a:	4699      	mov	r9, r3
10001f2c:	2545      	movs	r5, #69	; 0x45
10001f2e:	f002 fb03 	bl	10004538 <vTaskExitCritical>
10001f32:	f000 fe33 	bl	10002b9c <vTaskSuspendAll>
10001f36:	f001 fdc1 	bl	10003abc <vTaskEnterCritical>
10001f3a:	5da3      	ldrb	r3, [r4, r6]
10001f3c:	b25b      	sxtb	r3, r3
10001f3e:	3301      	adds	r3, #1
10001f40:	d101      	bne.n	10001f46 <xQueueReceive+0x46>
10001f42:	464b      	mov	r3, r9
10001f44:	55a3      	strb	r3, [r4, r6]
10001f46:	5d63      	ldrb	r3, [r4, r5]
10001f48:	b25b      	sxtb	r3, r3
10001f4a:	3301      	adds	r3, #1
10001f4c:	d101      	bne.n	10001f52 <xQueueReceive+0x52>
10001f4e:	464b      	mov	r3, r9
10001f50:	5563      	strb	r3, [r4, r5]
10001f52:	f002 faf1 	bl	10004538 <vTaskExitCritical>
10001f56:	a901      	add	r1, sp, #4
10001f58:	a802      	add	r0, sp, #8
10001f5a:	f001 fafd 	bl	10003558 <xTaskCheckForTimeOut>
10001f5e:	2800      	cmp	r0, #0
10001f60:	d122      	bne.n	10001fa8 <xQueueReceive+0xa8>
10001f62:	f001 fdab 	bl	10003abc <vTaskEnterCritical>
10001f66:	6ba3      	ldr	r3, [r4, #56]	; 0x38
10001f68:	2b00      	cmp	r3, #0
10001f6a:	d12a      	bne.n	10001fc2 <xQueueReceive+0xc2>
10001f6c:	f002 fae4 	bl	10004538 <vTaskExitCritical>
10001f70:	0020      	movs	r0, r4
10001f72:	9901      	ldr	r1, [sp, #4]
10001f74:	3024      	adds	r0, #36	; 0x24
10001f76:	f001 f941 	bl	100031fc <vTaskPlaceOnEventList>
10001f7a:	0020      	movs	r0, r4
10001f7c:	f7ff fc64 	bl	10001848 <prvUnlockQueue>
10001f80:	f002 fa0c 	bl	1000439c <xTaskResumeAll>
10001f84:	2800      	cmp	r0, #0
10001f86:	d024      	beq.n	10001fd2 <xQueueReceive+0xd2>
10001f88:	f001 fd98 	bl	10003abc <vTaskEnterCritical>
10001f8c:	6ba7      	ldr	r7, [r4, #56]	; 0x38
10001f8e:	2f00      	cmp	r7, #0
10001f90:	d122      	bne.n	10001fd8 <xQueueReceive+0xd8>
10001f92:	9b01      	ldr	r3, [sp, #4]
10001f94:	2b00      	cmp	r3, #0
10001f96:	d1ca      	bne.n	10001f2e <xQueueReceive+0x2e>
10001f98:	f002 face 	bl	10004538 <vTaskExitCritical>
10001f9c:	2000      	movs	r0, #0
10001f9e:	b005      	add	sp, #20
10001fa0:	bcc0      	pop	{r6, r7}
10001fa2:	46b9      	mov	r9, r7
10001fa4:	46b0      	mov	r8, r6
10001fa6:	bdf0      	pop	{r4, r5, r6, r7, pc}
10001fa8:	0020      	movs	r0, r4
10001faa:	f7ff fc4d 	bl	10001848 <prvUnlockQueue>
10001fae:	f002 f9f5 	bl	1000439c <xTaskResumeAll>
10001fb2:	f001 fd83 	bl	10003abc <vTaskEnterCritical>
10001fb6:	6ba3      	ldr	r3, [r4, #56]	; 0x38
10001fb8:	2b00      	cmp	r3, #0
10001fba:	d0ed      	beq.n	10001f98 <xQueueReceive+0x98>
10001fbc:	f002 fabc 	bl	10004538 <vTaskExitCritical>
10001fc0:	e7e2      	b.n	10001f88 <xQueueReceive+0x88>
10001fc2:	f002 fab9 	bl	10004538 <vTaskExitCritical>
10001fc6:	0020      	movs	r0, r4
10001fc8:	f7ff fc3e 	bl	10001848 <prvUnlockQueue>
10001fcc:	f002 f9e6 	bl	1000439c <xTaskResumeAll>
10001fd0:	e7da      	b.n	10001f88 <xQueueReceive+0x88>
10001fd2:	f001 fd5f 	bl	10003a94 <vTaskYieldWithinAPI>
10001fd6:	e7d7      	b.n	10001f88 <xQueueReceive+0x88>
10001fd8:	6c22      	ldr	r2, [r4, #64]	; 0x40
10001fda:	2a00      	cmp	r2, #0
10001fdc:	d008      	beq.n	10001ff0 <xQueueReceive+0xf0>
10001fde:	68e3      	ldr	r3, [r4, #12]
10001fe0:	1899      	adds	r1, r3, r2
10001fe2:	68a3      	ldr	r3, [r4, #8]
10001fe4:	60e1      	str	r1, [r4, #12]
10001fe6:	4299      	cmp	r1, r3
10001fe8:	d20b      	bcs.n	10002002 <xQueueReceive+0x102>
10001fea:	4640      	mov	r0, r8
10001fec:	f005 f898 	bl	10007120 <__wrap___aeabi_memcpy>
10001ff0:	6923      	ldr	r3, [r4, #16]
10001ff2:	3f01      	subs	r7, #1
10001ff4:	63a7      	str	r7, [r4, #56]	; 0x38
10001ff6:	2b00      	cmp	r3, #0
10001ff8:	d106      	bne.n	10002008 <xQueueReceive+0x108>
10001ffa:	f002 fa9d 	bl	10004538 <vTaskExitCritical>
10001ffe:	2001      	movs	r0, #1
10002000:	e7cd      	b.n	10001f9e <xQueueReceive+0x9e>
10002002:	6821      	ldr	r1, [r4, #0]
10002004:	60e1      	str	r1, [r4, #12]
10002006:	e7f0      	b.n	10001fea <xQueueReceive+0xea>
10002008:	0020      	movs	r0, r4
1000200a:	3010      	adds	r0, #16
1000200c:	f001 fa2e 	bl	1000346c <xTaskRemoveFromEventList>
10002010:	2800      	cmp	r0, #0
10002012:	d0f2      	beq.n	10001ffa <xQueueReceive+0xfa>
10002014:	f001 fd3e 	bl	10003a94 <vTaskYieldWithinAPI>
10002018:	e7ef      	b.n	10001ffa <xQueueReceive+0xfa>
1000201a:	46c0      	nop			; (mov r8, r8)

1000201c <xQueueSemaphoreTake>:
1000201c:	b5f0      	push	{r4, r5, r6, r7, lr}
1000201e:	46c6      	mov	lr, r8
10002020:	2300      	movs	r3, #0
10002022:	0004      	movs	r4, r0
10002024:	b500      	push	{lr}
10002026:	b084      	sub	sp, #16
10002028:	4698      	mov	r8, r3
1000202a:	9101      	str	r1, [sp, #4]
1000202c:	f001 fd46 	bl	10003abc <vTaskEnterCritical>
10002030:	6ba3      	ldr	r3, [r4, #56]	; 0x38
10002032:	2600      	movs	r6, #0
10002034:	2700      	movs	r7, #0
10002036:	2544      	movs	r5, #68	; 0x44
10002038:	2b00      	cmp	r3, #0
1000203a:	d13c      	bne.n	100020b6 <xQueueSemaphoreTake+0x9a>
1000203c:	9b01      	ldr	r3, [sp, #4]
1000203e:	2b00      	cmp	r3, #0
10002040:	d100      	bne.n	10002044 <xQueueSemaphoreTake+0x28>
10002042:	e078      	b.n	10002136 <xQueueSemaphoreTake+0x11a>
10002044:	2f00      	cmp	r7, #0
10002046:	d050      	beq.n	100020ea <xQueueSemaphoreTake+0xce>
10002048:	f002 fa76 	bl	10004538 <vTaskExitCritical>
1000204c:	f000 fda6 	bl	10002b9c <vTaskSuspendAll>
10002050:	f001 fd34 	bl	10003abc <vTaskEnterCritical>
10002054:	5d63      	ldrb	r3, [r4, r5]
10002056:	b25b      	sxtb	r3, r3
10002058:	3301      	adds	r3, #1
1000205a:	d101      	bne.n	10002060 <xQueueSemaphoreTake+0x44>
1000205c:	4643      	mov	r3, r8
1000205e:	5563      	strb	r3, [r4, r5]
10002060:	2245      	movs	r2, #69	; 0x45
10002062:	5ca3      	ldrb	r3, [r4, r2]
10002064:	b25b      	sxtb	r3, r3
10002066:	3301      	adds	r3, #1
10002068:	d101      	bne.n	1000206e <xQueueSemaphoreTake+0x52>
1000206a:	4643      	mov	r3, r8
1000206c:	54a3      	strb	r3, [r4, r2]
1000206e:	f002 fa63 	bl	10004538 <vTaskExitCritical>
10002072:	a901      	add	r1, sp, #4
10002074:	a802      	add	r0, sp, #8
10002076:	f001 fa6f 	bl	10003558 <xTaskCheckForTimeOut>
1000207a:	2800      	cmp	r0, #0
1000207c:	d127      	bne.n	100020ce <xQueueSemaphoreTake+0xb2>
1000207e:	f001 fd1d 	bl	10003abc <vTaskEnterCritical>
10002082:	6ba3      	ldr	r3, [r4, #56]	; 0x38
10002084:	2b00      	cmp	r3, #0
10002086:	d134      	bne.n	100020f2 <xQueueSemaphoreTake+0xd6>
10002088:	f002 fa56 	bl	10004538 <vTaskExitCritical>
1000208c:	6823      	ldr	r3, [r4, #0]
1000208e:	2b00      	cmp	r3, #0
10002090:	d055      	beq.n	1000213e <xQueueSemaphoreTake+0x122>
10002092:	0020      	movs	r0, r4
10002094:	9901      	ldr	r1, [sp, #4]
10002096:	3024      	adds	r0, #36	; 0x24
10002098:	f001 f8b0 	bl	100031fc <vTaskPlaceOnEventList>
1000209c:	0020      	movs	r0, r4
1000209e:	f7ff fbd3 	bl	10001848 <prvUnlockQueue>
100020a2:	f002 f97b 	bl	1000439c <xTaskResumeAll>
100020a6:	2800      	cmp	r0, #0
100020a8:	d035      	beq.n	10002116 <xQueueSemaphoreTake+0xfa>
100020aa:	2701      	movs	r7, #1
100020ac:	f001 fd06 	bl	10003abc <vTaskEnterCritical>
100020b0:	6ba3      	ldr	r3, [r4, #56]	; 0x38
100020b2:	2b00      	cmp	r3, #0
100020b4:	d0c2      	beq.n	1000203c <xQueueSemaphoreTake+0x20>
100020b6:	3b01      	subs	r3, #1
100020b8:	63a3      	str	r3, [r4, #56]	; 0x38
100020ba:	6823      	ldr	r3, [r4, #0]
100020bc:	2b00      	cmp	r3, #0
100020be:	d050      	beq.n	10002162 <xQueueSemaphoreTake+0x146>
100020c0:	6923      	ldr	r3, [r4, #16]
100020c2:	2b00      	cmp	r3, #0
100020c4:	d144      	bne.n	10002150 <xQueueSemaphoreTake+0x134>
100020c6:	f002 fa37 	bl	10004538 <vTaskExitCritical>
100020ca:	2601      	movs	r6, #1
100020cc:	e01e      	b.n	1000210c <xQueueSemaphoreTake+0xf0>
100020ce:	0020      	movs	r0, r4
100020d0:	f7ff fbba 	bl	10001848 <prvUnlockQueue>
100020d4:	f002 f962 	bl	1000439c <xTaskResumeAll>
100020d8:	f001 fcf0 	bl	10003abc <vTaskEnterCritical>
100020dc:	6ba3      	ldr	r3, [r4, #56]	; 0x38
100020de:	2b00      	cmp	r3, #0
100020e0:	d010      	beq.n	10002104 <xQueueSemaphoreTake+0xe8>
100020e2:	f002 fa29 	bl	10004538 <vTaskExitCritical>
100020e6:	2701      	movs	r7, #1
100020e8:	e7e0      	b.n	100020ac <xQueueSemaphoreTake+0x90>
100020ea:	a802      	add	r0, sp, #8
100020ec:	f001 fa28 	bl	10003540 <vTaskInternalSetTimeOutState>
100020f0:	e7aa      	b.n	10002048 <xQueueSemaphoreTake+0x2c>
100020f2:	f002 fa21 	bl	10004538 <vTaskExitCritical>
100020f6:	0020      	movs	r0, r4
100020f8:	f7ff fba6 	bl	10001848 <prvUnlockQueue>
100020fc:	2701      	movs	r7, #1
100020fe:	f002 f94d 	bl	1000439c <xTaskResumeAll>
10002102:	e7d3      	b.n	100020ac <xQueueSemaphoreTake+0x90>
10002104:	f002 fa18 	bl	10004538 <vTaskExitCritical>
10002108:	2e00      	cmp	r6, #0
1000210a:	d108      	bne.n	1000211e <xQueueSemaphoreTake+0x102>
1000210c:	0030      	movs	r0, r6
1000210e:	b004      	add	sp, #16
10002110:	bc80      	pop	{r7}
10002112:	46b8      	mov	r8, r7
10002114:	bdf0      	pop	{r4, r5, r6, r7, pc}
10002116:	f001 fcbd 	bl	10003a94 <vTaskYieldWithinAPI>
1000211a:	2701      	movs	r7, #1
1000211c:	e7c6      	b.n	100020ac <xQueueSemaphoreTake+0x90>
1000211e:	f001 fccd 	bl	10003abc <vTaskEnterCritical>
10002122:	6a61      	ldr	r1, [r4, #36]	; 0x24
10002124:	2900      	cmp	r1, #0
10002126:	d003      	beq.n	10002130 <xQueueSemaphoreTake+0x114>
10002128:	2120      	movs	r1, #32
1000212a:	6b23      	ldr	r3, [r4, #48]	; 0x30
1000212c:	681b      	ldr	r3, [r3, #0]
1000212e:	1ac9      	subs	r1, r1, r3
10002130:	68a0      	ldr	r0, [r4, #8]
10002132:	f001 fc49 	bl	100039c8 <vTaskPriorityDisinheritAfterTimeout>
10002136:	f002 f9ff 	bl	10004538 <vTaskExitCritical>
1000213a:	2600      	movs	r6, #0
1000213c:	e7e6      	b.n	1000210c <xQueueSemaphoreTake+0xf0>
1000213e:	f001 fcbd 	bl	10003abc <vTaskEnterCritical>
10002142:	68a0      	ldr	r0, [r4, #8]
10002144:	f001 fb66 	bl	10003814 <xTaskPriorityInherit>
10002148:	0006      	movs	r6, r0
1000214a:	f002 f9f5 	bl	10004538 <vTaskExitCritical>
1000214e:	e7a0      	b.n	10002092 <xQueueSemaphoreTake+0x76>
10002150:	0020      	movs	r0, r4
10002152:	3010      	adds	r0, #16
10002154:	f001 f98a 	bl	1000346c <xTaskRemoveFromEventList>
10002158:	2800      	cmp	r0, #0
1000215a:	d0b4      	beq.n	100020c6 <xQueueSemaphoreTake+0xaa>
1000215c:	f001 fc9a 	bl	10003a94 <vTaskYieldWithinAPI>
10002160:	e7b1      	b.n	100020c6 <xQueueSemaphoreTake+0xaa>
10002162:	f002 fa8f 	bl	10004684 <pvTaskIncrementMutexHeldCount>
10002166:	60a0      	str	r0, [r4, #8]
10002168:	e7aa      	b.n	100020c0 <xQueueSemaphoreTake+0xa4>
1000216a:	46c0      	nop			; (mov r8, r8)

1000216c <xQueueTakeMutexRecursive>:
1000216c:	b570      	push	{r4, r5, r6, lr}
1000216e:	6886      	ldr	r6, [r0, #8]
10002170:	0004      	movs	r4, r0
10002172:	000d      	movs	r5, r1
10002174:	f001 fac4 	bl	10003700 <xTaskGetCurrentTaskHandle>
10002178:	4286      	cmp	r6, r0
1000217a:	d009      	beq.n	10002190 <xQueueTakeMutexRecursive+0x24>
1000217c:	0029      	movs	r1, r5
1000217e:	0020      	movs	r0, r4
10002180:	f7ff ff4c 	bl	1000201c <xQueueSemaphoreTake>
10002184:	2800      	cmp	r0, #0
10002186:	d002      	beq.n	1000218e <xQueueTakeMutexRecursive+0x22>
10002188:	68e3      	ldr	r3, [r4, #12]
1000218a:	3301      	adds	r3, #1
1000218c:	60e3      	str	r3, [r4, #12]
1000218e:	bd70      	pop	{r4, r5, r6, pc}
10002190:	68e3      	ldr	r3, [r4, #12]
10002192:	2001      	movs	r0, #1
10002194:	3301      	adds	r3, #1
10002196:	60e3      	str	r3, [r4, #12]
10002198:	e7f9      	b.n	1000218e <xQueueTakeMutexRecursive+0x22>
1000219a:	46c0      	nop			; (mov r8, r8)

1000219c <vQueueDelete>:
1000219c:	4b19      	ldr	r3, [pc, #100]	; (10002204 <vQueueDelete+0x68>)
1000219e:	b570      	push	{r4, r5, r6, lr}
100021a0:	685a      	ldr	r2, [r3, #4]
100021a2:	4290      	cmp	r0, r2
100021a4:	d017      	beq.n	100021d6 <vQueueDelete+0x3a>
100021a6:	68da      	ldr	r2, [r3, #12]
100021a8:	4290      	cmp	r0, r2
100021aa:	d01c      	beq.n	100021e6 <vQueueDelete+0x4a>
100021ac:	695a      	ldr	r2, [r3, #20]
100021ae:	4290      	cmp	r0, r2
100021b0:	d01b      	beq.n	100021ea <vQueueDelete+0x4e>
100021b2:	69da      	ldr	r2, [r3, #28]
100021b4:	4290      	cmp	r0, r2
100021b6:	d01a      	beq.n	100021ee <vQueueDelete+0x52>
100021b8:	6a5a      	ldr	r2, [r3, #36]	; 0x24
100021ba:	4290      	cmp	r0, r2
100021bc:	d019      	beq.n	100021f2 <vQueueDelete+0x56>
100021be:	6ada      	ldr	r2, [r3, #44]	; 0x2c
100021c0:	4290      	cmp	r0, r2
100021c2:	d018      	beq.n	100021f6 <vQueueDelete+0x5a>
100021c4:	6b5a      	ldr	r2, [r3, #52]	; 0x34
100021c6:	4290      	cmp	r0, r2
100021c8:	d017      	beq.n	100021fa <vQueueDelete+0x5e>
100021ca:	6bda      	ldr	r2, [r3, #60]	; 0x3c
100021cc:	4290      	cmp	r0, r2
100021ce:	d016      	beq.n	100021fe <vQueueDelete+0x62>
100021d0:	f7fe ff86 	bl	100010e0 <vPortFree>
100021d4:	bd70      	pop	{r4, r5, r6, pc}
100021d6:	2200      	movs	r2, #0
100021d8:	2400      	movs	r4, #0
100021da:	2500      	movs	r5, #0
100021dc:	00d2      	lsls	r2, r2, #3
100021de:	189b      	adds	r3, r3, r2
100021e0:	601c      	str	r4, [r3, #0]
100021e2:	605d      	str	r5, [r3, #4]
100021e4:	e7f4      	b.n	100021d0 <vQueueDelete+0x34>
100021e6:	2201      	movs	r2, #1
100021e8:	e7f6      	b.n	100021d8 <vQueueDelete+0x3c>
100021ea:	2202      	movs	r2, #2
100021ec:	e7f4      	b.n	100021d8 <vQueueDelete+0x3c>
100021ee:	2203      	movs	r2, #3
100021f0:	e7f2      	b.n	100021d8 <vQueueDelete+0x3c>
100021f2:	2204      	movs	r2, #4
100021f4:	e7f0      	b.n	100021d8 <vQueueDelete+0x3c>
100021f6:	2205      	movs	r2, #5
100021f8:	e7ee      	b.n	100021d8 <vQueueDelete+0x3c>
100021fa:	2206      	movs	r2, #6
100021fc:	e7ec      	b.n	100021d8 <vQueueDelete+0x3c>
100021fe:	2207      	movs	r2, #7
10002200:	e7ea      	b.n	100021d8 <vQueueDelete+0x3c>
10002202:	46c0      	nop			; (mov r8, r8)
10002204:	200006c0 	.word	0x200006c0

10002208 <vQueueAddToRegistry>:
10002208:	b570      	push	{r4, r5, r6, lr}
1000220a:	2900      	cmp	r1, #0
1000220c:	d00e      	beq.n	1000222c <vQueueAddToRegistry+0x24>
1000220e:	2600      	movs	r6, #0
10002210:	2300      	movs	r3, #0
10002212:	4d37      	ldr	r5, [pc, #220]	; (100022f0 <vQueueAddToRegistry+0xe8>)
10002214:	00da      	lsls	r2, r3, #3
10002216:	18ac      	adds	r4, r5, r2
10002218:	6864      	ldr	r4, [r4, #4]
1000221a:	4284      	cmp	r4, r0
1000221c:	d059      	beq.n	100022d2 <vQueueAddToRegistry+0xca>
1000221e:	2e00      	cmp	r6, #0
10002220:	d005      	beq.n	1000222e <vQueueAddToRegistry+0x26>
10002222:	3301      	adds	r3, #1
10002224:	2b08      	cmp	r3, #8
10002226:	d1f5      	bne.n	10002214 <vQueueAddToRegistry+0xc>
10002228:	6031      	str	r1, [r6, #0]
1000222a:	6070      	str	r0, [r6, #4]
1000222c:	bd70      	pop	{r4, r5, r6, pc}
1000222e:	58ac      	ldr	r4, [r5, r2]
10002230:	2c00      	cmp	r4, #0
10002232:	d04b      	beq.n	100022cc <vQueueAddToRegistry+0xc4>
10002234:	1c5c      	adds	r4, r3, #1
10002236:	2b07      	cmp	r3, #7
10002238:	d0f8      	beq.n	1000222c <vQueueAddToRegistry+0x24>
1000223a:	00e2      	lsls	r2, r4, #3
1000223c:	18ae      	adds	r6, r5, r2
1000223e:	6876      	ldr	r6, [r6, #4]
10002240:	42b0      	cmp	r0, r6
10002242:	d046      	beq.n	100022d2 <vQueueAddToRegistry+0xca>
10002244:	58ae      	ldr	r6, [r5, r2]
10002246:	2e00      	cmp	r6, #0
10002248:	d047      	beq.n	100022da <vQueueAddToRegistry+0xd2>
1000224a:	1c9c      	adds	r4, r3, #2
1000224c:	2b06      	cmp	r3, #6
1000224e:	d0ed      	beq.n	1000222c <vQueueAddToRegistry+0x24>
10002250:	00e2      	lsls	r2, r4, #3
10002252:	18ae      	adds	r6, r5, r2
10002254:	6876      	ldr	r6, [r6, #4]
10002256:	42b0      	cmp	r0, r6
10002258:	d03b      	beq.n	100022d2 <vQueueAddToRegistry+0xca>
1000225a:	58ae      	ldr	r6, [r5, r2]
1000225c:	2e00      	cmp	r6, #0
1000225e:	d03c      	beq.n	100022da <vQueueAddToRegistry+0xd2>
10002260:	1cdc      	adds	r4, r3, #3
10002262:	2b05      	cmp	r3, #5
10002264:	d0e2      	beq.n	1000222c <vQueueAddToRegistry+0x24>
10002266:	00e2      	lsls	r2, r4, #3
10002268:	18ae      	adds	r6, r5, r2
1000226a:	6876      	ldr	r6, [r6, #4]
1000226c:	4286      	cmp	r6, r0
1000226e:	d030      	beq.n	100022d2 <vQueueAddToRegistry+0xca>
10002270:	58ae      	ldr	r6, [r5, r2]
10002272:	2e00      	cmp	r6, #0
10002274:	d031      	beq.n	100022da <vQueueAddToRegistry+0xd2>
10002276:	1d1c      	adds	r4, r3, #4
10002278:	2b04      	cmp	r3, #4
1000227a:	d0d7      	beq.n	1000222c <vQueueAddToRegistry+0x24>
1000227c:	00e2      	lsls	r2, r4, #3
1000227e:	18ae      	adds	r6, r5, r2
10002280:	6876      	ldr	r6, [r6, #4]
10002282:	42b0      	cmp	r0, r6
10002284:	d025      	beq.n	100022d2 <vQueueAddToRegistry+0xca>
10002286:	58ae      	ldr	r6, [r5, r2]
10002288:	2e00      	cmp	r6, #0
1000228a:	d026      	beq.n	100022da <vQueueAddToRegistry+0xd2>
1000228c:	1d5c      	adds	r4, r3, #5
1000228e:	2b03      	cmp	r3, #3
10002290:	d0cc      	beq.n	1000222c <vQueueAddToRegistry+0x24>
10002292:	00e2      	lsls	r2, r4, #3
10002294:	18ae      	adds	r6, r5, r2
10002296:	6876      	ldr	r6, [r6, #4]
10002298:	42b0      	cmp	r0, r6
1000229a:	d01a      	beq.n	100022d2 <vQueueAddToRegistry+0xca>
1000229c:	58ae      	ldr	r6, [r5, r2]
1000229e:	2e00      	cmp	r6, #0
100022a0:	d01b      	beq.n	100022da <vQueueAddToRegistry+0xd2>
100022a2:	1d9a      	adds	r2, r3, #6
100022a4:	2b02      	cmp	r3, #2
100022a6:	d0c1      	beq.n	1000222c <vQueueAddToRegistry+0x24>
100022a8:	00d4      	lsls	r4, r2, #3
100022aa:	192e      	adds	r6, r5, r4
100022ac:	6876      	ldr	r6, [r6, #4]
100022ae:	42b0      	cmp	r0, r6
100022b0:	d00e      	beq.n	100022d0 <vQueueAddToRegistry+0xc8>
100022b2:	592c      	ldr	r4, [r5, r4]
100022b4:	2c00      	cmp	r4, #0
100022b6:	d013      	beq.n	100022e0 <vQueueAddToRegistry+0xd8>
100022b8:	2b01      	cmp	r3, #1
100022ba:	d0b7      	beq.n	1000222c <vQueueAddToRegistry+0x24>
100022bc:	6beb      	ldr	r3, [r5, #60]	; 0x3c
100022be:	4298      	cmp	r0, r3
100022c0:	d012      	beq.n	100022e8 <vQueueAddToRegistry+0xe0>
100022c2:	6bab      	ldr	r3, [r5, #56]	; 0x38
100022c4:	2b00      	cmp	r3, #0
100022c6:	d1b1      	bne.n	1000222c <vQueueAddToRegistry+0x24>
100022c8:	2307      	movs	r3, #7
100022ca:	2238      	movs	r2, #56	; 0x38
100022cc:	18ae      	adds	r6, r5, r2
100022ce:	e7a8      	b.n	10002222 <vQueueAddToRegistry+0x1a>
100022d0:	00d2      	lsls	r2, r2, #3
100022d2:	18ae      	adds	r6, r5, r2
100022d4:	6031      	str	r1, [r6, #0]
100022d6:	6070      	str	r0, [r6, #4]
100022d8:	e7a8      	b.n	1000222c <vQueueAddToRegistry+0x24>
100022da:	0023      	movs	r3, r4
100022dc:	18ae      	adds	r6, r5, r2
100022de:	e7a0      	b.n	10002222 <vQueueAddToRegistry+0x1a>
100022e0:	0013      	movs	r3, r2
100022e2:	00d2      	lsls	r2, r2, #3
100022e4:	18ae      	adds	r6, r5, r2
100022e6:	e79c      	b.n	10002222 <vQueueAddToRegistry+0x1a>
100022e8:	2238      	movs	r2, #56	; 0x38
100022ea:	18ae      	adds	r6, r5, r2
100022ec:	e7f2      	b.n	100022d4 <vQueueAddToRegistry+0xcc>
100022ee:	46c0      	nop			; (mov r8, r8)
100022f0:	200006c0 	.word	0x200006c0

100022f4 <vQueueWaitForMessageRestricted>:
100022f4:	b570      	push	{r4, r5, r6, lr}
100022f6:	0004      	movs	r4, r0
100022f8:	0016      	movs	r6, r2
100022fa:	000d      	movs	r5, r1
100022fc:	f001 fbde 	bl	10003abc <vTaskEnterCritical>
10002300:	2244      	movs	r2, #68	; 0x44
10002302:	5ca3      	ldrb	r3, [r4, r2]
10002304:	b25b      	sxtb	r3, r3
10002306:	3301      	adds	r3, #1
10002308:	d101      	bne.n	1000230e <vQueueWaitForMessageRestricted+0x1a>
1000230a:	2300      	movs	r3, #0
1000230c:	54a3      	strb	r3, [r4, r2]
1000230e:	2245      	movs	r2, #69	; 0x45
10002310:	5ca3      	ldrb	r3, [r4, r2]
10002312:	b25b      	sxtb	r3, r3
10002314:	3301      	adds	r3, #1
10002316:	d101      	bne.n	1000231c <vQueueWaitForMessageRestricted+0x28>
10002318:	2300      	movs	r3, #0
1000231a:	54a3      	strb	r3, [r4, r2]
1000231c:	f002 f90c 	bl	10004538 <vTaskExitCritical>
10002320:	6ba3      	ldr	r3, [r4, #56]	; 0x38
10002322:	2b00      	cmp	r3, #0
10002324:	d003      	beq.n	1000232e <vQueueWaitForMessageRestricted+0x3a>
10002326:	0020      	movs	r0, r4
10002328:	f7ff fa8e 	bl	10001848 <prvUnlockQueue>
1000232c:	bd70      	pop	{r4, r5, r6, pc}
1000232e:	0020      	movs	r0, r4
10002330:	0032      	movs	r2, r6
10002332:	0029      	movs	r1, r5
10002334:	3024      	adds	r0, #36	; 0x24
10002336:	f001 f853 	bl	100033e0 <vTaskPlaceOnEventListRestricted>
1000233a:	e7f4      	b.n	10002326 <vQueueWaitForMessageRestricted+0x32>

1000233c <prvPassiveIdleTask>:
1000233c:	b510      	push	{r4, lr}
1000233e:	f7fe ffb1 	bl	100012a4 <vPortYield>
10002342:	4c05      	ldr	r4, [pc, #20]	; (10002358 <prvPassiveIdleTask+0x1c>)
10002344:	6823      	ldr	r3, [r4, #0]
10002346:	2b02      	cmp	r3, #2
10002348:	d800      	bhi.n	1000234c <prvPassiveIdleTask+0x10>
1000234a:	e7fe      	b.n	1000234a <prvPassiveIdleTask+0xe>
1000234c:	f7fe ffaa 	bl	100012a4 <vPortYield>
10002350:	6823      	ldr	r3, [r4, #0]
10002352:	2b02      	cmp	r3, #2
10002354:	d8fa      	bhi.n	1000234c <prvPassiveIdleTask+0x10>
10002356:	e7f8      	b.n	1000234a <prvPassiveIdleTask+0xe>
10002358:	20000790 	.word	0x20000790

1000235c <prvYieldForTask>:
1000235c:	6b83      	ldr	r3, [r0, #56]	; 0x38
1000235e:	b570      	push	{r4, r5, r6, lr}
10002360:	2b00      	cmp	r3, #0
10002362:	db02      	blt.n	1000236a <prvYieldForTask+0xe>
10002364:	6b83      	ldr	r3, [r0, #56]	; 0x38
10002366:	2b01      	cmp	r3, #1
10002368:	dd2f      	ble.n	100023ca <prvYieldForTask+0x6e>
1000236a:	2601      	movs	r6, #1
1000236c:	4c29      	ldr	r4, [pc, #164]	; (10002414 <prvYieldForTask+0xb8>)
1000236e:	6b03      	ldr	r3, [r0, #48]	; 0x30
10002370:	1e5a      	subs	r2, r3, #1
10002372:	6823      	ldr	r3, [r4, #0]
10002374:	6b19      	ldr	r1, [r3, #48]	; 0x30
10002376:	6823      	ldr	r3, [r4, #0]
10002378:	6bdb      	ldr	r3, [r3, #60]	; 0x3c
1000237a:	4033      	ands	r3, r6
1000237c:	1ac9      	subs	r1, r1, r3
1000237e:	6823      	ldr	r3, [r4, #0]
10002380:	6b9b      	ldr	r3, [r3, #56]	; 0x38
10002382:	2b00      	cmp	r3, #0
10002384:	db03      	blt.n	1000238e <prvYieldForTask+0x32>
10002386:	6823      	ldr	r3, [r4, #0]
10002388:	6b9b      	ldr	r3, [r3, #56]	; 0x38
1000238a:	2b01      	cmp	r3, #1
1000238c:	dd1e      	ble.n	100023cc <prvYieldForTask+0x70>
1000238e:	2501      	movs	r5, #1
10002390:	426d      	negs	r5, r5
10002392:	2601      	movs	r6, #1
10002394:	6863      	ldr	r3, [r4, #4]
10002396:	6b19      	ldr	r1, [r3, #48]	; 0x30
10002398:	6863      	ldr	r3, [r4, #4]
1000239a:	6bdb      	ldr	r3, [r3, #60]	; 0x3c
1000239c:	4033      	ands	r3, r6
1000239e:	1ac9      	subs	r1, r1, r3
100023a0:	6863      	ldr	r3, [r4, #4]
100023a2:	6b9b      	ldr	r3, [r3, #56]	; 0x38
100023a4:	2b00      	cmp	r3, #0
100023a6:	db03      	blt.n	100023b0 <prvYieldForTask+0x54>
100023a8:	6863      	ldr	r3, [r4, #4]
100023aa:	6b9b      	ldr	r3, [r3, #56]	; 0x38
100023ac:	2b01      	cmp	r3, #1
100023ae:	dd18      	ble.n	100023e2 <prvYieldForTask+0x86>
100023b0:	2000      	movs	r0, #0
100023b2:	1c6b      	adds	r3, r5, #1
100023b4:	d009      	beq.n	100023ca <prvYieldForTask+0x6e>
100023b6:	23d0      	movs	r3, #208	; 0xd0
100023b8:	061b      	lsls	r3, r3, #24
100023ba:	681b      	ldr	r3, [r3, #0]
100023bc:	4298      	cmp	r0, r3
100023be:	d023      	beq.n	10002408 <prvYieldForTask+0xac>
100023c0:	0085      	lsls	r5, r0, #2
100023c2:	5963      	ldr	r3, [r4, r5]
100023c4:	6b9b      	ldr	r3, [r3, #56]	; 0x38
100023c6:	3302      	adds	r3, #2
100023c8:	d117      	bne.n	100023fa <prvYieldForTask+0x9e>
100023ca:	bd70      	pop	{r4, r5, r6, pc}
100023cc:	4b12      	ldr	r3, [pc, #72]	; (10002418 <prvYieldForTask+0xbc>)
100023ce:	681d      	ldr	r5, [r3, #0]
100023d0:	2d00      	cmp	r5, #0
100023d2:	d1dc      	bne.n	1000238e <prvYieldForTask+0x32>
100023d4:	428a      	cmp	r2, r1
100023d6:	dbda      	blt.n	1000238e <prvYieldForTask+0x32>
100023d8:	6843      	ldr	r3, [r0, #4]
100023da:	4233      	tst	r3, r6
100023dc:	d0d7      	beq.n	1000238e <prvYieldForTask+0x32>
100023de:	000a      	movs	r2, r1
100023e0:	e7d7      	b.n	10002392 <prvYieldForTask+0x36>
100023e2:	4b0d      	ldr	r3, [pc, #52]	; (10002418 <prvYieldForTask+0xbc>)
100023e4:	685b      	ldr	r3, [r3, #4]
100023e6:	2b00      	cmp	r3, #0
100023e8:	d1e2      	bne.n	100023b0 <prvYieldForTask+0x54>
100023ea:	4291      	cmp	r1, r2
100023ec:	dce0      	bgt.n	100023b0 <prvYieldForTask+0x54>
100023ee:	6843      	ldr	r3, [r0, #4]
100023f0:	085b      	lsrs	r3, r3, #1
100023f2:	421e      	tst	r6, r3
100023f4:	d0dc      	beq.n	100023b0 <prvYieldForTask+0x54>
100023f6:	2001      	movs	r0, #1
100023f8:	e7dd      	b.n	100023b6 <prvYieldForTask+0x5a>
100023fa:	f7fe ff7f 	bl	100012fc <vYieldCore>
100023fe:	2202      	movs	r2, #2
10002400:	5963      	ldr	r3, [r4, r5]
10002402:	4252      	negs	r2, r2
10002404:	639a      	str	r2, [r3, #56]	; 0x38
10002406:	e7e0      	b.n	100023ca <prvYieldForTask+0x6e>
10002408:	2201      	movs	r2, #1
1000240a:	4b03      	ldr	r3, [pc, #12]	; (10002418 <prvYieldForTask+0xbc>)
1000240c:	0080      	lsls	r0, r0, #2
1000240e:	50c2      	str	r2, [r0, r3]
10002410:	e7db      	b.n	100023ca <prvYieldForTask+0x6e>
10002412:	46c0      	nop			; (mov r8, r8)
10002414:	20000774 	.word	0x20000774
10002418:	20020b24 	.word	0x20020b24

1000241c <prvAddCurrentTaskToDelayedList>:
1000241c:	b5f0      	push	{r4, r5, r6, r7, lr}
1000241e:	46d6      	mov	lr, sl
10002420:	464f      	mov	r7, r9
10002422:	4646      	mov	r6, r8
10002424:	4b48      	ldr	r3, [pc, #288]	; (10002548 <prvAddCurrentTaskToDelayedList+0x12c>)
10002426:	b5c0      	push	{r6, r7, lr}
10002428:	681b      	ldr	r3, [r3, #0]
1000242a:	0004      	movs	r4, r0
1000242c:	4698      	mov	r8, r3
1000242e:	4b47      	ldr	r3, [pc, #284]	; (1000254c <prvAddCurrentTaskToDelayedList+0x130>)
10002430:	000f      	movs	r7, r1
10002432:	681b      	ldr	r3, [r3, #0]
10002434:	4699      	mov	r9, r3
10002436:	4b46      	ldr	r3, [pc, #280]	; (10002550 <prvAddCurrentTaskToDelayedList+0x134>)
10002438:	681b      	ldr	r3, [r3, #0]
1000243a:	469a      	mov	sl, r3
1000243c:	f3ef 8110 	mrs	r1, PRIMASK
10002440:	b672      	cpsid	i
10002442:	26d0      	movs	r6, #208	; 0xd0
10002444:	0636      	lsls	r6, r6, #24
10002446:	6833      	ldr	r3, [r6, #0]
10002448:	4d42      	ldr	r5, [pc, #264]	; (10002554 <prvAddCurrentTaskToDelayedList+0x138>)
1000244a:	009b      	lsls	r3, r3, #2
1000244c:	58ea      	ldr	r2, [r5, r3]
1000244e:	f381 8810 	msr	PRIMASK, r1
10002452:	2379      	movs	r3, #121	; 0x79
10002454:	2100      	movs	r1, #0
10002456:	54d1      	strb	r1, [r2, r3]
10002458:	f3ef 8210 	mrs	r2, PRIMASK
1000245c:	b672      	cpsid	i
1000245e:	6833      	ldr	r3, [r6, #0]
10002460:	009b      	lsls	r3, r3, #2
10002462:	58e8      	ldr	r0, [r5, r3]
10002464:	f382 8810 	msr	PRIMASK, r2
10002468:	3008      	adds	r0, #8
1000246a:	f7ff f9dd 	bl	10001828 <uxListRemove>
1000246e:	1c63      	adds	r3, r4, #1
10002470:	d030      	beq.n	100024d4 <prvAddCurrentTaskToDelayedList+0xb8>
10002472:	4444      	add	r4, r8
10002474:	f3ef 8110 	mrs	r1, PRIMASK
10002478:	b672      	cpsid	i
1000247a:	22d0      	movs	r2, #208	; 0xd0
1000247c:	0612      	lsls	r2, r2, #24
1000247e:	6813      	ldr	r3, [r2, #0]
10002480:	009b      	lsls	r3, r3, #2
10002482:	58eb      	ldr	r3, [r5, r3]
10002484:	f381 8810 	msr	PRIMASK, r1
10002488:	609c      	str	r4, [r3, #8]
1000248a:	45a0      	cmp	r8, r4
1000248c:	d815      	bhi.n	100024ba <prvAddCurrentTaskToDelayedList+0x9e>
1000248e:	f3ef 8010 	mrs	r0, PRIMASK
10002492:	b672      	cpsid	i
10002494:	6813      	ldr	r3, [r2, #0]
10002496:	009b      	lsls	r3, r3, #2
10002498:	58e9      	ldr	r1, [r5, r3]
1000249a:	f380 8810 	msr	PRIMASK, r0
1000249e:	4648      	mov	r0, r9
100024a0:	3108      	adds	r1, #8
100024a2:	f7ff f9a9 	bl	100017f8 <vListInsert>
100024a6:	4b2c      	ldr	r3, [pc, #176]	; (10002558 <prvAddCurrentTaskToDelayedList+0x13c>)
100024a8:	681a      	ldr	r2, [r3, #0]
100024aa:	42a2      	cmp	r2, r4
100024ac:	d900      	bls.n	100024b0 <prvAddCurrentTaskToDelayedList+0x94>
100024ae:	601c      	str	r4, [r3, #0]
100024b0:	bce0      	pop	{r5, r6, r7}
100024b2:	46ba      	mov	sl, r7
100024b4:	46b1      	mov	r9, r6
100024b6:	46a8      	mov	r8, r5
100024b8:	bdf0      	pop	{r4, r5, r6, r7, pc}
100024ba:	f3ef 8010 	mrs	r0, PRIMASK
100024be:	b672      	cpsid	i
100024c0:	6813      	ldr	r3, [r2, #0]
100024c2:	009b      	lsls	r3, r3, #2
100024c4:	58e9      	ldr	r1, [r5, r3]
100024c6:	f380 8810 	msr	PRIMASK, r0
100024ca:	4650      	mov	r0, sl
100024cc:	3108      	adds	r1, #8
100024ce:	f7ff f993 	bl	100017f8 <vListInsert>
100024d2:	e7ed      	b.n	100024b0 <prvAddCurrentTaskToDelayedList+0x94>
100024d4:	2f00      	cmp	r7, #0
100024d6:	d0cc      	beq.n	10002472 <prvAddCurrentTaskToDelayedList+0x56>
100024d8:	4b20      	ldr	r3, [pc, #128]	; (1000255c <prvAddCurrentTaskToDelayedList+0x140>)
100024da:	685a      	ldr	r2, [r3, #4]
100024dc:	f3ef 8010 	mrs	r0, PRIMASK
100024e0:	b672      	cpsid	i
100024e2:	6831      	ldr	r1, [r6, #0]
100024e4:	0089      	lsls	r1, r1, #2
100024e6:	5869      	ldr	r1, [r5, r1]
100024e8:	f380 8810 	msr	PRIMASK, r0
100024ec:	60ca      	str	r2, [r1, #12]
100024ee:	f3ef 8010 	mrs	r0, PRIMASK
100024f2:	b672      	cpsid	i
100024f4:	6831      	ldr	r1, [r6, #0]
100024f6:	0089      	lsls	r1, r1, #2
100024f8:	5869      	ldr	r1, [r5, r1]
100024fa:	f380 8810 	msr	PRIMASK, r0
100024fe:	6890      	ldr	r0, [r2, #8]
10002500:	6108      	str	r0, [r1, #16]
10002502:	f3ef 8010 	mrs	r0, PRIMASK
10002506:	b672      	cpsid	i
10002508:	6831      	ldr	r1, [r6, #0]
1000250a:	0089      	lsls	r1, r1, #2
1000250c:	5869      	ldr	r1, [r5, r1]
1000250e:	f380 8810 	msr	PRIMASK, r0
10002512:	6890      	ldr	r0, [r2, #8]
10002514:	3108      	adds	r1, #8
10002516:	6041      	str	r1, [r0, #4]
10002518:	f3ef 8010 	mrs	r0, PRIMASK
1000251c:	b672      	cpsid	i
1000251e:	6831      	ldr	r1, [r6, #0]
10002520:	0089      	lsls	r1, r1, #2
10002522:	5869      	ldr	r1, [r5, r1]
10002524:	f380 8810 	msr	PRIMASK, r0
10002528:	3108      	adds	r1, #8
1000252a:	6091      	str	r1, [r2, #8]
1000252c:	f3ef 8110 	mrs	r1, PRIMASK
10002530:	b672      	cpsid	i
10002532:	6832      	ldr	r2, [r6, #0]
10002534:	0092      	lsls	r2, r2, #2
10002536:	58aa      	ldr	r2, [r5, r2]
10002538:	f381 8810 	msr	PRIMASK, r1
1000253c:	6193      	str	r3, [r2, #24]
1000253e:	681a      	ldr	r2, [r3, #0]
10002540:	3201      	adds	r2, #1
10002542:	601a      	str	r2, [r3, #0]
10002544:	e7b4      	b.n	100024b0 <prvAddCurrentTaskToDelayedList+0x94>
10002546:	46c0      	nop			; (mov r8, r8)
10002548:	20020b18 	.word	0x20020b18
1000254c:	20000780 	.word	0x20000780
10002550:	20000788 	.word	0x20000788
10002554:	20000774 	.word	0x20000774
10002558:	20020abc 	.word	0x20020abc
1000255c:	20020af0 	.word	0x20020af0

10002560 <vTaskExitCritical.part.0>:
10002560:	20d0      	movs	r0, #208	; 0xd0
10002562:	0600      	lsls	r0, r0, #24
10002564:	6803      	ldr	r3, [r0, #0]
10002566:	491d      	ldr	r1, [pc, #116]	; (100025dc <vTaskExitCritical.part.0+0x7c>)
10002568:	009b      	lsls	r3, r3, #2
1000256a:	585a      	ldr	r2, [r3, r1]
1000256c:	b570      	push	{r4, r5, r6, lr}
1000256e:	2a00      	cmp	r2, #0
10002570:	d02f      	beq.n	100025d2 <vTaskExitCritical.part.0+0x72>
10002572:	3a01      	subs	r2, #1
10002574:	505a      	str	r2, [r3, r1]
10002576:	6800      	ldr	r0, [r0, #0]
10002578:	0083      	lsls	r3, r0, #2
1000257a:	585a      	ldr	r2, [r3, r1]
1000257c:	2a00      	cmp	r2, #0
1000257e:	d128      	bne.n	100025d2 <vTaskExitCritical.part.0+0x72>
10002580:	4a17      	ldr	r2, [pc, #92]	; (100025e0 <vTaskExitCritical.part.0+0x80>)
10002582:	589c      	ldr	r4, [r3, r2]
10002584:	4a17      	ldr	r2, [pc, #92]	; (100025e4 <vTaskExitCritical.part.0+0x84>)
10002586:	7813      	ldrb	r3, [r2, #0]
10002588:	3b01      	subs	r3, #1
1000258a:	b2db      	uxtb	r3, r3
1000258c:	7013      	strb	r3, [r2, #0]
1000258e:	2b00      	cmp	r3, #0
10002590:	d108      	bne.n	100025a4 <vTaskExitCritical.part.0+0x44>
10002592:	2101      	movs	r1, #1
10002594:	4d14      	ldr	r5, [pc, #80]	; (100025e8 <vTaskExitCritical.part.0+0x88>)
10002596:	5c2b      	ldrb	r3, [r5, r0]
10002598:	438b      	bics	r3, r1
1000259a:	542b      	strb	r3, [r5, r0]
1000259c:	f3bf 8f5f 	dmb	sy
100025a0:	4b12      	ldr	r3, [pc, #72]	; (100025ec <vTaskExitCritical.part.0+0x8c>)
100025a2:	6019      	str	r1, [r3, #0]
100025a4:	23d0      	movs	r3, #208	; 0xd0
100025a6:	061b      	lsls	r3, r3, #24
100025a8:	6819      	ldr	r1, [r3, #0]
100025aa:	7853      	ldrb	r3, [r2, #1]
100025ac:	3b01      	subs	r3, #1
100025ae:	b2db      	uxtb	r3, r3
100025b0:	7053      	strb	r3, [r2, #1]
100025b2:	2b00      	cmp	r3, #0
100025b4:	d109      	bne.n	100025ca <vTaskExitCritical.part.0+0x6a>
100025b6:	2002      	movs	r0, #2
100025b8:	4a0b      	ldr	r2, [pc, #44]	; (100025e8 <vTaskExitCritical.part.0+0x88>)
100025ba:	5c53      	ldrb	r3, [r2, r1]
100025bc:	4383      	bics	r3, r0
100025be:	5453      	strb	r3, [r2, r1]
100025c0:	f3bf 8f5f 	dmb	sy
100025c4:	2201      	movs	r2, #1
100025c6:	4b0a      	ldr	r3, [pc, #40]	; (100025f0 <vTaskExitCritical.part.0+0x90>)
100025c8:	601a      	str	r2, [r3, #0]
100025ca:	f7fe fe77 	bl	100012bc <vPortEnableInterrupts>
100025ce:	2c00      	cmp	r4, #0
100025d0:	d100      	bne.n	100025d4 <vTaskExitCritical.part.0+0x74>
100025d2:	bd70      	pop	{r4, r5, r6, pc}
100025d4:	f7fe fe66 	bl	100012a4 <vPortYield>
100025d8:	e7fb      	b.n	100025d2 <vTaskExitCritical.part.0+0x72>
100025da:	46c0      	nop			; (mov r8, r8)
100025dc:	20020a38 	.word	0x20020a38
100025e0:	20020b24 	.word	0x20020b24
100025e4:	20020a2c 	.word	0x20020a2c
100025e8:	20020a28 	.word	0x20020a28
100025ec:	d0000138 	.word	0xd0000138
100025f0:	d000013c 	.word	0xd000013c

100025f4 <prvCheckForRunStateChange>:
100025f4:	23d0      	movs	r3, #208	; 0xd0
100025f6:	b5f0      	push	{r4, r5, r6, r7, lr}
100025f8:	464f      	mov	r7, r9
100025fa:	46d6      	mov	lr, sl
100025fc:	4646      	mov	r6, r8
100025fe:	061b      	lsls	r3, r3, #24
10002600:	681b      	ldr	r3, [r3, #0]
10002602:	4a4b      	ldr	r2, [pc, #300]	; (10002730 <prvCheckForRunStateChange+0x13c>)
10002604:	009b      	lsls	r3, r3, #2
10002606:	589b      	ldr	r3, [r3, r2]
10002608:	b5c0      	push	{r6, r7, lr}
1000260a:	4699      	mov	r9, r3
1000260c:	4b49      	ldr	r3, [pc, #292]	; (10002734 <prvCheckForRunStateChange+0x140>)
1000260e:	4f4a      	ldr	r7, [pc, #296]	; (10002738 <prvCheckForRunStateChange+0x144>)
10002610:	4698      	mov	r8, r3
10002612:	4b4a      	ldr	r3, [pc, #296]	; (1000273c <prvCheckForRunStateChange+0x148>)
10002614:	469a      	mov	sl, r3
10002616:	e038      	b.n	1000268a <prvCheckForRunStateChange+0x96>
10002618:	4d46      	ldr	r5, [pc, #280]	; (10002734 <prvCheckForRunStateChange+0x140>)
1000261a:	4c48      	ldr	r4, [pc, #288]	; (1000273c <prvCheckForRunStateChange+0x148>)
1000261c:	786b      	ldrb	r3, [r5, #1]
1000261e:	3b01      	subs	r3, #1
10002620:	b2db      	uxtb	r3, r3
10002622:	706b      	strb	r3, [r5, #1]
10002624:	2b00      	cmp	r3, #0
10002626:	d108      	bne.n	1000263a <prvCheckForRunStateChange+0x46>
10002628:	2102      	movs	r1, #2
1000262a:	5ca3      	ldrb	r3, [r4, r2]
1000262c:	438b      	bics	r3, r1
1000262e:	54a3      	strb	r3, [r4, r2]
10002630:	f3bf 8f5f 	dmb	sy
10002634:	2201      	movs	r2, #1
10002636:	4b42      	ldr	r3, [pc, #264]	; (10002740 <prvCheckForRunStateChange+0x14c>)
10002638:	601a      	str	r2, [r3, #0]
1000263a:	f7fe fe3f 	bl	100012bc <vPortEnableInterrupts>
1000263e:	b672      	cpsid	i
10002640:	23d0      	movs	r3, #208	; 0xd0
10002642:	061b      	lsls	r3, r3, #24
10002644:	681a      	ldr	r2, [r3, #0]
10002646:	4b3e      	ldr	r3, [pc, #248]	; (10002740 <prvCheckForRunStateChange+0x14c>)
10002648:	6819      	ldr	r1, [r3, #0]
1000264a:	2900      	cmp	r1, #0
1000264c:	d047      	beq.n	100026de <prvCheckForRunStateChange+0xea>
1000264e:	f3bf 8f5f 	dmb	sy
10002652:	2301      	movs	r3, #1
10002654:	2102      	movs	r1, #2
10002656:	706b      	strb	r3, [r5, #1]
10002658:	5ca3      	ldrb	r3, [r4, r2]
1000265a:	430b      	orrs	r3, r1
1000265c:	54a3      	strb	r3, [r4, r2]
1000265e:	21d0      	movs	r1, #208	; 0xd0
10002660:	4b38      	ldr	r3, [pc, #224]	; (10002744 <prvCheckForRunStateChange+0x150>)
10002662:	0609      	lsls	r1, r1, #24
10002664:	6818      	ldr	r0, [r3, #0]
10002666:	680a      	ldr	r2, [r1, #0]
10002668:	2800      	cmp	r0, #0
1000266a:	d031      	beq.n	100026d0 <prvCheckForRunStateChange+0xdc>
1000266c:	f3bf 8f5f 	dmb	sy
10002670:	2301      	movs	r3, #1
10002672:	2101      	movs	r1, #1
10002674:	702b      	strb	r3, [r5, #0]
10002676:	5ca3      	ldrb	r3, [r4, r2]
10002678:	430b      	orrs	r3, r1
1000267a:	54a3      	strb	r3, [r4, r2]
1000267c:	22d0      	movs	r2, #208	; 0xd0
1000267e:	0612      	lsls	r2, r2, #24
10002680:	6813      	ldr	r3, [r2, #0]
10002682:	009b      	lsls	r3, r3, #2
10002684:	50fe      	str	r6, [r7, r3]
10002686:	2e00      	cmp	r6, #0
10002688:	d046      	beq.n	10002718 <prvCheckForRunStateChange+0x124>
1000268a:	464b      	mov	r3, r9
1000268c:	6b9b      	ldr	r3, [r3, #56]	; 0x38
1000268e:	3302      	adds	r3, #2
10002690:	d12c      	bne.n	100026ec <prvCheckForRunStateChange+0xf8>
10002692:	21d0      	movs	r1, #208	; 0xd0
10002694:	0609      	lsls	r1, r1, #24
10002696:	680a      	ldr	r2, [r1, #0]
10002698:	0093      	lsls	r3, r2, #2
1000269a:	58fe      	ldr	r6, [r7, r3]
1000269c:	2e00      	cmp	r6, #0
1000269e:	d0bb      	beq.n	10002618 <prvCheckForRunStateChange+0x24>
100026a0:	2200      	movs	r2, #0
100026a2:	4645      	mov	r5, r8
100026a4:	50fa      	str	r2, [r7, r3]
100026a6:	782b      	ldrb	r3, [r5, #0]
100026a8:	680a      	ldr	r2, [r1, #0]
100026aa:	3b01      	subs	r3, #1
100026ac:	b2db      	uxtb	r3, r3
100026ae:	702b      	strb	r3, [r5, #0]
100026b0:	2b00      	cmp	r3, #0
100026b2:	d002      	beq.n	100026ba <prvCheckForRunStateChange+0xc6>
100026b4:	4654      	mov	r4, sl
100026b6:	680a      	ldr	r2, [r1, #0]
100026b8:	e7b0      	b.n	1000261c <prvCheckForRunStateChange+0x28>
100026ba:	4654      	mov	r4, sl
100026bc:	2001      	movs	r0, #1
100026be:	5ca3      	ldrb	r3, [r4, r2]
100026c0:	4383      	bics	r3, r0
100026c2:	54a3      	strb	r3, [r4, r2]
100026c4:	f3bf 8f5f 	dmb	sy
100026c8:	4b1e      	ldr	r3, [pc, #120]	; (10002744 <prvCheckForRunStateChange+0x150>)
100026ca:	6018      	str	r0, [r3, #0]
100026cc:	680a      	ldr	r2, [r1, #0]
100026ce:	e7a5      	b.n	1000261c <prvCheckForRunStateChange+0x28>
100026d0:	5ca0      	ldrb	r0, [r4, r2]
100026d2:	07c0      	lsls	r0, r0, #31
100026d4:	d40f      	bmi.n	100026f6 <prvCheckForRunStateChange+0x102>
100026d6:	6819      	ldr	r1, [r3, #0]
100026d8:	2900      	cmp	r1, #0
100026da:	d1c7      	bne.n	1000266c <prvCheckForRunStateChange+0x78>
100026dc:	e7fb      	b.n	100026d6 <prvCheckForRunStateChange+0xe2>
100026de:	5ca1      	ldrb	r1, [r4, r2]
100026e0:	0789      	lsls	r1, r1, #30
100026e2:	d415      	bmi.n	10002710 <prvCheckForRunStateChange+0x11c>
100026e4:	6819      	ldr	r1, [r3, #0]
100026e6:	2900      	cmp	r1, #0
100026e8:	d1b1      	bne.n	1000264e <prvCheckForRunStateChange+0x5a>
100026ea:	e7fb      	b.n	100026e4 <prvCheckForRunStateChange+0xf0>
100026ec:	bce0      	pop	{r5, r6, r7}
100026ee:	46ba      	mov	sl, r7
100026f0:	46b1      	mov	r9, r6
100026f2:	46a8      	mov	r8, r5
100026f4:	bdf0      	pop	{r4, r5, r6, r7, pc}
100026f6:	782a      	ldrb	r2, [r5, #0]
100026f8:	1c53      	adds	r3, r2, #1
100026fa:	702b      	strb	r3, [r5, #0]
100026fc:	680b      	ldr	r3, [r1, #0]
100026fe:	009b      	lsls	r3, r3, #2
10002700:	50fe      	str	r6, [r7, r3]
10002702:	2e00      	cmp	r6, #0
10002704:	d1c1      	bne.n	1000268a <prvCheckForRunStateChange+0x96>
10002706:	680b      	ldr	r3, [r1, #0]
10002708:	702a      	strb	r2, [r5, #0]
1000270a:	2a00      	cmp	r2, #0
1000270c:	d1bd      	bne.n	1000268a <prvCheckForRunStateChange+0x96>
1000270e:	e005      	b.n	1000271c <prvCheckForRunStateChange+0x128>
10002710:	786b      	ldrb	r3, [r5, #1]
10002712:	3301      	adds	r3, #1
10002714:	706b      	strb	r3, [r5, #1]
10002716:	e7a2      	b.n	1000265e <prvCheckForRunStateChange+0x6a>
10002718:	6813      	ldr	r3, [r2, #0]
1000271a:	702e      	strb	r6, [r5, #0]
1000271c:	2101      	movs	r1, #1
1000271e:	5ce2      	ldrb	r2, [r4, r3]
10002720:	438a      	bics	r2, r1
10002722:	54e2      	strb	r2, [r4, r3]
10002724:	f3bf 8f5f 	dmb	sy
10002728:	4b06      	ldr	r3, [pc, #24]	; (10002744 <prvCheckForRunStateChange+0x150>)
1000272a:	6019      	str	r1, [r3, #0]
1000272c:	e7ad      	b.n	1000268a <prvCheckForRunStateChange+0x96>
1000272e:	46c0      	nop			; (mov r8, r8)
10002730:	20000774 	.word	0x20000774
10002734:	20020a2c 	.word	0x20020a2c
10002738:	20020a38 	.word	0x20020a38
1000273c:	20020a28 	.word	0x20020a28
10002740:	d000013c 	.word	0xd000013c
10002744:	d0000138 	.word	0xd0000138

10002748 <vTaskSuspendAll.part.0>:
10002748:	b5f8      	push	{r3, r4, r5, r6, r7, lr}
1000274a:	f3ef 8710 	mrs	r7, PRIMASK
1000274e:	b672      	cpsid	i
10002750:	23d0      	movs	r3, #208	; 0xd0
10002752:	061b      	lsls	r3, r3, #24
10002754:	681a      	ldr	r2, [r3, #0]
10002756:	4b2d      	ldr	r3, [pc, #180]	; (1000280c <vTaskSuspendAll.part.0+0xc4>)
10002758:	4c2d      	ldr	r4, [pc, #180]	; (10002810 <vTaskSuspendAll.part.0+0xc8>)
1000275a:	6819      	ldr	r1, [r3, #0]
1000275c:	2900      	cmp	r1, #0
1000275e:	d03e      	beq.n	100027de <vTaskSuspendAll.part.0+0x96>
10002760:	f3bf 8f5f 	dmb	sy
10002764:	2301      	movs	r3, #1
10002766:	2102      	movs	r1, #2
10002768:	4d2a      	ldr	r5, [pc, #168]	; (10002814 <vTaskSuspendAll.part.0+0xcc>)
1000276a:	706b      	strb	r3, [r5, #1]
1000276c:	5ca3      	ldrb	r3, [r4, r2]
1000276e:	430b      	orrs	r3, r1
10002770:	54a3      	strb	r3, [r4, r2]
10002772:	4e29      	ldr	r6, [pc, #164]	; (10002818 <vTaskSuspendAll.part.0+0xd0>)
10002774:	6833      	ldr	r3, [r6, #0]
10002776:	2b00      	cmp	r3, #0
10002778:	d021      	beq.n	100027be <vTaskSuspendAll.part.0+0x76>
1000277a:	21d0      	movs	r1, #208	; 0xd0
1000277c:	4b27      	ldr	r3, [pc, #156]	; (1000281c <vTaskSuspendAll.part.0+0xd4>)
1000277e:	0609      	lsls	r1, r1, #24
10002780:	6818      	ldr	r0, [r3, #0]
10002782:	680a      	ldr	r2, [r1, #0]
10002784:	2800      	cmp	r0, #0
10002786:	d023      	beq.n	100027d0 <vTaskSuspendAll.part.0+0x88>
10002788:	f3bf 8f5f 	dmb	sy
1000278c:	2301      	movs	r3, #1
1000278e:	2101      	movs	r1, #1
10002790:	702b      	strb	r3, [r5, #0]
10002792:	5ca3      	ldrb	r3, [r4, r2]
10002794:	430b      	orrs	r3, r1
10002796:	54a3      	strb	r3, [r4, r2]
10002798:	6833      	ldr	r3, [r6, #0]
1000279a:	2200      	movs	r2, #0
1000279c:	3301      	adds	r3, #1
1000279e:	6033      	str	r3, [r6, #0]
100027a0:	23d0      	movs	r3, #208	; 0xd0
100027a2:	061b      	lsls	r3, r3, #24
100027a4:	681b      	ldr	r3, [r3, #0]
100027a6:	702a      	strb	r2, [r5, #0]
100027a8:	2101      	movs	r1, #1
100027aa:	5ce2      	ldrb	r2, [r4, r3]
100027ac:	438a      	bics	r2, r1
100027ae:	54e2      	strb	r2, [r4, r3]
100027b0:	f3bf 8f5f 	dmb	sy
100027b4:	4b19      	ldr	r3, [pc, #100]	; (1000281c <vTaskSuspendAll.part.0+0xd4>)
100027b6:	6019      	str	r1, [r3, #0]
100027b8:	f387 8810 	msr	PRIMASK, r7
100027bc:	bdf8      	pop	{r3, r4, r5, r6, r7, pc}
100027be:	f7ff ff19 	bl	100025f4 <prvCheckForRunStateChange>
100027c2:	21d0      	movs	r1, #208	; 0xd0
100027c4:	4b15      	ldr	r3, [pc, #84]	; (1000281c <vTaskSuspendAll.part.0+0xd4>)
100027c6:	0609      	lsls	r1, r1, #24
100027c8:	6818      	ldr	r0, [r3, #0]
100027ca:	680a      	ldr	r2, [r1, #0]
100027cc:	2800      	cmp	r0, #0
100027ce:	d1db      	bne.n	10002788 <vTaskSuspendAll.part.0+0x40>
100027d0:	5ca0      	ldrb	r0, [r4, r2]
100027d2:	07c0      	lsls	r0, r0, #31
100027d4:	d40f      	bmi.n	100027f6 <vTaskSuspendAll.part.0+0xae>
100027d6:	6819      	ldr	r1, [r3, #0]
100027d8:	2900      	cmp	r1, #0
100027da:	d1d5      	bne.n	10002788 <vTaskSuspendAll.part.0+0x40>
100027dc:	e7fb      	b.n	100027d6 <vTaskSuspendAll.part.0+0x8e>
100027de:	5ca1      	ldrb	r1, [r4, r2]
100027e0:	0789      	lsls	r1, r1, #30
100027e2:	d403      	bmi.n	100027ec <vTaskSuspendAll.part.0+0xa4>
100027e4:	6819      	ldr	r1, [r3, #0]
100027e6:	2900      	cmp	r1, #0
100027e8:	d1ba      	bne.n	10002760 <vTaskSuspendAll.part.0+0x18>
100027ea:	e7fb      	b.n	100027e4 <vTaskSuspendAll.part.0+0x9c>
100027ec:	4d09      	ldr	r5, [pc, #36]	; (10002814 <vTaskSuspendAll.part.0+0xcc>)
100027ee:	786b      	ldrb	r3, [r5, #1]
100027f0:	3301      	adds	r3, #1
100027f2:	706b      	strb	r3, [r5, #1]
100027f4:	e7bd      	b.n	10002772 <vTaskSuspendAll.part.0+0x2a>
100027f6:	782a      	ldrb	r2, [r5, #0]
100027f8:	1c53      	adds	r3, r2, #1
100027fa:	702b      	strb	r3, [r5, #0]
100027fc:	6833      	ldr	r3, [r6, #0]
100027fe:	3301      	adds	r3, #1
10002800:	6033      	str	r3, [r6, #0]
10002802:	680b      	ldr	r3, [r1, #0]
10002804:	702a      	strb	r2, [r5, #0]
10002806:	2a00      	cmp	r2, #0
10002808:	d1d6      	bne.n	100027b8 <vTaskSuspendAll.part.0+0x70>
1000280a:	e7cd      	b.n	100027a8 <vTaskSuspendAll.part.0+0x60>
1000280c:	d000013c 	.word	0xd000013c
10002810:	20020a28 	.word	0x20020a28
10002814:	20020a2c 	.word	0x20020a2c
10002818:	20020a48 	.word	0x20020a48
1000281c:	d0000138 	.word	0xd0000138

10002820 <vTaskEnterCriticalFromISR.part.0>:
10002820:	b570      	push	{r4, r5, r6, lr}
10002822:	24d0      	movs	r4, #208	; 0xd0
10002824:	0624      	lsls	r4, r4, #24
10002826:	f7fe fd61 	bl	100012ec <ulSetInterruptMaskFromISR>
1000282a:	6821      	ldr	r1, [r4, #0]
1000282c:	4d15      	ldr	r5, [pc, #84]	; (10002884 <vTaskEnterCriticalFromISR.part.0+0x64>)
1000282e:	008a      	lsls	r2, r1, #2
10002830:	58ab      	ldr	r3, [r5, r2]
10002832:	2b00      	cmp	r3, #0
10002834:	d002      	beq.n	1000283c <vTaskEnterCriticalFromISR.part.0+0x1c>
10002836:	3301      	adds	r3, #1
10002838:	50ab      	str	r3, [r5, r2]
1000283a:	bd70      	pop	{r4, r5, r6, pc}
1000283c:	4b12      	ldr	r3, [pc, #72]	; (10002888 <vTaskEnterCriticalFromISR.part.0+0x68>)
1000283e:	681a      	ldr	r2, [r3, #0]
10002840:	2a00      	cmp	r2, #0
10002842:	d00e      	beq.n	10002862 <vTaskEnterCriticalFromISR.part.0+0x42>
10002844:	4a11      	ldr	r2, [pc, #68]	; (1000288c <vTaskEnterCriticalFromISR.part.0+0x6c>)
10002846:	f3bf 8f5f 	dmb	sy
1000284a:	2401      	movs	r4, #1
1000284c:	4b10      	ldr	r3, [pc, #64]	; (10002890 <vTaskEnterCriticalFromISR.part.0+0x70>)
1000284e:	701c      	strb	r4, [r3, #0]
10002850:	5c53      	ldrb	r3, [r2, r1]
10002852:	4323      	orrs	r3, r4
10002854:	5453      	strb	r3, [r2, r1]
10002856:	23d0      	movs	r3, #208	; 0xd0
10002858:	061b      	lsls	r3, r3, #24
1000285a:	6819      	ldr	r1, [r3, #0]
1000285c:	008a      	lsls	r2, r1, #2
1000285e:	58ab      	ldr	r3, [r5, r2]
10002860:	e7e9      	b.n	10002836 <vTaskEnterCriticalFromISR.part.0+0x16>
10002862:	4a0a      	ldr	r2, [pc, #40]	; (1000288c <vTaskEnterCriticalFromISR.part.0+0x6c>)
10002864:	5c56      	ldrb	r6, [r2, r1]
10002866:	07f6      	lsls	r6, r6, #31
10002868:	d403      	bmi.n	10002872 <vTaskEnterCriticalFromISR.part.0+0x52>
1000286a:	681c      	ldr	r4, [r3, #0]
1000286c:	2c00      	cmp	r4, #0
1000286e:	d1ea      	bne.n	10002846 <vTaskEnterCriticalFromISR.part.0+0x26>
10002870:	e7fb      	b.n	1000286a <vTaskEnterCriticalFromISR.part.0+0x4a>
10002872:	4a07      	ldr	r2, [pc, #28]	; (10002890 <vTaskEnterCriticalFromISR.part.0+0x70>)
10002874:	7813      	ldrb	r3, [r2, #0]
10002876:	3301      	adds	r3, #1
10002878:	7013      	strb	r3, [r2, #0]
1000287a:	6821      	ldr	r1, [r4, #0]
1000287c:	008a      	lsls	r2, r1, #2
1000287e:	58ab      	ldr	r3, [r5, r2]
10002880:	e7d9      	b.n	10002836 <vTaskEnterCriticalFromISR.part.0+0x16>
10002882:	46c0      	nop			; (mov r8, r8)
10002884:	20020a38 	.word	0x20020a38
10002888:	d0000138 	.word	0xd0000138
1000288c:	20020a28 	.word	0x20020a28
10002890:	20020a2c 	.word	0x20020a2c

10002894 <prvCheckTasksWaitingTermination>:
10002894:	4b4f      	ldr	r3, [pc, #316]	; (100029d4 <prvCheckTasksWaitingTermination+0x140>)
10002896:	b5f0      	push	{r4, r5, r6, r7, lr}
10002898:	4646      	mov	r6, r8
1000289a:	46d6      	mov	lr, sl
1000289c:	464f      	mov	r7, r9
1000289e:	4698      	mov	r8, r3
100028a0:	4b4d      	ldr	r3, [pc, #308]	; (100029d8 <prvCheckTasksWaitingTermination+0x144>)
100028a2:	b5c0      	push	{r6, r7, lr}
100028a4:	469a      	mov	sl, r3
100028a6:	4c4d      	ldr	r4, [pc, #308]	; (100029dc <prvCheckTasksWaitingTermination+0x148>)
100028a8:	4d4d      	ldr	r5, [pc, #308]	; (100029e0 <prvCheckTasksWaitingTermination+0x14c>)
100028aa:	4e4e      	ldr	r6, [pc, #312]	; (100029e4 <prvCheckTasksWaitingTermination+0x150>)
100028ac:	6823      	ldr	r3, [r4, #0]
100028ae:	2b00      	cmp	r3, #0
100028b0:	d035      	beq.n	1000291e <prvCheckTasksWaitingTermination+0x8a>
100028b2:	b672      	cpsid	i
100028b4:	682b      	ldr	r3, [r5, #0]
100028b6:	2b00      	cmp	r3, #0
100028b8:	d00f      	beq.n	100028da <prvCheckTasksWaitingTermination+0x46>
100028ba:	23d0      	movs	r3, #208	; 0xd0
100028bc:	061b      	lsls	r3, r3, #24
100028be:	6819      	ldr	r1, [r3, #0]
100028c0:	008a      	lsls	r2, r1, #2
100028c2:	58b3      	ldr	r3, [r6, r2]
100028c4:	2b00      	cmp	r3, #0
100028c6:	d03f      	beq.n	10002948 <prvCheckTasksWaitingTermination+0xb4>
100028c8:	3301      	adds	r3, #1
100028ca:	50b3      	str	r3, [r6, r2]
100028cc:	23d0      	movs	r3, #208	; 0xd0
100028ce:	061b      	lsls	r3, r3, #24
100028d0:	681b      	ldr	r3, [r3, #0]
100028d2:	009b      	lsls	r3, r3, #2
100028d4:	58f3      	ldr	r3, [r6, r3]
100028d6:	2b01      	cmp	r3, #1
100028d8:	d02f      	beq.n	1000293a <prvCheckTasksWaitingTermination+0xa6>
100028da:	6823      	ldr	r3, [r4, #0]
100028dc:	2b00      	cmp	r3, #0
100028de:	d023      	beq.n	10002928 <prvCheckTasksWaitingTermination+0x94>
100028e0:	4b41      	ldr	r3, [pc, #260]	; (100029e8 <prvCheckTasksWaitingTermination+0x154>)
100028e2:	68db      	ldr	r3, [r3, #12]
100028e4:	68df      	ldr	r7, [r3, #12]
100028e6:	6bbb      	ldr	r3, [r7, #56]	; 0x38
100028e8:	3301      	adds	r3, #1
100028ea:	d151      	bne.n	10002990 <prvCheckTasksWaitingTermination+0xfc>
100028ec:	0038      	movs	r0, r7
100028ee:	3008      	adds	r0, #8
100028f0:	f7fe ff9a 	bl	10001828 <uxListRemove>
100028f4:	4a3d      	ldr	r2, [pc, #244]	; (100029ec <prvCheckTasksWaitingTermination+0x158>)
100028f6:	6813      	ldr	r3, [r2, #0]
100028f8:	3b01      	subs	r3, #1
100028fa:	6013      	str	r3, [r2, #0]
100028fc:	6823      	ldr	r3, [r4, #0]
100028fe:	3b01      	subs	r3, #1
10002900:	6023      	str	r3, [r4, #0]
10002902:	682b      	ldr	r3, [r5, #0]
10002904:	2b00      	cmp	r3, #0
10002906:	d001      	beq.n	1000290c <prvCheckTasksWaitingTermination+0x78>
10002908:	f7ff fe2a 	bl	10002560 <vTaskExitCritical.part.0>
1000290c:	6b78      	ldr	r0, [r7, #52]	; 0x34
1000290e:	f7fe fbe7 	bl	100010e0 <vPortFree>
10002912:	0038      	movs	r0, r7
10002914:	f7fe fbe4 	bl	100010e0 <vPortFree>
10002918:	6823      	ldr	r3, [r4, #0]
1000291a:	2b00      	cmp	r3, #0
1000291c:	d1c9      	bne.n	100028b2 <prvCheckTasksWaitingTermination+0x1e>
1000291e:	bce0      	pop	{r5, r6, r7}
10002920:	46ba      	mov	sl, r7
10002922:	46b1      	mov	r9, r6
10002924:	46a8      	mov	r8, r5
10002926:	bdf0      	pop	{r4, r5, r6, r7, pc}
10002928:	682b      	ldr	r3, [r5, #0]
1000292a:	2b00      	cmp	r3, #0
1000292c:	d0be      	beq.n	100028ac <prvCheckTasksWaitingTermination+0x18>
1000292e:	f7ff fe17 	bl	10002560 <vTaskExitCritical.part.0>
10002932:	6823      	ldr	r3, [r4, #0]
10002934:	2b00      	cmp	r3, #0
10002936:	d1bc      	bne.n	100028b2 <prvCheckTasksWaitingTermination+0x1e>
10002938:	e7f1      	b.n	1000291e <prvCheckTasksWaitingTermination+0x8a>
1000293a:	4643      	mov	r3, r8
1000293c:	681b      	ldr	r3, [r3, #0]
1000293e:	2b00      	cmp	r3, #0
10002940:	d1cb      	bne.n	100028da <prvCheckTasksWaitingTermination+0x46>
10002942:	f7ff fe57 	bl	100025f4 <prvCheckForRunStateChange>
10002946:	e7c8      	b.n	100028da <prvCheckTasksWaitingTermination+0x46>
10002948:	4a29      	ldr	r2, [pc, #164]	; (100029f0 <prvCheckTasksWaitingTermination+0x15c>)
1000294a:	6813      	ldr	r3, [r2, #0]
1000294c:	2b00      	cmp	r3, #0
1000294e:	d02c      	beq.n	100029aa <prvCheckTasksWaitingTermination+0x116>
10002950:	4b28      	ldr	r3, [pc, #160]	; (100029f4 <prvCheckTasksWaitingTermination+0x160>)
10002952:	f3bf 8f5f 	dmb	sy
10002956:	2201      	movs	r2, #1
10002958:	4650      	mov	r0, sl
1000295a:	2702      	movs	r7, #2
1000295c:	7042      	strb	r2, [r0, #1]
1000295e:	5c5a      	ldrb	r2, [r3, r1]
10002960:	433a      	orrs	r2, r7
10002962:	545a      	strb	r2, [r3, r1]
10002964:	22d0      	movs	r2, #208	; 0xd0
10002966:	0612      	lsls	r2, r2, #24
10002968:	4694      	mov	ip, r2
1000296a:	6811      	ldr	r1, [r2, #0]
1000296c:	4a22      	ldr	r2, [pc, #136]	; (100029f8 <prvCheckTasksWaitingTermination+0x164>)
1000296e:	6817      	ldr	r7, [r2, #0]
10002970:	2f00      	cmp	r7, #0
10002972:	d013      	beq.n	1000299c <prvCheckTasksWaitingTermination+0x108>
10002974:	f3bf 8f5f 	dmb	sy
10002978:	2201      	movs	r2, #1
1000297a:	7002      	strb	r2, [r0, #0]
1000297c:	2001      	movs	r0, #1
1000297e:	5c5a      	ldrb	r2, [r3, r1]
10002980:	4302      	orrs	r2, r0
10002982:	545a      	strb	r2, [r3, r1]
10002984:	23d0      	movs	r3, #208	; 0xd0
10002986:	061b      	lsls	r3, r3, #24
10002988:	6819      	ldr	r1, [r3, #0]
1000298a:	008a      	lsls	r2, r1, #2
1000298c:	58b3      	ldr	r3, [r6, r2]
1000298e:	e79b      	b.n	100028c8 <prvCheckTasksWaitingTermination+0x34>
10002990:	682b      	ldr	r3, [r5, #0]
10002992:	2b00      	cmp	r3, #0
10002994:	d0c3      	beq.n	1000291e <prvCheckTasksWaitingTermination+0x8a>
10002996:	f7ff fde3 	bl	10002560 <vTaskExitCritical.part.0>
1000299a:	e7c0      	b.n	1000291e <prvCheckTasksWaitingTermination+0x8a>
1000299c:	5c5f      	ldrb	r7, [r3, r1]
1000299e:	07ff      	lsls	r7, r7, #31
100029a0:	d410      	bmi.n	100029c4 <prvCheckTasksWaitingTermination+0x130>
100029a2:	6817      	ldr	r7, [r2, #0]
100029a4:	2f00      	cmp	r7, #0
100029a6:	d1e5      	bne.n	10002974 <prvCheckTasksWaitingTermination+0xe0>
100029a8:	e7fb      	b.n	100029a2 <prvCheckTasksWaitingTermination+0x10e>
100029aa:	4b12      	ldr	r3, [pc, #72]	; (100029f4 <prvCheckTasksWaitingTermination+0x160>)
100029ac:	5c58      	ldrb	r0, [r3, r1]
100029ae:	0780      	lsls	r0, r0, #30
100029b0:	d403      	bmi.n	100029ba <prvCheckTasksWaitingTermination+0x126>
100029b2:	6810      	ldr	r0, [r2, #0]
100029b4:	2800      	cmp	r0, #0
100029b6:	d1cc      	bne.n	10002952 <prvCheckTasksWaitingTermination+0xbe>
100029b8:	e7fb      	b.n	100029b2 <prvCheckTasksWaitingTermination+0x11e>
100029ba:	4807      	ldr	r0, [pc, #28]	; (100029d8 <prvCheckTasksWaitingTermination+0x144>)
100029bc:	7842      	ldrb	r2, [r0, #1]
100029be:	3201      	adds	r2, #1
100029c0:	7042      	strb	r2, [r0, #1]
100029c2:	e7cf      	b.n	10002964 <prvCheckTasksWaitingTermination+0xd0>
100029c4:	7803      	ldrb	r3, [r0, #0]
100029c6:	3301      	adds	r3, #1
100029c8:	7003      	strb	r3, [r0, #0]
100029ca:	4663      	mov	r3, ip
100029cc:	6819      	ldr	r1, [r3, #0]
100029ce:	008a      	lsls	r2, r1, #2
100029d0:	58b3      	ldr	r3, [r6, r2]
100029d2:	e779      	b.n	100028c8 <prvCheckTasksWaitingTermination+0x34>
100029d4:	20020a48 	.word	0x20020a48
100029d8:	20020a2c 	.word	0x20020a2c
100029dc:	20020a44 	.word	0x20020a44
100029e0:	20020ae4 	.word	0x20020ae4
100029e4:	20020a38 	.word	0x20020a38
100029e8:	20020b04 	.word	0x20020b04
100029ec:	20020a40 	.word	0x20020a40
100029f0:	d000013c 	.word	0xd000013c
100029f4:	20020a28 	.word	0x20020a28
100029f8:	d0000138 	.word	0xd0000138

100029fc <prvIdleTask>:
100029fc:	b510      	push	{r4, lr}
100029fe:	f7fe fc51 	bl	100012a4 <vPortYield>
10002a02:	4c04      	ldr	r4, [pc, #16]	; (10002a14 <prvIdleTask+0x18>)
10002a04:	f7ff ff46 	bl	10002894 <prvCheckTasksWaitingTermination>
10002a08:	6823      	ldr	r3, [r4, #0]
10002a0a:	2b02      	cmp	r3, #2
10002a0c:	d9fa      	bls.n	10002a04 <prvIdleTask+0x8>
10002a0e:	f7fe fc49 	bl	100012a4 <vPortYield>
10002a12:	e7f7      	b.n	10002a04 <prvIdleTask+0x8>
10002a14:	20000790 	.word	0x20000790

10002a18 <vTaskCoreAffinitySet>:
10002a18:	b5f8      	push	{r3, r4, r5, r6, r7, lr}
10002a1a:	46ce      	mov	lr, r9
10002a1c:	4647      	mov	r7, r8
10002a1e:	0004      	movs	r4, r0
10002a20:	000d      	movs	r5, r1
10002a22:	b580      	push	{r7, lr}
10002a24:	b672      	cpsid	i
10002a26:	4e54      	ldr	r6, [pc, #336]	; (10002b78 <vTaskCoreAffinitySet+0x160>)
10002a28:	6833      	ldr	r3, [r6, #0]
10002a2a:	2b00      	cmp	r3, #0
10002a2c:	d010      	beq.n	10002a50 <vTaskCoreAffinitySet+0x38>
10002a2e:	23d0      	movs	r3, #208	; 0xd0
10002a30:	061b      	lsls	r3, r3, #24
10002a32:	6818      	ldr	r0, [r3, #0]
10002a34:	4a51      	ldr	r2, [pc, #324]	; (10002b7c <vTaskCoreAffinitySet+0x164>)
10002a36:	0081      	lsls	r1, r0, #2
10002a38:	5853      	ldr	r3, [r2, r1]
10002a3a:	2b00      	cmp	r3, #0
10002a3c:	d034      	beq.n	10002aa8 <vTaskCoreAffinitySet+0x90>
10002a3e:	3301      	adds	r3, #1
10002a40:	5053      	str	r3, [r2, r1]
10002a42:	23d0      	movs	r3, #208	; 0xd0
10002a44:	061b      	lsls	r3, r3, #24
10002a46:	681b      	ldr	r3, [r3, #0]
10002a48:	009b      	lsls	r3, r3, #2
10002a4a:	58d3      	ldr	r3, [r2, r3]
10002a4c:	2b01      	cmp	r3, #1
10002a4e:	d024      	beq.n	10002a9a <vTaskCoreAffinitySet+0x82>
10002a50:	2c00      	cmp	r4, #0
10002a52:	d016      	beq.n	10002a82 <vTaskCoreAffinitySet+0x6a>
10002a54:	6833      	ldr	r3, [r6, #0]
10002a56:	6862      	ldr	r2, [r4, #4]
10002a58:	6065      	str	r5, [r4, #4]
10002a5a:	2b00      	cmp	r3, #0
10002a5c:	d008      	beq.n	10002a70 <vTaskCoreAffinitySet+0x58>
10002a5e:	6ba3      	ldr	r3, [r4, #56]	; 0x38
10002a60:	2b00      	cmp	r3, #0
10002a62:	db02      	blt.n	10002a6a <vTaskCoreAffinitySet+0x52>
10002a64:	6ba3      	ldr	r3, [r4, #56]	; 0x38
10002a66:	2b01      	cmp	r3, #1
10002a68:	dd4b      	ble.n	10002b02 <vTaskCoreAffinitySet+0xea>
10002a6a:	4395      	bics	r5, r2
10002a6c:	07ab      	lsls	r3, r5, #30
10002a6e:	d144      	bne.n	10002afa <vTaskCoreAffinitySet+0xe2>
10002a70:	6833      	ldr	r3, [r6, #0]
10002a72:	2b00      	cmp	r3, #0
10002a74:	d001      	beq.n	10002a7a <vTaskCoreAffinitySet+0x62>
10002a76:	f7ff fd73 	bl	10002560 <vTaskExitCritical.part.0>
10002a7a:	bcc0      	pop	{r6, r7}
10002a7c:	46b9      	mov	r9, r7
10002a7e:	46b0      	mov	r8, r6
10002a80:	bdf8      	pop	{r3, r4, r5, r6, r7, pc}
10002a82:	f3ef 8210 	mrs	r2, PRIMASK
10002a86:	b672      	cpsid	i
10002a88:	23d0      	movs	r3, #208	; 0xd0
10002a8a:	061b      	lsls	r3, r3, #24
10002a8c:	681b      	ldr	r3, [r3, #0]
10002a8e:	493c      	ldr	r1, [pc, #240]	; (10002b80 <vTaskCoreAffinitySet+0x168>)
10002a90:	009b      	lsls	r3, r3, #2
10002a92:	585c      	ldr	r4, [r3, r1]
10002a94:	f382 8810 	msr	PRIMASK, r2
10002a98:	e7dc      	b.n	10002a54 <vTaskCoreAffinitySet+0x3c>
10002a9a:	4b3a      	ldr	r3, [pc, #232]	; (10002b84 <vTaskCoreAffinitySet+0x16c>)
10002a9c:	681b      	ldr	r3, [r3, #0]
10002a9e:	2b00      	cmp	r3, #0
10002aa0:	d1d6      	bne.n	10002a50 <vTaskCoreAffinitySet+0x38>
10002aa2:	f7ff fda7 	bl	100025f4 <prvCheckForRunStateChange>
10002aa6:	e7d3      	b.n	10002a50 <vTaskCoreAffinitySet+0x38>
10002aa8:	4937      	ldr	r1, [pc, #220]	; (10002b88 <vTaskCoreAffinitySet+0x170>)
10002aaa:	680b      	ldr	r3, [r1, #0]
10002aac:	2b00      	cmp	r3, #0
10002aae:	d04a      	beq.n	10002b46 <vTaskCoreAffinitySet+0x12e>
10002ab0:	4b36      	ldr	r3, [pc, #216]	; (10002b8c <vTaskCoreAffinitySet+0x174>)
10002ab2:	f3bf 8f5f 	dmb	sy
10002ab6:	4936      	ldr	r1, [pc, #216]	; (10002b90 <vTaskCoreAffinitySet+0x178>)
10002ab8:	4689      	mov	r9, r1
10002aba:	2101      	movs	r1, #1
10002abc:	464f      	mov	r7, r9
10002abe:	7079      	strb	r1, [r7, #1]
10002ac0:	2702      	movs	r7, #2
10002ac2:	46bc      	mov	ip, r7
10002ac4:	4667      	mov	r7, ip
10002ac6:	5c19      	ldrb	r1, [r3, r0]
10002ac8:	4339      	orrs	r1, r7
10002aca:	5419      	strb	r1, [r3, r0]
10002acc:	21d0      	movs	r1, #208	; 0xd0
10002ace:	0609      	lsls	r1, r1, #24
10002ad0:	468c      	mov	ip, r1
10002ad2:	6808      	ldr	r0, [r1, #0]
10002ad4:	492f      	ldr	r1, [pc, #188]	; (10002b94 <vTaskCoreAffinitySet+0x17c>)
10002ad6:	680f      	ldr	r7, [r1, #0]
10002ad8:	2f00      	cmp	r7, #0
10002ada:	d02d      	beq.n	10002b38 <vTaskCoreAffinitySet+0x120>
10002adc:	f3bf 8f5f 	dmb	sy
10002ae0:	2101      	movs	r1, #1
10002ae2:	464f      	mov	r7, r9
10002ae4:	7039      	strb	r1, [r7, #0]
10002ae6:	2701      	movs	r7, #1
10002ae8:	5c19      	ldrb	r1, [r3, r0]
10002aea:	4339      	orrs	r1, r7
10002aec:	5419      	strb	r1, [r3, r0]
10002aee:	23d0      	movs	r3, #208	; 0xd0
10002af0:	061b      	lsls	r3, r3, #24
10002af2:	6818      	ldr	r0, [r3, #0]
10002af4:	0081      	lsls	r1, r0, #2
10002af6:	5853      	ldr	r3, [r2, r1]
10002af8:	e7a1      	b.n	10002a3e <vTaskCoreAffinitySet+0x26>
10002afa:	0020      	movs	r0, r4
10002afc:	f7ff fc2e 	bl	1000235c <prvYieldForTask>
10002b00:	e7b6      	b.n	10002a70 <vTaskCoreAffinitySet+0x58>
10002b02:	6ba0      	ldr	r0, [r4, #56]	; 0x38
10002b04:	2301      	movs	r3, #1
10002b06:	40c5      	lsrs	r5, r0
10002b08:	422b      	tst	r3, r5
10002b0a:	d1b1      	bne.n	10002a70 <vTaskCoreAffinitySet+0x58>
10002b0c:	22d0      	movs	r2, #208	; 0xd0
10002b0e:	0612      	lsls	r2, r2, #24
10002b10:	6812      	ldr	r2, [r2, #0]
10002b12:	4290      	cmp	r0, r2
10002b14:	d00c      	beq.n	10002b30 <vTaskCoreAffinitySet+0x118>
10002b16:	4c1a      	ldr	r4, [pc, #104]	; (10002b80 <vTaskCoreAffinitySet+0x168>)
10002b18:	0085      	lsls	r5, r0, #2
10002b1a:	592b      	ldr	r3, [r5, r4]
10002b1c:	6b9b      	ldr	r3, [r3, #56]	; 0x38
10002b1e:	3302      	adds	r3, #2
10002b20:	d0a6      	beq.n	10002a70 <vTaskCoreAffinitySet+0x58>
10002b22:	f7fe fbeb 	bl	100012fc <vYieldCore>
10002b26:	2202      	movs	r2, #2
10002b28:	592b      	ldr	r3, [r5, r4]
10002b2a:	4252      	negs	r2, r2
10002b2c:	639a      	str	r2, [r3, #56]	; 0x38
10002b2e:	e79f      	b.n	10002a70 <vTaskCoreAffinitySet+0x58>
10002b30:	4a19      	ldr	r2, [pc, #100]	; (10002b98 <vTaskCoreAffinitySet+0x180>)
10002b32:	0080      	lsls	r0, r0, #2
10002b34:	5083      	str	r3, [r0, r2]
10002b36:	e79b      	b.n	10002a70 <vTaskCoreAffinitySet+0x58>
10002b38:	5c1f      	ldrb	r7, [r3, r0]
10002b3a:	07ff      	lsls	r7, r7, #31
10002b3c:	d40b      	bmi.n	10002b56 <vTaskCoreAffinitySet+0x13e>
10002b3e:	680f      	ldr	r7, [r1, #0]
10002b40:	2f00      	cmp	r7, #0
10002b42:	d1cb      	bne.n	10002adc <vTaskCoreAffinitySet+0xc4>
10002b44:	e7fb      	b.n	10002b3e <vTaskCoreAffinitySet+0x126>
10002b46:	4b11      	ldr	r3, [pc, #68]	; (10002b8c <vTaskCoreAffinitySet+0x174>)
10002b48:	5c1f      	ldrb	r7, [r3, r0]
10002b4a:	07bf      	lsls	r7, r7, #30
10002b4c:	d40d      	bmi.n	10002b6a <vTaskCoreAffinitySet+0x152>
10002b4e:	680f      	ldr	r7, [r1, #0]
10002b50:	2f00      	cmp	r7, #0
10002b52:	d1ae      	bne.n	10002ab2 <vTaskCoreAffinitySet+0x9a>
10002b54:	e7fb      	b.n	10002b4e <vTaskCoreAffinitySet+0x136>
10002b56:	464b      	mov	r3, r9
10002b58:	4649      	mov	r1, r9
10002b5a:	781b      	ldrb	r3, [r3, #0]
10002b5c:	3301      	adds	r3, #1
10002b5e:	700b      	strb	r3, [r1, #0]
10002b60:	4663      	mov	r3, ip
10002b62:	6818      	ldr	r0, [r3, #0]
10002b64:	0081      	lsls	r1, r0, #2
10002b66:	5853      	ldr	r3, [r2, r1]
10002b68:	e769      	b.n	10002a3e <vTaskCoreAffinitySet+0x26>
10002b6a:	4909      	ldr	r1, [pc, #36]	; (10002b90 <vTaskCoreAffinitySet+0x178>)
10002b6c:	4689      	mov	r9, r1
10002b6e:	4648      	mov	r0, r9
10002b70:	7849      	ldrb	r1, [r1, #1]
10002b72:	3101      	adds	r1, #1
10002b74:	7041      	strb	r1, [r0, #1]
10002b76:	e7a9      	b.n	10002acc <vTaskCoreAffinitySet+0xb4>
10002b78:	20020ae4 	.word	0x20020ae4
10002b7c:	20020a38 	.word	0x20020a38
10002b80:	20000774 	.word	0x20000774
10002b84:	20020a48 	.word	0x20020a48
10002b88:	d000013c 	.word	0xd000013c
10002b8c:	20020a28 	.word	0x20020a28
10002b90:	20020a2c 	.word	0x20020a2c
10002b94:	d0000138 	.word	0xd0000138
10002b98:	20020b24 	.word	0x20020b24

10002b9c <vTaskSuspendAll>:
10002b9c:	b5f8      	push	{r3, r4, r5, r6, r7, lr}
10002b9e:	4b30      	ldr	r3, [pc, #192]	; (10002c60 <vTaskSuspendAll+0xc4>)
10002ba0:	681b      	ldr	r3, [r3, #0]
10002ba2:	2b00      	cmp	r3, #0
10002ba4:	d100      	bne.n	10002ba8 <vTaskSuspendAll+0xc>
10002ba6:	bdf8      	pop	{r3, r4, r5, r6, r7, pc}
10002ba8:	f3ef 8710 	mrs	r7, PRIMASK
10002bac:	b672      	cpsid	i
10002bae:	23d0      	movs	r3, #208	; 0xd0
10002bb0:	061b      	lsls	r3, r3, #24
10002bb2:	681a      	ldr	r2, [r3, #0]
10002bb4:	4b2b      	ldr	r3, [pc, #172]	; (10002c64 <vTaskSuspendAll+0xc8>)
10002bb6:	4c2c      	ldr	r4, [pc, #176]	; (10002c68 <vTaskSuspendAll+0xcc>)
10002bb8:	6819      	ldr	r1, [r3, #0]
10002bba:	2900      	cmp	r1, #0
10002bbc:	d031      	beq.n	10002c22 <vTaskSuspendAll+0x86>
10002bbe:	f3bf 8f5f 	dmb	sy
10002bc2:	2301      	movs	r3, #1
10002bc4:	2102      	movs	r1, #2
10002bc6:	4d29      	ldr	r5, [pc, #164]	; (10002c6c <vTaskSuspendAll+0xd0>)
10002bc8:	706b      	strb	r3, [r5, #1]
10002bca:	5ca3      	ldrb	r3, [r4, r2]
10002bcc:	430b      	orrs	r3, r1
10002bce:	54a3      	strb	r3, [r4, r2]
10002bd0:	4e27      	ldr	r6, [pc, #156]	; (10002c70 <vTaskSuspendAll+0xd4>)
10002bd2:	6833      	ldr	r3, [r6, #0]
10002bd4:	2b00      	cmp	r3, #0
10002bd6:	d021      	beq.n	10002c1c <vTaskSuspendAll+0x80>
10002bd8:	21d0      	movs	r1, #208	; 0xd0
10002bda:	4b26      	ldr	r3, [pc, #152]	; (10002c74 <vTaskSuspendAll+0xd8>)
10002bdc:	0609      	lsls	r1, r1, #24
10002bde:	6818      	ldr	r0, [r3, #0]
10002be0:	680a      	ldr	r2, [r1, #0]
10002be2:	2800      	cmp	r0, #0
10002be4:	d024      	beq.n	10002c30 <vTaskSuspendAll+0x94>
10002be6:	f3bf 8f5f 	dmb	sy
10002bea:	2301      	movs	r3, #1
10002bec:	2101      	movs	r1, #1
10002bee:	702b      	strb	r3, [r5, #0]
10002bf0:	5ca3      	ldrb	r3, [r4, r2]
10002bf2:	430b      	orrs	r3, r1
10002bf4:	54a3      	strb	r3, [r4, r2]
10002bf6:	6833      	ldr	r3, [r6, #0]
10002bf8:	3301      	adds	r3, #1
10002bfa:	6033      	str	r3, [r6, #0]
10002bfc:	23d0      	movs	r3, #208	; 0xd0
10002bfe:	061b      	lsls	r3, r3, #24
10002c00:	681a      	ldr	r2, [r3, #0]
10002c02:	2300      	movs	r3, #0
10002c04:	702b      	strb	r3, [r5, #0]
10002c06:	2101      	movs	r1, #1
10002c08:	5ca3      	ldrb	r3, [r4, r2]
10002c0a:	438b      	bics	r3, r1
10002c0c:	54a3      	strb	r3, [r4, r2]
10002c0e:	f3bf 8f5f 	dmb	sy
10002c12:	4b18      	ldr	r3, [pc, #96]	; (10002c74 <vTaskSuspendAll+0xd8>)
10002c14:	6019      	str	r1, [r3, #0]
10002c16:	f387 8810 	msr	PRIMASK, r7
10002c1a:	e7c4      	b.n	10002ba6 <vTaskSuspendAll+0xa>
10002c1c:	f7ff fcea 	bl	100025f4 <prvCheckForRunStateChange>
10002c20:	e7da      	b.n	10002bd8 <vTaskSuspendAll+0x3c>
10002c22:	5ca1      	ldrb	r1, [r4, r2]
10002c24:	0789      	lsls	r1, r1, #30
10002c26:	d40a      	bmi.n	10002c3e <vTaskSuspendAll+0xa2>
10002c28:	6819      	ldr	r1, [r3, #0]
10002c2a:	2900      	cmp	r1, #0
10002c2c:	d1c7      	bne.n	10002bbe <vTaskSuspendAll+0x22>
10002c2e:	e7fb      	b.n	10002c28 <vTaskSuspendAll+0x8c>
10002c30:	5ca0      	ldrb	r0, [r4, r2]
10002c32:	07c0      	lsls	r0, r0, #31
10002c34:	d408      	bmi.n	10002c48 <vTaskSuspendAll+0xac>
10002c36:	6819      	ldr	r1, [r3, #0]
10002c38:	2900      	cmp	r1, #0
10002c3a:	d1d4      	bne.n	10002be6 <vTaskSuspendAll+0x4a>
10002c3c:	e7fb      	b.n	10002c36 <vTaskSuspendAll+0x9a>
10002c3e:	4d0b      	ldr	r5, [pc, #44]	; (10002c6c <vTaskSuspendAll+0xd0>)
10002c40:	786b      	ldrb	r3, [r5, #1]
10002c42:	3301      	adds	r3, #1
10002c44:	706b      	strb	r3, [r5, #1]
10002c46:	e7c3      	b.n	10002bd0 <vTaskSuspendAll+0x34>
10002c48:	782b      	ldrb	r3, [r5, #0]
10002c4a:	1c5a      	adds	r2, r3, #1
10002c4c:	702a      	strb	r2, [r5, #0]
10002c4e:	6832      	ldr	r2, [r6, #0]
10002c50:	3201      	adds	r2, #1
10002c52:	6032      	str	r2, [r6, #0]
10002c54:	680a      	ldr	r2, [r1, #0]
10002c56:	702b      	strb	r3, [r5, #0]
10002c58:	2b00      	cmp	r3, #0
10002c5a:	d1dc      	bne.n	10002c16 <vTaskSuspendAll+0x7a>
10002c5c:	e7d3      	b.n	10002c06 <vTaskSuspendAll+0x6a>
10002c5e:	46c0      	nop			; (mov r8, r8)
10002c60:	20020ae4 	.word	0x20020ae4
10002c64:	d000013c 	.word	0xd000013c
10002c68:	20020a28 	.word	0x20020a28
10002c6c:	20020a2c 	.word	0x20020a2c
10002c70:	20020a48 	.word	0x20020a48
10002c74:	d0000138 	.word	0xd0000138

10002c78 <xTaskGetTickCount>:
10002c78:	4b01      	ldr	r3, [pc, #4]	; (10002c80 <xTaskGetTickCount+0x8>)
10002c7a:	6818      	ldr	r0, [r3, #0]
10002c7c:	4770      	bx	lr
10002c7e:	46c0      	nop			; (mov r8, r8)
10002c80:	20020b18 	.word	0x20020b18

10002c84 <uxTaskGetNumberOfTasks>:
10002c84:	4b01      	ldr	r3, [pc, #4]	; (10002c8c <uxTaskGetNumberOfTasks+0x8>)
10002c86:	6818      	ldr	r0, [r3, #0]
10002c88:	4770      	bx	lr
10002c8a:	46c0      	nop			; (mov r8, r8)
10002c8c:	20020a40 	.word	0x20020a40

10002c90 <xTaskIncrementTick>:
10002c90:	b5f8      	push	{r3, r4, r5, r6, r7, lr}
10002c92:	46de      	mov	lr, fp
10002c94:	4657      	mov	r7, sl
10002c96:	464e      	mov	r6, r9
10002c98:	4645      	mov	r5, r8
10002c9a:	4b8a      	ldr	r3, [pc, #552]	; (10002ec4 <xTaskIncrementTick+0x234>)
10002c9c:	b5e0      	push	{r5, r6, r7, lr}
10002c9e:	681b      	ldr	r3, [r3, #0]
10002ca0:	2b00      	cmp	r3, #0
10002ca2:	d14f      	bne.n	10002d44 <xTaskIncrementTick+0xb4>
10002ca4:	4b88      	ldr	r3, [pc, #544]	; (10002ec8 <xTaskIncrementTick+0x238>)
10002ca6:	681d      	ldr	r5, [r3, #0]
10002ca8:	1c6a      	adds	r2, r5, #1
10002caa:	4693      	mov	fp, r2
10002cac:	601a      	str	r2, [r3, #0]
10002cae:	2a00      	cmp	r2, #0
10002cb0:	d054      	beq.n	10002d5c <xTaskIncrementTick+0xcc>
10002cb2:	4b86      	ldr	r3, [pc, #536]	; (10002ecc <xTaskIncrementTick+0x23c>)
10002cb4:	4699      	mov	r9, r3
10002cb6:	464b      	mov	r3, r9
10002cb8:	681b      	ldr	r3, [r3, #0]
10002cba:	455b      	cmp	r3, fp
10002cbc:	d966      	bls.n	10002d8c <xTaskIncrementTick+0xfc>
10002cbe:	4c84      	ldr	r4, [pc, #528]	; (10002ed0 <xTaskIncrementTick+0x240>)
10002cc0:	4d84      	ldr	r5, [pc, #528]	; (10002ed4 <xTaskIncrementTick+0x244>)
10002cc2:	682b      	ldr	r3, [r5, #0]
10002cc4:	6b1a      	ldr	r2, [r3, #48]	; 0x30
10002cc6:	0093      	lsls	r3, r2, #2
10002cc8:	189b      	adds	r3, r3, r2
10002cca:	009b      	lsls	r3, r3, #2
10002ccc:	58e3      	ldr	r3, [r4, r3]
10002cce:	2b01      	cmp	r3, #1
10002cd0:	d800      	bhi.n	10002cd4 <xTaskIncrementTick+0x44>
10002cd2:	e0ae      	b.n	10002e32 <xTaskIncrementTick+0x1a2>
10002cd4:	686b      	ldr	r3, [r5, #4]
10002cd6:	6b1a      	ldr	r2, [r3, #48]	; 0x30
10002cd8:	0093      	lsls	r3, r2, #2
10002cda:	189b      	adds	r3, r3, r2
10002cdc:	009b      	lsls	r3, r3, #2
10002cde:	58e3      	ldr	r3, [r4, r3]
10002ce0:	2b01      	cmp	r3, #1
10002ce2:	d800      	bhi.n	10002ce6 <xTaskIncrementTick+0x56>
10002ce4:	e0bf      	b.n	10002e66 <xTaskIncrementTick+0x1d6>
10002ce6:	23d0      	movs	r3, #208	; 0xd0
10002ce8:	061b      	lsls	r3, r3, #24
10002cea:	681a      	ldr	r2, [r3, #0]
10002cec:	2401      	movs	r4, #1
10002cee:	0016      	movs	r6, r2
10002cf0:	2e00      	cmp	r6, #0
10002cf2:	d100      	bne.n	10002cf6 <xTaskIncrementTick+0x66>
10002cf4:	e0e1      	b.n	10002eba <xTaskIncrementTick+0x22a>
10002cf6:	2a00      	cmp	r2, #0
10002cf8:	d100      	bne.n	10002cfc <xTaskIncrementTick+0x6c>
10002cfa:	e0ba      	b.n	10002e72 <xTaskIncrementTick+0x1e2>
10002cfc:	682b      	ldr	r3, [r5, #0]
10002cfe:	6b9b      	ldr	r3, [r3, #56]	; 0x38
10002d00:	3302      	adds	r3, #2
10002d02:	d006      	beq.n	10002d12 <xTaskIncrementTick+0x82>
10002d04:	2000      	movs	r0, #0
10002d06:	f7fe faf9 	bl	100012fc <vYieldCore>
10002d0a:	2202      	movs	r2, #2
10002d0c:	682b      	ldr	r3, [r5, #0]
10002d0e:	4252      	negs	r2, r2
10002d10:	639a      	str	r2, [r3, #56]	; 0x38
10002d12:	2c00      	cmp	r4, #0
10002d14:	d100      	bne.n	10002d18 <xTaskIncrementTick+0x88>
10002d16:	e0b3      	b.n	10002e80 <xTaskIncrementTick+0x1f0>
10002d18:	2400      	movs	r4, #0
10002d1a:	2e01      	cmp	r6, #1
10002d1c:	d100      	bne.n	10002d20 <xTaskIncrementTick+0x90>
10002d1e:	e0ce      	b.n	10002ebe <xTaskIncrementTick+0x22e>
10002d20:	23d0      	movs	r3, #208	; 0xd0
10002d22:	061b      	lsls	r3, r3, #24
10002d24:	681b      	ldr	r3, [r3, #0]
10002d26:	2b01      	cmp	r3, #1
10002d28:	d100      	bne.n	10002d2c <xTaskIncrementTick+0x9c>
10002d2a:	e0c1      	b.n	10002eb0 <xTaskIncrementTick+0x220>
10002d2c:	686b      	ldr	r3, [r5, #4]
10002d2e:	6b9b      	ldr	r3, [r3, #56]	; 0x38
10002d30:	3302      	adds	r3, #2
10002d32:	d00c      	beq.n	10002d4e <xTaskIncrementTick+0xbe>
10002d34:	2001      	movs	r0, #1
10002d36:	f7fe fae1 	bl	100012fc <vYieldCore>
10002d3a:	2202      	movs	r2, #2
10002d3c:	686b      	ldr	r3, [r5, #4]
10002d3e:	4252      	negs	r2, r2
10002d40:	639a      	str	r2, [r3, #56]	; 0x38
10002d42:	e004      	b.n	10002d4e <xTaskIncrementTick+0xbe>
10002d44:	2400      	movs	r4, #0
10002d46:	4a64      	ldr	r2, [pc, #400]	; (10002ed8 <xTaskIncrementTick+0x248>)
10002d48:	6813      	ldr	r3, [r2, #0]
10002d4a:	3301      	adds	r3, #1
10002d4c:	6013      	str	r3, [r2, #0]
10002d4e:	0020      	movs	r0, r4
10002d50:	bcf0      	pop	{r4, r5, r6, r7}
10002d52:	46bb      	mov	fp, r7
10002d54:	46b2      	mov	sl, r6
10002d56:	46a9      	mov	r9, r5
10002d58:	46a0      	mov	r8, r4
10002d5a:	bdf8      	pop	{r3, r4, r5, r6, r7, pc}
10002d5c:	4b5f      	ldr	r3, [pc, #380]	; (10002edc <xTaskIncrementTick+0x24c>)
10002d5e:	4a60      	ldr	r2, [pc, #384]	; (10002ee0 <xTaskIncrementTick+0x250>)
10002d60:	6819      	ldr	r1, [r3, #0]
10002d62:	6810      	ldr	r0, [r2, #0]
10002d64:	6018      	str	r0, [r3, #0]
10002d66:	6011      	str	r1, [r2, #0]
10002d68:	495e      	ldr	r1, [pc, #376]	; (10002ee4 <xTaskIncrementTick+0x254>)
10002d6a:	680a      	ldr	r2, [r1, #0]
10002d6c:	3201      	adds	r2, #1
10002d6e:	600a      	str	r2, [r1, #0]
10002d70:	681a      	ldr	r2, [r3, #0]
10002d72:	6812      	ldr	r2, [r2, #0]
10002d74:	2a00      	cmp	r2, #0
10002d76:	d16f      	bne.n	10002e58 <xTaskIncrementTick+0x1c8>
10002d78:	4b54      	ldr	r3, [pc, #336]	; (10002ecc <xTaskIncrementTick+0x23c>)
10002d7a:	4699      	mov	r9, r3
10002d7c:	2301      	movs	r3, #1
10002d7e:	464a      	mov	r2, r9
10002d80:	425b      	negs	r3, r3
10002d82:	6013      	str	r3, [r2, #0]
10002d84:	464b      	mov	r3, r9
10002d86:	681b      	ldr	r3, [r3, #0]
10002d88:	455b      	cmp	r3, fp
10002d8a:	d898      	bhi.n	10002cbe <xTaskIncrementTick+0x2e>
10002d8c:	4e53      	ldr	r6, [pc, #332]	; (10002edc <xTaskIncrementTick+0x24c>)
10002d8e:	4c50      	ldr	r4, [pc, #320]	; (10002ed0 <xTaskIncrementTick+0x240>)
10002d90:	6833      	ldr	r3, [r6, #0]
10002d92:	681b      	ldr	r3, [r3, #0]
10002d94:	2b00      	cmp	r3, #0
10002d96:	d100      	bne.n	10002d9a <xTaskIncrementTick+0x10a>
10002d98:	e082      	b.n	10002ea0 <xTaskIncrementTick+0x210>
10002d9a:	2300      	movs	r3, #0
10002d9c:	469a      	mov	sl, r3
10002d9e:	4b52      	ldr	r3, [pc, #328]	; (10002ee8 <xTaskIncrementTick+0x258>)
10002da0:	4698      	mov	r8, r3
10002da2:	e032      	b.n	10002e0a <xTaskIncrementTick+0x17a>
10002da4:	4652      	mov	r2, sl
10002da6:	6182      	str	r2, [r0, #24]
10002da8:	681a      	ldr	r2, [r3, #0]
10002daa:	3a01      	subs	r2, #1
10002dac:	601a      	str	r2, [r3, #0]
10002dae:	6ac3      	ldr	r3, [r0, #44]	; 0x2c
10002db0:	2b00      	cmp	r3, #0
10002db2:	d00e      	beq.n	10002dd2 <xTaskIncrementTick+0x142>
10002db4:	6a02      	ldr	r2, [r0, #32]
10002db6:	6a41      	ldr	r1, [r0, #36]	; 0x24
10002db8:	685d      	ldr	r5, [r3, #4]
10002dba:	6091      	str	r1, [r2, #8]
10002dbc:	6a41      	ldr	r1, [r0, #36]	; 0x24
10002dbe:	604a      	str	r2, [r1, #4]
10002dc0:	0002      	movs	r2, r0
10002dc2:	321c      	adds	r2, #28
10002dc4:	4295      	cmp	r5, r2
10002dc6:	d032      	beq.n	10002e2e <xTaskIncrementTick+0x19e>
10002dc8:	4652      	mov	r2, sl
10002dca:	62c2      	str	r2, [r0, #44]	; 0x2c
10002dcc:	681a      	ldr	r2, [r3, #0]
10002dce:	3a01      	subs	r2, #1
10002dd0:	601a      	str	r2, [r3, #0]
10002dd2:	4643      	mov	r3, r8
10002dd4:	6b02      	ldr	r2, [r0, #48]	; 0x30
10002dd6:	681b      	ldr	r3, [r3, #0]
10002dd8:	429a      	cmp	r2, r3
10002dda:	d901      	bls.n	10002de0 <xTaskIncrementTick+0x150>
10002ddc:	4643      	mov	r3, r8
10002dde:	601a      	str	r2, [r3, #0]
10002de0:	0093      	lsls	r3, r2, #2
10002de2:	189b      	adds	r3, r3, r2
10002de4:	009b      	lsls	r3, r3, #2
10002de6:	18e1      	adds	r1, r4, r3
10002de8:	684a      	ldr	r2, [r1, #4]
10002dea:	6895      	ldr	r5, [r2, #8]
10002dec:	60c2      	str	r2, [r0, #12]
10002dee:	6105      	str	r5, [r0, #16]
10002df0:	6895      	ldr	r5, [r2, #8]
10002df2:	606f      	str	r7, [r5, #4]
10002df4:	6097      	str	r7, [r2, #8]
10002df6:	58e2      	ldr	r2, [r4, r3]
10002df8:	6181      	str	r1, [r0, #24]
10002dfa:	3201      	adds	r2, #1
10002dfc:	50e2      	str	r2, [r4, r3]
10002dfe:	f7ff faad 	bl	1000235c <prvYieldForTask>
10002e02:	6833      	ldr	r3, [r6, #0]
10002e04:	681b      	ldr	r3, [r3, #0]
10002e06:	2b00      	cmp	r3, #0
10002e08:	d04a      	beq.n	10002ea0 <xTaskIncrementTick+0x210>
10002e0a:	6833      	ldr	r3, [r6, #0]
10002e0c:	68db      	ldr	r3, [r3, #12]
10002e0e:	68d8      	ldr	r0, [r3, #12]
10002e10:	6883      	ldr	r3, [r0, #8]
10002e12:	459b      	cmp	fp, r3
10002e14:	d349      	bcc.n	10002eaa <xTaskIncrementTick+0x21a>
10002e16:	0007      	movs	r7, r0
10002e18:	6983      	ldr	r3, [r0, #24]
10002e1a:	68c1      	ldr	r1, [r0, #12]
10002e1c:	6902      	ldr	r2, [r0, #16]
10002e1e:	3708      	adds	r7, #8
10002e20:	608a      	str	r2, [r1, #8]
10002e22:	6051      	str	r1, [r2, #4]
10002e24:	6859      	ldr	r1, [r3, #4]
10002e26:	42b9      	cmp	r1, r7
10002e28:	d1bc      	bne.n	10002da4 <xTaskIncrementTick+0x114>
10002e2a:	605a      	str	r2, [r3, #4]
10002e2c:	e7ba      	b.n	10002da4 <xTaskIncrementTick+0x114>
10002e2e:	6059      	str	r1, [r3, #4]
10002e30:	e7ca      	b.n	10002dc8 <xTaskIncrementTick+0x138>
10002e32:	686b      	ldr	r3, [r5, #4]
10002e34:	6b1a      	ldr	r2, [r3, #48]	; 0x30
10002e36:	0093      	lsls	r3, r2, #2
10002e38:	189b      	adds	r3, r3, r2
10002e3a:	009b      	lsls	r3, r3, #2
10002e3c:	58e3      	ldr	r3, [r4, r3]
10002e3e:	2b01      	cmp	r3, #1
10002e40:	d924      	bls.n	10002e8c <xTaskIncrementTick+0x1fc>
10002e42:	23d0      	movs	r3, #208	; 0xd0
10002e44:	061b      	lsls	r3, r3, #24
10002e46:	681e      	ldr	r6, [r3, #0]
10002e48:	4b28      	ldr	r3, [pc, #160]	; (10002eec <xTaskIncrementTick+0x25c>)
10002e4a:	0032      	movs	r2, r6
10002e4c:	681b      	ldr	r3, [r3, #0]
10002e4e:	2401      	movs	r4, #1
10002e50:	2b00      	cmp	r3, #0
10002e52:	d000      	beq.n	10002e56 <xTaskIncrementTick+0x1c6>
10002e54:	e74c      	b.n	10002cf0 <xTaskIncrementTick+0x60>
10002e56:	e75f      	b.n	10002d18 <xTaskIncrementTick+0x88>
10002e58:	681b      	ldr	r3, [r3, #0]
10002e5a:	4a1c      	ldr	r2, [pc, #112]	; (10002ecc <xTaskIncrementTick+0x23c>)
10002e5c:	68db      	ldr	r3, [r3, #12]
10002e5e:	4691      	mov	r9, r2
10002e60:	681b      	ldr	r3, [r3, #0]
10002e62:	6013      	str	r3, [r2, #0]
10002e64:	e727      	b.n	10002cb6 <xTaskIncrementTick+0x26>
10002e66:	23d0      	movs	r3, #208	; 0xd0
10002e68:	061b      	lsls	r3, r3, #24
10002e6a:	681a      	ldr	r2, [r3, #0]
10002e6c:	2400      	movs	r4, #0
10002e6e:	0016      	movs	r6, r2
10002e70:	e73e      	b.n	10002cf0 <xTaskIncrementTick+0x60>
10002e72:	2201      	movs	r2, #1
10002e74:	4b1d      	ldr	r3, [pc, #116]	; (10002eec <xTaskIncrementTick+0x25c>)
10002e76:	601a      	str	r2, [r3, #0]
10002e78:	2300      	movs	r3, #0
10002e7a:	2c00      	cmp	r4, #0
10002e7c:	d11b      	bne.n	10002eb6 <xTaskIncrementTick+0x226>
10002e7e:	001c      	movs	r4, r3
10002e80:	4b1a      	ldr	r3, [pc, #104]	; (10002eec <xTaskIncrementTick+0x25c>)
10002e82:	685b      	ldr	r3, [r3, #4]
10002e84:	2b00      	cmp	r3, #0
10002e86:	d100      	bne.n	10002e8a <xTaskIncrementTick+0x1fa>
10002e88:	e761      	b.n	10002d4e <xTaskIncrementTick+0xbe>
10002e8a:	e746      	b.n	10002d1a <xTaskIncrementTick+0x8a>
10002e8c:	23d0      	movs	r3, #208	; 0xd0
10002e8e:	061b      	lsls	r3, r3, #24
10002e90:	681a      	ldr	r2, [r3, #0]
10002e92:	4b16      	ldr	r3, [pc, #88]	; (10002eec <xTaskIncrementTick+0x25c>)
10002e94:	0016      	movs	r6, r2
10002e96:	681c      	ldr	r4, [r3, #0]
10002e98:	2c00      	cmp	r4, #0
10002e9a:	d0f2      	beq.n	10002e82 <xTaskIncrementTick+0x1f2>
10002e9c:	2400      	movs	r4, #0
10002e9e:	e727      	b.n	10002cf0 <xTaskIncrementTick+0x60>
10002ea0:	2301      	movs	r3, #1
10002ea2:	464a      	mov	r2, r9
10002ea4:	425b      	negs	r3, r3
10002ea6:	6013      	str	r3, [r2, #0]
10002ea8:	e70a      	b.n	10002cc0 <xTaskIncrementTick+0x30>
10002eaa:	464a      	mov	r2, r9
10002eac:	6013      	str	r3, [r2, #0]
10002eae:	e707      	b.n	10002cc0 <xTaskIncrementTick+0x30>
10002eb0:	4a0e      	ldr	r2, [pc, #56]	; (10002eec <xTaskIncrementTick+0x25c>)
10002eb2:	6053      	str	r3, [r2, #4]
10002eb4:	e74b      	b.n	10002d4e <xTaskIncrementTick+0xbe>
10002eb6:	001c      	movs	r4, r3
10002eb8:	e732      	b.n	10002d20 <xTaskIncrementTick+0x90>
10002eba:	2301      	movs	r3, #1
10002ebc:	e7dd      	b.n	10002e7a <xTaskIncrementTick+0x1ea>
10002ebe:	2401      	movs	r4, #1
10002ec0:	e745      	b.n	10002d4e <xTaskIncrementTick+0xbe>
10002ec2:	46c0      	nop			; (mov r8, r8)
10002ec4:	20020a48 	.word	0x20020a48
10002ec8:	20020b18 	.word	0x20020b18
10002ecc:	20020abc 	.word	0x20020abc
10002ed0:	20000790 	.word	0x20000790
10002ed4:	20000774 	.word	0x20000774
10002ed8:	20020acc 	.word	0x20020acc
10002edc:	20000780 	.word	0x20000780
10002ee0:	20000788 	.word	0x20000788
10002ee4:	20020ac0 	.word	0x20020ac0
10002ee8:	20020a50 	.word	0x20020a50
10002eec:	20020b24 	.word	0x20020b24

10002ef0 <vTaskSwitchContext>:
10002ef0:	b5f0      	push	{r4, r5, r6, r7, lr}
10002ef2:	23d0      	movs	r3, #208	; 0xd0
10002ef4:	4657      	mov	r7, sl
10002ef6:	464e      	mov	r6, r9
10002ef8:	46de      	mov	lr, fp
10002efa:	4645      	mov	r5, r8
10002efc:	061b      	lsls	r3, r3, #24
10002efe:	b5e0      	push	{r5, r6, r7, lr}
10002f00:	681a      	ldr	r2, [r3, #0]
10002f02:	4bb5      	ldr	r3, [pc, #724]	; (100031d8 <vTaskSwitchContext+0x2e8>)
10002f04:	4681      	mov	r9, r0
10002f06:	6819      	ldr	r1, [r3, #0]
10002f08:	4fb4      	ldr	r7, [pc, #720]	; (100031dc <vTaskSwitchContext+0x2ec>)
10002f0a:	b083      	sub	sp, #12
10002f0c:	2900      	cmp	r1, #0
10002f0e:	d100      	bne.n	10002f12 <vTaskSwitchContext+0x22>
10002f10:	e0d6      	b.n	100030c0 <vTaskSwitchContext+0x1d0>
10002f12:	f3bf 8f5f 	dmb	sy
10002f16:	4bb2      	ldr	r3, [pc, #712]	; (100031e0 <vTaskSwitchContext+0x2f0>)
10002f18:	4698      	mov	r8, r3
10002f1a:	2301      	movs	r3, #1
10002f1c:	4641      	mov	r1, r8
10002f1e:	704b      	strb	r3, [r1, #1]
10002f20:	2102      	movs	r1, #2
10002f22:	5cbb      	ldrb	r3, [r7, r2]
10002f24:	430b      	orrs	r3, r1
10002f26:	54bb      	strb	r3, [r7, r2]
10002f28:	23d0      	movs	r3, #208	; 0xd0
10002f2a:	061b      	lsls	r3, r3, #24
10002f2c:	681a      	ldr	r2, [r3, #0]
10002f2e:	4bad      	ldr	r3, [pc, #692]	; (100031e4 <vTaskSwitchContext+0x2f4>)
10002f30:	6819      	ldr	r1, [r3, #0]
10002f32:	2900      	cmp	r1, #0
10002f34:	d100      	bne.n	10002f38 <vTaskSwitchContext+0x48>
10002f36:	e0bb      	b.n	100030b0 <vTaskSwitchContext+0x1c0>
10002f38:	f3bf 8f5f 	dmb	sy
10002f3c:	2301      	movs	r3, #1
10002f3e:	4641      	mov	r1, r8
10002f40:	700b      	strb	r3, [r1, #0]
10002f42:	2101      	movs	r1, #1
10002f44:	5cbb      	ldrb	r3, [r7, r2]
10002f46:	430b      	orrs	r3, r1
10002f48:	54bb      	strb	r3, [r7, r2]
10002f4a:	4ba7      	ldr	r3, [pc, #668]	; (100031e8 <vTaskSwitchContext+0x2f8>)
10002f4c:	681b      	ldr	r3, [r3, #0]
10002f4e:	2b00      	cmp	r3, #0
10002f50:	d032      	beq.n	10002fb8 <vTaskSwitchContext+0xc8>
10002f52:	464b      	mov	r3, r9
10002f54:	2201      	movs	r2, #1
10002f56:	0098      	lsls	r0, r3, #2
10002f58:	4ba4      	ldr	r3, [pc, #656]	; (100031ec <vTaskSwitchContext+0x2fc>)
10002f5a:	50c2      	str	r2, [r0, r3]
10002f5c:	23d0      	movs	r3, #208	; 0xd0
10002f5e:	061b      	lsls	r3, r3, #24
10002f60:	681a      	ldr	r2, [r3, #0]
10002f62:	4643      	mov	r3, r8
10002f64:	4641      	mov	r1, r8
10002f66:	781b      	ldrb	r3, [r3, #0]
10002f68:	3b01      	subs	r3, #1
10002f6a:	b2db      	uxtb	r3, r3
10002f6c:	700b      	strb	r3, [r1, #0]
10002f6e:	2b00      	cmp	r3, #0
10002f70:	d107      	bne.n	10002f82 <vTaskSwitchContext+0x92>
10002f72:	2101      	movs	r1, #1
10002f74:	5cbb      	ldrb	r3, [r7, r2]
10002f76:	438b      	bics	r3, r1
10002f78:	54bb      	strb	r3, [r7, r2]
10002f7a:	f3bf 8f5f 	dmb	sy
10002f7e:	4b99      	ldr	r3, [pc, #612]	; (100031e4 <vTaskSwitchContext+0x2f4>)
10002f80:	6019      	str	r1, [r3, #0]
10002f82:	23d0      	movs	r3, #208	; 0xd0
10002f84:	061b      	lsls	r3, r3, #24
10002f86:	681a      	ldr	r2, [r3, #0]
10002f88:	4643      	mov	r3, r8
10002f8a:	4641      	mov	r1, r8
10002f8c:	785b      	ldrb	r3, [r3, #1]
10002f8e:	3b01      	subs	r3, #1
10002f90:	b2db      	uxtb	r3, r3
10002f92:	704b      	strb	r3, [r1, #1]
10002f94:	2b00      	cmp	r3, #0
10002f96:	d108      	bne.n	10002faa <vTaskSwitchContext+0xba>
10002f98:	2102      	movs	r1, #2
10002f9a:	5cbb      	ldrb	r3, [r7, r2]
10002f9c:	438b      	bics	r3, r1
10002f9e:	54bb      	strb	r3, [r7, r2]
10002fa0:	f3bf 8f5f 	dmb	sy
10002fa4:	2201      	movs	r2, #1
10002fa6:	4b8c      	ldr	r3, [pc, #560]	; (100031d8 <vTaskSwitchContext+0x2e8>)
10002fa8:	601a      	str	r2, [r3, #0]
10002faa:	b003      	add	sp, #12
10002fac:	bcf0      	pop	{r4, r5, r6, r7}
10002fae:	46bb      	mov	fp, r7
10002fb0:	46b2      	mov	sl, r6
10002fb2:	46a9      	mov	r9, r5
10002fb4:	46a0      	mov	r8, r4
10002fb6:	bdf0      	pop	{r4, r5, r6, r7, pc}
10002fb8:	464a      	mov	r2, r9
10002fba:	0095      	lsls	r5, r2, #2
10002fbc:	4a8b      	ldr	r2, [pc, #556]	; (100031ec <vTaskSwitchContext+0x2fc>)
10002fbe:	4c8c      	ldr	r4, [pc, #560]	; (100031f0 <vTaskSwitchContext+0x300>)
10002fc0:	5153      	str	r3, [r2, r5]
10002fc2:	4b8c      	ldr	r3, [pc, #560]	; (100031f4 <vTaskSwitchContext+0x304>)
10002fc4:	681e      	ldr	r6, [r3, #0]
10002fc6:	469a      	mov	sl, r3
10002fc8:	5962      	ldr	r2, [r4, r5]
10002fca:	5963      	ldr	r3, [r4, r5]
10002fcc:	6992      	ldr	r2, [r2, #24]
10002fce:	6b19      	ldr	r1, [r3, #48]	; 0x30
10002fd0:	008b      	lsls	r3, r1, #2
10002fd2:	185b      	adds	r3, r3, r1
10002fd4:	4988      	ldr	r1, [pc, #544]	; (100031f8 <vTaskSwitchContext+0x308>)
10002fd6:	009b      	lsls	r3, r3, #2
10002fd8:	468c      	mov	ip, r1
10002fda:	4463      	add	r3, ip
10002fdc:	429a      	cmp	r2, r3
10002fde:	d077      	beq.n	100030d0 <vTaskSwitchContext+0x1e0>
10002fe0:	464a      	mov	r2, r9
10002fe2:	2301      	movs	r3, #1
10002fe4:	4093      	lsls	r3, r2
10002fe6:	0018      	movs	r0, r3
10002fe8:	4b83      	ldr	r3, [pc, #524]	; (100031f8 <vTaskSwitchContext+0x308>)
10002fea:	00b1      	lsls	r1, r6, #2
10002fec:	469c      	mov	ip, r3
10002fee:	469b      	mov	fp, r3
10002ff0:	0003      	movs	r3, r0
10002ff2:	4648      	mov	r0, r9
10002ff4:	9000      	str	r0, [sp, #0]
10002ff6:	0038      	movs	r0, r7
10002ff8:	1989      	adds	r1, r1, r6
10002ffa:	0089      	lsls	r1, r1, #2
10002ffc:	448b      	add	fp, r1
10002ffe:	3108      	adds	r1, #8
10003000:	465f      	mov	r7, fp
10003002:	4461      	add	r1, ip
10003004:	2201      	movs	r2, #1
10003006:	46b4      	mov	ip, r6
10003008:	4683      	mov	fp, r0
1000300a:	001e      	movs	r6, r3
1000300c:	e00f      	b.n	1000302e <vTaskSwitchContext+0x13e>
1000300e:	2a00      	cmp	r2, #0
10003010:	d004      	beq.n	1000301c <vTaskSwitchContext+0x12c>
10003012:	4653      	mov	r3, sl
10003014:	4650      	mov	r0, sl
10003016:	681b      	ldr	r3, [r3, #0]
10003018:	3b01      	subs	r3, #1
1000301a:	6003      	str	r3, [r0, #0]
1000301c:	4663      	mov	r3, ip
1000301e:	2b00      	cmp	r3, #0
10003020:	d044      	beq.n	100030ac <vTaskSwitchContext+0x1bc>
10003022:	2301      	movs	r3, #1
10003024:	425b      	negs	r3, r3
10003026:	4699      	mov	r9, r3
10003028:	3f14      	subs	r7, #20
1000302a:	44cc      	add	ip, r9
1000302c:	3914      	subs	r1, #20
1000302e:	683b      	ldr	r3, [r7, #0]
10003030:	2b00      	cmp	r3, #0
10003032:	d0ec      	beq.n	1000300e <vTaskSwitchContext+0x11e>
10003034:	684b      	ldr	r3, [r1, #4]
10003036:	4299      	cmp	r1, r3
10003038:	d033      	beq.n	100030a2 <vTaskSwitchContext+0x1b2>
1000303a:	9a00      	ldr	r2, [sp, #0]
1000303c:	9701      	str	r7, [sp, #4]
1000303e:	4691      	mov	r9, r2
10003040:	e005      	b.n	1000304e <vTaskSwitchContext+0x15e>
10003042:	5960      	ldr	r0, [r4, r5]
10003044:	4282      	cmp	r2, r0
10003046:	d022      	beq.n	1000308e <vTaskSwitchContext+0x19e>
10003048:	685b      	ldr	r3, [r3, #4]
1000304a:	428b      	cmp	r3, r1
1000304c:	d026      	beq.n	1000309c <vTaskSwitchContext+0x1ac>
1000304e:	68da      	ldr	r2, [r3, #12]
10003050:	6b90      	ldr	r0, [r2, #56]	; 0x38
10003052:	1c47      	adds	r7, r0, #1
10003054:	d1f5      	bne.n	10003042 <vTaskSwitchContext+0x152>
10003056:	6857      	ldr	r7, [r2, #4]
10003058:	4237      	tst	r7, r6
1000305a:	d0f5      	beq.n	10003048 <vTaskSwitchContext+0x158>
1000305c:	5963      	ldr	r3, [r4, r5]
1000305e:	465f      	mov	r7, fp
10003060:	6398      	str	r0, [r3, #56]	; 0x38
10003062:	464b      	mov	r3, r9
10003064:	5961      	ldr	r1, [r4, r5]
10003066:	6393      	str	r3, [r2, #56]	; 0x38
10003068:	5162      	str	r2, [r4, r5]
1000306a:	2900      	cmp	r1, #0
1000306c:	d009      	beq.n	10003082 <vTaskSwitchContext+0x192>
1000306e:	4e62      	ldr	r6, [pc, #392]	; (100031f8 <vTaskSwitchContext+0x308>)
10003070:	6b0a      	ldr	r2, [r1, #48]	; 0x30
10003072:	46b4      	mov	ip, r6
10003074:	0093      	lsls	r3, r2, #2
10003076:	189b      	adds	r3, r3, r2
10003078:	009b      	lsls	r3, r3, #2
1000307a:	698e      	ldr	r6, [r1, #24]
1000307c:	4463      	add	r3, ip
1000307e:	429e      	cmp	r6, r3
10003080:	d044      	beq.n	1000310c <vTaskSwitchContext+0x21c>
10003082:	23d0      	movs	r3, #208	; 0xd0
10003084:	061b      	lsls	r3, r3, #24
10003086:	681a      	ldr	r2, [r3, #0]
10003088:	0093      	lsls	r3, r2, #2
1000308a:	58e3      	ldr	r3, [r4, r3]
1000308c:	e769      	b.n	10002f62 <vTaskSwitchContext+0x72>
1000308e:	6850      	ldr	r0, [r2, #4]
10003090:	4230      	tst	r0, r6
10003092:	d0d9      	beq.n	10003048 <vTaskSwitchContext+0x158>
10003094:	464b      	mov	r3, r9
10003096:	465f      	mov	r7, fp
10003098:	6393      	str	r3, [r2, #56]	; 0x38
1000309a:	e7f2      	b.n	10003082 <vTaskSwitchContext+0x192>
1000309c:	464b      	mov	r3, r9
1000309e:	9f01      	ldr	r7, [sp, #4]
100030a0:	9300      	str	r3, [sp, #0]
100030a2:	4663      	mov	r3, ip
100030a4:	2b00      	cmp	r3, #0
100030a6:	d001      	beq.n	100030ac <vTaskSwitchContext+0x1bc>
100030a8:	2200      	movs	r2, #0
100030aa:	e7ba      	b.n	10003022 <vTaskSwitchContext+0x132>
100030ac:	465f      	mov	r7, fp
100030ae:	e7e8      	b.n	10003082 <vTaskSwitchContext+0x192>
100030b0:	5cb9      	ldrb	r1, [r7, r2]
100030b2:	07c9      	lsls	r1, r1, #31
100030b4:	d41d      	bmi.n	100030f2 <vTaskSwitchContext+0x202>
100030b6:	6819      	ldr	r1, [r3, #0]
100030b8:	2900      	cmp	r1, #0
100030ba:	d000      	beq.n	100030be <vTaskSwitchContext+0x1ce>
100030bc:	e73c      	b.n	10002f38 <vTaskSwitchContext+0x48>
100030be:	e7fa      	b.n	100030b6 <vTaskSwitchContext+0x1c6>
100030c0:	5cb9      	ldrb	r1, [r7, r2]
100030c2:	0789      	lsls	r1, r1, #30
100030c4:	d41b      	bmi.n	100030fe <vTaskSwitchContext+0x20e>
100030c6:	6819      	ldr	r1, [r3, #0]
100030c8:	2900      	cmp	r1, #0
100030ca:	d000      	beq.n	100030ce <vTaskSwitchContext+0x1de>
100030cc:	e721      	b.n	10002f12 <vTaskSwitchContext+0x22>
100030ce:	e7fa      	b.n	100030c6 <vTaskSwitchContext+0x1d6>
100030d0:	5960      	ldr	r0, [r4, r5]
100030d2:	3008      	adds	r0, #8
100030d4:	f7fe fba8 	bl	10001828 <uxListRemove>
100030d8:	5963      	ldr	r3, [r4, r5]
100030da:	5961      	ldr	r1, [r4, r5]
100030dc:	6b1b      	ldr	r3, [r3, #48]	; 0x30
100030de:	3108      	adds	r1, #8
100030e0:	0098      	lsls	r0, r3, #2
100030e2:	18c0      	adds	r0, r0, r3
100030e4:	4b44      	ldr	r3, [pc, #272]	; (100031f8 <vTaskSwitchContext+0x308>)
100030e6:	0080      	lsls	r0, r0, #2
100030e8:	469c      	mov	ip, r3
100030ea:	4460      	add	r0, ip
100030ec:	f7fe fb78 	bl	100017e0 <vListInsertEnd>
100030f0:	e776      	b.n	10002fe0 <vTaskSwitchContext+0xf0>
100030f2:	4643      	mov	r3, r8
100030f4:	4642      	mov	r2, r8
100030f6:	781b      	ldrb	r3, [r3, #0]
100030f8:	3301      	adds	r3, #1
100030fa:	7013      	strb	r3, [r2, #0]
100030fc:	e725      	b.n	10002f4a <vTaskSwitchContext+0x5a>
100030fe:	4b38      	ldr	r3, [pc, #224]	; (100031e0 <vTaskSwitchContext+0x2f0>)
10003100:	4698      	mov	r8, r3
10003102:	4642      	mov	r2, r8
10003104:	785b      	ldrb	r3, [r3, #1]
10003106:	3301      	adds	r3, #1
10003108:	7053      	strb	r3, [r2, #1]
1000310a:	e70d      	b.n	10002f28 <vTaskSwitchContext+0x38>
1000310c:	2301      	movs	r3, #1
1000310e:	469c      	mov	ip, r3
10003110:	684e      	ldr	r6, [r1, #4]
10003112:	6bcb      	ldr	r3, [r1, #60]	; 0x3c
10003114:	4661      	mov	r1, ip
10003116:	400b      	ands	r3, r1
10003118:	1ad2      	subs	r2, r2, r3
1000311a:	4649      	mov	r1, r9
1000311c:	0033      	movs	r3, r6
1000311e:	40cb      	lsrs	r3, r1
10003120:	4661      	mov	r1, ip
10003122:	4219      	tst	r1, r3
10003124:	d002      	beq.n	1000312c <vTaskSwitchContext+0x23c>
10003126:	5963      	ldr	r3, [r4, r5]
10003128:	685b      	ldr	r3, [r3, #4]
1000312a:	439e      	bics	r6, r3
1000312c:	2303      	movs	r3, #3
1000312e:	4033      	ands	r3, r6
10003130:	0859      	lsrs	r1, r3, #1
10003132:	d011      	beq.n	10003158 <vTaskSwitchContext+0x268>
10003134:	6863      	ldr	r3, [r4, #4]
10003136:	6861      	ldr	r1, [r4, #4]
10003138:	6b1d      	ldr	r5, [r3, #48]	; 0x30
1000313a:	2301      	movs	r3, #1
1000313c:	6bc9      	ldr	r1, [r1, #60]	; 0x3c
1000313e:	4019      	ands	r1, r3
10003140:	1a6d      	subs	r5, r5, r1
10003142:	4033      	ands	r3, r6
10003144:	4295      	cmp	r5, r2
10003146:	da07      	bge.n	10003158 <vTaskSwitchContext+0x268>
10003148:	6861      	ldr	r1, [r4, #4]
1000314a:	6b89      	ldr	r1, [r1, #56]	; 0x38
1000314c:	2900      	cmp	r1, #0
1000314e:	db03      	blt.n	10003158 <vTaskSwitchContext+0x268>
10003150:	6861      	ldr	r1, [r4, #4]
10003152:	6b89      	ldr	r1, [r1, #56]	; 0x38
10003154:	2901      	cmp	r1, #1
10003156:	dd2e      	ble.n	100031b6 <vTaskSwitchContext+0x2c6>
10003158:	07db      	lsls	r3, r3, #31
1000315a:	d592      	bpl.n	10003082 <vTaskSwitchContext+0x192>
1000315c:	2501      	movs	r5, #1
1000315e:	6823      	ldr	r3, [r4, #0]
10003160:	6821      	ldr	r1, [r4, #0]
10003162:	6b1b      	ldr	r3, [r3, #48]	; 0x30
10003164:	6bc9      	ldr	r1, [r1, #60]	; 0x3c
10003166:	4029      	ands	r1, r5
10003168:	1a5b      	subs	r3, r3, r1
1000316a:	429a      	cmp	r2, r3
1000316c:	dd07      	ble.n	1000317e <vTaskSwitchContext+0x28e>
1000316e:	6823      	ldr	r3, [r4, #0]
10003170:	6b9b      	ldr	r3, [r3, #56]	; 0x38
10003172:	2b00      	cmp	r3, #0
10003174:	db03      	blt.n	1000317e <vTaskSwitchContext+0x28e>
10003176:	6823      	ldr	r3, [r4, #0]
10003178:	6b9b      	ldr	r3, [r3, #56]	; 0x38
1000317a:	2b01      	cmp	r3, #1
1000317c:	dd23      	ble.n	100031c6 <vTaskSwitchContext+0x2d6>
1000317e:	1c43      	adds	r3, r0, #1
10003180:	d100      	bne.n	10003184 <vTaskSwitchContext+0x294>
10003182:	e77e      	b.n	10003082 <vTaskSwitchContext+0x192>
10003184:	25d0      	movs	r5, #208	; 0xd0
10003186:	062d      	lsls	r5, r5, #24
10003188:	682a      	ldr	r2, [r5, #0]
1000318a:	4282      	cmp	r2, r0
1000318c:	d00d      	beq.n	100031aa <vTaskSwitchContext+0x2ba>
1000318e:	0086      	lsls	r6, r0, #2
10003190:	59a3      	ldr	r3, [r4, r6]
10003192:	6b9b      	ldr	r3, [r3, #56]	; 0x38
10003194:	3302      	adds	r3, #2
10003196:	d100      	bne.n	1000319a <vTaskSwitchContext+0x2aa>
10003198:	e776      	b.n	10003088 <vTaskSwitchContext+0x198>
1000319a:	f7fe f8af 	bl	100012fc <vYieldCore>
1000319e:	2202      	movs	r2, #2
100031a0:	59a3      	ldr	r3, [r4, r6]
100031a2:	4252      	negs	r2, r2
100031a4:	639a      	str	r2, [r3, #56]	; 0x38
100031a6:	682a      	ldr	r2, [r5, #0]
100031a8:	e76e      	b.n	10003088 <vTaskSwitchContext+0x198>
100031aa:	2301      	movs	r3, #1
100031ac:	4a0f      	ldr	r2, [pc, #60]	; (100031ec <vTaskSwitchContext+0x2fc>)
100031ae:	0080      	lsls	r0, r0, #2
100031b0:	5013      	str	r3, [r2, r0]
100031b2:	682a      	ldr	r2, [r5, #0]
100031b4:	e768      	b.n	10003088 <vTaskSwitchContext+0x198>
100031b6:	490d      	ldr	r1, [pc, #52]	; (100031ec <vTaskSwitchContext+0x2fc>)
100031b8:	6849      	ldr	r1, [r1, #4]
100031ba:	2900      	cmp	r1, #0
100031bc:	d1cc      	bne.n	10003158 <vTaskSwitchContext+0x268>
100031be:	2b00      	cmp	r3, #0
100031c0:	d107      	bne.n	100031d2 <vTaskSwitchContext+0x2e2>
100031c2:	2001      	movs	r0, #1
100031c4:	e7de      	b.n	10003184 <vTaskSwitchContext+0x294>
100031c6:	4b09      	ldr	r3, [pc, #36]	; (100031ec <vTaskSwitchContext+0x2fc>)
100031c8:	681b      	ldr	r3, [r3, #0]
100031ca:	2b00      	cmp	r3, #0
100031cc:	d1d7      	bne.n	1000317e <vTaskSwitchContext+0x28e>
100031ce:	2000      	movs	r0, #0
100031d0:	e7d8      	b.n	10003184 <vTaskSwitchContext+0x294>
100031d2:	002a      	movs	r2, r5
100031d4:	2001      	movs	r0, #1
100031d6:	e7c1      	b.n	1000315c <vTaskSwitchContext+0x26c>
100031d8:	d000013c 	.word	0xd000013c
100031dc:	20020a28 	.word	0x20020a28
100031e0:	20020a2c 	.word	0x20020a2c
100031e4:	d0000138 	.word	0xd0000138
100031e8:	20020a48 	.word	0x20020a48
100031ec:	20020b24 	.word	0x20020b24
100031f0:	20000774 	.word	0x20000774
100031f4:	20020a50 	.word	0x20020a50
100031f8:	20000790 	.word	0x20000790

100031fc <vTaskPlaceOnEventList>:
100031fc:	b5f8      	push	{r3, r4, r5, r6, r7, lr}
100031fe:	46ce      	mov	lr, r9
10003200:	4647      	mov	r7, r8
10003202:	000c      	movs	r4, r1
10003204:	b580      	push	{r7, lr}
10003206:	f3ef 8210 	mrs	r2, PRIMASK
1000320a:	b672      	cpsid	i
1000320c:	26d0      	movs	r6, #208	; 0xd0
1000320e:	0636      	lsls	r6, r6, #24
10003210:	6833      	ldr	r3, [r6, #0]
10003212:	4d46      	ldr	r5, [pc, #280]	; (1000332c <vTaskPlaceOnEventList+0x130>)
10003214:	009b      	lsls	r3, r3, #2
10003216:	5959      	ldr	r1, [r3, r5]
10003218:	f382 8810 	msr	PRIMASK, r2
1000321c:	311c      	adds	r1, #28
1000321e:	f7fe faeb 	bl	100017f8 <vListInsert>
10003222:	4b43      	ldr	r3, [pc, #268]	; (10003330 <vTaskPlaceOnEventList+0x134>)
10003224:	681f      	ldr	r7, [r3, #0]
10003226:	4b43      	ldr	r3, [pc, #268]	; (10003334 <vTaskPlaceOnEventList+0x138>)
10003228:	681b      	ldr	r3, [r3, #0]
1000322a:	4698      	mov	r8, r3
1000322c:	4b42      	ldr	r3, [pc, #264]	; (10003338 <vTaskPlaceOnEventList+0x13c>)
1000322e:	681b      	ldr	r3, [r3, #0]
10003230:	4699      	mov	r9, r3
10003232:	f3ef 8110 	mrs	r1, PRIMASK
10003236:	b672      	cpsid	i
10003238:	6833      	ldr	r3, [r6, #0]
1000323a:	009b      	lsls	r3, r3, #2
1000323c:	595a      	ldr	r2, [r3, r5]
1000323e:	f381 8810 	msr	PRIMASK, r1
10003242:	2379      	movs	r3, #121	; 0x79
10003244:	2100      	movs	r1, #0
10003246:	54d1      	strb	r1, [r2, r3]
10003248:	f3ef 8210 	mrs	r2, PRIMASK
1000324c:	b672      	cpsid	i
1000324e:	6833      	ldr	r3, [r6, #0]
10003250:	009b      	lsls	r3, r3, #2
10003252:	5958      	ldr	r0, [r3, r5]
10003254:	f382 8810 	msr	PRIMASK, r2
10003258:	3008      	adds	r0, #8
1000325a:	f7fe fae5 	bl	10001828 <uxListRemove>
1000325e:	1c63      	adds	r3, r4, #1
10003260:	d02d      	beq.n	100032be <vTaskPlaceOnEventList+0xc2>
10003262:	19e4      	adds	r4, r4, r7
10003264:	f3ef 8210 	mrs	r2, PRIMASK
10003268:	b672      	cpsid	i
1000326a:	6833      	ldr	r3, [r6, #0]
1000326c:	009b      	lsls	r3, r3, #2
1000326e:	595b      	ldr	r3, [r3, r5]
10003270:	f382 8810 	msr	PRIMASK, r2
10003274:	609c      	str	r4, [r3, #8]
10003276:	42a7      	cmp	r7, r4
10003278:	d90f      	bls.n	1000329a <vTaskPlaceOnEventList+0x9e>
1000327a:	f3ef 8210 	mrs	r2, PRIMASK
1000327e:	b672      	cpsid	i
10003280:	6833      	ldr	r3, [r6, #0]
10003282:	009b      	lsls	r3, r3, #2
10003284:	5959      	ldr	r1, [r3, r5]
10003286:	f382 8810 	msr	PRIMASK, r2
1000328a:	4648      	mov	r0, r9
1000328c:	3108      	adds	r1, #8
1000328e:	f7fe fab3 	bl	100017f8 <vListInsert>
10003292:	bcc0      	pop	{r6, r7}
10003294:	46b9      	mov	r9, r7
10003296:	46b0      	mov	r8, r6
10003298:	bdf8      	pop	{r3, r4, r5, r6, r7, pc}
1000329a:	f3ef 8210 	mrs	r2, PRIMASK
1000329e:	b672      	cpsid	i
100032a0:	6833      	ldr	r3, [r6, #0]
100032a2:	009b      	lsls	r3, r3, #2
100032a4:	5959      	ldr	r1, [r3, r5]
100032a6:	f382 8810 	msr	PRIMASK, r2
100032aa:	4640      	mov	r0, r8
100032ac:	3108      	adds	r1, #8
100032ae:	f7fe faa3 	bl	100017f8 <vListInsert>
100032b2:	4b22      	ldr	r3, [pc, #136]	; (1000333c <vTaskPlaceOnEventList+0x140>)
100032b4:	681a      	ldr	r2, [r3, #0]
100032b6:	4294      	cmp	r4, r2
100032b8:	d2eb      	bcs.n	10003292 <vTaskPlaceOnEventList+0x96>
100032ba:	601c      	str	r4, [r3, #0]
100032bc:	e7e9      	b.n	10003292 <vTaskPlaceOnEventList+0x96>
100032be:	4b20      	ldr	r3, [pc, #128]	; (10003340 <vTaskPlaceOnEventList+0x144>)
100032c0:	685a      	ldr	r2, [r3, #4]
100032c2:	f3ef 8010 	mrs	r0, PRIMASK
100032c6:	b672      	cpsid	i
100032c8:	6831      	ldr	r1, [r6, #0]
100032ca:	0089      	lsls	r1, r1, #2
100032cc:	5949      	ldr	r1, [r1, r5]
100032ce:	f380 8810 	msr	PRIMASK, r0
100032d2:	60ca      	str	r2, [r1, #12]
100032d4:	f3ef 8010 	mrs	r0, PRIMASK
100032d8:	b672      	cpsid	i
100032da:	6831      	ldr	r1, [r6, #0]
100032dc:	0089      	lsls	r1, r1, #2
100032de:	5949      	ldr	r1, [r1, r5]
100032e0:	f380 8810 	msr	PRIMASK, r0
100032e4:	6890      	ldr	r0, [r2, #8]
100032e6:	6108      	str	r0, [r1, #16]
100032e8:	f3ef 8010 	mrs	r0, PRIMASK
100032ec:	b672      	cpsid	i
100032ee:	6831      	ldr	r1, [r6, #0]
100032f0:	0089      	lsls	r1, r1, #2
100032f2:	5949      	ldr	r1, [r1, r5]
100032f4:	f380 8810 	msr	PRIMASK, r0
100032f8:	6890      	ldr	r0, [r2, #8]
100032fa:	3108      	adds	r1, #8
100032fc:	6041      	str	r1, [r0, #4]
100032fe:	f3ef 8010 	mrs	r0, PRIMASK
10003302:	b672      	cpsid	i
10003304:	6831      	ldr	r1, [r6, #0]
10003306:	0089      	lsls	r1, r1, #2
10003308:	5949      	ldr	r1, [r1, r5]
1000330a:	f380 8810 	msr	PRIMASK, r0
1000330e:	3108      	adds	r1, #8
10003310:	6091      	str	r1, [r2, #8]
10003312:	f3ef 8110 	mrs	r1, PRIMASK
10003316:	b672      	cpsid	i
10003318:	6832      	ldr	r2, [r6, #0]
1000331a:	0092      	lsls	r2, r2, #2
1000331c:	5952      	ldr	r2, [r2, r5]
1000331e:	f381 8810 	msr	PRIMASK, r1
10003322:	6193      	str	r3, [r2, #24]
10003324:	681a      	ldr	r2, [r3, #0]
10003326:	3201      	adds	r2, #1
10003328:	601a      	str	r2, [r3, #0]
1000332a:	e7b2      	b.n	10003292 <vTaskPlaceOnEventList+0x96>
1000332c:	20000774 	.word	0x20000774
10003330:	20020b18 	.word	0x20020b18
10003334:	20000780 	.word	0x20000780
10003338:	20000788 	.word	0x20000788
1000333c:	20020abc 	.word	0x20020abc
10003340:	20020af0 	.word	0x20020af0

10003344 <vTaskPlaceOnUnorderedEventList>:
10003344:	b570      	push	{r4, r5, r6, lr}
10003346:	0003      	movs	r3, r0
10003348:	000e      	movs	r6, r1
1000334a:	0010      	movs	r0, r2
1000334c:	f3ef 8110 	mrs	r1, PRIMASK
10003350:	b672      	cpsid	i
10003352:	25d0      	movs	r5, #208	; 0xd0
10003354:	062d      	lsls	r5, r5, #24
10003356:	682a      	ldr	r2, [r5, #0]
10003358:	4c20      	ldr	r4, [pc, #128]	; (100033dc <vTaskPlaceOnUnorderedEventList+0x98>)
1000335a:	0092      	lsls	r2, r2, #2
1000335c:	5912      	ldr	r2, [r2, r4]
1000335e:	f381 8810 	msr	PRIMASK, r1
10003362:	2180      	movs	r1, #128	; 0x80
10003364:	0609      	lsls	r1, r1, #24
10003366:	4331      	orrs	r1, r6
10003368:	61d1      	str	r1, [r2, #28]
1000336a:	6859      	ldr	r1, [r3, #4]
1000336c:	f3ef 8610 	mrs	r6, PRIMASK
10003370:	b672      	cpsid	i
10003372:	682a      	ldr	r2, [r5, #0]
10003374:	0092      	lsls	r2, r2, #2
10003376:	5912      	ldr	r2, [r2, r4]
10003378:	f386 8810 	msr	PRIMASK, r6
1000337c:	6211      	str	r1, [r2, #32]
1000337e:	f3ef 8610 	mrs	r6, PRIMASK
10003382:	b672      	cpsid	i
10003384:	682a      	ldr	r2, [r5, #0]
10003386:	0092      	lsls	r2, r2, #2
10003388:	5912      	ldr	r2, [r2, r4]
1000338a:	f386 8810 	msr	PRIMASK, r6
1000338e:	688e      	ldr	r6, [r1, #8]
10003390:	6256      	str	r6, [r2, #36]	; 0x24
10003392:	f3ef 8610 	mrs	r6, PRIMASK
10003396:	b672      	cpsid	i
10003398:	682a      	ldr	r2, [r5, #0]
1000339a:	0092      	lsls	r2, r2, #2
1000339c:	5912      	ldr	r2, [r2, r4]
1000339e:	f386 8810 	msr	PRIMASK, r6
100033a2:	688e      	ldr	r6, [r1, #8]
100033a4:	321c      	adds	r2, #28
100033a6:	6072      	str	r2, [r6, #4]
100033a8:	f3ef 8610 	mrs	r6, PRIMASK
100033ac:	b672      	cpsid	i
100033ae:	682a      	ldr	r2, [r5, #0]
100033b0:	0092      	lsls	r2, r2, #2
100033b2:	5912      	ldr	r2, [r2, r4]
100033b4:	f386 8810 	msr	PRIMASK, r6
100033b8:	321c      	adds	r2, #28
100033ba:	608a      	str	r2, [r1, #8]
100033bc:	f3ef 8110 	mrs	r1, PRIMASK
100033c0:	b672      	cpsid	i
100033c2:	682a      	ldr	r2, [r5, #0]
100033c4:	0092      	lsls	r2, r2, #2
100033c6:	5912      	ldr	r2, [r2, r4]
100033c8:	f381 8810 	msr	PRIMASK, r1
100033cc:	62d3      	str	r3, [r2, #44]	; 0x2c
100033ce:	681a      	ldr	r2, [r3, #0]
100033d0:	2101      	movs	r1, #1
100033d2:	3201      	adds	r2, #1
100033d4:	601a      	str	r2, [r3, #0]
100033d6:	f7ff f821 	bl	1000241c <prvAddCurrentTaskToDelayedList>
100033da:	bd70      	pop	{r4, r5, r6, pc}
100033dc:	20000774 	.word	0x20000774

100033e0 <vTaskPlaceOnEventListRestricted>:
100033e0:	b5f8      	push	{r3, r4, r5, r6, r7, lr}
100033e2:	0003      	movs	r3, r0
100033e4:	0008      	movs	r0, r1
100033e6:	0011      	movs	r1, r2
100033e8:	685a      	ldr	r2, [r3, #4]
100033ea:	f3ef 8c10 	mrs	ip, PRIMASK
100033ee:	b672      	cpsid	i
100033f0:	25d0      	movs	r5, #208	; 0xd0
100033f2:	062d      	lsls	r5, r5, #24
100033f4:	682e      	ldr	r6, [r5, #0]
100033f6:	4c1c      	ldr	r4, [pc, #112]	; (10003468 <vTaskPlaceOnEventListRestricted+0x88>)
100033f8:	00b6      	lsls	r6, r6, #2
100033fa:	5936      	ldr	r6, [r6, r4]
100033fc:	f38c 8810 	msr	PRIMASK, ip
10003400:	6232      	str	r2, [r6, #32]
10003402:	f3ef 8c10 	mrs	ip, PRIMASK
10003406:	b672      	cpsid	i
10003408:	682e      	ldr	r6, [r5, #0]
1000340a:	00b6      	lsls	r6, r6, #2
1000340c:	5936      	ldr	r6, [r6, r4]
1000340e:	f38c 8810 	msr	PRIMASK, ip
10003412:	6897      	ldr	r7, [r2, #8]
10003414:	6277      	str	r7, [r6, #36]	; 0x24
10003416:	f3ef 8c10 	mrs	ip, PRIMASK
1000341a:	b672      	cpsid	i
1000341c:	682e      	ldr	r6, [r5, #0]
1000341e:	00b6      	lsls	r6, r6, #2
10003420:	5936      	ldr	r6, [r6, r4]
10003422:	f38c 8810 	msr	PRIMASK, ip
10003426:	6897      	ldr	r7, [r2, #8]
10003428:	361c      	adds	r6, #28
1000342a:	607e      	str	r6, [r7, #4]
1000342c:	f3ef 8c10 	mrs	ip, PRIMASK
10003430:	b672      	cpsid	i
10003432:	682e      	ldr	r6, [r5, #0]
10003434:	00b6      	lsls	r6, r6, #2
10003436:	5936      	ldr	r6, [r6, r4]
10003438:	f38c 8810 	msr	PRIMASK, ip
1000343c:	361c      	adds	r6, #28
1000343e:	6096      	str	r6, [r2, #8]
10003440:	f3ef 8610 	mrs	r6, PRIMASK
10003444:	b672      	cpsid	i
10003446:	682a      	ldr	r2, [r5, #0]
10003448:	0092      	lsls	r2, r2, #2
1000344a:	5912      	ldr	r2, [r2, r4]
1000344c:	f386 8810 	msr	PRIMASK, r6
10003450:	62d3      	str	r3, [r2, #44]	; 0x2c
10003452:	681a      	ldr	r2, [r3, #0]
10003454:	3201      	adds	r2, #1
10003456:	601a      	str	r2, [r3, #0]
10003458:	2900      	cmp	r1, #0
1000345a:	d001      	beq.n	10003460 <vTaskPlaceOnEventListRestricted+0x80>
1000345c:	2001      	movs	r0, #1
1000345e:	4240      	negs	r0, r0
10003460:	f7fe ffdc 	bl	1000241c <prvAddCurrentTaskToDelayedList>
10003464:	bdf8      	pop	{r3, r4, r5, r6, r7, pc}
10003466:	46c0      	nop			; (mov r8, r8)
10003468:	20000774 	.word	0x20000774

1000346c <xTaskRemoveFromEventList>:
1000346c:	68c3      	ldr	r3, [r0, #12]
1000346e:	b570      	push	{r4, r5, r6, lr}
10003470:	68d8      	ldr	r0, [r3, #12]
10003472:	6a01      	ldr	r1, [r0, #32]
10003474:	6a42      	ldr	r2, [r0, #36]	; 0x24
10003476:	6ac3      	ldr	r3, [r0, #44]	; 0x2c
10003478:	608a      	str	r2, [r1, #8]
1000347a:	6051      	str	r1, [r2, #4]
1000347c:	0001      	movs	r1, r0
1000347e:	685c      	ldr	r4, [r3, #4]
10003480:	311c      	adds	r1, #28
10003482:	428c      	cmp	r4, r1
10003484:	d045      	beq.n	10003512 <xTaskRemoveFromEventList+0xa6>
10003486:	2200      	movs	r2, #0
10003488:	62c2      	str	r2, [r0, #44]	; 0x2c
1000348a:	681a      	ldr	r2, [r3, #0]
1000348c:	3a01      	subs	r2, #1
1000348e:	601a      	str	r2, [r3, #0]
10003490:	4b26      	ldr	r3, [pc, #152]	; (1000352c <xTaskRemoveFromEventList+0xc0>)
10003492:	681b      	ldr	r3, [r3, #0]
10003494:	2b00      	cmp	r3, #0
10003496:	d12d      	bne.n	100034f4 <xTaskRemoveFromEventList+0x88>
10003498:	0004      	movs	r4, r0
1000349a:	68c2      	ldr	r2, [r0, #12]
1000349c:	6901      	ldr	r1, [r0, #16]
1000349e:	6983      	ldr	r3, [r0, #24]
100034a0:	6091      	str	r1, [r2, #8]
100034a2:	6901      	ldr	r1, [r0, #16]
100034a4:	3408      	adds	r4, #8
100034a6:	604a      	str	r2, [r1, #4]
100034a8:	685a      	ldr	r2, [r3, #4]
100034aa:	42a2      	cmp	r2, r4
100034ac:	d033      	beq.n	10003516 <xTaskRemoveFromEventList+0xaa>
100034ae:	681a      	ldr	r2, [r3, #0]
100034b0:	3a01      	subs	r2, #1
100034b2:	601a      	str	r2, [r3, #0]
100034b4:	4b1e      	ldr	r3, [pc, #120]	; (10003530 <xTaskRemoveFromEventList+0xc4>)
100034b6:	6b02      	ldr	r2, [r0, #48]	; 0x30
100034b8:	6819      	ldr	r1, [r3, #0]
100034ba:	428a      	cmp	r2, r1
100034bc:	d827      	bhi.n	1000350e <xTaskRemoveFromEventList+0xa2>
100034be:	0093      	lsls	r3, r2, #2
100034c0:	491c      	ldr	r1, [pc, #112]	; (10003534 <xTaskRemoveFromEventList+0xc8>)
100034c2:	189b      	adds	r3, r3, r2
100034c4:	009b      	lsls	r3, r3, #2
100034c6:	18cd      	adds	r5, r1, r3
100034c8:	686a      	ldr	r2, [r5, #4]
100034ca:	6896      	ldr	r6, [r2, #8]
100034cc:	60c2      	str	r2, [r0, #12]
100034ce:	6106      	str	r6, [r0, #16]
100034d0:	6896      	ldr	r6, [r2, #8]
100034d2:	6074      	str	r4, [r6, #4]
100034d4:	6094      	str	r4, [r2, #8]
100034d6:	58ca      	ldr	r2, [r1, r3]
100034d8:	6185      	str	r5, [r0, #24]
100034da:	3201      	adds	r2, #1
100034dc:	50ca      	str	r2, [r1, r3]
100034de:	f7fe ff3d 	bl	1000235c <prvYieldForTask>
100034e2:	23d0      	movs	r3, #208	; 0xd0
100034e4:	061b      	lsls	r3, r3, #24
100034e6:	681b      	ldr	r3, [r3, #0]
100034e8:	4a13      	ldr	r2, [pc, #76]	; (10003538 <xTaskRemoveFromEventList+0xcc>)
100034ea:	009b      	lsls	r3, r3, #2
100034ec:	5898      	ldr	r0, [r3, r2]
100034ee:	1e43      	subs	r3, r0, #1
100034f0:	4198      	sbcs	r0, r3
100034f2:	bd70      	pop	{r4, r5, r6, pc}
100034f4:	4b11      	ldr	r3, [pc, #68]	; (1000353c <xTaskRemoveFromEventList+0xd0>)
100034f6:	685a      	ldr	r2, [r3, #4]
100034f8:	6894      	ldr	r4, [r2, #8]
100034fa:	6202      	str	r2, [r0, #32]
100034fc:	6244      	str	r4, [r0, #36]	; 0x24
100034fe:	6894      	ldr	r4, [r2, #8]
10003500:	6061      	str	r1, [r4, #4]
10003502:	6091      	str	r1, [r2, #8]
10003504:	681a      	ldr	r2, [r3, #0]
10003506:	62c3      	str	r3, [r0, #44]	; 0x2c
10003508:	3201      	adds	r2, #1
1000350a:	601a      	str	r2, [r3, #0]
1000350c:	e7e7      	b.n	100034de <xTaskRemoveFromEventList+0x72>
1000350e:	601a      	str	r2, [r3, #0]
10003510:	e7d5      	b.n	100034be <xTaskRemoveFromEventList+0x52>
10003512:	605a      	str	r2, [r3, #4]
10003514:	e7b7      	b.n	10003486 <xTaskRemoveFromEventList+0x1a>
10003516:	681a      	ldr	r2, [r3, #0]
10003518:	6059      	str	r1, [r3, #4]
1000351a:	3a01      	subs	r2, #1
1000351c:	601a      	str	r2, [r3, #0]
1000351e:	4b04      	ldr	r3, [pc, #16]	; (10003530 <xTaskRemoveFromEventList+0xc4>)
10003520:	6b02      	ldr	r2, [r0, #48]	; 0x30
10003522:	6819      	ldr	r1, [r3, #0]
10003524:	428a      	cmp	r2, r1
10003526:	d9ca      	bls.n	100034be <xTaskRemoveFromEventList+0x52>
10003528:	e7f1      	b.n	1000350e <xTaskRemoveFromEventList+0xa2>
1000352a:	46c0      	nop			; (mov r8, r8)
1000352c:	20020a48 	.word	0x20020a48
10003530:	20020a50 	.word	0x20020a50
10003534:	20000790 	.word	0x20000790
10003538:	20020b24 	.word	0x20020b24
1000353c:	20020ad0 	.word	0x20020ad0

10003540 <vTaskInternalSetTimeOutState>:
10003540:	4b03      	ldr	r3, [pc, #12]	; (10003550 <vTaskInternalSetTimeOutState+0x10>)
10003542:	681b      	ldr	r3, [r3, #0]
10003544:	6003      	str	r3, [r0, #0]
10003546:	4b03      	ldr	r3, [pc, #12]	; (10003554 <vTaskInternalSetTimeOutState+0x14>)
10003548:	681b      	ldr	r3, [r3, #0]
1000354a:	6043      	str	r3, [r0, #4]
1000354c:	4770      	bx	lr
1000354e:	46c0      	nop			; (mov r8, r8)
10003550:	20020ac0 	.word	0x20020ac0
10003554:	20020b18 	.word	0x20020b18

10003558 <xTaskCheckForTimeOut>:
10003558:	b5f8      	push	{r3, r4, r5, r6, r7, lr}
1000355a:	46ce      	mov	lr, r9
1000355c:	4647      	mov	r7, r8
1000355e:	0004      	movs	r4, r0
10003560:	000d      	movs	r5, r1
10003562:	b580      	push	{r7, lr}
10003564:	b672      	cpsid	i
10003566:	4e57      	ldr	r6, [pc, #348]	; (100036c4 <xTaskCheckForTimeOut+0x16c>)
10003568:	6833      	ldr	r3, [r6, #0]
1000356a:	2b00      	cmp	r3, #0
1000356c:	d010      	beq.n	10003590 <xTaskCheckForTimeOut+0x38>
1000356e:	23d0      	movs	r3, #208	; 0xd0
10003570:	061b      	lsls	r3, r3, #24
10003572:	6818      	ldr	r0, [r3, #0]
10003574:	4a54      	ldr	r2, [pc, #336]	; (100036c8 <xTaskCheckForTimeOut+0x170>)
10003576:	0081      	lsls	r1, r0, #2
10003578:	5853      	ldr	r3, [r2, r1]
1000357a:	2b00      	cmp	r3, #0
1000357c:	d058      	beq.n	10003630 <xTaskCheckForTimeOut+0xd8>
1000357e:	3301      	adds	r3, #1
10003580:	5053      	str	r3, [r2, r1]
10003582:	23d0      	movs	r3, #208	; 0xd0
10003584:	061b      	lsls	r3, r3, #24
10003586:	681b      	ldr	r3, [r3, #0]
10003588:	009b      	lsls	r3, r3, #2
1000358a:	58d3      	ldr	r3, [r2, r3]
1000358c:	2b01      	cmp	r3, #1
1000358e:	d048      	beq.n	10003622 <xTaskCheckForTimeOut+0xca>
10003590:	484e      	ldr	r0, [pc, #312]	; (100036cc <xTaskCheckForTimeOut+0x174>)
10003592:	6803      	ldr	r3, [r0, #0]
10003594:	4698      	mov	r8, r3
10003596:	6863      	ldr	r3, [r4, #4]
10003598:	4699      	mov	r9, r3
1000359a:	f3ef 8c10 	mrs	ip, PRIMASK
1000359e:	b672      	cpsid	i
100035a0:	21d0      	movs	r1, #208	; 0xd0
100035a2:	0609      	lsls	r1, r1, #24
100035a4:	680b      	ldr	r3, [r1, #0]
100035a6:	4a4a      	ldr	r2, [pc, #296]	; (100036d0 <xTaskCheckForTimeOut+0x178>)
100035a8:	009b      	lsls	r3, r3, #2
100035aa:	589f      	ldr	r7, [r3, r2]
100035ac:	f38c 8810 	msr	PRIMASK, ip
100035b0:	2379      	movs	r3, #121	; 0x79
100035b2:	5cff      	ldrb	r7, [r7, r3]
100035b4:	2f00      	cmp	r7, #0
100035b6:	d014      	beq.n	100035e2 <xTaskCheckForTimeOut+0x8a>
100035b8:	f3ef 8010 	mrs	r0, PRIMASK
100035bc:	b672      	cpsid	i
100035be:	6809      	ldr	r1, [r1, #0]
100035c0:	0089      	lsls	r1, r1, #2
100035c2:	588a      	ldr	r2, [r1, r2]
100035c4:	f380 8810 	msr	PRIMASK, r0
100035c8:	2100      	movs	r1, #0
100035ca:	2401      	movs	r4, #1
100035cc:	54d1      	strb	r1, [r2, r3]
100035ce:	6833      	ldr	r3, [r6, #0]
100035d0:	2b00      	cmp	r3, #0
100035d2:	d001      	beq.n	100035d8 <xTaskCheckForTimeOut+0x80>
100035d4:	f7fe ffc4 	bl	10002560 <vTaskExitCritical.part.0>
100035d8:	0020      	movs	r0, r4
100035da:	bcc0      	pop	{r6, r7}
100035dc:	46b9      	mov	r9, r7
100035de:	46b0      	mov	r8, r6
100035e0:	bdf8      	pop	{r3, r4, r5, r6, r7, pc}
100035e2:	682b      	ldr	r3, [r5, #0]
100035e4:	1c5a      	adds	r2, r3, #1
100035e6:	d01a      	beq.n	1000361e <xTaskCheckForTimeOut+0xc6>
100035e8:	4a3a      	ldr	r2, [pc, #232]	; (100036d4 <xTaskCheckForTimeOut+0x17c>)
100035ea:	6827      	ldr	r7, [r4, #0]
100035ec:	6811      	ldr	r1, [r2, #0]
100035ee:	428f      	cmp	r7, r1
100035f0:	d006      	beq.n	10003600 <xTaskCheckForTimeOut+0xa8>
100035f2:	6861      	ldr	r1, [r4, #4]
100035f4:	4541      	cmp	r1, r8
100035f6:	d803      	bhi.n	10003600 <xTaskCheckForTimeOut+0xa8>
100035f8:	2300      	movs	r3, #0
100035fa:	2401      	movs	r4, #1
100035fc:	602b      	str	r3, [r5, #0]
100035fe:	e7e6      	b.n	100035ce <xTaskCheckForTimeOut+0x76>
10003600:	4641      	mov	r1, r8
10003602:	464f      	mov	r7, r9
10003604:	1bc9      	subs	r1, r1, r7
10003606:	428b      	cmp	r3, r1
10003608:	d9f6      	bls.n	100035f8 <xTaskCheckForTimeOut+0xa0>
1000360a:	4641      	mov	r1, r8
1000360c:	1a5b      	subs	r3, r3, r1
1000360e:	444b      	add	r3, r9
10003610:	602b      	str	r3, [r5, #0]
10003612:	6813      	ldr	r3, [r2, #0]
10003614:	6023      	str	r3, [r4, #0]
10003616:	6803      	ldr	r3, [r0, #0]
10003618:	6063      	str	r3, [r4, #4]
1000361a:	2400      	movs	r4, #0
1000361c:	e7d7      	b.n	100035ce <xTaskCheckForTimeOut+0x76>
1000361e:	2400      	movs	r4, #0
10003620:	e7d5      	b.n	100035ce <xTaskCheckForTimeOut+0x76>
10003622:	4b2d      	ldr	r3, [pc, #180]	; (100036d8 <xTaskCheckForTimeOut+0x180>)
10003624:	681b      	ldr	r3, [r3, #0]
10003626:	2b00      	cmp	r3, #0
10003628:	d1b2      	bne.n	10003590 <xTaskCheckForTimeOut+0x38>
1000362a:	f7fe ffe3 	bl	100025f4 <prvCheckForRunStateChange>
1000362e:	e7af      	b.n	10003590 <xTaskCheckForTimeOut+0x38>
10003630:	492a      	ldr	r1, [pc, #168]	; (100036dc <xTaskCheckForTimeOut+0x184>)
10003632:	680b      	ldr	r3, [r1, #0]
10003634:	2b00      	cmp	r3, #0
10003636:	d024      	beq.n	10003682 <xTaskCheckForTimeOut+0x12a>
10003638:	4b29      	ldr	r3, [pc, #164]	; (100036e0 <xTaskCheckForTimeOut+0x188>)
1000363a:	f3bf 8f5f 	dmb	sy
1000363e:	4929      	ldr	r1, [pc, #164]	; (100036e4 <xTaskCheckForTimeOut+0x18c>)
10003640:	4689      	mov	r9, r1
10003642:	2101      	movs	r1, #1
10003644:	464f      	mov	r7, r9
10003646:	7079      	strb	r1, [r7, #1]
10003648:	2702      	movs	r7, #2
1000364a:	46bc      	mov	ip, r7
1000364c:	4667      	mov	r7, ip
1000364e:	5c19      	ldrb	r1, [r3, r0]
10003650:	4339      	orrs	r1, r7
10003652:	5419      	strb	r1, [r3, r0]
10003654:	21d0      	movs	r1, #208	; 0xd0
10003656:	0609      	lsls	r1, r1, #24
10003658:	468c      	mov	ip, r1
1000365a:	6808      	ldr	r0, [r1, #0]
1000365c:	4922      	ldr	r1, [pc, #136]	; (100036e8 <xTaskCheckForTimeOut+0x190>)
1000365e:	680f      	ldr	r7, [r1, #0]
10003660:	2f00      	cmp	r7, #0
10003662:	d016      	beq.n	10003692 <xTaskCheckForTimeOut+0x13a>
10003664:	f3bf 8f5f 	dmb	sy
10003668:	2101      	movs	r1, #1
1000366a:	464f      	mov	r7, r9
1000366c:	7039      	strb	r1, [r7, #0]
1000366e:	2701      	movs	r7, #1
10003670:	5c19      	ldrb	r1, [r3, r0]
10003672:	4339      	orrs	r1, r7
10003674:	5419      	strb	r1, [r3, r0]
10003676:	23d0      	movs	r3, #208	; 0xd0
10003678:	061b      	lsls	r3, r3, #24
1000367a:	6818      	ldr	r0, [r3, #0]
1000367c:	0081      	lsls	r1, r0, #2
1000367e:	5853      	ldr	r3, [r2, r1]
10003680:	e77d      	b.n	1000357e <xTaskCheckForTimeOut+0x26>
10003682:	4b17      	ldr	r3, [pc, #92]	; (100036e0 <xTaskCheckForTimeOut+0x188>)
10003684:	5c1f      	ldrb	r7, [r3, r0]
10003686:	07bf      	lsls	r7, r7, #30
10003688:	d40a      	bmi.n	100036a0 <xTaskCheckForTimeOut+0x148>
1000368a:	680f      	ldr	r7, [r1, #0]
1000368c:	2f00      	cmp	r7, #0
1000368e:	d1d4      	bne.n	1000363a <xTaskCheckForTimeOut+0xe2>
10003690:	e7fb      	b.n	1000368a <xTaskCheckForTimeOut+0x132>
10003692:	5c1f      	ldrb	r7, [r3, r0]
10003694:	07ff      	lsls	r7, r7, #31
10003696:	d40a      	bmi.n	100036ae <xTaskCheckForTimeOut+0x156>
10003698:	680f      	ldr	r7, [r1, #0]
1000369a:	2f00      	cmp	r7, #0
1000369c:	d1e2      	bne.n	10003664 <xTaskCheckForTimeOut+0x10c>
1000369e:	e7fb      	b.n	10003698 <xTaskCheckForTimeOut+0x140>
100036a0:	4910      	ldr	r1, [pc, #64]	; (100036e4 <xTaskCheckForTimeOut+0x18c>)
100036a2:	4689      	mov	r9, r1
100036a4:	4648      	mov	r0, r9
100036a6:	7849      	ldrb	r1, [r1, #1]
100036a8:	3101      	adds	r1, #1
100036aa:	7041      	strb	r1, [r0, #1]
100036ac:	e7d2      	b.n	10003654 <xTaskCheckForTimeOut+0xfc>
100036ae:	464b      	mov	r3, r9
100036b0:	4649      	mov	r1, r9
100036b2:	781b      	ldrb	r3, [r3, #0]
100036b4:	3301      	adds	r3, #1
100036b6:	700b      	strb	r3, [r1, #0]
100036b8:	4663      	mov	r3, ip
100036ba:	6818      	ldr	r0, [r3, #0]
100036bc:	0081      	lsls	r1, r0, #2
100036be:	5853      	ldr	r3, [r2, r1]
100036c0:	e75d      	b.n	1000357e <xTaskCheckForTimeOut+0x26>
100036c2:	46c0      	nop			; (mov r8, r8)
100036c4:	20020ae4 	.word	0x20020ae4
100036c8:	20020a38 	.word	0x20020a38
100036cc:	20020b18 	.word	0x20020b18
100036d0:	20000774 	.word	0x20000774
100036d4:	20020ac0 	.word	0x20020ac0
100036d8:	20020a48 	.word	0x20020a48
100036dc:	d000013c 	.word	0xd000013c
100036e0:	20020a28 	.word	0x20020a28
100036e4:	20020a2c 	.word	0x20020a2c
100036e8:	d0000138 	.word	0xd0000138

100036ec <vTaskMissedYield>:
100036ec:	23d0      	movs	r3, #208	; 0xd0
100036ee:	2101      	movs	r1, #1
100036f0:	061b      	lsls	r3, r3, #24
100036f2:	681b      	ldr	r3, [r3, #0]
100036f4:	4a01      	ldr	r2, [pc, #4]	; (100036fc <vTaskMissedYield+0x10>)
100036f6:	009b      	lsls	r3, r3, #2
100036f8:	5099      	str	r1, [r3, r2]
100036fa:	4770      	bx	lr
100036fc:	20020b24 	.word	0x20020b24

10003700 <xTaskGetCurrentTaskHandle>:
10003700:	f3ef 8210 	mrs	r2, PRIMASK
10003704:	b672      	cpsid	i
10003706:	23d0      	movs	r3, #208	; 0xd0
10003708:	061b      	lsls	r3, r3, #24
1000370a:	681b      	ldr	r3, [r3, #0]
1000370c:	4902      	ldr	r1, [pc, #8]	; (10003718 <xTaskGetCurrentTaskHandle+0x18>)
1000370e:	009b      	lsls	r3, r3, #2
10003710:	5858      	ldr	r0, [r3, r1]
10003712:	f382 8810 	msr	PRIMASK, r2
10003716:	4770      	bx	lr
10003718:	20000774 	.word	0x20000774

1000371c <xTaskGetSchedulerState>:
1000371c:	b5f8      	push	{r3, r4, r5, r6, r7, lr}
1000371e:	4d36      	ldr	r5, [pc, #216]	; (100037f8 <xTaskGetSchedulerState+0xdc>)
10003720:	2401      	movs	r4, #1
10003722:	682b      	ldr	r3, [r5, #0]
10003724:	2b00      	cmp	r3, #0
10003726:	d101      	bne.n	1000372c <xTaskGetSchedulerState+0x10>
10003728:	0020      	movs	r0, r4
1000372a:	bdf8      	pop	{r3, r4, r5, r6, r7, pc}
1000372c:	b672      	cpsid	i
1000372e:	682b      	ldr	r3, [r5, #0]
10003730:	2b00      	cmp	r3, #0
10003732:	d017      	beq.n	10003764 <xTaskGetSchedulerState+0x48>
10003734:	23d0      	movs	r3, #208	; 0xd0
10003736:	061b      	lsls	r3, r3, #24
10003738:	6818      	ldr	r0, [r3, #0]
1000373a:	4a30      	ldr	r2, [pc, #192]	; (100037fc <xTaskGetSchedulerState+0xe0>)
1000373c:	0081      	lsls	r1, r0, #2
1000373e:	5853      	ldr	r3, [r2, r1]
10003740:	2b00      	cmp	r3, #0
10003742:	d01a      	beq.n	1000377a <xTaskGetSchedulerState+0x5e>
10003744:	3301      	adds	r3, #1
10003746:	5053      	str	r3, [r2, r1]
10003748:	23d0      	movs	r3, #208	; 0xd0
1000374a:	061b      	lsls	r3, r3, #24
1000374c:	681b      	ldr	r3, [r3, #0]
1000374e:	4c2c      	ldr	r4, [pc, #176]	; (10003800 <xTaskGetSchedulerState+0xe4>)
10003750:	009b      	lsls	r3, r3, #2
10003752:	58d3      	ldr	r3, [r2, r3]
10003754:	2b01      	cmp	r3, #1
10003756:	d106      	bne.n	10003766 <xTaskGetSchedulerState+0x4a>
10003758:	6823      	ldr	r3, [r4, #0]
1000375a:	2b00      	cmp	r3, #0
1000375c:	d103      	bne.n	10003766 <xTaskGetSchedulerState+0x4a>
1000375e:	f7fe ff49 	bl	100025f4 <prvCheckForRunStateChange>
10003762:	e000      	b.n	10003766 <xTaskGetSchedulerState+0x4a>
10003764:	4c26      	ldr	r4, [pc, #152]	; (10003800 <xTaskGetSchedulerState+0xe4>)
10003766:	6824      	ldr	r4, [r4, #0]
10003768:	4263      	negs	r3, r4
1000376a:	415c      	adcs	r4, r3
1000376c:	682b      	ldr	r3, [r5, #0]
1000376e:	0064      	lsls	r4, r4, #1
10003770:	2b00      	cmp	r3, #0
10003772:	d0d9      	beq.n	10003728 <xTaskGetSchedulerState+0xc>
10003774:	f7fe fef4 	bl	10002560 <vTaskExitCritical.part.0>
10003778:	e7d6      	b.n	10003728 <xTaskGetSchedulerState+0xc>
1000377a:	4922      	ldr	r1, [pc, #136]	; (10003804 <xTaskGetSchedulerState+0xe8>)
1000377c:	680b      	ldr	r3, [r1, #0]
1000377e:	2b00      	cmp	r3, #0
10003780:	d01e      	beq.n	100037c0 <xTaskGetSchedulerState+0xa4>
10003782:	4b21      	ldr	r3, [pc, #132]	; (10003808 <xTaskGetSchedulerState+0xec>)
10003784:	f3bf 8f5f 	dmb	sy
10003788:	2101      	movs	r1, #1
1000378a:	2602      	movs	r6, #2
1000378c:	4c1f      	ldr	r4, [pc, #124]	; (1000380c <xTaskGetSchedulerState+0xf0>)
1000378e:	7061      	strb	r1, [r4, #1]
10003790:	5c19      	ldrb	r1, [r3, r0]
10003792:	4331      	orrs	r1, r6
10003794:	5419      	strb	r1, [r3, r0]
10003796:	26d0      	movs	r6, #208	; 0xd0
10003798:	491d      	ldr	r1, [pc, #116]	; (10003810 <xTaskGetSchedulerState+0xf4>)
1000379a:	0636      	lsls	r6, r6, #24
1000379c:	680f      	ldr	r7, [r1, #0]
1000379e:	6830      	ldr	r0, [r6, #0]
100037a0:	2f00      	cmp	r7, #0
100037a2:	d015      	beq.n	100037d0 <xTaskGetSchedulerState+0xb4>
100037a4:	f3bf 8f5f 	dmb	sy
100037a8:	2101      	movs	r1, #1
100037aa:	7021      	strb	r1, [r4, #0]
100037ac:	2401      	movs	r4, #1
100037ae:	5c19      	ldrb	r1, [r3, r0]
100037b0:	4321      	orrs	r1, r4
100037b2:	5419      	strb	r1, [r3, r0]
100037b4:	23d0      	movs	r3, #208	; 0xd0
100037b6:	061b      	lsls	r3, r3, #24
100037b8:	6818      	ldr	r0, [r3, #0]
100037ba:	0081      	lsls	r1, r0, #2
100037bc:	5853      	ldr	r3, [r2, r1]
100037be:	e7c1      	b.n	10003744 <xTaskGetSchedulerState+0x28>
100037c0:	4b11      	ldr	r3, [pc, #68]	; (10003808 <xTaskGetSchedulerState+0xec>)
100037c2:	5c1c      	ldrb	r4, [r3, r0]
100037c4:	07a4      	lsls	r4, r4, #30
100037c6:	d40a      	bmi.n	100037de <xTaskGetSchedulerState+0xc2>
100037c8:	680c      	ldr	r4, [r1, #0]
100037ca:	2c00      	cmp	r4, #0
100037cc:	d1da      	bne.n	10003784 <xTaskGetSchedulerState+0x68>
100037ce:	e7fb      	b.n	100037c8 <xTaskGetSchedulerState+0xac>
100037d0:	5c1f      	ldrb	r7, [r3, r0]
100037d2:	07ff      	lsls	r7, r7, #31
100037d4:	d408      	bmi.n	100037e8 <xTaskGetSchedulerState+0xcc>
100037d6:	680e      	ldr	r6, [r1, #0]
100037d8:	2e00      	cmp	r6, #0
100037da:	d1e3      	bne.n	100037a4 <xTaskGetSchedulerState+0x88>
100037dc:	e7fb      	b.n	100037d6 <xTaskGetSchedulerState+0xba>
100037de:	4c0b      	ldr	r4, [pc, #44]	; (1000380c <xTaskGetSchedulerState+0xf0>)
100037e0:	7861      	ldrb	r1, [r4, #1]
100037e2:	3101      	adds	r1, #1
100037e4:	7061      	strb	r1, [r4, #1]
100037e6:	e7d6      	b.n	10003796 <xTaskGetSchedulerState+0x7a>
100037e8:	7823      	ldrb	r3, [r4, #0]
100037ea:	3301      	adds	r3, #1
100037ec:	7023      	strb	r3, [r4, #0]
100037ee:	6830      	ldr	r0, [r6, #0]
100037f0:	0081      	lsls	r1, r0, #2
100037f2:	5853      	ldr	r3, [r2, r1]
100037f4:	e7a6      	b.n	10003744 <xTaskGetSchedulerState+0x28>
100037f6:	46c0      	nop			; (mov r8, r8)
100037f8:	20020ae4 	.word	0x20020ae4
100037fc:	20020a38 	.word	0x20020a38
10003800:	20020a48 	.word	0x20020a48
10003804:	d000013c 	.word	0xd000013c
10003808:	20020a28 	.word	0x20020a28
1000380c:	20020a2c 	.word	0x20020a2c
10003810:	d0000138 	.word	0xd0000138

10003814 <xTaskPriorityInherit>:
10003814:	b5f8      	push	{r3, r4, r5, r6, r7, lr}
10003816:	1e04      	subs	r4, r0, #0
10003818:	d042      	beq.n	100038a0 <xTaskPriorityInherit+0x8c>
1000381a:	6b01      	ldr	r1, [r0, #48]	; 0x30
1000381c:	f3ef 8010 	mrs	r0, PRIMASK
10003820:	b672      	cpsid	i
10003822:	22d0      	movs	r2, #208	; 0xd0
10003824:	0612      	lsls	r2, r2, #24
10003826:	6813      	ldr	r3, [r2, #0]
10003828:	4d37      	ldr	r5, [pc, #220]	; (10003908 <xTaskPriorityInherit+0xf4>)
1000382a:	009b      	lsls	r3, r3, #2
1000382c:	58eb      	ldr	r3, [r5, r3]
1000382e:	f380 8810 	msr	PRIMASK, r0
10003832:	6b1b      	ldr	r3, [r3, #48]	; 0x30
10003834:	4299      	cmp	r1, r3
10003836:	d225      	bcs.n	10003884 <xTaskPriorityInherit+0x70>
10003838:	69e3      	ldr	r3, [r4, #28]
1000383a:	2b00      	cmp	r3, #0
1000383c:	db0b      	blt.n	10003856 <xTaskPriorityInherit+0x42>
1000383e:	f3ef 8110 	mrs	r1, PRIMASK
10003842:	b672      	cpsid	i
10003844:	6813      	ldr	r3, [r2, #0]
10003846:	009b      	lsls	r3, r3, #2
10003848:	58eb      	ldr	r3, [r5, r3]
1000384a:	f381 8810 	msr	PRIMASK, r1
1000384e:	6b1a      	ldr	r2, [r3, #48]	; 0x30
10003850:	2320      	movs	r3, #32
10003852:	1a9b      	subs	r3, r3, r2
10003854:	61e3      	str	r3, [r4, #28]
10003856:	6b22      	ldr	r2, [r4, #48]	; 0x30
10003858:	4e2c      	ldr	r6, [pc, #176]	; (1000390c <xTaskPriorityInherit+0xf8>)
1000385a:	0093      	lsls	r3, r2, #2
1000385c:	189b      	adds	r3, r3, r2
1000385e:	009b      	lsls	r3, r3, #2
10003860:	69a2      	ldr	r2, [r4, #24]
10003862:	18f3      	adds	r3, r6, r3
10003864:	429a      	cmp	r2, r3
10003866:	d01d      	beq.n	100038a4 <xTaskPriorityInherit+0x90>
10003868:	f3ef 8210 	mrs	r2, PRIMASK
1000386c:	b672      	cpsid	i
1000386e:	23d0      	movs	r3, #208	; 0xd0
10003870:	061b      	lsls	r3, r3, #24
10003872:	681b      	ldr	r3, [r3, #0]
10003874:	009b      	lsls	r3, r3, #2
10003876:	58eb      	ldr	r3, [r5, r3]
10003878:	f382 8810 	msr	PRIMASK, r2
1000387c:	6b1b      	ldr	r3, [r3, #48]	; 0x30
1000387e:	2001      	movs	r0, #1
10003880:	6323      	str	r3, [r4, #48]	; 0x30
10003882:	e00c      	b.n	1000389e <xTaskPriorityInherit+0x8a>
10003884:	6da0      	ldr	r0, [r4, #88]	; 0x58
10003886:	f3ef 8110 	mrs	r1, PRIMASK
1000388a:	b672      	cpsid	i
1000388c:	6813      	ldr	r3, [r2, #0]
1000388e:	009b      	lsls	r3, r3, #2
10003890:	58eb      	ldr	r3, [r5, r3]
10003892:	f381 8810 	msr	PRIMASK, r1
10003896:	6b1b      	ldr	r3, [r3, #48]	; 0x30
10003898:	4298      	cmp	r0, r3
1000389a:	4180      	sbcs	r0, r0
1000389c:	4240      	negs	r0, r0
1000389e:	bdf8      	pop	{r3, r4, r5, r6, r7, pc}
100038a0:	2000      	movs	r0, #0
100038a2:	e7fc      	b.n	1000389e <xTaskPriorityInherit+0x8a>
100038a4:	0027      	movs	r7, r4
100038a6:	3708      	adds	r7, #8
100038a8:	0038      	movs	r0, r7
100038aa:	f7fd ffbd 	bl	10001828 <uxListRemove>
100038ae:	f3ef 8210 	mrs	r2, PRIMASK
100038b2:	b672      	cpsid	i
100038b4:	23d0      	movs	r3, #208	; 0xd0
100038b6:	061b      	lsls	r3, r3, #24
100038b8:	681b      	ldr	r3, [r3, #0]
100038ba:	009b      	lsls	r3, r3, #2
100038bc:	58eb      	ldr	r3, [r5, r3]
100038be:	f382 8810 	msr	PRIMASK, r2
100038c2:	6b1a      	ldr	r2, [r3, #48]	; 0x30
100038c4:	4b12      	ldr	r3, [pc, #72]	; (10003910 <xTaskPriorityInherit+0xfc>)
100038c6:	6322      	str	r2, [r4, #48]	; 0x30
100038c8:	6819      	ldr	r1, [r3, #0]
100038ca:	428a      	cmp	r2, r1
100038cc:	d900      	bls.n	100038d0 <xTaskPriorityInherit+0xbc>
100038ce:	601a      	str	r2, [r3, #0]
100038d0:	0093      	lsls	r3, r2, #2
100038d2:	189b      	adds	r3, r3, r2
100038d4:	009b      	lsls	r3, r3, #2
100038d6:	18f1      	adds	r1, r6, r3
100038d8:	684a      	ldr	r2, [r1, #4]
100038da:	6890      	ldr	r0, [r2, #8]
100038dc:	60e2      	str	r2, [r4, #12]
100038de:	6120      	str	r0, [r4, #16]
100038e0:	6890      	ldr	r0, [r2, #8]
100038e2:	6047      	str	r7, [r0, #4]
100038e4:	6097      	str	r7, [r2, #8]
100038e6:	58f2      	ldr	r2, [r6, r3]
100038e8:	61a1      	str	r1, [r4, #24]
100038ea:	3201      	adds	r2, #1
100038ec:	50f2      	str	r2, [r6, r3]
100038ee:	6ba3      	ldr	r3, [r4, #56]	; 0x38
100038f0:	2b00      	cmp	r3, #0
100038f2:	db03      	blt.n	100038fc <xTaskPriorityInherit+0xe8>
100038f4:	6ba3      	ldr	r3, [r4, #56]	; 0x38
100038f6:	2001      	movs	r0, #1
100038f8:	2b01      	cmp	r3, #1
100038fa:	ddd0      	ble.n	1000389e <xTaskPriorityInherit+0x8a>
100038fc:	0020      	movs	r0, r4
100038fe:	f7fe fd2d 	bl	1000235c <prvYieldForTask>
10003902:	2001      	movs	r0, #1
10003904:	e7cb      	b.n	1000389e <xTaskPriorityInherit+0x8a>
10003906:	46c0      	nop			; (mov r8, r8)
10003908:	20000774 	.word	0x20000774
1000390c:	20000790 	.word	0x20000790
10003910:	20020a50 	.word	0x20020a50

10003914 <xTaskPriorityDisinherit>:
10003914:	b570      	push	{r4, r5, r6, lr}
10003916:	1e04      	subs	r4, r0, #0
10003918:	d008      	beq.n	1000392c <xTaskPriorityDisinherit+0x18>
1000391a:	6dc3      	ldr	r3, [r0, #92]	; 0x5c
1000391c:	6b02      	ldr	r2, [r0, #48]	; 0x30
1000391e:	6d81      	ldr	r1, [r0, #88]	; 0x58
10003920:	3b01      	subs	r3, #1
10003922:	65c3      	str	r3, [r0, #92]	; 0x5c
10003924:	428a      	cmp	r2, r1
10003926:	d001      	beq.n	1000392c <xTaskPriorityDisinherit+0x18>
10003928:	2b00      	cmp	r3, #0
1000392a:	d002      	beq.n	10003932 <xTaskPriorityDisinherit+0x1e>
1000392c:	2500      	movs	r5, #0
1000392e:	0028      	movs	r0, r5
10003930:	bd70      	pop	{r4, r5, r6, pc}
10003932:	0005      	movs	r5, r0
10003934:	3508      	adds	r5, #8
10003936:	0028      	movs	r0, r5
10003938:	f7fd ff76 	bl	10001828 <uxListRemove>
1000393c:	2320      	movs	r3, #32
1000393e:	6da2      	ldr	r2, [r4, #88]	; 0x58
10003940:	1a9b      	subs	r3, r3, r2
10003942:	61e3      	str	r3, [r4, #28]
10003944:	4b1c      	ldr	r3, [pc, #112]	; (100039b8 <xTaskPriorityDisinherit+0xa4>)
10003946:	6322      	str	r2, [r4, #48]	; 0x30
10003948:	6819      	ldr	r1, [r3, #0]
1000394a:	428a      	cmp	r2, r1
1000394c:	d900      	bls.n	10003950 <xTaskPriorityDisinherit+0x3c>
1000394e:	601a      	str	r2, [r3, #0]
10003950:	0093      	lsls	r3, r2, #2
10003952:	491a      	ldr	r1, [pc, #104]	; (100039bc <xTaskPriorityDisinherit+0xa8>)
10003954:	189b      	adds	r3, r3, r2
10003956:	009b      	lsls	r3, r3, #2
10003958:	18c8      	adds	r0, r1, r3
1000395a:	6842      	ldr	r2, [r0, #4]
1000395c:	6896      	ldr	r6, [r2, #8]
1000395e:	60e2      	str	r2, [r4, #12]
10003960:	6126      	str	r6, [r4, #16]
10003962:	6896      	ldr	r6, [r2, #8]
10003964:	6075      	str	r5, [r6, #4]
10003966:	6095      	str	r5, [r2, #8]
10003968:	58ca      	ldr	r2, [r1, r3]
1000396a:	61a0      	str	r0, [r4, #24]
1000396c:	3201      	adds	r2, #1
1000396e:	50ca      	str	r2, [r1, r3]
10003970:	6ba3      	ldr	r3, [r4, #56]	; 0x38
10003972:	2501      	movs	r5, #1
10003974:	2b00      	cmp	r3, #0
10003976:	dbda      	blt.n	1000392e <xTaskPriorityDisinherit+0x1a>
10003978:	6ba3      	ldr	r3, [r4, #56]	; 0x38
1000397a:	2b01      	cmp	r3, #1
1000397c:	dcd7      	bgt.n	1000392e <xTaskPriorityDisinherit+0x1a>
1000397e:	23d0      	movs	r3, #208	; 0xd0
10003980:	061b      	lsls	r3, r3, #24
10003982:	6ba2      	ldr	r2, [r4, #56]	; 0x38
10003984:	681b      	ldr	r3, [r3, #0]
10003986:	429a      	cmp	r2, r3
10003988:	d010      	beq.n	100039ac <xTaskPriorityDisinherit+0x98>
1000398a:	6ba3      	ldr	r3, [r4, #56]	; 0x38
1000398c:	4e0c      	ldr	r6, [pc, #48]	; (100039c0 <xTaskPriorityDisinherit+0xac>)
1000398e:	009b      	lsls	r3, r3, #2
10003990:	599b      	ldr	r3, [r3, r6]
10003992:	6b9b      	ldr	r3, [r3, #56]	; 0x38
10003994:	3302      	adds	r3, #2
10003996:	d0ca      	beq.n	1000392e <xTaskPriorityDisinherit+0x1a>
10003998:	6ba0      	ldr	r0, [r4, #56]	; 0x38
1000399a:	f7fd fcaf 	bl	100012fc <vYieldCore>
1000399e:	2202      	movs	r2, #2
100039a0:	6ba3      	ldr	r3, [r4, #56]	; 0x38
100039a2:	4252      	negs	r2, r2
100039a4:	009b      	lsls	r3, r3, #2
100039a6:	599b      	ldr	r3, [r3, r6]
100039a8:	639a      	str	r2, [r3, #56]	; 0x38
100039aa:	e7c0      	b.n	1000392e <xTaskPriorityDisinherit+0x1a>
100039ac:	6ba3      	ldr	r3, [r4, #56]	; 0x38
100039ae:	4a05      	ldr	r2, [pc, #20]	; (100039c4 <xTaskPriorityDisinherit+0xb0>)
100039b0:	009b      	lsls	r3, r3, #2
100039b2:	509d      	str	r5, [r3, r2]
100039b4:	e7bb      	b.n	1000392e <xTaskPriorityDisinherit+0x1a>
100039b6:	46c0      	nop			; (mov r8, r8)
100039b8:	20020a50 	.word	0x20020a50
100039bc:	20000790 	.word	0x20000790
100039c0:	20000774 	.word	0x20000774
100039c4:	20020b24 	.word	0x20020b24

100039c8 <vTaskPriorityDisinheritAfterTimeout>:
100039c8:	b570      	push	{r4, r5, r6, lr}
100039ca:	1e04      	subs	r4, r0, #0
100039cc:	d008      	beq.n	100039e0 <vTaskPriorityDisinheritAfterTimeout+0x18>
100039ce:	6d83      	ldr	r3, [r0, #88]	; 0x58
100039d0:	428b      	cmp	r3, r1
100039d2:	d306      	bcc.n	100039e2 <vTaskPriorityDisinheritAfterTimeout+0x1a>
100039d4:	6b22      	ldr	r2, [r4, #48]	; 0x30
100039d6:	429a      	cmp	r2, r3
100039d8:	d002      	beq.n	100039e0 <vTaskPriorityDisinheritAfterTimeout+0x18>
100039da:	6de1      	ldr	r1, [r4, #92]	; 0x5c
100039dc:	2901      	cmp	r1, #1
100039de:	d005      	beq.n	100039ec <vTaskPriorityDisinheritAfterTimeout+0x24>
100039e0:	bd70      	pop	{r4, r5, r6, pc}
100039e2:	6b22      	ldr	r2, [r4, #48]	; 0x30
100039e4:	000b      	movs	r3, r1
100039e6:	429a      	cmp	r2, r3
100039e8:	d1f7      	bne.n	100039da <vTaskPriorityDisinheritAfterTimeout+0x12>
100039ea:	e7f9      	b.n	100039e0 <vTaskPriorityDisinheritAfterTimeout+0x18>
100039ec:	69e1      	ldr	r1, [r4, #28]
100039ee:	6323      	str	r3, [r4, #48]	; 0x30
100039f0:	2900      	cmp	r1, #0
100039f2:	db02      	blt.n	100039fa <vTaskPriorityDisinheritAfterTimeout+0x32>
100039f4:	2120      	movs	r1, #32
100039f6:	1acb      	subs	r3, r1, r3
100039f8:	61e3      	str	r3, [r4, #28]
100039fa:	0093      	lsls	r3, r2, #2
100039fc:	189a      	adds	r2, r3, r2
100039fe:	4d21      	ldr	r5, [pc, #132]	; (10003a84 <vTaskPriorityDisinheritAfterTimeout+0xbc>)
10003a00:	0092      	lsls	r2, r2, #2
10003a02:	69a3      	ldr	r3, [r4, #24]
10003a04:	18aa      	adds	r2, r5, r2
10003a06:	4293      	cmp	r3, r2
10003a08:	d1ea      	bne.n	100039e0 <vTaskPriorityDisinheritAfterTimeout+0x18>
10003a0a:	0026      	movs	r6, r4
10003a0c:	3608      	adds	r6, #8
10003a0e:	0030      	movs	r0, r6
10003a10:	f7fd ff0a 	bl	10001828 <uxListRemove>
10003a14:	4b1c      	ldr	r3, [pc, #112]	; (10003a88 <vTaskPriorityDisinheritAfterTimeout+0xc0>)
10003a16:	6b22      	ldr	r2, [r4, #48]	; 0x30
10003a18:	6819      	ldr	r1, [r3, #0]
10003a1a:	428a      	cmp	r2, r1
10003a1c:	d900      	bls.n	10003a20 <vTaskPriorityDisinheritAfterTimeout+0x58>
10003a1e:	601a      	str	r2, [r3, #0]
10003a20:	0093      	lsls	r3, r2, #2
10003a22:	189b      	adds	r3, r3, r2
10003a24:	009b      	lsls	r3, r3, #2
10003a26:	18e9      	adds	r1, r5, r3
10003a28:	684a      	ldr	r2, [r1, #4]
10003a2a:	6890      	ldr	r0, [r2, #8]
10003a2c:	60e2      	str	r2, [r4, #12]
10003a2e:	6120      	str	r0, [r4, #16]
10003a30:	6890      	ldr	r0, [r2, #8]
10003a32:	6046      	str	r6, [r0, #4]
10003a34:	6096      	str	r6, [r2, #8]
10003a36:	58ea      	ldr	r2, [r5, r3]
10003a38:	61a1      	str	r1, [r4, #24]
10003a3a:	3201      	adds	r2, #1
10003a3c:	50ea      	str	r2, [r5, r3]
10003a3e:	6ba3      	ldr	r3, [r4, #56]	; 0x38
10003a40:	2b00      	cmp	r3, #0
10003a42:	dbcd      	blt.n	100039e0 <vTaskPriorityDisinheritAfterTimeout+0x18>
10003a44:	6ba3      	ldr	r3, [r4, #56]	; 0x38
10003a46:	2b01      	cmp	r3, #1
10003a48:	dcca      	bgt.n	100039e0 <vTaskPriorityDisinheritAfterTimeout+0x18>
10003a4a:	23d0      	movs	r3, #208	; 0xd0
10003a4c:	061b      	lsls	r3, r3, #24
10003a4e:	6ba2      	ldr	r2, [r4, #56]	; 0x38
10003a50:	681b      	ldr	r3, [r3, #0]
10003a52:	429a      	cmp	r2, r3
10003a54:	d010      	beq.n	10003a78 <vTaskPriorityDisinheritAfterTimeout+0xb0>
10003a56:	6ba3      	ldr	r3, [r4, #56]	; 0x38
10003a58:	4d0c      	ldr	r5, [pc, #48]	; (10003a8c <vTaskPriorityDisinheritAfterTimeout+0xc4>)
10003a5a:	009b      	lsls	r3, r3, #2
10003a5c:	595b      	ldr	r3, [r3, r5]
10003a5e:	6b9b      	ldr	r3, [r3, #56]	; 0x38
10003a60:	3302      	adds	r3, #2
10003a62:	d0bd      	beq.n	100039e0 <vTaskPriorityDisinheritAfterTimeout+0x18>
10003a64:	6ba0      	ldr	r0, [r4, #56]	; 0x38
10003a66:	f7fd fc49 	bl	100012fc <vYieldCore>
10003a6a:	2202      	movs	r2, #2
10003a6c:	6ba3      	ldr	r3, [r4, #56]	; 0x38
10003a6e:	4252      	negs	r2, r2
10003a70:	009b      	lsls	r3, r3, #2
10003a72:	595b      	ldr	r3, [r3, r5]
10003a74:	639a      	str	r2, [r3, #56]	; 0x38
10003a76:	e7b3      	b.n	100039e0 <vTaskPriorityDisinheritAfterTimeout+0x18>
10003a78:	2101      	movs	r1, #1
10003a7a:	6ba3      	ldr	r3, [r4, #56]	; 0x38
10003a7c:	4a04      	ldr	r2, [pc, #16]	; (10003a90 <vTaskPriorityDisinheritAfterTimeout+0xc8>)
10003a7e:	009b      	lsls	r3, r3, #2
10003a80:	5099      	str	r1, [r3, r2]
10003a82:	e7ad      	b.n	100039e0 <vTaskPriorityDisinheritAfterTimeout+0x18>
10003a84:	20000790 	.word	0x20000790
10003a88:	20020a50 	.word	0x20020a50
10003a8c:	20000774 	.word	0x20000774
10003a90:	20020b24 	.word	0x20020b24

10003a94 <vTaskYieldWithinAPI>:
10003a94:	23d0      	movs	r3, #208	; 0xd0
10003a96:	061b      	lsls	r3, r3, #24
10003a98:	681b      	ldr	r3, [r3, #0]
10003a9a:	4a06      	ldr	r2, [pc, #24]	; (10003ab4 <vTaskYieldWithinAPI+0x20>)
10003a9c:	009b      	lsls	r3, r3, #2
10003a9e:	589a      	ldr	r2, [r3, r2]
10003aa0:	b510      	push	{r4, lr}
10003aa2:	2a00      	cmp	r2, #0
10003aa4:	d003      	beq.n	10003aae <vTaskYieldWithinAPI+0x1a>
10003aa6:	2101      	movs	r1, #1
10003aa8:	4a03      	ldr	r2, [pc, #12]	; (10003ab8 <vTaskYieldWithinAPI+0x24>)
10003aaa:	5099      	str	r1, [r3, r2]
10003aac:	bd10      	pop	{r4, pc}
10003aae:	f7fd fbf9 	bl	100012a4 <vPortYield>
10003ab2:	e7fb      	b.n	10003aac <vTaskYieldWithinAPI+0x18>
10003ab4:	20020a38 	.word	0x20020a38
10003ab8:	20020b24 	.word	0x20020b24

10003abc <vTaskEnterCritical>:
10003abc:	b570      	push	{r4, r5, r6, lr}
10003abe:	b672      	cpsid	i
10003ac0:	4b2d      	ldr	r3, [pc, #180]	; (10003b78 <vTaskEnterCritical+0xbc>)
10003ac2:	681b      	ldr	r3, [r3, #0]
10003ac4:	2b00      	cmp	r3, #0
10003ac6:	d010      	beq.n	10003aea <vTaskEnterCritical+0x2e>
10003ac8:	23d0      	movs	r3, #208	; 0xd0
10003aca:	061b      	lsls	r3, r3, #24
10003acc:	6818      	ldr	r0, [r3, #0]
10003ace:	4a2b      	ldr	r2, [pc, #172]	; (10003b7c <vTaskEnterCritical+0xc0>)
10003ad0:	0081      	lsls	r1, r0, #2
10003ad2:	5853      	ldr	r3, [r2, r1]
10003ad4:	2b00      	cmp	r3, #0
10003ad6:	d010      	beq.n	10003afa <vTaskEnterCritical+0x3e>
10003ad8:	3301      	adds	r3, #1
10003ada:	5053      	str	r3, [r2, r1]
10003adc:	23d0      	movs	r3, #208	; 0xd0
10003ade:	061b      	lsls	r3, r3, #24
10003ae0:	681b      	ldr	r3, [r3, #0]
10003ae2:	009b      	lsls	r3, r3, #2
10003ae4:	58d3      	ldr	r3, [r2, r3]
10003ae6:	2b01      	cmp	r3, #1
10003ae8:	d000      	beq.n	10003aec <vTaskEnterCritical+0x30>
10003aea:	bd70      	pop	{r4, r5, r6, pc}
10003aec:	4b24      	ldr	r3, [pc, #144]	; (10003b80 <vTaskEnterCritical+0xc4>)
10003aee:	681b      	ldr	r3, [r3, #0]
10003af0:	2b00      	cmp	r3, #0
10003af2:	d1fa      	bne.n	10003aea <vTaskEnterCritical+0x2e>
10003af4:	f7fe fd7e 	bl	100025f4 <prvCheckForRunStateChange>
10003af8:	e7f7      	b.n	10003aea <vTaskEnterCritical+0x2e>
10003afa:	4922      	ldr	r1, [pc, #136]	; (10003b84 <vTaskEnterCritical+0xc8>)
10003afc:	680b      	ldr	r3, [r1, #0]
10003afe:	2b00      	cmp	r3, #0
10003b00:	d01e      	beq.n	10003b40 <vTaskEnterCritical+0x84>
10003b02:	4b21      	ldr	r3, [pc, #132]	; (10003b88 <vTaskEnterCritical+0xcc>)
10003b04:	f3bf 8f5f 	dmb	sy
10003b08:	2101      	movs	r1, #1
10003b0a:	2502      	movs	r5, #2
10003b0c:	4c1f      	ldr	r4, [pc, #124]	; (10003b8c <vTaskEnterCritical+0xd0>)
10003b0e:	7061      	strb	r1, [r4, #1]
10003b10:	5c19      	ldrb	r1, [r3, r0]
10003b12:	4329      	orrs	r1, r5
10003b14:	5419      	strb	r1, [r3, r0]
10003b16:	25d0      	movs	r5, #208	; 0xd0
10003b18:	491d      	ldr	r1, [pc, #116]	; (10003b90 <vTaskEnterCritical+0xd4>)
10003b1a:	062d      	lsls	r5, r5, #24
10003b1c:	680e      	ldr	r6, [r1, #0]
10003b1e:	6828      	ldr	r0, [r5, #0]
10003b20:	2e00      	cmp	r6, #0
10003b22:	d015      	beq.n	10003b50 <vTaskEnterCritical+0x94>
10003b24:	f3bf 8f5f 	dmb	sy
10003b28:	2101      	movs	r1, #1
10003b2a:	7021      	strb	r1, [r4, #0]
10003b2c:	2401      	movs	r4, #1
10003b2e:	5c19      	ldrb	r1, [r3, r0]
10003b30:	4321      	orrs	r1, r4
10003b32:	5419      	strb	r1, [r3, r0]
10003b34:	23d0      	movs	r3, #208	; 0xd0
10003b36:	061b      	lsls	r3, r3, #24
10003b38:	6818      	ldr	r0, [r3, #0]
10003b3a:	0081      	lsls	r1, r0, #2
10003b3c:	5853      	ldr	r3, [r2, r1]
10003b3e:	e7cb      	b.n	10003ad8 <vTaskEnterCritical+0x1c>
10003b40:	4b11      	ldr	r3, [pc, #68]	; (10003b88 <vTaskEnterCritical+0xcc>)
10003b42:	5c1c      	ldrb	r4, [r3, r0]
10003b44:	07a4      	lsls	r4, r4, #30
10003b46:	d40a      	bmi.n	10003b5e <vTaskEnterCritical+0xa2>
10003b48:	680c      	ldr	r4, [r1, #0]
10003b4a:	2c00      	cmp	r4, #0
10003b4c:	d1da      	bne.n	10003b04 <vTaskEnterCritical+0x48>
10003b4e:	e7fb      	b.n	10003b48 <vTaskEnterCritical+0x8c>
10003b50:	5c1e      	ldrb	r6, [r3, r0]
10003b52:	07f6      	lsls	r6, r6, #31
10003b54:	d408      	bmi.n	10003b68 <vTaskEnterCritical+0xac>
10003b56:	680d      	ldr	r5, [r1, #0]
10003b58:	2d00      	cmp	r5, #0
10003b5a:	d1e3      	bne.n	10003b24 <vTaskEnterCritical+0x68>
10003b5c:	e7fb      	b.n	10003b56 <vTaskEnterCritical+0x9a>
10003b5e:	4c0b      	ldr	r4, [pc, #44]	; (10003b8c <vTaskEnterCritical+0xd0>)
10003b60:	7861      	ldrb	r1, [r4, #1]
10003b62:	3101      	adds	r1, #1
10003b64:	7061      	strb	r1, [r4, #1]
10003b66:	e7d6      	b.n	10003b16 <vTaskEnterCritical+0x5a>
10003b68:	7823      	ldrb	r3, [r4, #0]
10003b6a:	3301      	adds	r3, #1
10003b6c:	7023      	strb	r3, [r4, #0]
10003b6e:	6828      	ldr	r0, [r5, #0]
10003b70:	0081      	lsls	r1, r0, #2
10003b72:	5853      	ldr	r3, [r2, r1]
10003b74:	e7b0      	b.n	10003ad8 <vTaskEnterCritical+0x1c>
10003b76:	46c0      	nop			; (mov r8, r8)
10003b78:	20020ae4 	.word	0x20020ae4
10003b7c:	20020a38 	.word	0x20020a38
10003b80:	20020a48 	.word	0x20020a48
10003b84:	d000013c 	.word	0xd000013c
10003b88:	20020a28 	.word	0x20020a28
10003b8c:	20020a2c 	.word	0x20020a2c
10003b90:	d0000138 	.word	0xd0000138

10003b94 <prvAddNewTaskToReadyList>:
10003b94:	b5f0      	push	{r4, r5, r6, r7, lr}
10003b96:	46c6      	mov	lr, r8
10003b98:	b500      	push	{lr}
10003b9a:	0005      	movs	r5, r0
10003b9c:	f7ff ff8e 	bl	10003abc <vTaskEnterCritical>
10003ba0:	4a2d      	ldr	r2, [pc, #180]	; (10003c58 <prvAddNewTaskToReadyList+0xc4>)
10003ba2:	4f2e      	ldr	r7, [pc, #184]	; (10003c5c <prvAddNewTaskToReadyList+0xc8>)
10003ba4:	6813      	ldr	r3, [r2, #0]
10003ba6:	3301      	adds	r3, #1
10003ba8:	6013      	str	r3, [r2, #0]
10003baa:	683b      	ldr	r3, [r7, #0]
10003bac:	2b00      	cmp	r3, #0
10003bae:	d027      	beq.n	10003c00 <prvAddNewTaskToReadyList+0x6c>
10003bb0:	4e2b      	ldr	r6, [pc, #172]	; (10003c60 <prvAddNewTaskToReadyList+0xcc>)
10003bb2:	4a2c      	ldr	r2, [pc, #176]	; (10003c64 <prvAddNewTaskToReadyList+0xd0>)
10003bb4:	6813      	ldr	r3, [r2, #0]
10003bb6:	3301      	adds	r3, #1
10003bb8:	6013      	str	r3, [r2, #0]
10003bba:	652b      	str	r3, [r5, #80]	; 0x50
10003bbc:	4b2a      	ldr	r3, [pc, #168]	; (10003c68 <prvAddNewTaskToReadyList+0xd4>)
10003bbe:	6b2a      	ldr	r2, [r5, #48]	; 0x30
10003bc0:	6819      	ldr	r1, [r3, #0]
10003bc2:	428a      	cmp	r2, r1
10003bc4:	d900      	bls.n	10003bc8 <prvAddNewTaskToReadyList+0x34>
10003bc6:	601a      	str	r2, [r3, #0]
10003bc8:	0093      	lsls	r3, r2, #2
10003bca:	189b      	adds	r3, r3, r2
10003bcc:	009b      	lsls	r3, r3, #2
10003bce:	18f0      	adds	r0, r6, r3
10003bd0:	6842      	ldr	r2, [r0, #4]
10003bd2:	6891      	ldr	r1, [r2, #8]
10003bd4:	60ea      	str	r2, [r5, #12]
10003bd6:	6129      	str	r1, [r5, #16]
10003bd8:	0029      	movs	r1, r5
10003bda:	6894      	ldr	r4, [r2, #8]
10003bdc:	3108      	adds	r1, #8
10003bde:	6061      	str	r1, [r4, #4]
10003be0:	6091      	str	r1, [r2, #8]
10003be2:	58f2      	ldr	r2, [r6, r3]
10003be4:	61a8      	str	r0, [r5, #24]
10003be6:	3201      	adds	r2, #1
10003be8:	50f2      	str	r2, [r6, r3]
10003bea:	683b      	ldr	r3, [r7, #0]
10003bec:	2b00      	cmp	r3, #0
10003bee:	d12e      	bne.n	10003c4e <prvAddNewTaskToReadyList+0xba>
10003bf0:	683b      	ldr	r3, [r7, #0]
10003bf2:	2b00      	cmp	r3, #0
10003bf4:	d001      	beq.n	10003bfa <prvAddNewTaskToReadyList+0x66>
10003bf6:	f7fe fcb3 	bl	10002560 <vTaskExitCritical.part.0>
10003bfa:	bc80      	pop	{r7}
10003bfc:	46b8      	mov	r8, r7
10003bfe:	bdf0      	pop	{r4, r5, r6, r7, pc}
10003c00:	6813      	ldr	r3, [r2, #0]
10003c02:	4e17      	ldr	r6, [pc, #92]	; (10003c60 <prvAddNewTaskToReadyList+0xcc>)
10003c04:	2b01      	cmp	r3, #1
10003c06:	d1d4      	bne.n	10003bb2 <prvAddNewTaskToReadyList+0x1e>
10003c08:	23a0      	movs	r3, #160	; 0xa0
10003c0a:	009b      	lsls	r3, r3, #2
10003c0c:	4698      	mov	r8, r3
10003c0e:	0034      	movs	r4, r6
10003c10:	44b0      	add	r8, r6
10003c12:	0020      	movs	r0, r4
10003c14:	3414      	adds	r4, #20
10003c16:	f7fd fdd3 	bl	100017c0 <vListInitialise>
10003c1a:	4544      	cmp	r4, r8
10003c1c:	d1f9      	bne.n	10003c12 <prvAddNewTaskToReadyList+0x7e>
10003c1e:	4b13      	ldr	r3, [pc, #76]	; (10003c6c <prvAddNewTaskToReadyList+0xd8>)
10003c20:	4698      	mov	r8, r3
10003c22:	0018      	movs	r0, r3
10003c24:	f7fd fdcc 	bl	100017c0 <vListInitialise>
10003c28:	4c11      	ldr	r4, [pc, #68]	; (10003c70 <prvAddNewTaskToReadyList+0xdc>)
10003c2a:	0020      	movs	r0, r4
10003c2c:	f7fd fdc8 	bl	100017c0 <vListInitialise>
10003c30:	4810      	ldr	r0, [pc, #64]	; (10003c74 <prvAddNewTaskToReadyList+0xe0>)
10003c32:	f7fd fdc5 	bl	100017c0 <vListInitialise>
10003c36:	4810      	ldr	r0, [pc, #64]	; (10003c78 <prvAddNewTaskToReadyList+0xe4>)
10003c38:	f7fd fdc2 	bl	100017c0 <vListInitialise>
10003c3c:	480f      	ldr	r0, [pc, #60]	; (10003c7c <prvAddNewTaskToReadyList+0xe8>)
10003c3e:	f7fd fdbf 	bl	100017c0 <vListInitialise>
10003c42:	4642      	mov	r2, r8
10003c44:	4b0e      	ldr	r3, [pc, #56]	; (10003c80 <prvAddNewTaskToReadyList+0xec>)
10003c46:	601a      	str	r2, [r3, #0]
10003c48:	4b0e      	ldr	r3, [pc, #56]	; (10003c84 <prvAddNewTaskToReadyList+0xf0>)
10003c4a:	601c      	str	r4, [r3, #0]
10003c4c:	e7b1      	b.n	10003bb2 <prvAddNewTaskToReadyList+0x1e>
10003c4e:	0028      	movs	r0, r5
10003c50:	f7fe fb84 	bl	1000235c <prvYieldForTask>
10003c54:	e7cc      	b.n	10003bf0 <prvAddNewTaskToReadyList+0x5c>
10003c56:	46c0      	nop			; (mov r8, r8)
10003c58:	20020a40 	.word	0x20020a40
10003c5c:	20020ae4 	.word	0x20020ae4
10003c60:	20000790 	.word	0x20000790
10003c64:	20020a4c 	.word	0x20020a4c
10003c68:	20020a50 	.word	0x20020a50
10003c6c:	20020a7c 	.word	0x20020a7c
10003c70:	20020a90 	.word	0x20020a90
10003c74:	20020ad0 	.word	0x20020ad0
10003c78:	20020b04 	.word	0x20020b04
10003c7c:	20020af0 	.word	0x20020af0
10003c80:	20000780 	.word	0x20000780
10003c84:	20000788 	.word	0x20000788

10003c88 <xTaskCreate>:
10003c88:	b5f8      	push	{r3, r4, r5, r6, r7, lr}
10003c8a:	46ce      	mov	lr, r9
10003c8c:	4647      	mov	r7, r8
10003c8e:	0096      	lsls	r6, r2, #2
10003c90:	b580      	push	{r7, lr}
10003c92:	4680      	mov	r8, r0
10003c94:	0030      	movs	r0, r6
10003c96:	000d      	movs	r5, r1
10003c98:	4699      	mov	r9, r3
10003c9a:	f7fd f997 	bl	10000fcc <pvPortMalloc>
10003c9e:	1e07      	subs	r7, r0, #0
10003ca0:	d100      	bne.n	10003ca4 <xTaskCreate+0x1c>
10003ca2:	e0ac      	b.n	10003dfe <xTaskCreate+0x176>
10003ca4:	207c      	movs	r0, #124	; 0x7c
10003ca6:	f7fd f991 	bl	10000fcc <pvPortMalloc>
10003caa:	1e04      	subs	r4, r0, #0
10003cac:	d100      	bne.n	10003cb0 <xTaskCreate+0x28>
10003cae:	e0a9      	b.n	10003e04 <xTaskCreate+0x17c>
10003cb0:	227c      	movs	r2, #124	; 0x7c
10003cb2:	2100      	movs	r1, #0
10003cb4:	f003 fa2e 	bl	10007114 <__wrap_memset>
10003cb8:	0032      	movs	r2, r6
10003cba:	21a5      	movs	r1, #165	; 0xa5
10003cbc:	0038      	movs	r0, r7
10003cbe:	6367      	str	r7, [r4, #52]	; 0x34
10003cc0:	f003 fa28 	bl	10007114 <__wrap_memset>
10003cc4:	6b63      	ldr	r3, [r4, #52]	; 0x34
10003cc6:	3e04      	subs	r6, #4
10003cc8:	469c      	mov	ip, r3
10003cca:	2307      	movs	r3, #7
10003ccc:	4466      	add	r6, ip
10003cce:	439e      	bics	r6, r3
10003cd0:	2d00      	cmp	r5, #0
10003cd2:	d05f      	beq.n	10003d94 <xTaskCreate+0x10c>
10003cd4:	2340      	movs	r3, #64	; 0x40
10003cd6:	782a      	ldrb	r2, [r5, #0]
10003cd8:	54e2      	strb	r2, [r4, r3]
10003cda:	782b      	ldrb	r3, [r5, #0]
10003cdc:	2b00      	cmp	r3, #0
10003cde:	d056      	beq.n	10003d8e <xTaskCreate+0x106>
10003ce0:	2341      	movs	r3, #65	; 0x41
10003ce2:	786a      	ldrb	r2, [r5, #1]
10003ce4:	54e2      	strb	r2, [r4, r3]
10003ce6:	786b      	ldrb	r3, [r5, #1]
10003ce8:	2b00      	cmp	r3, #0
10003cea:	d050      	beq.n	10003d8e <xTaskCreate+0x106>
10003cec:	2342      	movs	r3, #66	; 0x42
10003cee:	78aa      	ldrb	r2, [r5, #2]
10003cf0:	54e2      	strb	r2, [r4, r3]
10003cf2:	78ab      	ldrb	r3, [r5, #2]
10003cf4:	2b00      	cmp	r3, #0
10003cf6:	d04a      	beq.n	10003d8e <xTaskCreate+0x106>
10003cf8:	2343      	movs	r3, #67	; 0x43
10003cfa:	78ea      	ldrb	r2, [r5, #3]
10003cfc:	54e2      	strb	r2, [r4, r3]
10003cfe:	78eb      	ldrb	r3, [r5, #3]
10003d00:	2b00      	cmp	r3, #0
10003d02:	d044      	beq.n	10003d8e <xTaskCreate+0x106>
10003d04:	2344      	movs	r3, #68	; 0x44
10003d06:	792a      	ldrb	r2, [r5, #4]
10003d08:	54e2      	strb	r2, [r4, r3]
10003d0a:	792b      	ldrb	r3, [r5, #4]
10003d0c:	2b00      	cmp	r3, #0
10003d0e:	d03e      	beq.n	10003d8e <xTaskCreate+0x106>
10003d10:	2345      	movs	r3, #69	; 0x45
10003d12:	796a      	ldrb	r2, [r5, #5]
10003d14:	54e2      	strb	r2, [r4, r3]
10003d16:	796b      	ldrb	r3, [r5, #5]
10003d18:	2b00      	cmp	r3, #0
10003d1a:	d038      	beq.n	10003d8e <xTaskCreate+0x106>
10003d1c:	2346      	movs	r3, #70	; 0x46
10003d1e:	79aa      	ldrb	r2, [r5, #6]
10003d20:	54e2      	strb	r2, [r4, r3]
10003d22:	79ab      	ldrb	r3, [r5, #6]
10003d24:	2b00      	cmp	r3, #0
10003d26:	d032      	beq.n	10003d8e <xTaskCreate+0x106>
10003d28:	2347      	movs	r3, #71	; 0x47
10003d2a:	79ea      	ldrb	r2, [r5, #7]
10003d2c:	54e2      	strb	r2, [r4, r3]
10003d2e:	79eb      	ldrb	r3, [r5, #7]
10003d30:	2b00      	cmp	r3, #0
10003d32:	d02c      	beq.n	10003d8e <xTaskCreate+0x106>
10003d34:	2348      	movs	r3, #72	; 0x48
10003d36:	7a2a      	ldrb	r2, [r5, #8]
10003d38:	54e2      	strb	r2, [r4, r3]
10003d3a:	7a2b      	ldrb	r3, [r5, #8]
10003d3c:	2b00      	cmp	r3, #0
10003d3e:	d026      	beq.n	10003d8e <xTaskCreate+0x106>
10003d40:	2349      	movs	r3, #73	; 0x49
10003d42:	7a6a      	ldrb	r2, [r5, #9]
10003d44:	54e2      	strb	r2, [r4, r3]
10003d46:	7a6b      	ldrb	r3, [r5, #9]
10003d48:	2b00      	cmp	r3, #0
10003d4a:	d020      	beq.n	10003d8e <xTaskCreate+0x106>
10003d4c:	234a      	movs	r3, #74	; 0x4a
10003d4e:	7aaa      	ldrb	r2, [r5, #10]
10003d50:	54e2      	strb	r2, [r4, r3]
10003d52:	7aab      	ldrb	r3, [r5, #10]
10003d54:	2b00      	cmp	r3, #0
10003d56:	d01a      	beq.n	10003d8e <xTaskCreate+0x106>
10003d58:	234b      	movs	r3, #75	; 0x4b
10003d5a:	7aea      	ldrb	r2, [r5, #11]
10003d5c:	54e2      	strb	r2, [r4, r3]
10003d5e:	7aeb      	ldrb	r3, [r5, #11]
10003d60:	2b00      	cmp	r3, #0
10003d62:	d014      	beq.n	10003d8e <xTaskCreate+0x106>
10003d64:	234c      	movs	r3, #76	; 0x4c
10003d66:	7b2a      	ldrb	r2, [r5, #12]
10003d68:	54e2      	strb	r2, [r4, r3]
10003d6a:	7b2b      	ldrb	r3, [r5, #12]
10003d6c:	2b00      	cmp	r3, #0
10003d6e:	d00e      	beq.n	10003d8e <xTaskCreate+0x106>
10003d70:	234d      	movs	r3, #77	; 0x4d
10003d72:	7b6a      	ldrb	r2, [r5, #13]
10003d74:	54e2      	strb	r2, [r4, r3]
10003d76:	7b6b      	ldrb	r3, [r5, #13]
10003d78:	2b00      	cmp	r3, #0
10003d7a:	d008      	beq.n	10003d8e <xTaskCreate+0x106>
10003d7c:	234e      	movs	r3, #78	; 0x4e
10003d7e:	7baa      	ldrb	r2, [r5, #14]
10003d80:	54e2      	strb	r2, [r4, r3]
10003d82:	7bab      	ldrb	r3, [r5, #14]
10003d84:	2b00      	cmp	r3, #0
10003d86:	d002      	beq.n	10003d8e <xTaskCreate+0x106>
10003d88:	234f      	movs	r3, #79	; 0x4f
10003d8a:	7bea      	ldrb	r2, [r5, #15]
10003d8c:	54e2      	strb	r2, [r4, r3]
10003d8e:	234f      	movs	r3, #79	; 0x4f
10003d90:	2200      	movs	r2, #0
10003d92:	54e2      	strb	r2, [r4, r3]
10003d94:	9d08      	ldr	r5, [sp, #32]
10003d96:	2d1f      	cmp	r5, #31
10003d98:	d83a      	bhi.n	10003e10 <xTaskCreate+0x188>
10003d9a:	0020      	movs	r0, r4
10003d9c:	6325      	str	r5, [r4, #48]	; 0x30
10003d9e:	65a5      	str	r5, [r4, #88]	; 0x58
10003da0:	3008      	adds	r0, #8
10003da2:	f7fd fd19 	bl	100017d8 <vListInitialiseItem>
10003da6:	0020      	movs	r0, r4
10003da8:	301c      	adds	r0, #28
10003daa:	f7fd fd15 	bl	100017d8 <vListInitialiseItem>
10003dae:	2320      	movs	r3, #32
10003db0:	1b5d      	subs	r5, r3, r5
10003db2:	464a      	mov	r2, r9
10003db4:	4641      	mov	r1, r8
10003db6:	0030      	movs	r0, r6
10003db8:	6164      	str	r4, [r4, #20]
10003dba:	61e5      	str	r5, [r4, #28]
10003dbc:	62a4      	str	r4, [r4, #40]	; 0x28
10003dbe:	f7fd fa61 	bl	10001284 <pxPortInitialiseStack>
10003dc2:	2301      	movs	r3, #1
10003dc4:	425b      	negs	r3, r3
10003dc6:	63a3      	str	r3, [r4, #56]	; 0x38
10003dc8:	4b12      	ldr	r3, [pc, #72]	; (10003e14 <xTaskCreate+0x18c>)
10003dca:	6020      	str	r0, [r4, #0]
10003dcc:	4598      	cmp	r8, r3
10003dce:	d011      	beq.n	10003df4 <xTaskCreate+0x16c>
10003dd0:	4b11      	ldr	r3, [pc, #68]	; (10003e18 <xTaskCreate+0x190>)
10003dd2:	4598      	cmp	r8, r3
10003dd4:	d00e      	beq.n	10003df4 <xTaskCreate+0x16c>
10003dd6:	9b09      	ldr	r3, [sp, #36]	; 0x24
10003dd8:	2b00      	cmp	r3, #0
10003dda:	d000      	beq.n	10003dde <xTaskCreate+0x156>
10003ddc:	601c      	str	r4, [r3, #0]
10003dde:	2301      	movs	r3, #1
10003de0:	425b      	negs	r3, r3
10003de2:	0020      	movs	r0, r4
10003de4:	6063      	str	r3, [r4, #4]
10003de6:	f7ff fed5 	bl	10003b94 <prvAddNewTaskToReadyList>
10003dea:	2001      	movs	r0, #1
10003dec:	bcc0      	pop	{r6, r7}
10003dee:	46b9      	mov	r9, r7
10003df0:	46b0      	mov	r8, r6
10003df2:	bdf8      	pop	{r3, r4, r5, r6, r7, pc}
10003df4:	2301      	movs	r3, #1
10003df6:	6be2      	ldr	r2, [r4, #60]	; 0x3c
10003df8:	4313      	orrs	r3, r2
10003dfa:	63e3      	str	r3, [r4, #60]	; 0x3c
10003dfc:	e7eb      	b.n	10003dd6 <xTaskCreate+0x14e>
10003dfe:	2001      	movs	r0, #1
10003e00:	4240      	negs	r0, r0
10003e02:	e7f3      	b.n	10003dec <xTaskCreate+0x164>
10003e04:	0038      	movs	r0, r7
10003e06:	f7fd f96b 	bl	100010e0 <vPortFree>
10003e0a:	2001      	movs	r0, #1
10003e0c:	4240      	negs	r0, r0
10003e0e:	e7ed      	b.n	10003dec <xTaskCreate+0x164>
10003e10:	251f      	movs	r5, #31
10003e12:	e7c2      	b.n	10003d9a <xTaskCreate+0x112>
10003e14:	100029fd 	.word	0x100029fd
10003e18:	1000233d 	.word	0x1000233d

10003e1c <xTaskCreateAffinitySet>:
10003e1c:	b5f8      	push	{r3, r4, r5, r6, r7, lr}
10003e1e:	46ce      	mov	lr, r9
10003e20:	4647      	mov	r7, r8
10003e22:	0096      	lsls	r6, r2, #2
10003e24:	b580      	push	{r7, lr}
10003e26:	4680      	mov	r8, r0
10003e28:	0030      	movs	r0, r6
10003e2a:	000d      	movs	r5, r1
10003e2c:	4699      	mov	r9, r3
10003e2e:	f7fd f8cd 	bl	10000fcc <pvPortMalloc>
10003e32:	1e07      	subs	r7, r0, #0
10003e34:	d100      	bne.n	10003e38 <xTaskCreateAffinitySet+0x1c>
10003e36:	e0ab      	b.n	10003f90 <xTaskCreateAffinitySet+0x174>
10003e38:	207c      	movs	r0, #124	; 0x7c
10003e3a:	f7fd f8c7 	bl	10000fcc <pvPortMalloc>
10003e3e:	1e04      	subs	r4, r0, #0
10003e40:	d100      	bne.n	10003e44 <xTaskCreateAffinitySet+0x28>
10003e42:	e0a8      	b.n	10003f96 <xTaskCreateAffinitySet+0x17a>
10003e44:	227c      	movs	r2, #124	; 0x7c
10003e46:	2100      	movs	r1, #0
10003e48:	f003 f964 	bl	10007114 <__wrap_memset>
10003e4c:	0032      	movs	r2, r6
10003e4e:	21a5      	movs	r1, #165	; 0xa5
10003e50:	0038      	movs	r0, r7
10003e52:	6367      	str	r7, [r4, #52]	; 0x34
10003e54:	f003 f95e 	bl	10007114 <__wrap_memset>
10003e58:	6b63      	ldr	r3, [r4, #52]	; 0x34
10003e5a:	3e04      	subs	r6, #4
10003e5c:	469c      	mov	ip, r3
10003e5e:	2307      	movs	r3, #7
10003e60:	4466      	add	r6, ip
10003e62:	439e      	bics	r6, r3
10003e64:	2d00      	cmp	r5, #0
10003e66:	d05f      	beq.n	10003f28 <xTaskCreateAffinitySet+0x10c>
10003e68:	2340      	movs	r3, #64	; 0x40
10003e6a:	782a      	ldrb	r2, [r5, #0]
10003e6c:	54e2      	strb	r2, [r4, r3]
10003e6e:	782b      	ldrb	r3, [r5, #0]
10003e70:	2b00      	cmp	r3, #0
10003e72:	d056      	beq.n	10003f22 <xTaskCreateAffinitySet+0x106>
10003e74:	2341      	movs	r3, #65	; 0x41
10003e76:	786a      	ldrb	r2, [r5, #1]
10003e78:	54e2      	strb	r2, [r4, r3]
10003e7a:	786b      	ldrb	r3, [r5, #1]
10003e7c:	2b00      	cmp	r3, #0
10003e7e:	d050      	beq.n	10003f22 <xTaskCreateAffinitySet+0x106>
10003e80:	2342      	movs	r3, #66	; 0x42
10003e82:	78aa      	ldrb	r2, [r5, #2]
10003e84:	54e2      	strb	r2, [r4, r3]
10003e86:	78ab      	ldrb	r3, [r5, #2]
10003e88:	2b00      	cmp	r3, #0
10003e8a:	d04a      	beq.n	10003f22 <xTaskCreateAffinitySet+0x106>
10003e8c:	2343      	movs	r3, #67	; 0x43
10003e8e:	78ea      	ldrb	r2, [r5, #3]
10003e90:	54e2      	strb	r2, [r4, r3]
10003e92:	78eb      	ldrb	r3, [r5, #3]
10003e94:	2b00      	cmp	r3, #0
10003e96:	d044      	beq.n	10003f22 <xTaskCreateAffinitySet+0x106>
10003e98:	2344      	movs	r3, #68	; 0x44
10003e9a:	792a      	ldrb	r2, [r5, #4]
10003e9c:	54e2      	strb	r2, [r4, r3]
10003e9e:	792b      	ldrb	r3, [r5, #4]
10003ea0:	2b00      	cmp	r3, #0
10003ea2:	d03e      	beq.n	10003f22 <xTaskCreateAffinitySet+0x106>
10003ea4:	2345      	movs	r3, #69	; 0x45
10003ea6:	796a      	ldrb	r2, [r5, #5]
10003ea8:	54e2      	strb	r2, [r4, r3]
10003eaa:	796b      	ldrb	r3, [r5, #5]
10003eac:	2b00      	cmp	r3, #0
10003eae:	d038      	beq.n	10003f22 <xTaskCreateAffinitySet+0x106>
10003eb0:	2346      	movs	r3, #70	; 0x46
10003eb2:	79aa      	ldrb	r2, [r5, #6]
10003eb4:	54e2      	strb	r2, [r4, r3]
10003eb6:	79ab      	ldrb	r3, [r5, #6]
10003eb8:	2b00      	cmp	r3, #0
10003eba:	d032      	beq.n	10003f22 <xTaskCreateAffinitySet+0x106>
10003ebc:	2347      	movs	r3, #71	; 0x47
10003ebe:	79ea      	ldrb	r2, [r5, #7]
10003ec0:	54e2      	strb	r2, [r4, r3]
10003ec2:	79eb      	ldrb	r3, [r5, #7]
10003ec4:	2b00      	cmp	r3, #0
10003ec6:	d02c      	beq.n	10003f22 <xTaskCreateAffinitySet+0x106>
10003ec8:	2348      	movs	r3, #72	; 0x48
10003eca:	7a2a      	ldrb	r2, [r5, #8]
10003ecc:	54e2      	strb	r2, [r4, r3]
10003ece:	7a2b      	ldrb	r3, [r5, #8]
10003ed0:	2b00      	cmp	r3, #0
10003ed2:	d026      	beq.n	10003f22 <xTaskCreateAffinitySet+0x106>
10003ed4:	2349      	movs	r3, #73	; 0x49
10003ed6:	7a6a      	ldrb	r2, [r5, #9]
10003ed8:	54e2      	strb	r2, [r4, r3]
10003eda:	7a6b      	ldrb	r3, [r5, #9]
10003edc:	2b00      	cmp	r3, #0
10003ede:	d020      	beq.n	10003f22 <xTaskCreateAffinitySet+0x106>
10003ee0:	234a      	movs	r3, #74	; 0x4a
10003ee2:	7aaa      	ldrb	r2, [r5, #10]
10003ee4:	54e2      	strb	r2, [r4, r3]
10003ee6:	7aab      	ldrb	r3, [r5, #10]
10003ee8:	2b00      	cmp	r3, #0
10003eea:	d01a      	beq.n	10003f22 <xTaskCreateAffinitySet+0x106>
10003eec:	234b      	movs	r3, #75	; 0x4b
10003eee:	7aea      	ldrb	r2, [r5, #11]
10003ef0:	54e2      	strb	r2, [r4, r3]
10003ef2:	7aeb      	ldrb	r3, [r5, #11]
10003ef4:	2b00      	cmp	r3, #0
10003ef6:	d014      	beq.n	10003f22 <xTaskCreateAffinitySet+0x106>
10003ef8:	234c      	movs	r3, #76	; 0x4c
10003efa:	7b2a      	ldrb	r2, [r5, #12]
10003efc:	54e2      	strb	r2, [r4, r3]
10003efe:	7b2b      	ldrb	r3, [r5, #12]
10003f00:	2b00      	cmp	r3, #0
10003f02:	d00e      	beq.n	10003f22 <xTaskCreateAffinitySet+0x106>
10003f04:	234d      	movs	r3, #77	; 0x4d
10003f06:	7b6a      	ldrb	r2, [r5, #13]
10003f08:	54e2      	strb	r2, [r4, r3]
10003f0a:	7b6b      	ldrb	r3, [r5, #13]
10003f0c:	2b00      	cmp	r3, #0
10003f0e:	d008      	beq.n	10003f22 <xTaskCreateAffinitySet+0x106>
10003f10:	234e      	movs	r3, #78	; 0x4e
10003f12:	7baa      	ldrb	r2, [r5, #14]
10003f14:	54e2      	strb	r2, [r4, r3]
10003f16:	7bab      	ldrb	r3, [r5, #14]
10003f18:	2b00      	cmp	r3, #0
10003f1a:	d002      	beq.n	10003f22 <xTaskCreateAffinitySet+0x106>
10003f1c:	234f      	movs	r3, #79	; 0x4f
10003f1e:	7bea      	ldrb	r2, [r5, #15]
10003f20:	54e2      	strb	r2, [r4, r3]
10003f22:	234f      	movs	r3, #79	; 0x4f
10003f24:	2200      	movs	r2, #0
10003f26:	54e2      	strb	r2, [r4, r3]
10003f28:	9d08      	ldr	r5, [sp, #32]
10003f2a:	2d1f      	cmp	r5, #31
10003f2c:	d839      	bhi.n	10003fa2 <xTaskCreateAffinitySet+0x186>
10003f2e:	0020      	movs	r0, r4
10003f30:	6325      	str	r5, [r4, #48]	; 0x30
10003f32:	65a5      	str	r5, [r4, #88]	; 0x58
10003f34:	3008      	adds	r0, #8
10003f36:	f7fd fc4f 	bl	100017d8 <vListInitialiseItem>
10003f3a:	0020      	movs	r0, r4
10003f3c:	301c      	adds	r0, #28
10003f3e:	f7fd fc4b 	bl	100017d8 <vListInitialiseItem>
10003f42:	2320      	movs	r3, #32
10003f44:	1b5d      	subs	r5, r3, r5
10003f46:	464a      	mov	r2, r9
10003f48:	4641      	mov	r1, r8
10003f4a:	0030      	movs	r0, r6
10003f4c:	6164      	str	r4, [r4, #20]
10003f4e:	61e5      	str	r5, [r4, #28]
10003f50:	62a4      	str	r4, [r4, #40]	; 0x28
10003f52:	f7fd f997 	bl	10001284 <pxPortInitialiseStack>
10003f56:	2301      	movs	r3, #1
10003f58:	425b      	negs	r3, r3
10003f5a:	63a3      	str	r3, [r4, #56]	; 0x38
10003f5c:	4b12      	ldr	r3, [pc, #72]	; (10003fa8 <xTaskCreateAffinitySet+0x18c>)
10003f5e:	6020      	str	r0, [r4, #0]
10003f60:	4598      	cmp	r8, r3
10003f62:	d010      	beq.n	10003f86 <xTaskCreateAffinitySet+0x16a>
10003f64:	4b11      	ldr	r3, [pc, #68]	; (10003fac <xTaskCreateAffinitySet+0x190>)
10003f66:	4598      	cmp	r8, r3
10003f68:	d00d      	beq.n	10003f86 <xTaskCreateAffinitySet+0x16a>
10003f6a:	9b0a      	ldr	r3, [sp, #40]	; 0x28
10003f6c:	2b00      	cmp	r3, #0
10003f6e:	d000      	beq.n	10003f72 <xTaskCreateAffinitySet+0x156>
10003f70:	601c      	str	r4, [r3, #0]
10003f72:	9b09      	ldr	r3, [sp, #36]	; 0x24
10003f74:	0020      	movs	r0, r4
10003f76:	6063      	str	r3, [r4, #4]
10003f78:	f7ff fe0c 	bl	10003b94 <prvAddNewTaskToReadyList>
10003f7c:	2001      	movs	r0, #1
10003f7e:	bcc0      	pop	{r6, r7}
10003f80:	46b9      	mov	r9, r7
10003f82:	46b0      	mov	r8, r6
10003f84:	bdf8      	pop	{r3, r4, r5, r6, r7, pc}
10003f86:	2301      	movs	r3, #1
10003f88:	6be2      	ldr	r2, [r4, #60]	; 0x3c
10003f8a:	4313      	orrs	r3, r2
10003f8c:	63e3      	str	r3, [r4, #60]	; 0x3c
10003f8e:	e7ec      	b.n	10003f6a <xTaskCreateAffinitySet+0x14e>
10003f90:	2001      	movs	r0, #1
10003f92:	4240      	negs	r0, r0
10003f94:	e7f3      	b.n	10003f7e <xTaskCreateAffinitySet+0x162>
10003f96:	0038      	movs	r0, r7
10003f98:	f7fd f8a2 	bl	100010e0 <vPortFree>
10003f9c:	2001      	movs	r0, #1
10003f9e:	4240      	negs	r0, r0
10003fa0:	e7ed      	b.n	10003f7e <xTaskCreateAffinitySet+0x162>
10003fa2:	251f      	movs	r5, #31
10003fa4:	e7c3      	b.n	10003f2e <xTaskCreateAffinitySet+0x112>
10003fa6:	46c0      	nop			; (mov r8, r8)
10003fa8:	100029fd 	.word	0x100029fd
10003fac:	1000233d 	.word	0x1000233d

10003fb0 <vTaskStartScheduler>:
10003fb0:	4b48      	ldr	r3, [pc, #288]	; (100040d4 <vTaskStartScheduler+0x124>)
10003fb2:	b5f0      	push	{r4, r5, r6, r7, lr}
10003fb4:	4657      	mov	r7, sl
10003fb6:	4645      	mov	r5, r8
10003fb8:	469a      	mov	sl, r3
10003fba:	4698      	mov	r8, r3
10003fbc:	4b46      	ldr	r3, [pc, #280]	; (100040d8 <vTaskStartScheduler+0x128>)
10003fbe:	464e      	mov	r6, r9
10003fc0:	4699      	mov	r9, r3
10003fc2:	2301      	movs	r3, #1
10003fc4:	46de      	mov	lr, fp
10003fc6:	425b      	negs	r3, r3
10003fc8:	b5e0      	push	{r5, r6, r7, lr}
10003fca:	469b      	mov	fp, r3
10003fcc:	2600      	movs	r6, #0
10003fce:	4f43      	ldr	r7, [pc, #268]	; (100040dc <vTaskStartScheduler+0x12c>)
10003fd0:	b083      	sub	sp, #12
10003fd2:	2330      	movs	r3, #48	; 0x30
10003fd4:	469c      	mov	ip, r3
10003fd6:	2080      	movs	r0, #128	; 0x80
10003fd8:	44b4      	add	ip, r6
10003fda:	4663      	mov	r3, ip
10003fdc:	0100      	lsls	r0, r0, #4
10003fde:	9301      	str	r3, [sp, #4]
10003fe0:	f7fc fff4 	bl	10000fcc <pvPortMalloc>
10003fe4:	1e05      	subs	r5, r0, #0
10003fe6:	d05a      	beq.n	1000409e <vTaskStartScheduler+0xee>
10003fe8:	207c      	movs	r0, #124	; 0x7c
10003fea:	f7fc ffef 	bl	10000fcc <pvPortMalloc>
10003fee:	1e04      	subs	r4, r0, #0
10003ff0:	d058      	beq.n	100040a4 <vTaskStartScheduler+0xf4>
10003ff2:	227c      	movs	r2, #124	; 0x7c
10003ff4:	2100      	movs	r1, #0
10003ff6:	f003 f88d 	bl	10007114 <__wrap_memset>
10003ffa:	2280      	movs	r2, #128	; 0x80
10003ffc:	21a5      	movs	r1, #165	; 0xa5
10003ffe:	0028      	movs	r0, r5
10004000:	6365      	str	r5, [r4, #52]	; 0x34
10004002:	0112      	lsls	r2, r2, #4
10004004:	f003 f886 	bl	10007114 <__wrap_memset>
10004008:	4b35      	ldr	r3, [pc, #212]	; (100040e0 <vTaskStartScheduler+0x130>)
1000400a:	9a01      	ldr	r2, [sp, #4]
1000400c:	6423      	str	r3, [r4, #64]	; 0x40
1000400e:	2344      	movs	r3, #68	; 0x44
10004010:	4934      	ldr	r1, [pc, #208]	; (100040e4 <vTaskStartScheduler+0x134>)
10004012:	6b65      	ldr	r5, [r4, #52]	; 0x34
10004014:	54e2      	strb	r2, [r4, r3]
10004016:	2300      	movs	r3, #0
10004018:	2245      	movs	r2, #69	; 0x45
1000401a:	468c      	mov	ip, r1
1000401c:	0020      	movs	r0, r4
1000401e:	2107      	movs	r1, #7
10004020:	54a3      	strb	r3, [r4, r2]
10004022:	320a      	adds	r2, #10
10004024:	54a3      	strb	r3, [r4, r2]
10004026:	4465      	add	r5, ip
10004028:	6323      	str	r3, [r4, #48]	; 0x30
1000402a:	65a3      	str	r3, [r4, #88]	; 0x58
1000402c:	3008      	adds	r0, #8
1000402e:	438d      	bics	r5, r1
10004030:	f7fd fbd2 	bl	100017d8 <vListInitialiseItem>
10004034:	0020      	movs	r0, r4
10004036:	301c      	adds	r0, #28
10004038:	f7fd fbce 	bl	100017d8 <vListInitialiseItem>
1000403c:	2320      	movs	r3, #32
1000403e:	2200      	movs	r2, #0
10004040:	61e3      	str	r3, [r4, #28]
10004042:	4641      	mov	r1, r8
10004044:	0028      	movs	r0, r5
10004046:	6164      	str	r4, [r4, #20]
10004048:	62a4      	str	r4, [r4, #40]	; 0x28
1000404a:	f7fd f91b 	bl	10001284 <pxPortInitialiseStack>
1000404e:	465b      	mov	r3, fp
10004050:	6020      	str	r0, [r4, #0]
10004052:	63a3      	str	r3, [r4, #56]	; 0x38
10004054:	45d0      	cmp	r8, sl
10004056:	d01d      	beq.n	10004094 <vTaskStartScheduler+0xe4>
10004058:	45c8      	cmp	r8, r9
1000405a:	d01b      	beq.n	10004094 <vTaskStartScheduler+0xe4>
1000405c:	465b      	mov	r3, fp
1000405e:	603c      	str	r4, [r7, #0]
10004060:	0020      	movs	r0, r4
10004062:	6063      	str	r3, [r4, #4]
10004064:	f7ff fd96 	bl	10003b94 <prvAddNewTaskToReadyList>
10004068:	2101      	movs	r1, #1
1000406a:	cf08      	ldmia	r7!, {r3}
1000406c:	481e      	ldr	r0, [pc, #120]	; (100040e8 <vTaskStartScheduler+0x138>)
1000406e:	00b2      	lsls	r2, r6, #2
10004070:	639e      	str	r6, [r3, #56]	; 0x38
10004072:	46c8      	mov	r8, r9
10004074:	5083      	str	r3, [r0, r2]
10004076:	2e01      	cmp	r6, #1
10004078:	d10a      	bne.n	10004090 <vTaskStartScheduler+0xe0>
1000407a:	2901      	cmp	r1, #1
1000407c:	d018      	beq.n	100040b0 <vTaskStartScheduler+0x100>
1000407e:	4b1b      	ldr	r3, [pc, #108]	; (100040ec <vTaskStartScheduler+0x13c>)
10004080:	681b      	ldr	r3, [r3, #0]
10004082:	b003      	add	sp, #12
10004084:	bcf0      	pop	{r4, r5, r6, r7}
10004086:	46bb      	mov	fp, r7
10004088:	46b2      	mov	sl, r6
1000408a:	46a9      	mov	r9, r5
1000408c:	46a0      	mov	r8, r4
1000408e:	bdf0      	pop	{r4, r5, r6, r7, pc}
10004090:	2601      	movs	r6, #1
10004092:	e79e      	b.n	10003fd2 <vTaskStartScheduler+0x22>
10004094:	2301      	movs	r3, #1
10004096:	6be2      	ldr	r2, [r4, #60]	; 0x3c
10004098:	4313      	orrs	r3, r2
1000409a:	63e3      	str	r3, [r4, #60]	; 0x3c
1000409c:	e7de      	b.n	1000405c <vTaskStartScheduler+0xac>
1000409e:	2101      	movs	r1, #1
100040a0:	4249      	negs	r1, r1
100040a2:	e7e2      	b.n	1000406a <vTaskStartScheduler+0xba>
100040a4:	0028      	movs	r0, r5
100040a6:	f7fd f81b 	bl	100010e0 <vPortFree>
100040aa:	2101      	movs	r1, #1
100040ac:	4249      	negs	r1, r1
100040ae:	e7dc      	b.n	1000406a <vTaskStartScheduler+0xba>
100040b0:	f000 fef4 	bl	10004e9c <xTimerCreateTimerTask>
100040b4:	2801      	cmp	r0, #1
100040b6:	d1e2      	bne.n	1000407e <vTaskStartScheduler+0xce>
100040b8:	b672      	cpsid	i
100040ba:	2201      	movs	r2, #1
100040bc:	4b0c      	ldr	r3, [pc, #48]	; (100040f0 <vTaskStartScheduler+0x140>)
100040be:	4252      	negs	r2, r2
100040c0:	601a      	str	r2, [r3, #0]
100040c2:	2200      	movs	r2, #0
100040c4:	4b0b      	ldr	r3, [pc, #44]	; (100040f4 <vTaskStartScheduler+0x144>)
100040c6:	601e      	str	r6, [r3, #0]
100040c8:	4b0b      	ldr	r3, [pc, #44]	; (100040f8 <vTaskStartScheduler+0x148>)
100040ca:	601a      	str	r2, [r3, #0]
100040cc:	f7fd f98c 	bl	100013e8 <xPortStartScheduler>
100040d0:	e7d5      	b.n	1000407e <vTaskStartScheduler+0xce>
100040d2:	46c0      	nop			; (mov r8, r8)
100040d4:	100029fd 	.word	0x100029fd
100040d8:	1000233d 	.word	0x1000233d
100040dc:	20020aac 	.word	0x20020aac
100040e0:	454c4449 	.word	0x454c4449
100040e4:	000007fc 	.word	0x000007fc
100040e8:	20000774 	.word	0x20000774
100040ec:	20000254 	.word	0x20000254
100040f0:	20020abc 	.word	0x20020abc
100040f4:	20020ae4 	.word	0x20020ae4
100040f8:	20020b18 	.word	0x20020b18

100040fc <vTaskDelete>:
100040fc:	b570      	push	{r4, r5, r6, lr}
100040fe:	0004      	movs	r4, r0
10004100:	f7ff fcdc 	bl	10003abc <vTaskEnterCritical>
10004104:	2c00      	cmp	r4, #0
10004106:	d049      	beq.n	1000419c <vTaskDelete+0xa0>
10004108:	0026      	movs	r6, r4
1000410a:	3608      	adds	r6, #8
1000410c:	0030      	movs	r0, r6
1000410e:	f7fd fb8b 	bl	10001828 <uxListRemove>
10004112:	6ae3      	ldr	r3, [r4, #44]	; 0x2c
10004114:	2b00      	cmp	r3, #0
10004116:	d003      	beq.n	10004120 <vTaskDelete+0x24>
10004118:	0020      	movs	r0, r4
1000411a:	301c      	adds	r0, #28
1000411c:	f7fd fb84 	bl	10001828 <uxListRemove>
10004120:	4a39      	ldr	r2, [pc, #228]	; (10004208 <vTaskDelete+0x10c>)
10004122:	4d3a      	ldr	r5, [pc, #232]	; (1000420c <vTaskDelete+0x110>)
10004124:	6813      	ldr	r3, [r2, #0]
10004126:	3301      	adds	r3, #1
10004128:	6013      	str	r3, [r2, #0]
1000412a:	6ba3      	ldr	r3, [r4, #56]	; 0x38
1000412c:	3301      	adds	r3, #1
1000412e:	d016      	beq.n	1000415e <vTaskDelete+0x62>
10004130:	682b      	ldr	r3, [r5, #0]
10004132:	2b00      	cmp	r3, #0
10004134:	d014      	beq.n	10004160 <vTaskDelete+0x64>
10004136:	0031      	movs	r1, r6
10004138:	4835      	ldr	r0, [pc, #212]	; (10004210 <vTaskDelete+0x114>)
1000413a:	f7fd fb51 	bl	100017e0 <vListInsertEnd>
1000413e:	4a35      	ldr	r2, [pc, #212]	; (10004214 <vTaskDelete+0x118>)
10004140:	6813      	ldr	r3, [r2, #0]
10004142:	3301      	adds	r3, #1
10004144:	6013      	str	r3, [r2, #0]
10004146:	6ba3      	ldr	r3, [r4, #56]	; 0x38
10004148:	2b00      	cmp	r3, #0
1000414a:	db02      	blt.n	10004152 <vTaskDelete+0x56>
1000414c:	6ba3      	ldr	r3, [r4, #56]	; 0x38
1000414e:	2b01      	cmp	r3, #1
10004150:	dd30      	ble.n	100041b4 <vTaskDelete+0xb8>
10004152:	682b      	ldr	r3, [r5, #0]
10004154:	2b00      	cmp	r3, #0
10004156:	d01c      	beq.n	10004192 <vTaskDelete+0x96>
10004158:	f7fe fa02 	bl	10002560 <vTaskExitCritical.part.0>
1000415c:	e019      	b.n	10004192 <vTaskDelete+0x96>
1000415e:	682b      	ldr	r3, [r5, #0]
10004160:	4a2d      	ldr	r2, [pc, #180]	; (10004218 <vTaskDelete+0x11c>)
10004162:	6813      	ldr	r3, [r2, #0]
10004164:	3b01      	subs	r3, #1
10004166:	6013      	str	r3, [r2, #0]
10004168:	4b2c      	ldr	r3, [pc, #176]	; (1000421c <vTaskDelete+0x120>)
1000416a:	681a      	ldr	r2, [r3, #0]
1000416c:	6812      	ldr	r2, [r2, #0]
1000416e:	2a00      	cmp	r2, #0
10004170:	d010      	beq.n	10004194 <vTaskDelete+0x98>
10004172:	681b      	ldr	r3, [r3, #0]
10004174:	68db      	ldr	r3, [r3, #12]
10004176:	681a      	ldr	r2, [r3, #0]
10004178:	4b29      	ldr	r3, [pc, #164]	; (10004220 <vTaskDelete+0x124>)
1000417a:	601a      	str	r2, [r3, #0]
1000417c:	682b      	ldr	r3, [r5, #0]
1000417e:	2b00      	cmp	r3, #0
10004180:	d001      	beq.n	10004186 <vTaskDelete+0x8a>
10004182:	f7fe f9ed 	bl	10002560 <vTaskExitCritical.part.0>
10004186:	6b60      	ldr	r0, [r4, #52]	; 0x34
10004188:	f7fc ffaa 	bl	100010e0 <vPortFree>
1000418c:	0020      	movs	r0, r4
1000418e:	f7fc ffa7 	bl	100010e0 <vPortFree>
10004192:	bd70      	pop	{r4, r5, r6, pc}
10004194:	4b22      	ldr	r3, [pc, #136]	; (10004220 <vTaskDelete+0x124>)
10004196:	3a01      	subs	r2, #1
10004198:	601a      	str	r2, [r3, #0]
1000419a:	e7ef      	b.n	1000417c <vTaskDelete+0x80>
1000419c:	f3ef 8210 	mrs	r2, PRIMASK
100041a0:	b672      	cpsid	i
100041a2:	23d0      	movs	r3, #208	; 0xd0
100041a4:	061b      	lsls	r3, r3, #24
100041a6:	681b      	ldr	r3, [r3, #0]
100041a8:	491e      	ldr	r1, [pc, #120]	; (10004224 <vTaskDelete+0x128>)
100041aa:	009b      	lsls	r3, r3, #2
100041ac:	585c      	ldr	r4, [r3, r1]
100041ae:	f382 8810 	msr	PRIMASK, r2
100041b2:	e7a9      	b.n	10004108 <vTaskDelete+0xc>
100041b4:	22d0      	movs	r2, #208	; 0xd0
100041b6:	0612      	lsls	r2, r2, #24
100041b8:	6ba3      	ldr	r3, [r4, #56]	; 0x38
100041ba:	6812      	ldr	r2, [r2, #0]
100041bc:	4293      	cmp	r3, r2
100041be:	d013      	beq.n	100041e8 <vTaskDelete+0xec>
100041c0:	6ba3      	ldr	r3, [r4, #56]	; 0x38
100041c2:	429a      	cmp	r2, r3
100041c4:	d019      	beq.n	100041fa <vTaskDelete+0xfe>
100041c6:	6ba3      	ldr	r3, [r4, #56]	; 0x38
100041c8:	4e16      	ldr	r6, [pc, #88]	; (10004224 <vTaskDelete+0x128>)
100041ca:	009b      	lsls	r3, r3, #2
100041cc:	599b      	ldr	r3, [r3, r6]
100041ce:	6b9b      	ldr	r3, [r3, #56]	; 0x38
100041d0:	3302      	adds	r3, #2
100041d2:	d0be      	beq.n	10004152 <vTaskDelete+0x56>
100041d4:	6ba0      	ldr	r0, [r4, #56]	; 0x38
100041d6:	f7fd f891 	bl	100012fc <vYieldCore>
100041da:	2202      	movs	r2, #2
100041dc:	6ba3      	ldr	r3, [r4, #56]	; 0x38
100041de:	4252      	negs	r2, r2
100041e0:	009b      	lsls	r3, r3, #2
100041e2:	599b      	ldr	r3, [r3, r6]
100041e4:	639a      	str	r2, [r3, #56]	; 0x38
100041e6:	e7b4      	b.n	10004152 <vTaskDelete+0x56>
100041e8:	4a0f      	ldr	r2, [pc, #60]	; (10004228 <vTaskDelete+0x12c>)
100041ea:	009b      	lsls	r3, r3, #2
100041ec:	589a      	ldr	r2, [r3, r2]
100041ee:	2a00      	cmp	r2, #0
100041f0:	d006      	beq.n	10004200 <vTaskDelete+0x104>
100041f2:	2101      	movs	r1, #1
100041f4:	4a0d      	ldr	r2, [pc, #52]	; (1000422c <vTaskDelete+0x130>)
100041f6:	5099      	str	r1, [r3, r2]
100041f8:	e7ab      	b.n	10004152 <vTaskDelete+0x56>
100041fa:	6ba3      	ldr	r3, [r4, #56]	; 0x38
100041fc:	009b      	lsls	r3, r3, #2
100041fe:	e7f8      	b.n	100041f2 <vTaskDelete+0xf6>
10004200:	f7fd f850 	bl	100012a4 <vPortYield>
10004204:	e7a5      	b.n	10004152 <vTaskDelete+0x56>
10004206:	46c0      	nop			; (mov r8, r8)
10004208:	20020a4c 	.word	0x20020a4c
1000420c:	20020ae4 	.word	0x20020ae4
10004210:	20020b04 	.word	0x20020b04
10004214:	20020a44 	.word	0x20020a44
10004218:	20020a40 	.word	0x20020a40
1000421c:	20000780 	.word	0x20000780
10004220:	20020abc 	.word	0x20020abc
10004224:	20000774 	.word	0x20000774
10004228:	20020a38 	.word	0x20020a38
1000422c:	20020b24 	.word	0x20020b24

10004230 <xTaskResumeAll.part.0>:
10004230:	b5f8      	push	{r3, r4, r5, r6, r7, lr}
10004232:	46ce      	mov	lr, r9
10004234:	4647      	mov	r7, r8
10004236:	b580      	push	{r7, lr}
10004238:	f7ff fc40 	bl	10003abc <vTaskEnterCritical>
1000423c:	21d0      	movs	r1, #208	; 0xd0
1000423e:	0609      	lsls	r1, r1, #24
10004240:	680b      	ldr	r3, [r1, #0]
10004242:	4a49      	ldr	r2, [pc, #292]	; (10004368 <xTaskResumeAll.part.0+0x138>)
10004244:	4699      	mov	r9, r3
10004246:	6813      	ldr	r3, [r2, #0]
10004248:	3b01      	subs	r3, #1
1000424a:	6013      	str	r3, [r2, #0]
1000424c:	6808      	ldr	r0, [r1, #0]
1000424e:	4947      	ldr	r1, [pc, #284]	; (1000436c <xTaskResumeAll.part.0+0x13c>)
10004250:	784b      	ldrb	r3, [r1, #1]
10004252:	3b01      	subs	r3, #1
10004254:	b2db      	uxtb	r3, r3
10004256:	704b      	strb	r3, [r1, #1]
10004258:	2b00      	cmp	r3, #0
1000425a:	d109      	bne.n	10004270 <xTaskResumeAll.part.0+0x40>
1000425c:	2402      	movs	r4, #2
1000425e:	4944      	ldr	r1, [pc, #272]	; (10004370 <xTaskResumeAll.part.0+0x140>)
10004260:	5c0b      	ldrb	r3, [r1, r0]
10004262:	43a3      	bics	r3, r4
10004264:	540b      	strb	r3, [r1, r0]
10004266:	f3bf 8f5f 	dmb	sy
1000426a:	2101      	movs	r1, #1
1000426c:	4b41      	ldr	r3, [pc, #260]	; (10004374 <xTaskResumeAll.part.0+0x144>)
1000426e:	6019      	str	r1, [r3, #0]
10004270:	6813      	ldr	r3, [r2, #0]
10004272:	2400      	movs	r4, #0
10004274:	2b00      	cmp	r3, #0
10004276:	d166      	bne.n	10004346 <xTaskResumeAll.part.0+0x116>
10004278:	4b3f      	ldr	r3, [pc, #252]	; (10004378 <xTaskResumeAll.part.0+0x148>)
1000427a:	681b      	ldr	r3, [r3, #0]
1000427c:	2b00      	cmp	r3, #0
1000427e:	d062      	beq.n	10004346 <xTaskResumeAll.part.0+0x116>
10004280:	4d3e      	ldr	r5, [pc, #248]	; (1000437c <xTaskResumeAll.part.0+0x14c>)
10004282:	682b      	ldr	r3, [r5, #0]
10004284:	2b00      	cmp	r3, #0
10004286:	d048      	beq.n	1000431a <xTaskResumeAll.part.0+0xea>
10004288:	4b3d      	ldr	r3, [pc, #244]	; (10004380 <xTaskResumeAll.part.0+0x150>)
1000428a:	4c3e      	ldr	r4, [pc, #248]	; (10004384 <xTaskResumeAll.part.0+0x154>)
1000428c:	4698      	mov	r8, r3
1000428e:	2300      	movs	r3, #0
10004290:	469c      	mov	ip, r3
10004292:	e02a      	b.n	100042ea <xTaskResumeAll.part.0+0xba>
10004294:	4661      	mov	r1, ip
10004296:	62d9      	str	r1, [r3, #44]	; 0x2c
10004298:	6811      	ldr	r1, [r2, #0]
1000429a:	3901      	subs	r1, #1
1000429c:	6011      	str	r1, [r2, #0]
1000429e:	68d8      	ldr	r0, [r3, #12]
100042a0:	6919      	ldr	r1, [r3, #16]
100042a2:	699a      	ldr	r2, [r3, #24]
100042a4:	6081      	str	r1, [r0, #8]
100042a6:	6048      	str	r0, [r1, #4]
100042a8:	0018      	movs	r0, r3
100042aa:	6857      	ldr	r7, [r2, #4]
100042ac:	3008      	adds	r0, #8
100042ae:	4287      	cmp	r7, r0
100042b0:	d054      	beq.n	1000435c <xTaskResumeAll.part.0+0x12c>
100042b2:	6811      	ldr	r1, [r2, #0]
100042b4:	3901      	subs	r1, #1
100042b6:	6011      	str	r1, [r2, #0]
100042b8:	4642      	mov	r2, r8
100042ba:	6b19      	ldr	r1, [r3, #48]	; 0x30
100042bc:	6812      	ldr	r2, [r2, #0]
100042be:	4291      	cmp	r1, r2
100042c0:	d901      	bls.n	100042c6 <xTaskResumeAll.part.0+0x96>
100042c2:	4642      	mov	r2, r8
100042c4:	6011      	str	r1, [r2, #0]
100042c6:	008a      	lsls	r2, r1, #2
100042c8:	1852      	adds	r2, r2, r1
100042ca:	0092      	lsls	r2, r2, #2
100042cc:	18a7      	adds	r7, r4, r2
100042ce:	6879      	ldr	r1, [r7, #4]
100042d0:	688e      	ldr	r6, [r1, #8]
100042d2:	60d9      	str	r1, [r3, #12]
100042d4:	611e      	str	r6, [r3, #16]
100042d6:	688e      	ldr	r6, [r1, #8]
100042d8:	6070      	str	r0, [r6, #4]
100042da:	6088      	str	r0, [r1, #8]
100042dc:	619f      	str	r7, [r3, #24]
100042de:	58a3      	ldr	r3, [r4, r2]
100042e0:	3301      	adds	r3, #1
100042e2:	50a3      	str	r3, [r4, r2]
100042e4:	682b      	ldr	r3, [r5, #0]
100042e6:	2b00      	cmp	r3, #0
100042e8:	d00d      	beq.n	10004306 <xTaskResumeAll.part.0+0xd6>
100042ea:	68eb      	ldr	r3, [r5, #12]
100042ec:	68db      	ldr	r3, [r3, #12]
100042ee:	6a18      	ldr	r0, [r3, #32]
100042f0:	6a59      	ldr	r1, [r3, #36]	; 0x24
100042f2:	6ada      	ldr	r2, [r3, #44]	; 0x2c
100042f4:	6081      	str	r1, [r0, #8]
100042f6:	6048      	str	r0, [r1, #4]
100042f8:	0018      	movs	r0, r3
100042fa:	6857      	ldr	r7, [r2, #4]
100042fc:	301c      	adds	r0, #28
100042fe:	4287      	cmp	r7, r0
10004300:	d1c8      	bne.n	10004294 <xTaskResumeAll.part.0+0x64>
10004302:	6051      	str	r1, [r2, #4]
10004304:	e7c6      	b.n	10004294 <xTaskResumeAll.part.0+0x64>
10004306:	4b20      	ldr	r3, [pc, #128]	; (10004388 <xTaskResumeAll.part.0+0x158>)
10004308:	681a      	ldr	r2, [r3, #0]
1000430a:	6812      	ldr	r2, [r2, #0]
1000430c:	2a00      	cmp	r2, #0
1000430e:	d027      	beq.n	10004360 <xTaskResumeAll.part.0+0x130>
10004310:	681b      	ldr	r3, [r3, #0]
10004312:	68db      	ldr	r3, [r3, #12]
10004314:	681a      	ldr	r2, [r3, #0]
10004316:	4b1d      	ldr	r3, [pc, #116]	; (1000438c <xTaskResumeAll.part.0+0x15c>)
10004318:	601a      	str	r2, [r3, #0]
1000431a:	4b1d      	ldr	r3, [pc, #116]	; (10004390 <xTaskResumeAll.part.0+0x160>)
1000431c:	4d1d      	ldr	r5, [pc, #116]	; (10004394 <xTaskResumeAll.part.0+0x164>)
1000431e:	4698      	mov	r8, r3
10004320:	681c      	ldr	r4, [r3, #0]
10004322:	464b      	mov	r3, r9
10004324:	009f      	lsls	r7, r3, #2
10004326:	2c00      	cmp	r4, #0
10004328:	d00a      	beq.n	10004340 <xTaskResumeAll.part.0+0x110>
1000432a:	2601      	movs	r6, #1
1000432c:	f7fe fcb0 	bl	10002c90 <xTaskIncrementTick>
10004330:	2800      	cmp	r0, #0
10004332:	d000      	beq.n	10004336 <xTaskResumeAll.part.0+0x106>
10004334:	51ee      	str	r6, [r5, r7]
10004336:	3c01      	subs	r4, #1
10004338:	2c00      	cmp	r4, #0
1000433a:	d1f7      	bne.n	1000432c <xTaskResumeAll.part.0+0xfc>
1000433c:	4643      	mov	r3, r8
1000433e:	601c      	str	r4, [r3, #0]
10004340:	59ec      	ldr	r4, [r5, r7]
10004342:	1e63      	subs	r3, r4, #1
10004344:	419c      	sbcs	r4, r3
10004346:	4b14      	ldr	r3, [pc, #80]	; (10004398 <xTaskResumeAll.part.0+0x168>)
10004348:	681b      	ldr	r3, [r3, #0]
1000434a:	2b00      	cmp	r3, #0
1000434c:	d001      	beq.n	10004352 <xTaskResumeAll.part.0+0x122>
1000434e:	f7fe f907 	bl	10002560 <vTaskExitCritical.part.0>
10004352:	0020      	movs	r0, r4
10004354:	bcc0      	pop	{r6, r7}
10004356:	46b9      	mov	r9, r7
10004358:	46b0      	mov	r8, r6
1000435a:	bdf8      	pop	{r3, r4, r5, r6, r7, pc}
1000435c:	6051      	str	r1, [r2, #4]
1000435e:	e7a8      	b.n	100042b2 <xTaskResumeAll.part.0+0x82>
10004360:	4b0a      	ldr	r3, [pc, #40]	; (1000438c <xTaskResumeAll.part.0+0x15c>)
10004362:	3a01      	subs	r2, #1
10004364:	601a      	str	r2, [r3, #0]
10004366:	e7d8      	b.n	1000431a <xTaskResumeAll.part.0+0xea>
10004368:	20020a48 	.word	0x20020a48
1000436c:	20020a2c 	.word	0x20020a2c
10004370:	20020a28 	.word	0x20020a28
10004374:	d000013c 	.word	0xd000013c
10004378:	20020a40 	.word	0x20020a40
1000437c:	20020ad0 	.word	0x20020ad0
10004380:	20020a50 	.word	0x20020a50
10004384:	20000790 	.word	0x20000790
10004388:	20000780 	.word	0x20000780
1000438c:	20020abc 	.word	0x20020abc
10004390:	20020acc 	.word	0x20020acc
10004394:	20020b24 	.word	0x20020b24
10004398:	20020ae4 	.word	0x20020ae4

1000439c <xTaskResumeAll>:
1000439c:	4b04      	ldr	r3, [pc, #16]	; (100043b0 <xTaskResumeAll+0x14>)
1000439e:	b510      	push	{r4, lr}
100043a0:	6818      	ldr	r0, [r3, #0]
100043a2:	2800      	cmp	r0, #0
100043a4:	d100      	bne.n	100043a8 <xTaskResumeAll+0xc>
100043a6:	bd10      	pop	{r4, pc}
100043a8:	f7ff ff42 	bl	10004230 <xTaskResumeAll.part.0>
100043ac:	e7fb      	b.n	100043a6 <xTaskResumeAll+0xa>
100043ae:	46c0      	nop			; (mov r8, r8)
100043b0:	20020ae4 	.word	0x20020ae4

100043b4 <vTaskDelay>:
100043b4:	b570      	push	{r4, r5, r6, lr}
100043b6:	1e04      	subs	r4, r0, #0
100043b8:	d00a      	beq.n	100043d0 <vTaskDelay+0x1c>
100043ba:	4d14      	ldr	r5, [pc, #80]	; (1000440c <vTaskDelay+0x58>)
100043bc:	682b      	ldr	r3, [r5, #0]
100043be:	2b00      	cmp	r3, #0
100043c0:	d11a      	bne.n	100043f8 <vTaskDelay+0x44>
100043c2:	2100      	movs	r1, #0
100043c4:	0020      	movs	r0, r4
100043c6:	f7fe f829 	bl	1000241c <prvAddCurrentTaskToDelayedList>
100043ca:	682b      	ldr	r3, [r5, #0]
100043cc:	2b00      	cmp	r3, #0
100043ce:	d10e      	bne.n	100043ee <vTaskDelay+0x3a>
100043d0:	23d0      	movs	r3, #208	; 0xd0
100043d2:	061b      	lsls	r3, r3, #24
100043d4:	681b      	ldr	r3, [r3, #0]
100043d6:	4a0e      	ldr	r2, [pc, #56]	; (10004410 <vTaskDelay+0x5c>)
100043d8:	009b      	lsls	r3, r3, #2
100043da:	589a      	ldr	r2, [r3, r2]
100043dc:	2a00      	cmp	r2, #0
100043de:	d003      	beq.n	100043e8 <vTaskDelay+0x34>
100043e0:	2101      	movs	r1, #1
100043e2:	4a0c      	ldr	r2, [pc, #48]	; (10004414 <vTaskDelay+0x60>)
100043e4:	5099      	str	r1, [r3, r2]
100043e6:	bd70      	pop	{r4, r5, r6, pc}
100043e8:	f7fc ff5c 	bl	100012a4 <vPortYield>
100043ec:	e7fb      	b.n	100043e6 <vTaskDelay+0x32>
100043ee:	f7ff ff1f 	bl	10004230 <xTaskResumeAll.part.0>
100043f2:	2800      	cmp	r0, #0
100043f4:	d0ec      	beq.n	100043d0 <vTaskDelay+0x1c>
100043f6:	e7f6      	b.n	100043e6 <vTaskDelay+0x32>
100043f8:	f7fe f9a6 	bl	10002748 <vTaskSuspendAll.part.0>
100043fc:	2100      	movs	r1, #0
100043fe:	0020      	movs	r0, r4
10004400:	f7fe f80c 	bl	1000241c <prvAddCurrentTaskToDelayedList>
10004404:	682b      	ldr	r3, [r5, #0]
10004406:	2b00      	cmp	r3, #0
10004408:	d0e2      	beq.n	100043d0 <vTaskDelay+0x1c>
1000440a:	e7f0      	b.n	100043ee <vTaskDelay+0x3a>
1000440c:	20020ae4 	.word	0x20020ae4
10004410:	20020a38 	.word	0x20020a38
10004414:	20020b24 	.word	0x20020b24

10004418 <vTaskRemoveFromUnorderedEventList>:
10004418:	2380      	movs	r3, #128	; 0x80
1000441a:	061b      	lsls	r3, r3, #24
1000441c:	6842      	ldr	r2, [r0, #4]
1000441e:	430b      	orrs	r3, r1
10004420:	6881      	ldr	r1, [r0, #8]
10004422:	b570      	push	{r4, r5, r6, lr}
10004424:	6003      	str	r3, [r0, #0]
10004426:	68c4      	ldr	r4, [r0, #12]
10004428:	6903      	ldr	r3, [r0, #16]
1000442a:	6091      	str	r1, [r2, #8]
1000442c:	6881      	ldr	r1, [r0, #8]
1000442e:	604a      	str	r2, [r1, #4]
10004430:	685a      	ldr	r2, [r3, #4]
10004432:	4282      	cmp	r2, r0
10004434:	d034      	beq.n	100044a0 <vTaskRemoveFromUnorderedEventList+0x88>
10004436:	2200      	movs	r2, #0
10004438:	6102      	str	r2, [r0, #16]
1000443a:	0020      	movs	r0, r4
1000443c:	681a      	ldr	r2, [r3, #0]
1000443e:	6921      	ldr	r1, [r4, #16]
10004440:	3a01      	subs	r2, #1
10004442:	601a      	str	r2, [r3, #0]
10004444:	68e2      	ldr	r2, [r4, #12]
10004446:	69a3      	ldr	r3, [r4, #24]
10004448:	6091      	str	r1, [r2, #8]
1000444a:	6921      	ldr	r1, [r4, #16]
1000444c:	3008      	adds	r0, #8
1000444e:	604a      	str	r2, [r1, #4]
10004450:	685a      	ldr	r2, [r3, #4]
10004452:	4282      	cmp	r2, r0
10004454:	d026      	beq.n	100044a4 <vTaskRemoveFromUnorderedEventList+0x8c>
10004456:	681a      	ldr	r2, [r3, #0]
10004458:	3a01      	subs	r2, #1
1000445a:	601a      	str	r2, [r3, #0]
1000445c:	4b12      	ldr	r3, [pc, #72]	; (100044a8 <vTaskRemoveFromUnorderedEventList+0x90>)
1000445e:	6b22      	ldr	r2, [r4, #48]	; 0x30
10004460:	6819      	ldr	r1, [r3, #0]
10004462:	428a      	cmp	r2, r1
10004464:	d900      	bls.n	10004468 <vTaskRemoveFromUnorderedEventList+0x50>
10004466:	601a      	str	r2, [r3, #0]
10004468:	0093      	lsls	r3, r2, #2
1000446a:	4910      	ldr	r1, [pc, #64]	; (100044ac <vTaskRemoveFromUnorderedEventList+0x94>)
1000446c:	189b      	adds	r3, r3, r2
1000446e:	009b      	lsls	r3, r3, #2
10004470:	18cd      	adds	r5, r1, r3
10004472:	686a      	ldr	r2, [r5, #4]
10004474:	6896      	ldr	r6, [r2, #8]
10004476:	60e2      	str	r2, [r4, #12]
10004478:	6126      	str	r6, [r4, #16]
1000447a:	6896      	ldr	r6, [r2, #8]
1000447c:	6070      	str	r0, [r6, #4]
1000447e:	6090      	str	r0, [r2, #8]
10004480:	58ca      	ldr	r2, [r1, r3]
10004482:	61a5      	str	r5, [r4, #24]
10004484:	3201      	adds	r2, #1
10004486:	50ca      	str	r2, [r1, r3]
10004488:	f7ff fb18 	bl	10003abc <vTaskEnterCritical>
1000448c:	0020      	movs	r0, r4
1000448e:	f7fd ff65 	bl	1000235c <prvYieldForTask>
10004492:	4b07      	ldr	r3, [pc, #28]	; (100044b0 <vTaskRemoveFromUnorderedEventList+0x98>)
10004494:	681b      	ldr	r3, [r3, #0]
10004496:	2b00      	cmp	r3, #0
10004498:	d001      	beq.n	1000449e <vTaskRemoveFromUnorderedEventList+0x86>
1000449a:	f7fe f861 	bl	10002560 <vTaskExitCritical.part.0>
1000449e:	bd70      	pop	{r4, r5, r6, pc}
100044a0:	6059      	str	r1, [r3, #4]
100044a2:	e7c8      	b.n	10004436 <vTaskRemoveFromUnorderedEventList+0x1e>
100044a4:	6059      	str	r1, [r3, #4]
100044a6:	e7d6      	b.n	10004456 <vTaskRemoveFromUnorderedEventList+0x3e>
100044a8:	20020a50 	.word	0x20020a50
100044ac:	20000790 	.word	0x20000790
100044b0:	20020ae4 	.word	0x20020ae4

100044b4 <vTaskEnterCriticalFromISR>:
100044b4:	4b1b      	ldr	r3, [pc, #108]	; (10004524 <vTaskEnterCriticalFromISR+0x70>)
100044b6:	2000      	movs	r0, #0
100044b8:	681b      	ldr	r3, [r3, #0]
100044ba:	b570      	push	{r4, r5, r6, lr}
100044bc:	2b00      	cmp	r3, #0
100044be:	d100      	bne.n	100044c2 <vTaskEnterCriticalFromISR+0xe>
100044c0:	bd70      	pop	{r4, r5, r6, pc}
100044c2:	25d0      	movs	r5, #208	; 0xd0
100044c4:	062d      	lsls	r5, r5, #24
100044c6:	f7fc ff11 	bl	100012ec <ulSetInterruptMaskFromISR>
100044ca:	682c      	ldr	r4, [r5, #0]
100044cc:	4916      	ldr	r1, [pc, #88]	; (10004528 <vTaskEnterCriticalFromISR+0x74>)
100044ce:	00a2      	lsls	r2, r4, #2
100044d0:	588b      	ldr	r3, [r1, r2]
100044d2:	2b00      	cmp	r3, #0
100044d4:	d002      	beq.n	100044dc <vTaskEnterCriticalFromISR+0x28>
100044d6:	3301      	adds	r3, #1
100044d8:	508b      	str	r3, [r1, r2]
100044da:	e7f1      	b.n	100044c0 <vTaskEnterCriticalFromISR+0xc>
100044dc:	4b13      	ldr	r3, [pc, #76]	; (1000452c <vTaskEnterCriticalFromISR+0x78>)
100044de:	681a      	ldr	r2, [r3, #0]
100044e0:	2a00      	cmp	r2, #0
100044e2:	d00e      	beq.n	10004502 <vTaskEnterCriticalFromISR+0x4e>
100044e4:	4a12      	ldr	r2, [pc, #72]	; (10004530 <vTaskEnterCriticalFromISR+0x7c>)
100044e6:	f3bf 8f5f 	dmb	sy
100044ea:	2501      	movs	r5, #1
100044ec:	4b11      	ldr	r3, [pc, #68]	; (10004534 <vTaskEnterCriticalFromISR+0x80>)
100044ee:	701d      	strb	r5, [r3, #0]
100044f0:	5d13      	ldrb	r3, [r2, r4]
100044f2:	432b      	orrs	r3, r5
100044f4:	5513      	strb	r3, [r2, r4]
100044f6:	23d0      	movs	r3, #208	; 0xd0
100044f8:	061b      	lsls	r3, r3, #24
100044fa:	681c      	ldr	r4, [r3, #0]
100044fc:	00a2      	lsls	r2, r4, #2
100044fe:	588b      	ldr	r3, [r1, r2]
10004500:	e7e9      	b.n	100044d6 <vTaskEnterCriticalFromISR+0x22>
10004502:	4a0b      	ldr	r2, [pc, #44]	; (10004530 <vTaskEnterCriticalFromISR+0x7c>)
10004504:	5d16      	ldrb	r6, [r2, r4]
10004506:	07f6      	lsls	r6, r6, #31
10004508:	d403      	bmi.n	10004512 <vTaskEnterCriticalFromISR+0x5e>
1000450a:	681d      	ldr	r5, [r3, #0]
1000450c:	2d00      	cmp	r5, #0
1000450e:	d1ea      	bne.n	100044e6 <vTaskEnterCriticalFromISR+0x32>
10004510:	e7fb      	b.n	1000450a <vTaskEnterCriticalFromISR+0x56>
10004512:	4a08      	ldr	r2, [pc, #32]	; (10004534 <vTaskEnterCriticalFromISR+0x80>)
10004514:	7813      	ldrb	r3, [r2, #0]
10004516:	3301      	adds	r3, #1
10004518:	7013      	strb	r3, [r2, #0]
1000451a:	682c      	ldr	r4, [r5, #0]
1000451c:	00a2      	lsls	r2, r4, #2
1000451e:	588b      	ldr	r3, [r1, r2]
10004520:	e7d9      	b.n	100044d6 <vTaskEnterCriticalFromISR+0x22>
10004522:	46c0      	nop			; (mov r8, r8)
10004524:	20020ae4 	.word	0x20020ae4
10004528:	20020a38 	.word	0x20020a38
1000452c:	d0000138 	.word	0xd0000138
10004530:	20020a28 	.word	0x20020a28
10004534:	20020a2c 	.word	0x20020a2c

10004538 <vTaskExitCritical>:
10004538:	4b20      	ldr	r3, [pc, #128]	; (100045bc <vTaskExitCritical+0x84>)
1000453a:	b570      	push	{r4, r5, r6, lr}
1000453c:	681b      	ldr	r3, [r3, #0]
1000453e:	2b00      	cmp	r3, #0
10004540:	d037      	beq.n	100045b2 <vTaskExitCritical+0x7a>
10004542:	20d0      	movs	r0, #208	; 0xd0
10004544:	0600      	lsls	r0, r0, #24
10004546:	6803      	ldr	r3, [r0, #0]
10004548:	491d      	ldr	r1, [pc, #116]	; (100045c0 <vTaskExitCritical+0x88>)
1000454a:	009b      	lsls	r3, r3, #2
1000454c:	585a      	ldr	r2, [r3, r1]
1000454e:	2a00      	cmp	r2, #0
10004550:	d02f      	beq.n	100045b2 <vTaskExitCritical+0x7a>
10004552:	3a01      	subs	r2, #1
10004554:	505a      	str	r2, [r3, r1]
10004556:	6800      	ldr	r0, [r0, #0]
10004558:	0083      	lsls	r3, r0, #2
1000455a:	585a      	ldr	r2, [r3, r1]
1000455c:	2a00      	cmp	r2, #0
1000455e:	d128      	bne.n	100045b2 <vTaskExitCritical+0x7a>
10004560:	4a18      	ldr	r2, [pc, #96]	; (100045c4 <vTaskExitCritical+0x8c>)
10004562:	589c      	ldr	r4, [r3, r2]
10004564:	4a18      	ldr	r2, [pc, #96]	; (100045c8 <vTaskExitCritical+0x90>)
10004566:	7813      	ldrb	r3, [r2, #0]
10004568:	3b01      	subs	r3, #1
1000456a:	b2db      	uxtb	r3, r3
1000456c:	7013      	strb	r3, [r2, #0]
1000456e:	2b00      	cmp	r3, #0
10004570:	d108      	bne.n	10004584 <vTaskExitCritical+0x4c>
10004572:	2101      	movs	r1, #1
10004574:	4d15      	ldr	r5, [pc, #84]	; (100045cc <vTaskExitCritical+0x94>)
10004576:	5c2b      	ldrb	r3, [r5, r0]
10004578:	438b      	bics	r3, r1
1000457a:	542b      	strb	r3, [r5, r0]
1000457c:	f3bf 8f5f 	dmb	sy
10004580:	4b13      	ldr	r3, [pc, #76]	; (100045d0 <vTaskExitCritical+0x98>)
10004582:	6019      	str	r1, [r3, #0]
10004584:	23d0      	movs	r3, #208	; 0xd0
10004586:	061b      	lsls	r3, r3, #24
10004588:	6819      	ldr	r1, [r3, #0]
1000458a:	7853      	ldrb	r3, [r2, #1]
1000458c:	3b01      	subs	r3, #1
1000458e:	b2db      	uxtb	r3, r3
10004590:	7053      	strb	r3, [r2, #1]
10004592:	2b00      	cmp	r3, #0
10004594:	d109      	bne.n	100045aa <vTaskExitCritical+0x72>
10004596:	2002      	movs	r0, #2
10004598:	4a0c      	ldr	r2, [pc, #48]	; (100045cc <vTaskExitCritical+0x94>)
1000459a:	5c53      	ldrb	r3, [r2, r1]
1000459c:	4383      	bics	r3, r0
1000459e:	5453      	strb	r3, [r2, r1]
100045a0:	f3bf 8f5f 	dmb	sy
100045a4:	2201      	movs	r2, #1
100045a6:	4b0b      	ldr	r3, [pc, #44]	; (100045d4 <vTaskExitCritical+0x9c>)
100045a8:	601a      	str	r2, [r3, #0]
100045aa:	f7fc fe87 	bl	100012bc <vPortEnableInterrupts>
100045ae:	2c00      	cmp	r4, #0
100045b0:	d100      	bne.n	100045b4 <vTaskExitCritical+0x7c>
100045b2:	bd70      	pop	{r4, r5, r6, pc}
100045b4:	f7fc fe76 	bl	100012a4 <vPortYield>
100045b8:	e7fb      	b.n	100045b2 <vTaskExitCritical+0x7a>
100045ba:	46c0      	nop			; (mov r8, r8)
100045bc:	20020ae4 	.word	0x20020ae4
100045c0:	20020a38 	.word	0x20020a38
100045c4:	20020b24 	.word	0x20020b24
100045c8:	20020a2c 	.word	0x20020a2c
100045cc:	20020a28 	.word	0x20020a28
100045d0:	d0000138 	.word	0xd0000138
100045d4:	d000013c 	.word	0xd000013c

100045d8 <vTaskExitCriticalFromISR>:
100045d8:	4b13      	ldr	r3, [pc, #76]	; (10004628 <vTaskExitCriticalFromISR+0x50>)
100045da:	b510      	push	{r4, lr}
100045dc:	681b      	ldr	r3, [r3, #0]
100045de:	2b00      	cmp	r3, #0
100045e0:	d020      	beq.n	10004624 <vTaskExitCriticalFromISR+0x4c>
100045e2:	24d0      	movs	r4, #208	; 0xd0
100045e4:	0624      	lsls	r4, r4, #24
100045e6:	6823      	ldr	r3, [r4, #0]
100045e8:	4910      	ldr	r1, [pc, #64]	; (1000462c <vTaskExitCriticalFromISR+0x54>)
100045ea:	009b      	lsls	r3, r3, #2
100045ec:	585a      	ldr	r2, [r3, r1]
100045ee:	2a00      	cmp	r2, #0
100045f0:	d018      	beq.n	10004624 <vTaskExitCriticalFromISR+0x4c>
100045f2:	3a01      	subs	r2, #1
100045f4:	505a      	str	r2, [r3, r1]
100045f6:	6822      	ldr	r2, [r4, #0]
100045f8:	0093      	lsls	r3, r2, #2
100045fa:	585b      	ldr	r3, [r3, r1]
100045fc:	2b00      	cmp	r3, #0
100045fe:	d111      	bne.n	10004624 <vTaskExitCriticalFromISR+0x4c>
10004600:	490b      	ldr	r1, [pc, #44]	; (10004630 <vTaskExitCriticalFromISR+0x58>)
10004602:	780b      	ldrb	r3, [r1, #0]
10004604:	3b01      	subs	r3, #1
10004606:	b2db      	uxtb	r3, r3
10004608:	700b      	strb	r3, [r1, #0]
1000460a:	2b00      	cmp	r3, #0
1000460c:	d108      	bne.n	10004620 <vTaskExitCriticalFromISR+0x48>
1000460e:	2101      	movs	r1, #1
10004610:	4c08      	ldr	r4, [pc, #32]	; (10004634 <vTaskExitCriticalFromISR+0x5c>)
10004612:	5ca3      	ldrb	r3, [r4, r2]
10004614:	438b      	bics	r3, r1
10004616:	54a3      	strb	r3, [r4, r2]
10004618:	f3bf 8f5f 	dmb	sy
1000461c:	4b06      	ldr	r3, [pc, #24]	; (10004638 <vTaskExitCriticalFromISR+0x60>)
1000461e:	6019      	str	r1, [r3, #0]
10004620:	f7fc fe68 	bl	100012f4 <vClearInterruptMaskFromISR>
10004624:	bd10      	pop	{r4, pc}
10004626:	46c0      	nop			; (mov r8, r8)
10004628:	20020ae4 	.word	0x20020ae4
1000462c:	20020a38 	.word	0x20020a38
10004630:	20020a2c 	.word	0x20020a2c
10004634:	20020a28 	.word	0x20020a28
10004638:	d0000138 	.word	0xd0000138

1000463c <uxTaskResetEventItemValue>:
1000463c:	b510      	push	{r4, lr}
1000463e:	f3ef 8010 	mrs	r0, PRIMASK
10004642:	b672      	cpsid	i
10004644:	21d0      	movs	r1, #208	; 0xd0
10004646:	0609      	lsls	r1, r1, #24
10004648:	680b      	ldr	r3, [r1, #0]
1000464a:	4a0d      	ldr	r2, [pc, #52]	; (10004680 <uxTaskResetEventItemValue+0x44>)
1000464c:	009b      	lsls	r3, r3, #2
1000464e:	589b      	ldr	r3, [r3, r2]
10004650:	f380 8810 	msr	PRIMASK, r0
10004654:	69d8      	ldr	r0, [r3, #28]
10004656:	f3ef 8410 	mrs	r4, PRIMASK
1000465a:	b672      	cpsid	i
1000465c:	680b      	ldr	r3, [r1, #0]
1000465e:	009b      	lsls	r3, r3, #2
10004660:	589b      	ldr	r3, [r3, r2]
10004662:	f384 8810 	msr	PRIMASK, r4
10004666:	6b1c      	ldr	r4, [r3, #48]	; 0x30
10004668:	f3ef 8310 	mrs	r3, PRIMASK
1000466c:	b672      	cpsid	i
1000466e:	6809      	ldr	r1, [r1, #0]
10004670:	0089      	lsls	r1, r1, #2
10004672:	588a      	ldr	r2, [r1, r2]
10004674:	f383 8810 	msr	PRIMASK, r3
10004678:	2320      	movs	r3, #32
1000467a:	1b1b      	subs	r3, r3, r4
1000467c:	61d3      	str	r3, [r2, #28]
1000467e:	bd10      	pop	{r4, pc}
10004680:	20000774 	.word	0x20000774

10004684 <pvTaskIncrementMutexHeldCount>:
10004684:	f3ef 8210 	mrs	r2, PRIMASK
10004688:	b672      	cpsid	i
1000468a:	23d0      	movs	r3, #208	; 0xd0
1000468c:	061b      	lsls	r3, r3, #24
1000468e:	681b      	ldr	r3, [r3, #0]
10004690:	4905      	ldr	r1, [pc, #20]	; (100046a8 <pvTaskIncrementMutexHeldCount+0x24>)
10004692:	009b      	lsls	r3, r3, #2
10004694:	5858      	ldr	r0, [r3, r1]
10004696:	f382 8810 	msr	PRIMASK, r2
1000469a:	2800      	cmp	r0, #0
1000469c:	d002      	beq.n	100046a4 <pvTaskIncrementMutexHeldCount+0x20>
1000469e:	6dc3      	ldr	r3, [r0, #92]	; 0x5c
100046a0:	3301      	adds	r3, #1
100046a2:	65c3      	str	r3, [r0, #92]	; 0x5c
100046a4:	4770      	bx	lr
100046a6:	46c0      	nop			; (mov r8, r8)
100046a8:	20000774 	.word	0x20000774

100046ac <ulTaskGenericNotifyTake>:
100046ac:	b5f8      	push	{r3, r4, r5, r6, r7, lr}
100046ae:	46ce      	mov	lr, r9
100046b0:	4647      	mov	r7, r8
100046b2:	4e4f      	ldr	r6, [pc, #316]	; (100047f0 <ulTaskGenericNotifyTake+0x144>)
100046b4:	0004      	movs	r4, r0
100046b6:	6833      	ldr	r3, [r6, #0]
100046b8:	4688      	mov	r8, r1
100046ba:	4691      	mov	r9, r2
100046bc:	b580      	push	{r7, lr}
100046be:	2b00      	cmp	r3, #0
100046c0:	d000      	beq.n	100046c4 <ulTaskGenericNotifyTake+0x18>
100046c2:	e083      	b.n	100047cc <ulTaskGenericNotifyTake+0x120>
100046c4:	f7ff f9fa 	bl	10003abc <vTaskEnterCritical>
100046c8:	f3ef 8110 	mrs	r1, PRIMASK
100046cc:	b672      	cpsid	i
100046ce:	22d0      	movs	r2, #208	; 0xd0
100046d0:	0612      	lsls	r2, r2, #24
100046d2:	6813      	ldr	r3, [r2, #0]
100046d4:	4f47      	ldr	r7, [pc, #284]	; (100047f4 <ulTaskGenericNotifyTake+0x148>)
100046d6:	009b      	lsls	r3, r3, #2
100046d8:	58fb      	ldr	r3, [r7, r3]
100046da:	f381 8810 	msr	PRIMASK, r1
100046de:	0025      	movs	r5, r4
100046e0:	351c      	adds	r5, #28
100046e2:	00a9      	lsls	r1, r5, #2
100046e4:	185b      	adds	r3, r3, r1
100046e6:	685b      	ldr	r3, [r3, #4]
100046e8:	2b00      	cmp	r3, #0
100046ea:	d12a      	bne.n	10004742 <ulTaskGenericNotifyTake+0x96>
100046ec:	f3ef 8110 	mrs	r1, PRIMASK
100046f0:	b672      	cpsid	i
100046f2:	6813      	ldr	r3, [r2, #0]
100046f4:	009b      	lsls	r3, r3, #2
100046f6:	58fb      	ldr	r3, [r7, r3]
100046f8:	f381 8810 	msr	PRIMASK, r1
100046fc:	2201      	movs	r2, #1
100046fe:	191b      	adds	r3, r3, r4
10004700:	3378      	adds	r3, #120	; 0x78
10004702:	701a      	strb	r2, [r3, #0]
10004704:	464b      	mov	r3, r9
10004706:	2b00      	cmp	r3, #0
10004708:	d01b      	beq.n	10004742 <ulTaskGenericNotifyTake+0x96>
1000470a:	6833      	ldr	r3, [r6, #0]
1000470c:	2b00      	cmp	r3, #0
1000470e:	d001      	beq.n	10004714 <ulTaskGenericNotifyTake+0x68>
10004710:	f7fd ff26 	bl	10002560 <vTaskExitCritical.part.0>
10004714:	2101      	movs	r1, #1
10004716:	4648      	mov	r0, r9
10004718:	f7fd fe80 	bl	1000241c <prvAddCurrentTaskToDelayedList>
1000471c:	6833      	ldr	r3, [r6, #0]
1000471e:	2b00      	cmp	r3, #0
10004720:	d003      	beq.n	1000472a <ulTaskGenericNotifyTake+0x7e>
10004722:	f7ff fd85 	bl	10004230 <xTaskResumeAll.part.0>
10004726:	2800      	cmp	r0, #0
10004728:	d111      	bne.n	1000474e <ulTaskGenericNotifyTake+0xa2>
1000472a:	23d0      	movs	r3, #208	; 0xd0
1000472c:	061b      	lsls	r3, r3, #24
1000472e:	681b      	ldr	r3, [r3, #0]
10004730:	4a31      	ldr	r2, [pc, #196]	; (100047f8 <ulTaskGenericNotifyTake+0x14c>)
10004732:	009b      	lsls	r3, r3, #2
10004734:	589a      	ldr	r2, [r3, r2]
10004736:	2a00      	cmp	r2, #0
10004738:	d057      	beq.n	100047ea <ulTaskGenericNotifyTake+0x13e>
1000473a:	2101      	movs	r1, #1
1000473c:	4a2f      	ldr	r2, [pc, #188]	; (100047fc <ulTaskGenericNotifyTake+0x150>)
1000473e:	5099      	str	r1, [r3, r2]
10004740:	e005      	b.n	1000474e <ulTaskGenericNotifyTake+0xa2>
10004742:	6833      	ldr	r3, [r6, #0]
10004744:	2b00      	cmp	r3, #0
10004746:	d139      	bne.n	100047bc <ulTaskGenericNotifyTake+0x110>
10004748:	6833      	ldr	r3, [r6, #0]
1000474a:	2b00      	cmp	r3, #0
1000474c:	d13b      	bne.n	100047c6 <ulTaskGenericNotifyTake+0x11a>
1000474e:	f7ff f9b5 	bl	10003abc <vTaskEnterCritical>
10004752:	f3ef 8210 	mrs	r2, PRIMASK
10004756:	b672      	cpsid	i
10004758:	21d0      	movs	r1, #208	; 0xd0
1000475a:	0609      	lsls	r1, r1, #24
1000475c:	680b      	ldr	r3, [r1, #0]
1000475e:	009b      	lsls	r3, r3, #2
10004760:	58fb      	ldr	r3, [r7, r3]
10004762:	f382 8810 	msr	PRIMASK, r2
10004766:	00aa      	lsls	r2, r5, #2
10004768:	189b      	adds	r3, r3, r2
1000476a:	685d      	ldr	r5, [r3, #4]
1000476c:	2d00      	cmp	r5, #0
1000476e:	d00d      	beq.n	1000478c <ulTaskGenericNotifyTake+0xe0>
10004770:	4643      	mov	r3, r8
10004772:	2b00      	cmp	r3, #0
10004774:	d02d      	beq.n	100047d2 <ulTaskGenericNotifyTake+0x126>
10004776:	f3ef 8010 	mrs	r0, PRIMASK
1000477a:	b672      	cpsid	i
1000477c:	680b      	ldr	r3, [r1, #0]
1000477e:	009b      	lsls	r3, r3, #2
10004780:	58fb      	ldr	r3, [r7, r3]
10004782:	f380 8810 	msr	PRIMASK, r0
10004786:	189a      	adds	r2, r3, r2
10004788:	2300      	movs	r3, #0
1000478a:	6053      	str	r3, [r2, #4]
1000478c:	f3ef 8210 	mrs	r2, PRIMASK
10004790:	b672      	cpsid	i
10004792:	23d0      	movs	r3, #208	; 0xd0
10004794:	061b      	lsls	r3, r3, #24
10004796:	681b      	ldr	r3, [r3, #0]
10004798:	009b      	lsls	r3, r3, #2
1000479a:	58f8      	ldr	r0, [r7, r3]
1000479c:	f382 8810 	msr	PRIMASK, r2
100047a0:	2300      	movs	r3, #0
100047a2:	1900      	adds	r0, r0, r4
100047a4:	3078      	adds	r0, #120	; 0x78
100047a6:	7003      	strb	r3, [r0, #0]
100047a8:	6833      	ldr	r3, [r6, #0]
100047aa:	2b00      	cmp	r3, #0
100047ac:	d001      	beq.n	100047b2 <ulTaskGenericNotifyTake+0x106>
100047ae:	f7fd fed7 	bl	10002560 <vTaskExitCritical.part.0>
100047b2:	0028      	movs	r0, r5
100047b4:	bcc0      	pop	{r6, r7}
100047b6:	46b9      	mov	r9, r7
100047b8:	46b0      	mov	r8, r6
100047ba:	bdf8      	pop	{r3, r4, r5, r6, r7, pc}
100047bc:	f7fd fed0 	bl	10002560 <vTaskExitCritical.part.0>
100047c0:	6833      	ldr	r3, [r6, #0]
100047c2:	2b00      	cmp	r3, #0
100047c4:	d0c3      	beq.n	1000474e <ulTaskGenericNotifyTake+0xa2>
100047c6:	f7ff fd33 	bl	10004230 <xTaskResumeAll.part.0>
100047ca:	e7c0      	b.n	1000474e <ulTaskGenericNotifyTake+0xa2>
100047cc:	f7fd ffbc 	bl	10002748 <vTaskSuspendAll.part.0>
100047d0:	e778      	b.n	100046c4 <ulTaskGenericNotifyTake+0x18>
100047d2:	f3ef 8010 	mrs	r0, PRIMASK
100047d6:	b672      	cpsid	i
100047d8:	680b      	ldr	r3, [r1, #0]
100047da:	009b      	lsls	r3, r3, #2
100047dc:	58fb      	ldr	r3, [r7, r3]
100047de:	f380 8810 	msr	PRIMASK, r0
100047e2:	1e69      	subs	r1, r5, #1
100047e4:	189a      	adds	r2, r3, r2
100047e6:	6051      	str	r1, [r2, #4]
100047e8:	e7d0      	b.n	1000478c <ulTaskGenericNotifyTake+0xe0>
100047ea:	f7fc fd5b 	bl	100012a4 <vPortYield>
100047ee:	e7ae      	b.n	1000474e <ulTaskGenericNotifyTake+0xa2>
100047f0:	20020ae4 	.word	0x20020ae4
100047f4:	20000774 	.word	0x20000774
100047f8:	20020a38 	.word	0x20020a38
100047fc:	20020b24 	.word	0x20020b24

10004800 <xTaskGenericNotify>:
10004800:	b5f8      	push	{r3, r4, r5, r6, r7, lr}
10004802:	464e      	mov	r6, r9
10004804:	4645      	mov	r5, r8
10004806:	46de      	mov	lr, fp
10004808:	4657      	mov	r7, sl
1000480a:	000c      	movs	r4, r1
1000480c:	b5e0      	push	{r5, r6, r7, lr}
1000480e:	4690      	mov	r8, r2
10004810:	0005      	movs	r5, r0
10004812:	001e      	movs	r6, r3
10004814:	b672      	cpsid	i
10004816:	4f6b      	ldr	r7, [pc, #428]	; (100049c4 <xTaskGenericNotify+0x1c4>)
10004818:	683b      	ldr	r3, [r7, #0]
1000481a:	2b00      	cmp	r3, #0
1000481c:	d011      	beq.n	10004842 <xTaskGenericNotify+0x42>
1000481e:	23d0      	movs	r3, #208	; 0xd0
10004820:	061b      	lsls	r3, r3, #24
10004822:	6818      	ldr	r0, [r3, #0]
10004824:	4a68      	ldr	r2, [pc, #416]	; (100049c8 <xTaskGenericNotify+0x1c8>)
10004826:	0081      	lsls	r1, r0, #2
10004828:	5853      	ldr	r3, [r2, r1]
1000482a:	2b00      	cmp	r3, #0
1000482c:	d100      	bne.n	10004830 <xTaskGenericNotify+0x30>
1000482e:	e075      	b.n	1000491c <xTaskGenericNotify+0x11c>
10004830:	3301      	adds	r3, #1
10004832:	5053      	str	r3, [r2, r1]
10004834:	23d0      	movs	r3, #208	; 0xd0
10004836:	061b      	lsls	r3, r3, #24
10004838:	681b      	ldr	r3, [r3, #0]
1000483a:	009b      	lsls	r3, r3, #2
1000483c:	58d3      	ldr	r3, [r2, r3]
1000483e:	2b01      	cmp	r3, #1
10004840:	d065      	beq.n	1000490e <xTaskGenericNotify+0x10e>
10004842:	9b0a      	ldr	r3, [sp, #40]	; 0x28
10004844:	2b00      	cmp	r3, #0
10004846:	d006      	beq.n	10004856 <xTaskGenericNotify+0x56>
10004848:	001a      	movs	r2, r3
1000484a:	0023      	movs	r3, r4
1000484c:	331c      	adds	r3, #28
1000484e:	009b      	lsls	r3, r3, #2
10004850:	18eb      	adds	r3, r5, r3
10004852:	685b      	ldr	r3, [r3, #4]
10004854:	6013      	str	r3, [r2, #0]
10004856:	2202      	movs	r2, #2
10004858:	1929      	adds	r1, r5, r4
1000485a:	3178      	adds	r1, #120	; 0x78
1000485c:	780b      	ldrb	r3, [r1, #0]
1000485e:	700a      	strb	r2, [r1, #0]
10004860:	b2db      	uxtb	r3, r3
10004862:	2e03      	cmp	r6, #3
10004864:	d01c      	beq.n	100048a0 <xTaskGenericNotify+0xa0>
10004866:	d817      	bhi.n	10004898 <xTaskGenericNotify+0x98>
10004868:	2e01      	cmp	r6, #1
1000486a:	d049      	beq.n	10004900 <xTaskGenericNotify+0x100>
1000486c:	2e02      	cmp	r6, #2
1000486e:	d104      	bne.n	1000487a <xTaskGenericNotify+0x7a>
10004870:	00a4      	lsls	r4, r4, #2
10004872:	192c      	adds	r4, r5, r4
10004874:	6f62      	ldr	r2, [r4, #116]	; 0x74
10004876:	3201      	adds	r2, #1
10004878:	6762      	str	r2, [r4, #116]	; 0x74
1000487a:	2401      	movs	r4, #1
1000487c:	2b01      	cmp	r3, #1
1000487e:	d017      	beq.n	100048b0 <xTaskGenericNotify+0xb0>
10004880:	683b      	ldr	r3, [r7, #0]
10004882:	2b00      	cmp	r3, #0
10004884:	d001      	beq.n	1000488a <xTaskGenericNotify+0x8a>
10004886:	f7fd fe6b 	bl	10002560 <vTaskExitCritical.part.0>
1000488a:	0020      	movs	r0, r4
1000488c:	bcf0      	pop	{r4, r5, r6, r7}
1000488e:	46bb      	mov	fp, r7
10004890:	46b2      	mov	sl, r6
10004892:	46a9      	mov	r9, r5
10004894:	46a0      	mov	r8, r4
10004896:	bdf8      	pop	{r3, r4, r5, r6, r7, pc}
10004898:	2e04      	cmp	r6, #4
1000489a:	d1ee      	bne.n	1000487a <xTaskGenericNotify+0x7a>
1000489c:	2b02      	cmp	r3, #2
1000489e:	d06c      	beq.n	1000497a <xTaskGenericNotify+0x17a>
100048a0:	4642      	mov	r2, r8
100048a2:	341c      	adds	r4, #28
100048a4:	00a4      	lsls	r4, r4, #2
100048a6:	192c      	adds	r4, r5, r4
100048a8:	6062      	str	r2, [r4, #4]
100048aa:	2401      	movs	r4, #1
100048ac:	2b01      	cmp	r3, #1
100048ae:	d1e7      	bne.n	10004880 <xTaskGenericNotify+0x80>
100048b0:	0028      	movs	r0, r5
100048b2:	69ab      	ldr	r3, [r5, #24]
100048b4:	68e9      	ldr	r1, [r5, #12]
100048b6:	692a      	ldr	r2, [r5, #16]
100048b8:	3008      	adds	r0, #8
100048ba:	608a      	str	r2, [r1, #8]
100048bc:	6051      	str	r1, [r2, #4]
100048be:	6859      	ldr	r1, [r3, #4]
100048c0:	4281      	cmp	r1, r0
100048c2:	d05c      	beq.n	1000497e <xTaskGenericNotify+0x17e>
100048c4:	681a      	ldr	r2, [r3, #0]
100048c6:	3a01      	subs	r2, #1
100048c8:	601a      	str	r2, [r3, #0]
100048ca:	4b40      	ldr	r3, [pc, #256]	; (100049cc <xTaskGenericNotify+0x1cc>)
100048cc:	6b2a      	ldr	r2, [r5, #48]	; 0x30
100048ce:	6819      	ldr	r1, [r3, #0]
100048d0:	428a      	cmp	r2, r1
100048d2:	d900      	bls.n	100048d6 <xTaskGenericNotify+0xd6>
100048d4:	601a      	str	r2, [r3, #0]
100048d6:	0093      	lsls	r3, r2, #2
100048d8:	493d      	ldr	r1, [pc, #244]	; (100049d0 <xTaskGenericNotify+0x1d0>)
100048da:	189b      	adds	r3, r3, r2
100048dc:	009b      	lsls	r3, r3, #2
100048de:	18cc      	adds	r4, r1, r3
100048e0:	6862      	ldr	r2, [r4, #4]
100048e2:	6896      	ldr	r6, [r2, #8]
100048e4:	60ea      	str	r2, [r5, #12]
100048e6:	612e      	str	r6, [r5, #16]
100048e8:	6896      	ldr	r6, [r2, #8]
100048ea:	6070      	str	r0, [r6, #4]
100048ec:	6090      	str	r0, [r2, #8]
100048ee:	58ca      	ldr	r2, [r1, r3]
100048f0:	61ac      	str	r4, [r5, #24]
100048f2:	3201      	adds	r2, #1
100048f4:	0028      	movs	r0, r5
100048f6:	50ca      	str	r2, [r1, r3]
100048f8:	f7fd fd30 	bl	1000235c <prvYieldForTask>
100048fc:	2401      	movs	r4, #1
100048fe:	e7bf      	b.n	10004880 <xTaskGenericNotify+0x80>
10004900:	4646      	mov	r6, r8
10004902:	00a4      	lsls	r4, r4, #2
10004904:	192c      	adds	r4, r5, r4
10004906:	6f62      	ldr	r2, [r4, #116]	; 0x74
10004908:	4316      	orrs	r6, r2
1000490a:	6766      	str	r6, [r4, #116]	; 0x74
1000490c:	e7b5      	b.n	1000487a <xTaskGenericNotify+0x7a>
1000490e:	4b31      	ldr	r3, [pc, #196]	; (100049d4 <xTaskGenericNotify+0x1d4>)
10004910:	681b      	ldr	r3, [r3, #0]
10004912:	2b00      	cmp	r3, #0
10004914:	d195      	bne.n	10004842 <xTaskGenericNotify+0x42>
10004916:	f7fd fe6d 	bl	100025f4 <prvCheckForRunStateChange>
1000491a:	e792      	b.n	10004842 <xTaskGenericNotify+0x42>
1000491c:	492e      	ldr	r1, [pc, #184]	; (100049d8 <xTaskGenericNotify+0x1d8>)
1000491e:	680b      	ldr	r3, [r1, #0]
10004920:	2b00      	cmp	r3, #0
10004922:	d02e      	beq.n	10004982 <xTaskGenericNotify+0x182>
10004924:	4b2d      	ldr	r3, [pc, #180]	; (100049dc <xTaskGenericNotify+0x1dc>)
10004926:	4699      	mov	r9, r3
10004928:	f3bf 8f5f 	dmb	sy
1000492c:	2101      	movs	r1, #1
1000492e:	4b2c      	ldr	r3, [pc, #176]	; (100049e0 <xTaskGenericNotify+0x1e0>)
10004930:	7059      	strb	r1, [r3, #1]
10004932:	469c      	mov	ip, r3
10004934:	464b      	mov	r3, r9
10004936:	5c19      	ldrb	r1, [r3, r0]
10004938:	2302      	movs	r3, #2
1000493a:	469a      	mov	sl, r3
1000493c:	4653      	mov	r3, sl
1000493e:	4319      	orrs	r1, r3
10004940:	464b      	mov	r3, r9
10004942:	5419      	strb	r1, [r3, r0]
10004944:	21d0      	movs	r1, #208	; 0xd0
10004946:	0609      	lsls	r1, r1, #24
10004948:	468a      	mov	sl, r1
1000494a:	6808      	ldr	r0, [r1, #0]
1000494c:	4925      	ldr	r1, [pc, #148]	; (100049e4 <xTaskGenericNotify+0x1e4>)
1000494e:	680b      	ldr	r3, [r1, #0]
10004950:	2b00      	cmp	r3, #0
10004952:	d01f      	beq.n	10004994 <xTaskGenericNotify+0x194>
10004954:	f3bf 8f5f 	dmb	sy
10004958:	2101      	movs	r1, #1
1000495a:	4663      	mov	r3, ip
1000495c:	7019      	strb	r1, [r3, #0]
1000495e:	464b      	mov	r3, r9
10004960:	5c19      	ldrb	r1, [r3, r0]
10004962:	2301      	movs	r3, #1
10004964:	469c      	mov	ip, r3
10004966:	4663      	mov	r3, ip
10004968:	4319      	orrs	r1, r3
1000496a:	464b      	mov	r3, r9
1000496c:	5419      	strb	r1, [r3, r0]
1000496e:	23d0      	movs	r3, #208	; 0xd0
10004970:	061b      	lsls	r3, r3, #24
10004972:	6818      	ldr	r0, [r3, #0]
10004974:	0081      	lsls	r1, r0, #2
10004976:	5853      	ldr	r3, [r2, r1]
10004978:	e75a      	b.n	10004830 <xTaskGenericNotify+0x30>
1000497a:	2400      	movs	r4, #0
1000497c:	e780      	b.n	10004880 <xTaskGenericNotify+0x80>
1000497e:	605a      	str	r2, [r3, #4]
10004980:	e7a0      	b.n	100048c4 <xTaskGenericNotify+0xc4>
10004982:	4b16      	ldr	r3, [pc, #88]	; (100049dc <xTaskGenericNotify+0x1dc>)
10004984:	4699      	mov	r9, r3
10004986:	5c1b      	ldrb	r3, [r3, r0]
10004988:	079b      	lsls	r3, r3, #30
1000498a:	d40b      	bmi.n	100049a4 <xTaskGenericNotify+0x1a4>
1000498c:	680b      	ldr	r3, [r1, #0]
1000498e:	2b00      	cmp	r3, #0
10004990:	d1ca      	bne.n	10004928 <xTaskGenericNotify+0x128>
10004992:	e7fb      	b.n	1000498c <xTaskGenericNotify+0x18c>
10004994:	464b      	mov	r3, r9
10004996:	5c1b      	ldrb	r3, [r3, r0]
10004998:	07db      	lsls	r3, r3, #31
1000499a:	d409      	bmi.n	100049b0 <xTaskGenericNotify+0x1b0>
1000499c:	680b      	ldr	r3, [r1, #0]
1000499e:	2b00      	cmp	r3, #0
100049a0:	d1d8      	bne.n	10004954 <xTaskGenericNotify+0x154>
100049a2:	e7fb      	b.n	1000499c <xTaskGenericNotify+0x19c>
100049a4:	4b0e      	ldr	r3, [pc, #56]	; (100049e0 <xTaskGenericNotify+0x1e0>)
100049a6:	7859      	ldrb	r1, [r3, #1]
100049a8:	469c      	mov	ip, r3
100049aa:	3101      	adds	r1, #1
100049ac:	7059      	strb	r1, [r3, #1]
100049ae:	e7c9      	b.n	10004944 <xTaskGenericNotify+0x144>
100049b0:	4663      	mov	r3, ip
100049b2:	4661      	mov	r1, ip
100049b4:	781b      	ldrb	r3, [r3, #0]
100049b6:	3301      	adds	r3, #1
100049b8:	700b      	strb	r3, [r1, #0]
100049ba:	4653      	mov	r3, sl
100049bc:	6818      	ldr	r0, [r3, #0]
100049be:	0081      	lsls	r1, r0, #2
100049c0:	5853      	ldr	r3, [r2, r1]
100049c2:	e735      	b.n	10004830 <xTaskGenericNotify+0x30>
100049c4:	20020ae4 	.word	0x20020ae4
100049c8:	20020a38 	.word	0x20020a38
100049cc:	20020a50 	.word	0x20020a50
100049d0:	20000790 	.word	0x20000790
100049d4:	20020a48 	.word	0x20020a48
100049d8:	d000013c 	.word	0xd000013c
100049dc:	20020a28 	.word	0x20020a28
100049e0:	20020a2c 	.word	0x20020a2c
100049e4:	d0000138 	.word	0xd0000138

100049e8 <vTaskGenericNotifyGiveFromISR>:
100049e8:	b5f0      	push	{r4, r5, r6, r7, lr}
100049ea:	46c6      	mov	lr, r8
100049ec:	0016      	movs	r6, r2
100049ee:	2200      	movs	r2, #0
100049f0:	4f46      	ldr	r7, [pc, #280]	; (10004b0c <vTaskGenericNotifyGiveFromISR+0x124>)
100049f2:	0005      	movs	r5, r0
100049f4:	683b      	ldr	r3, [r7, #0]
100049f6:	000c      	movs	r4, r1
100049f8:	4690      	mov	r8, r2
100049fa:	b500      	push	{lr}
100049fc:	2b00      	cmp	r3, #0
100049fe:	d15f      	bne.n	10004ac0 <vTaskGenericNotifyGiveFromISR+0xd8>
10004a00:	2102      	movs	r1, #2
10004a02:	192b      	adds	r3, r5, r4
10004a04:	3378      	adds	r3, #120	; 0x78
10004a06:	00a4      	lsls	r4, r4, #2
10004a08:	781a      	ldrb	r2, [r3, #0]
10004a0a:	192c      	adds	r4, r5, r4
10004a0c:	7019      	strb	r1, [r3, #0]
10004a0e:	6f63      	ldr	r3, [r4, #116]	; 0x74
10004a10:	3301      	adds	r3, #1
10004a12:	6763      	str	r3, [r4, #116]	; 0x74
10004a14:	2a01      	cmp	r2, #1
10004a16:	d027      	beq.n	10004a68 <vTaskGenericNotifyGiveFromISR+0x80>
10004a18:	683b      	ldr	r3, [r7, #0]
10004a1a:	2b00      	cmp	r3, #0
10004a1c:	d021      	beq.n	10004a62 <vTaskGenericNotifyGiveFromISR+0x7a>
10004a1e:	20d0      	movs	r0, #208	; 0xd0
10004a20:	0600      	lsls	r0, r0, #24
10004a22:	6803      	ldr	r3, [r0, #0]
10004a24:	493a      	ldr	r1, [pc, #232]	; (10004b10 <vTaskGenericNotifyGiveFromISR+0x128>)
10004a26:	009b      	lsls	r3, r3, #2
10004a28:	585a      	ldr	r2, [r3, r1]
10004a2a:	2a00      	cmp	r2, #0
10004a2c:	d019      	beq.n	10004a62 <vTaskGenericNotifyGiveFromISR+0x7a>
10004a2e:	3a01      	subs	r2, #1
10004a30:	505a      	str	r2, [r3, r1]
10004a32:	6802      	ldr	r2, [r0, #0]
10004a34:	0093      	lsls	r3, r2, #2
10004a36:	585b      	ldr	r3, [r3, r1]
10004a38:	2b00      	cmp	r3, #0
10004a3a:	d112      	bne.n	10004a62 <vTaskGenericNotifyGiveFromISR+0x7a>
10004a3c:	4935      	ldr	r1, [pc, #212]	; (10004b14 <vTaskGenericNotifyGiveFromISR+0x12c>)
10004a3e:	780b      	ldrb	r3, [r1, #0]
10004a40:	3b01      	subs	r3, #1
10004a42:	b2db      	uxtb	r3, r3
10004a44:	700b      	strb	r3, [r1, #0]
10004a46:	2b00      	cmp	r3, #0
10004a48:	d108      	bne.n	10004a5c <vTaskGenericNotifyGiveFromISR+0x74>
10004a4a:	2101      	movs	r1, #1
10004a4c:	4832      	ldr	r0, [pc, #200]	; (10004b18 <vTaskGenericNotifyGiveFromISR+0x130>)
10004a4e:	5c83      	ldrb	r3, [r0, r2]
10004a50:	438b      	bics	r3, r1
10004a52:	5483      	strb	r3, [r0, r2]
10004a54:	f3bf 8f5f 	dmb	sy
10004a58:	4b30      	ldr	r3, [pc, #192]	; (10004b1c <vTaskGenericNotifyGiveFromISR+0x134>)
10004a5a:	6019      	str	r1, [r3, #0]
10004a5c:	4640      	mov	r0, r8
10004a5e:	f7fc fc49 	bl	100012f4 <vClearInterruptMaskFromISR>
10004a62:	bc80      	pop	{r7}
10004a64:	46b8      	mov	r8, r7
10004a66:	bdf0      	pop	{r4, r5, r6, r7, pc}
10004a68:	4b2d      	ldr	r3, [pc, #180]	; (10004b20 <vTaskGenericNotifyGiveFromISR+0x138>)
10004a6a:	681b      	ldr	r3, [r3, #0]
10004a6c:	2b00      	cmp	r3, #0
10004a6e:	d12b      	bne.n	10004ac8 <vTaskGenericNotifyGiveFromISR+0xe0>
10004a70:	002c      	movs	r4, r5
10004a72:	69ab      	ldr	r3, [r5, #24]
10004a74:	68e9      	ldr	r1, [r5, #12]
10004a76:	692a      	ldr	r2, [r5, #16]
10004a78:	3408      	adds	r4, #8
10004a7a:	608a      	str	r2, [r1, #8]
10004a7c:	6051      	str	r1, [r2, #4]
10004a7e:	6859      	ldr	r1, [r3, #4]
10004a80:	42a1      	cmp	r1, r4
10004a82:	d040      	beq.n	10004b06 <vTaskGenericNotifyGiveFromISR+0x11e>
10004a84:	681a      	ldr	r2, [r3, #0]
10004a86:	3a01      	subs	r2, #1
10004a88:	601a      	str	r2, [r3, #0]
10004a8a:	4b26      	ldr	r3, [pc, #152]	; (10004b24 <vTaskGenericNotifyGiveFromISR+0x13c>)
10004a8c:	6b2a      	ldr	r2, [r5, #48]	; 0x30
10004a8e:	6819      	ldr	r1, [r3, #0]
10004a90:	428a      	cmp	r2, r1
10004a92:	d900      	bls.n	10004a96 <vTaskGenericNotifyGiveFromISR+0xae>
10004a94:	601a      	str	r2, [r3, #0]
10004a96:	4b24      	ldr	r3, [pc, #144]	; (10004b28 <vTaskGenericNotifyGiveFromISR+0x140>)
10004a98:	469c      	mov	ip, r3
10004a9a:	0093      	lsls	r3, r2, #2
10004a9c:	189b      	adds	r3, r3, r2
10004a9e:	4662      	mov	r2, ip
10004aa0:	009b      	lsls	r3, r3, #2
10004aa2:	18d0      	adds	r0, r2, r3
10004aa4:	6842      	ldr	r2, [r0, #4]
10004aa6:	6891      	ldr	r1, [r2, #8]
10004aa8:	60ea      	str	r2, [r5, #12]
10004aaa:	6129      	str	r1, [r5, #16]
10004aac:	6891      	ldr	r1, [r2, #8]
10004aae:	604c      	str	r4, [r1, #4]
10004ab0:	6094      	str	r4, [r2, #8]
10004ab2:	4662      	mov	r2, ip
10004ab4:	4661      	mov	r1, ip
10004ab6:	58d2      	ldr	r2, [r2, r3]
10004ab8:	61a8      	str	r0, [r5, #24]
10004aba:	3201      	adds	r2, #1
10004abc:	50ca      	str	r2, [r1, r3]
10004abe:	e011      	b.n	10004ae4 <vTaskGenericNotifyGiveFromISR+0xfc>
10004ac0:	f7fd feae 	bl	10002820 <vTaskEnterCriticalFromISR.part.0>
10004ac4:	4680      	mov	r8, r0
10004ac6:	e79b      	b.n	10004a00 <vTaskGenericNotifyGiveFromISR+0x18>
10004ac8:	4b18      	ldr	r3, [pc, #96]	; (10004b2c <vTaskGenericNotifyGiveFromISR+0x144>)
10004aca:	685a      	ldr	r2, [r3, #4]
10004acc:	6891      	ldr	r1, [r2, #8]
10004ace:	622a      	str	r2, [r5, #32]
10004ad0:	6269      	str	r1, [r5, #36]	; 0x24
10004ad2:	0029      	movs	r1, r5
10004ad4:	6890      	ldr	r0, [r2, #8]
10004ad6:	311c      	adds	r1, #28
10004ad8:	6041      	str	r1, [r0, #4]
10004ada:	6091      	str	r1, [r2, #8]
10004adc:	681a      	ldr	r2, [r3, #0]
10004ade:	62eb      	str	r3, [r5, #44]	; 0x2c
10004ae0:	3201      	adds	r2, #1
10004ae2:	601a      	str	r2, [r3, #0]
10004ae4:	0028      	movs	r0, r5
10004ae6:	f7fd fc39 	bl	1000235c <prvYieldForTask>
10004aea:	23d0      	movs	r3, #208	; 0xd0
10004aec:	061b      	lsls	r3, r3, #24
10004aee:	681b      	ldr	r3, [r3, #0]
10004af0:	4a0f      	ldr	r2, [pc, #60]	; (10004b30 <vTaskGenericNotifyGiveFromISR+0x148>)
10004af2:	009b      	lsls	r3, r3, #2
10004af4:	589b      	ldr	r3, [r3, r2]
10004af6:	2b01      	cmp	r3, #1
10004af8:	d000      	beq.n	10004afc <vTaskGenericNotifyGiveFromISR+0x114>
10004afa:	e78d      	b.n	10004a18 <vTaskGenericNotifyGiveFromISR+0x30>
10004afc:	2e00      	cmp	r6, #0
10004afe:	d100      	bne.n	10004b02 <vTaskGenericNotifyGiveFromISR+0x11a>
10004b00:	e78a      	b.n	10004a18 <vTaskGenericNotifyGiveFromISR+0x30>
10004b02:	6033      	str	r3, [r6, #0]
10004b04:	e788      	b.n	10004a18 <vTaskGenericNotifyGiveFromISR+0x30>
10004b06:	605a      	str	r2, [r3, #4]
10004b08:	e7bc      	b.n	10004a84 <vTaskGenericNotifyGiveFromISR+0x9c>
10004b0a:	46c0      	nop			; (mov r8, r8)
10004b0c:	20020ae4 	.word	0x20020ae4
10004b10:	20020a38 	.word	0x20020a38
10004b14:	20020a2c 	.word	0x20020a2c
10004b18:	20020a28 	.word	0x20020a28
10004b1c:	d0000138 	.word	0xd0000138
10004b20:	20020a48 	.word	0x20020a48
10004b24:	20020a50 	.word	0x20020a50
10004b28:	20000790 	.word	0x20000790
10004b2c:	20020ad0 	.word	0x20020ad0
10004b30:	20020b24 	.word	0x20020b24

10004b34 <prvTimerTask>:
10004b34:	4bd4      	ldr	r3, [pc, #848]	; (10004e88 <prvTimerTask+0x354>)
10004b36:	b5f0      	push	{r4, r5, r6, r7, lr}
10004b38:	46de      	mov	lr, fp
10004b3a:	4657      	mov	r7, sl
10004b3c:	464e      	mov	r6, r9
10004b3e:	4645      	mov	r5, r8
10004b40:	4698      	mov	r8, r3
10004b42:	4bd2      	ldr	r3, [pc, #840]	; (10004e8c <prvTimerTask+0x358>)
10004b44:	b5e0      	push	{r5, r6, r7, lr}
10004b46:	4699      	mov	r9, r3
10004b48:	4bd1      	ldr	r3, [pc, #836]	; (10004e90 <prvTimerTask+0x35c>)
10004b4a:	b089      	sub	sp, #36	; 0x24
10004b4c:	469a      	mov	sl, r3
10004b4e:	4bd1      	ldr	r3, [pc, #836]	; (10004e94 <prvTimerTask+0x360>)
10004b50:	469b      	mov	fp, r3
10004b52:	4643      	mov	r3, r8
10004b54:	681b      	ldr	r3, [r3, #0]
10004b56:	681c      	ldr	r4, [r3, #0]
10004b58:	2c00      	cmp	r4, #0
10004b5a:	d100      	bne.n	10004b5e <prvTimerTask+0x2a>
10004b5c:	e0c9      	b.n	10004cf2 <prvTimerTask+0x1be>
10004b5e:	68db      	ldr	r3, [r3, #12]
10004b60:	681c      	ldr	r4, [r3, #0]
10004b62:	f7fe f81b 	bl	10002b9c <vTaskSuspendAll>
10004b66:	f7fe f887 	bl	10002c78 <xTaskGetTickCount>
10004b6a:	464b      	mov	r3, r9
10004b6c:	681b      	ldr	r3, [r3, #0]
10004b6e:	9001      	str	r0, [sp, #4]
10004b70:	4283      	cmp	r3, r0
10004b72:	d842      	bhi.n	10004bfa <prvTimerTask+0xc6>
10004b74:	464a      	mov	r2, r9
10004b76:	6010      	str	r0, [r2, #0]
10004b78:	4284      	cmp	r4, r0
10004b7a:	d800      	bhi.n	10004b7e <prvTimerTask+0x4a>
10004b7c:	e12c      	b.n	10004dd8 <prvTimerTask+0x2a4>
10004b7e:	2200      	movs	r2, #0
10004b80:	9b01      	ldr	r3, [sp, #4]
10004b82:	1ae1      	subs	r1, r4, r3
10004b84:	465b      	mov	r3, fp
10004b86:	6818      	ldr	r0, [r3, #0]
10004b88:	f7fd fbb4 	bl	100022f4 <vQueueWaitForMessageRestricted>
10004b8c:	f7ff fc06 	bl	1000439c <xTaskResumeAll>
10004b90:	2800      	cmp	r0, #0
10004b92:	d100      	bne.n	10004b96 <prvTimerTask+0x62>
10004b94:	e112      	b.n	10004dbc <prvTimerTask+0x288>
10004b96:	2210      	movs	r2, #16
10004b98:	2100      	movs	r1, #0
10004b9a:	a804      	add	r0, sp, #16
10004b9c:	f002 faba 	bl	10007114 <__wrap_memset>
10004ba0:	465b      	mov	r3, fp
10004ba2:	2200      	movs	r2, #0
10004ba4:	6818      	ldr	r0, [r3, #0]
10004ba6:	a904      	add	r1, sp, #16
10004ba8:	f7fd f9aa 	bl	10001f00 <xQueueReceive>
10004bac:	2800      	cmp	r0, #0
10004bae:	d0d0      	beq.n	10004b52 <prvTimerTask+0x1e>
10004bb0:	9b04      	ldr	r3, [sp, #16]
10004bb2:	9301      	str	r3, [sp, #4]
10004bb4:	2b00      	cmp	r3, #0
10004bb6:	da00      	bge.n	10004bba <prvTimerTask+0x86>
10004bb8:	e08c      	b.n	10004cd4 <prvTimerTask+0x1a0>
10004bba:	9f06      	ldr	r7, [sp, #24]
10004bbc:	697b      	ldr	r3, [r7, #20]
10004bbe:	2b00      	cmp	r3, #0
10004bc0:	d002      	beq.n	10004bc8 <prvTimerTask+0x94>
10004bc2:	1d38      	adds	r0, r7, #4
10004bc4:	f7fc fe30 	bl	10001828 <uxListRemove>
10004bc8:	f7fe f856 	bl	10002c78 <xTaskGetTickCount>
10004bcc:	464b      	mov	r3, r9
10004bce:	681b      	ldr	r3, [r3, #0]
10004bd0:	9001      	str	r0, [sp, #4]
10004bd2:	4298      	cmp	r0, r3
10004bd4:	d200      	bcs.n	10004bd8 <prvTimerTask+0xa4>
10004bd6:	e0ab      	b.n	10004d30 <prvTimerTask+0x1fc>
10004bd8:	464b      	mov	r3, r9
10004bda:	9a01      	ldr	r2, [sp, #4]
10004bdc:	601a      	str	r2, [r3, #0]
10004bde:	9b04      	ldr	r3, [sp, #16]
10004be0:	2b09      	cmp	r3, #9
10004be2:	d8dd      	bhi.n	10004ba0 <prvTimerTask+0x6c>
10004be4:	4aac      	ldr	r2, [pc, #688]	; (10004e98 <prvTimerTask+0x364>)
10004be6:	009b      	lsls	r3, r3, #2
10004be8:	58d3      	ldr	r3, [r2, r3]
10004bea:	469f      	mov	pc, r3
10004bec:	2201      	movs	r2, #1
10004bee:	4393      	bics	r3, r2
10004bf0:	3227      	adds	r2, #39	; 0x27
10004bf2:	54a3      	strb	r3, [r4, r2]
10004bf4:	0020      	movs	r0, r4
10004bf6:	6a23      	ldr	r3, [r4, #32]
10004bf8:	4798      	blx	r3
10004bfa:	4643      	mov	r3, r8
10004bfc:	681b      	ldr	r3, [r3, #0]
10004bfe:	681a      	ldr	r2, [r3, #0]
10004c00:	2a00      	cmp	r2, #0
10004c02:	d100      	bne.n	10004c06 <prvTimerTask+0xd2>
10004c04:	e088      	b.n	10004d18 <prvTimerTask+0x1e4>
10004c06:	68db      	ldr	r3, [r3, #12]
10004c08:	68dc      	ldr	r4, [r3, #12]
10004c0a:	681e      	ldr	r6, [r3, #0]
10004c0c:	1d27      	adds	r7, r4, #4
10004c0e:	0038      	movs	r0, r7
10004c10:	f7fc fe0a 	bl	10001828 <uxListRemove>
10004c14:	2328      	movs	r3, #40	; 0x28
10004c16:	2204      	movs	r2, #4
10004c18:	5ce3      	ldrb	r3, [r4, r3]
10004c1a:	421a      	tst	r2, r3
10004c1c:	d0e6      	beq.n	10004bec <prvTimerTask+0xb8>
10004c1e:	69a3      	ldr	r3, [r4, #24]
10004c20:	6124      	str	r4, [r4, #16]
10004c22:	18f5      	adds	r5, r6, r3
10004c24:	43f6      	mvns	r6, r6
10004c26:	6065      	str	r5, [r4, #4]
10004c28:	42b3      	cmp	r3, r6
10004c2a:	d80a      	bhi.n	10004c42 <prvTimerTask+0x10e>
10004c2c:	002e      	movs	r6, r5
10004c2e:	43f6      	mvns	r6, r6
10004c30:	6a23      	ldr	r3, [r4, #32]
10004c32:	0020      	movs	r0, r4
10004c34:	4798      	blx	r3
10004c36:	69a3      	ldr	r3, [r4, #24]
10004c38:	6124      	str	r4, [r4, #16]
10004c3a:	18ed      	adds	r5, r5, r3
10004c3c:	6065      	str	r5, [r4, #4]
10004c3e:	42b3      	cmp	r3, r6
10004c40:	d9f4      	bls.n	10004c2c <prvTimerTask+0xf8>
10004c42:	4653      	mov	r3, sl
10004c44:	0039      	movs	r1, r7
10004c46:	6818      	ldr	r0, [r3, #0]
10004c48:	f7fc fdd6 	bl	100017f8 <vListInsert>
10004c4c:	e7d2      	b.n	10004bf4 <prvTimerTask+0xc0>
10004c4e:	2228      	movs	r2, #40	; 0x28
10004c50:	2301      	movs	r3, #1
10004c52:	5cb8      	ldrb	r0, [r7, r2]
10004c54:	9905      	ldr	r1, [sp, #20]
10004c56:	4303      	orrs	r3, r0
10004c58:	54bb      	strb	r3, [r7, r2]
10004c5a:	69ba      	ldr	r2, [r7, #24]
10004c5c:	9c01      	ldr	r4, [sp, #4]
10004c5e:	188b      	adds	r3, r1, r2
10004c60:	607b      	str	r3, [r7, #4]
10004c62:	613f      	str	r7, [r7, #16]
10004c64:	42a3      	cmp	r3, r4
10004c66:	d900      	bls.n	10004c6a <prvTimerTask+0x136>
10004c68:	e0ab      	b.n	10004dc2 <prvTimerTask+0x28e>
10004c6a:	1a61      	subs	r1, r4, r1
10004c6c:	428a      	cmp	r2, r1
10004c6e:	d81b      	bhi.n	10004ca8 <prvTimerTask+0x174>
10004c70:	0741      	lsls	r1, r0, #29
10004c72:	d500      	bpl.n	10004c76 <prvTimerTask+0x142>
10004c74:	e0e9      	b.n	10004e4a <prvTimerTask+0x316>
10004c76:	2301      	movs	r3, #1
10004c78:	4398      	bics	r0, r3
10004c7a:	3327      	adds	r3, #39	; 0x27
10004c7c:	54f8      	strb	r0, [r7, r3]
10004c7e:	0038      	movs	r0, r7
10004c80:	6a3b      	ldr	r3, [r7, #32]
10004c82:	4798      	blx	r3
10004c84:	e78c      	b.n	10004ba0 <prvTimerTask+0x6c>
10004c86:	2128      	movs	r1, #40	; 0x28
10004c88:	2201      	movs	r2, #1
10004c8a:	5c7b      	ldrb	r3, [r7, r1]
10004c8c:	4313      	orrs	r3, r2
10004c8e:	547b      	strb	r3, [r7, r1]
10004c90:	9b05      	ldr	r3, [sp, #20]
10004c92:	9901      	ldr	r1, [sp, #4]
10004c94:	61bb      	str	r3, [r7, #24]
10004c96:	185a      	adds	r2, r3, r1
10004c98:	607a      	str	r2, [r7, #4]
10004c9a:	613f      	str	r7, [r7, #16]
10004c9c:	428a      	cmp	r2, r1
10004c9e:	d900      	bls.n	10004ca2 <prvTimerTask+0x16e>
10004ca0:	e094      	b.n	10004dcc <prvTimerTask+0x298>
10004ca2:	2b00      	cmp	r3, #0
10004ca4:	d100      	bne.n	10004ca8 <prvTimerTask+0x174>
10004ca6:	e77b      	b.n	10004ba0 <prvTimerTask+0x6c>
10004ca8:	4653      	mov	r3, sl
10004caa:	1d39      	adds	r1, r7, #4
10004cac:	6818      	ldr	r0, [r3, #0]
10004cae:	f7fc fda3 	bl	100017f8 <vListInsert>
10004cb2:	e775      	b.n	10004ba0 <prvTimerTask+0x6c>
10004cb4:	2228      	movs	r2, #40	; 0x28
10004cb6:	2101      	movs	r1, #1
10004cb8:	5cbb      	ldrb	r3, [r7, r2]
10004cba:	438b      	bics	r3, r1
10004cbc:	54bb      	strb	r3, [r7, r2]
10004cbe:	e76f      	b.n	10004ba0 <prvTimerTask+0x6c>
10004cc0:	2328      	movs	r3, #40	; 0x28
10004cc2:	5cfb      	ldrb	r3, [r7, r3]
10004cc4:	079a      	lsls	r2, r3, #30
10004cc6:	d400      	bmi.n	10004cca <prvTimerTask+0x196>
10004cc8:	e09b      	b.n	10004e02 <prvTimerTask+0x2ce>
10004cca:	2201      	movs	r2, #1
10004ccc:	4393      	bics	r3, r2
10004cce:	3227      	adds	r2, #39	; 0x27
10004cd0:	54bb      	strb	r3, [r7, r2]
10004cd2:	e765      	b.n	10004ba0 <prvTimerTask+0x6c>
10004cd4:	9b07      	ldr	r3, [sp, #28]
10004cd6:	9301      	str	r3, [sp, #4]
10004cd8:	9b06      	ldr	r3, [sp, #24]
10004cda:	9901      	ldr	r1, [sp, #4]
10004cdc:	9302      	str	r3, [sp, #8]
10004cde:	9b05      	ldr	r3, [sp, #20]
10004ce0:	9802      	ldr	r0, [sp, #8]
10004ce2:	9303      	str	r3, [sp, #12]
10004ce4:	4798      	blx	r3
10004ce6:	9b04      	ldr	r3, [sp, #16]
10004ce8:	9301      	str	r3, [sp, #4]
10004cea:	2b00      	cmp	r3, #0
10004cec:	da00      	bge.n	10004cf0 <prvTimerTask+0x1bc>
10004cee:	e757      	b.n	10004ba0 <prvTimerTask+0x6c>
10004cf0:	e763      	b.n	10004bba <prvTimerTask+0x86>
10004cf2:	f7fd ff53 	bl	10002b9c <vTaskSuspendAll>
10004cf6:	f7fd ffbf 	bl	10002c78 <xTaskGetTickCount>
10004cfa:	464b      	mov	r3, r9
10004cfc:	681b      	ldr	r3, [r3, #0]
10004cfe:	0002      	movs	r2, r0
10004d00:	9001      	str	r0, [sp, #4]
10004d02:	4298      	cmp	r0, r3
10004d04:	d200      	bcs.n	10004d08 <prvTimerTask+0x1d4>
10004d06:	e778      	b.n	10004bfa <prvTimerTask+0xc6>
10004d08:	464b      	mov	r3, r9
10004d0a:	601a      	str	r2, [r3, #0]
10004d0c:	4653      	mov	r3, sl
10004d0e:	681b      	ldr	r3, [r3, #0]
10004d10:	681a      	ldr	r2, [r3, #0]
10004d12:	4253      	negs	r3, r2
10004d14:	415a      	adcs	r2, r3
10004d16:	e733      	b.n	10004b80 <prvTimerTask+0x4c>
10004d18:	4651      	mov	r1, sl
10004d1a:	4642      	mov	r2, r8
10004d1c:	6809      	ldr	r1, [r1, #0]
10004d1e:	6011      	str	r1, [r2, #0]
10004d20:	4652      	mov	r2, sl
10004d22:	6013      	str	r3, [r2, #0]
10004d24:	464b      	mov	r3, r9
10004d26:	9a01      	ldr	r2, [sp, #4]
10004d28:	601a      	str	r2, [r3, #0]
10004d2a:	f7ff fb37 	bl	1000439c <xTaskResumeAll>
10004d2e:	e732      	b.n	10004b96 <prvTimerTask+0x62>
10004d30:	4643      	mov	r3, r8
10004d32:	681b      	ldr	r3, [r3, #0]
10004d34:	681a      	ldr	r2, [r3, #0]
10004d36:	2a00      	cmp	r2, #0
10004d38:	d039      	beq.n	10004dae <prvTimerTask+0x27a>
10004d3a:	9702      	str	r7, [sp, #8]
10004d3c:	e00b      	b.n	10004d56 <prvTimerTask+0x222>
10004d3e:	2201      	movs	r2, #1
10004d40:	4393      	bics	r3, r2
10004d42:	3227      	adds	r2, #39	; 0x27
10004d44:	54a3      	strb	r3, [r4, r2]
10004d46:	6a23      	ldr	r3, [r4, #32]
10004d48:	0020      	movs	r0, r4
10004d4a:	4798      	blx	r3
10004d4c:	4643      	mov	r3, r8
10004d4e:	681b      	ldr	r3, [r3, #0]
10004d50:	681a      	ldr	r2, [r3, #0]
10004d52:	2a00      	cmp	r2, #0
10004d54:	d02a      	beq.n	10004dac <prvTimerTask+0x278>
10004d56:	68db      	ldr	r3, [r3, #12]
10004d58:	68dc      	ldr	r4, [r3, #12]
10004d5a:	681e      	ldr	r6, [r3, #0]
10004d5c:	1d27      	adds	r7, r4, #4
10004d5e:	0038      	movs	r0, r7
10004d60:	f7fc fd62 	bl	10001828 <uxListRemove>
10004d64:	2328      	movs	r3, #40	; 0x28
10004d66:	2204      	movs	r2, #4
10004d68:	5ce3      	ldrb	r3, [r4, r3]
10004d6a:	421a      	tst	r2, r3
10004d6c:	d0e7      	beq.n	10004d3e <prvTimerTask+0x20a>
10004d6e:	69a3      	ldr	r3, [r4, #24]
10004d70:	6124      	str	r4, [r4, #16]
10004d72:	18f5      	adds	r5, r6, r3
10004d74:	43f6      	mvns	r6, r6
10004d76:	6065      	str	r5, [r4, #4]
10004d78:	42b3      	cmp	r3, r6
10004d7a:	d80a      	bhi.n	10004d92 <prvTimerTask+0x25e>
10004d7c:	002e      	movs	r6, r5
10004d7e:	43f6      	mvns	r6, r6
10004d80:	6a23      	ldr	r3, [r4, #32]
10004d82:	0020      	movs	r0, r4
10004d84:	4798      	blx	r3
10004d86:	69a3      	ldr	r3, [r4, #24]
10004d88:	6124      	str	r4, [r4, #16]
10004d8a:	18ed      	adds	r5, r5, r3
10004d8c:	6065      	str	r5, [r4, #4]
10004d8e:	42b3      	cmp	r3, r6
10004d90:	d9f4      	bls.n	10004d7c <prvTimerTask+0x248>
10004d92:	4653      	mov	r3, sl
10004d94:	0039      	movs	r1, r7
10004d96:	6818      	ldr	r0, [r3, #0]
10004d98:	f7fc fd2e 	bl	100017f8 <vListInsert>
10004d9c:	6a23      	ldr	r3, [r4, #32]
10004d9e:	0020      	movs	r0, r4
10004da0:	4798      	blx	r3
10004da2:	4643      	mov	r3, r8
10004da4:	681b      	ldr	r3, [r3, #0]
10004da6:	681a      	ldr	r2, [r3, #0]
10004da8:	2a00      	cmp	r2, #0
10004daa:	d1d4      	bne.n	10004d56 <prvTimerTask+0x222>
10004dac:	9f02      	ldr	r7, [sp, #8]
10004dae:	4651      	mov	r1, sl
10004db0:	4642      	mov	r2, r8
10004db2:	6809      	ldr	r1, [r1, #0]
10004db4:	6011      	str	r1, [r2, #0]
10004db6:	4652      	mov	r2, sl
10004db8:	6013      	str	r3, [r2, #0]
10004dba:	e70d      	b.n	10004bd8 <prvTimerTask+0xa4>
10004dbc:	f7fe fe6a 	bl	10003a94 <vTaskYieldWithinAPI>
10004dc0:	e6e9      	b.n	10004b96 <prvTimerTask+0x62>
10004dc2:	42a1      	cmp	r1, r4
10004dc4:	d902      	bls.n	10004dcc <prvTimerTask+0x298>
10004dc6:	4299      	cmp	r1, r3
10004dc8:	d800      	bhi.n	10004dcc <prvTimerTask+0x298>
10004dca:	e751      	b.n	10004c70 <prvTimerTask+0x13c>
10004dcc:	4643      	mov	r3, r8
10004dce:	1d39      	adds	r1, r7, #4
10004dd0:	6818      	ldr	r0, [r3, #0]
10004dd2:	f7fc fd11 	bl	100017f8 <vListInsert>
10004dd6:	e6e3      	b.n	10004ba0 <prvTimerTask+0x6c>
10004dd8:	f7ff fae0 	bl	1000439c <xTaskResumeAll>
10004ddc:	4643      	mov	r3, r8
10004dde:	681b      	ldr	r3, [r3, #0]
10004de0:	68db      	ldr	r3, [r3, #12]
10004de2:	68dd      	ldr	r5, [r3, #12]
10004de4:	1d2f      	adds	r7, r5, #4
10004de6:	0038      	movs	r0, r7
10004de8:	f7fc fd1e 	bl	10001828 <uxListRemove>
10004dec:	2228      	movs	r2, #40	; 0x28
10004dee:	5cab      	ldrb	r3, [r5, r2]
10004df0:	0759      	lsls	r1, r3, #29
10004df2:	d40a      	bmi.n	10004e0a <prvTimerTask+0x2d6>
10004df4:	2101      	movs	r1, #1
10004df6:	438b      	bics	r3, r1
10004df8:	54ab      	strb	r3, [r5, r2]
10004dfa:	0028      	movs	r0, r5
10004dfc:	6a2b      	ldr	r3, [r5, #32]
10004dfe:	4798      	blx	r3
10004e00:	e6c9      	b.n	10004b96 <prvTimerTask+0x62>
10004e02:	0038      	movs	r0, r7
10004e04:	f7fc f96c 	bl	100010e0 <vPortFree>
10004e08:	e6ca      	b.n	10004ba0 <prvTimerTask+0x6c>
10004e0a:	0023      	movs	r3, r4
10004e0c:	9c01      	ldr	r4, [sp, #4]
10004e0e:	e006      	b.n	10004e1e <prvTimerTask+0x2ea>
10004e10:	1ae3      	subs	r3, r4, r3
10004e12:	429a      	cmp	r2, r3
10004e14:	d813      	bhi.n	10004e3e <prvTimerTask+0x30a>
10004e16:	6a2b      	ldr	r3, [r5, #32]
10004e18:	0028      	movs	r0, r5
10004e1a:	4798      	blx	r3
10004e1c:	0033      	movs	r3, r6
10004e1e:	69aa      	ldr	r2, [r5, #24]
10004e20:	612d      	str	r5, [r5, #16]
10004e22:	189e      	adds	r6, r3, r2
10004e24:	606e      	str	r6, [r5, #4]
10004e26:	42a6      	cmp	r6, r4
10004e28:	d9f2      	bls.n	10004e10 <prvTimerTask+0x2dc>
10004e2a:	42a3      	cmp	r3, r4
10004e2c:	d901      	bls.n	10004e32 <prvTimerTask+0x2fe>
10004e2e:	42b3      	cmp	r3, r6
10004e30:	d9f1      	bls.n	10004e16 <prvTimerTask+0x2e2>
10004e32:	4643      	mov	r3, r8
10004e34:	0039      	movs	r1, r7
10004e36:	6818      	ldr	r0, [r3, #0]
10004e38:	f7fc fcde 	bl	100017f8 <vListInsert>
10004e3c:	e7dd      	b.n	10004dfa <prvTimerTask+0x2c6>
10004e3e:	4653      	mov	r3, sl
10004e40:	0039      	movs	r1, r7
10004e42:	6818      	ldr	r0, [r3, #0]
10004e44:	f7fc fcd8 	bl	100017f8 <vListInsert>
10004e48:	e7d7      	b.n	10004dfa <prvTimerTask+0x2c6>
10004e4a:	9d01      	ldr	r5, [sp, #4]
10004e4c:	e007      	b.n	10004e5e <prvTimerTask+0x32a>
10004e4e:	1aeb      	subs	r3, r5, r3
10004e50:	429a      	cmp	r2, r3
10004e52:	d813      	bhi.n	10004e7c <prvTimerTask+0x348>
10004e54:	6a3b      	ldr	r3, [r7, #32]
10004e56:	0038      	movs	r0, r7
10004e58:	4798      	blx	r3
10004e5a:	0023      	movs	r3, r4
10004e5c:	69ba      	ldr	r2, [r7, #24]
10004e5e:	18d4      	adds	r4, r2, r3
10004e60:	607c      	str	r4, [r7, #4]
10004e62:	613f      	str	r7, [r7, #16]
10004e64:	42a5      	cmp	r5, r4
10004e66:	d2f2      	bcs.n	10004e4e <prvTimerTask+0x31a>
10004e68:	429d      	cmp	r5, r3
10004e6a:	d201      	bcs.n	10004e70 <prvTimerTask+0x33c>
10004e6c:	42a3      	cmp	r3, r4
10004e6e:	d9f1      	bls.n	10004e54 <prvTimerTask+0x320>
10004e70:	4643      	mov	r3, r8
10004e72:	1d39      	adds	r1, r7, #4
10004e74:	6818      	ldr	r0, [r3, #0]
10004e76:	f7fc fcbf 	bl	100017f8 <vListInsert>
10004e7a:	e700      	b.n	10004c7e <prvTimerTask+0x14a>
10004e7c:	4653      	mov	r3, sl
10004e7e:	1d39      	adds	r1, r7, #4
10004e80:	6818      	ldr	r0, [r3, #0]
10004e82:	f7fc fcb9 	bl	100017f8 <vListInsert>
10004e86:	e6fa      	b.n	10004c7e <prvTimerTask+0x14a>
10004e88:	2000077c 	.word	0x2000077c
10004e8c:	20020ab4 	.word	0x20020ab4
10004e90:	2000078c 	.word	0x2000078c
10004e94:	20020b1c 	.word	0x20020b1c
10004e98:	10009118 	.word	0x10009118

10004e9c <xTimerCreateTimerTask>:
10004e9c:	b570      	push	{r4, r5, r6, lr}
10004e9e:	b084      	sub	sp, #16
10004ea0:	f7fe fe0c 	bl	10003abc <vTaskEnterCritical>
10004ea4:	4c18      	ldr	r4, [pc, #96]	; (10004f08 <xTimerCreateTimerTask+0x6c>)
10004ea6:	6823      	ldr	r3, [r4, #0]
10004ea8:	2b00      	cmp	r3, #0
10004eaa:	d015      	beq.n	10004ed8 <xTimerCreateTimerTask+0x3c>
10004eac:	f7ff fb44 	bl	10004538 <vTaskExitCritical>
10004eb0:	6823      	ldr	r3, [r4, #0]
10004eb2:	2000      	movs	r0, #0
10004eb4:	2b00      	cmp	r3, #0
10004eb6:	d00d      	beq.n	10004ed4 <xTimerCreateTimerTask+0x38>
10004eb8:	4b14      	ldr	r3, [pc, #80]	; (10004f0c <xTimerCreateTimerTask+0x70>)
10004eba:	2280      	movs	r2, #128	; 0x80
10004ebc:	9302      	str	r3, [sp, #8]
10004ebe:	2301      	movs	r3, #1
10004ec0:	425b      	negs	r3, r3
10004ec2:	9301      	str	r3, [sp, #4]
10004ec4:	3320      	adds	r3, #32
10004ec6:	9300      	str	r3, [sp, #0]
10004ec8:	4911      	ldr	r1, [pc, #68]	; (10004f10 <xTimerCreateTimerTask+0x74>)
10004eca:	2300      	movs	r3, #0
10004ecc:	4811      	ldr	r0, [pc, #68]	; (10004f14 <xTimerCreateTimerTask+0x78>)
10004ece:	00d2      	lsls	r2, r2, #3
10004ed0:	f7fe ffa4 	bl	10003e1c <xTaskCreateAffinitySet>
10004ed4:	b004      	add	sp, #16
10004ed6:	bd70      	pop	{r4, r5, r6, pc}
10004ed8:	4e0f      	ldr	r6, [pc, #60]	; (10004f18 <xTimerCreateTimerTask+0x7c>)
10004eda:	0030      	movs	r0, r6
10004edc:	f7fc fc70 	bl	100017c0 <vListInitialise>
10004ee0:	4d0e      	ldr	r5, [pc, #56]	; (10004f1c <xTimerCreateTimerTask+0x80>)
10004ee2:	0028      	movs	r0, r5
10004ee4:	f7fc fc6c 	bl	100017c0 <vListInitialise>
10004ee8:	4b0d      	ldr	r3, [pc, #52]	; (10004f20 <xTimerCreateTimerTask+0x84>)
10004eea:	2200      	movs	r2, #0
10004eec:	601e      	str	r6, [r3, #0]
10004eee:	4b0d      	ldr	r3, [pc, #52]	; (10004f24 <xTimerCreateTimerTask+0x88>)
10004ef0:	2110      	movs	r1, #16
10004ef2:	200a      	movs	r0, #10
10004ef4:	601d      	str	r5, [r3, #0]
10004ef6:	f7fc fd99 	bl	10001a2c <xQueueGenericCreate>
10004efa:	6020      	str	r0, [r4, #0]
10004efc:	2800      	cmp	r0, #0
10004efe:	d0d5      	beq.n	10004eac <xTimerCreateTimerTask+0x10>
10004f00:	4909      	ldr	r1, [pc, #36]	; (10004f28 <xTimerCreateTimerTask+0x8c>)
10004f02:	f7fd f981 	bl	10002208 <vQueueAddToRegistry>
10004f06:	e7d1      	b.n	10004eac <xTimerCreateTimerTask+0x10>
10004f08:	20020b1c 	.word	0x20020b1c
10004f0c:	20020b20 	.word	0x20020b20
10004f10:	10009148 	.word	0x10009148
10004f14:	10004b35 	.word	0x10004b35
10004f18:	20020a54 	.word	0x20020a54
10004f1c:	20020a68 	.word	0x20020a68
10004f20:	2000077c 	.word	0x2000077c
10004f24:	2000078c 	.word	0x2000078c
10004f28:	10009140 	.word	0x10009140

10004f2c <xTimerCreate>:
10004f2c:	b5f8      	push	{r3, r4, r5, r6, r7, lr}
10004f2e:	4645      	mov	r5, r8
10004f30:	46de      	mov	lr, fp
10004f32:	4657      	mov	r7, sl
10004f34:	464e      	mov	r6, r9
10004f36:	b5e0      	push	{r5, r6, r7, lr}
10004f38:	0007      	movs	r7, r0
10004f3a:	202c      	movs	r0, #44	; 0x2c
10004f3c:	4688      	mov	r8, r1
10004f3e:	0016      	movs	r6, r2
10004f40:	001d      	movs	r5, r3
10004f42:	f7fc f843 	bl	10000fcc <pvPortMalloc>
10004f46:	1e04      	subs	r4, r0, #0
10004f48:	d01b      	beq.n	10004f82 <xTimerCreate+0x56>
10004f4a:	2328      	movs	r3, #40	; 0x28
10004f4c:	2200      	movs	r2, #0
10004f4e:	54c2      	strb	r2, [r0, r3]
10004f50:	f7fe fdb4 	bl	10003abc <vTaskEnterCritical>
10004f54:	4b1d      	ldr	r3, [pc, #116]	; (10004fcc <xTimerCreate+0xa0>)
10004f56:	4699      	mov	r9, r3
10004f58:	681b      	ldr	r3, [r3, #0]
10004f5a:	2b00      	cmp	r3, #0
10004f5c:	d018      	beq.n	10004f90 <xTimerCreate+0x64>
10004f5e:	f7ff faeb 	bl	10004538 <vTaskExitCritical>
10004f62:	4643      	mov	r3, r8
10004f64:	61a3      	str	r3, [r4, #24]
10004f66:	9b0a      	ldr	r3, [sp, #40]	; 0x28
10004f68:	6027      	str	r7, [r4, #0]
10004f6a:	61e5      	str	r5, [r4, #28]
10004f6c:	6223      	str	r3, [r4, #32]
10004f6e:	1d20      	adds	r0, r4, #4
10004f70:	f7fc fc32 	bl	100017d8 <vListInitialiseItem>
10004f74:	2e00      	cmp	r6, #0
10004f76:	d004      	beq.n	10004f82 <xTimerCreate+0x56>
10004f78:	2228      	movs	r2, #40	; 0x28
10004f7a:	2104      	movs	r1, #4
10004f7c:	5ca3      	ldrb	r3, [r4, r2]
10004f7e:	430b      	orrs	r3, r1
10004f80:	54a3      	strb	r3, [r4, r2]
10004f82:	0020      	movs	r0, r4
10004f84:	bcf0      	pop	{r4, r5, r6, r7}
10004f86:	46bb      	mov	fp, r7
10004f88:	46b2      	mov	sl, r6
10004f8a:	46a9      	mov	r9, r5
10004f8c:	46a0      	mov	r8, r4
10004f8e:	bdf8      	pop	{r3, r4, r5, r6, r7, pc}
10004f90:	4b0f      	ldr	r3, [pc, #60]	; (10004fd0 <xTimerCreate+0xa4>)
10004f92:	469b      	mov	fp, r3
10004f94:	0018      	movs	r0, r3
10004f96:	f7fc fc13 	bl	100017c0 <vListInitialise>
10004f9a:	4b0e      	ldr	r3, [pc, #56]	; (10004fd4 <xTimerCreate+0xa8>)
10004f9c:	0018      	movs	r0, r3
10004f9e:	469a      	mov	sl, r3
10004fa0:	f7fc fc0e 	bl	100017c0 <vListInitialise>
10004fa4:	465a      	mov	r2, fp
10004fa6:	4b0c      	ldr	r3, [pc, #48]	; (10004fd8 <xTimerCreate+0xac>)
10004fa8:	2110      	movs	r1, #16
10004faa:	601a      	str	r2, [r3, #0]
10004fac:	4652      	mov	r2, sl
10004fae:	4b0b      	ldr	r3, [pc, #44]	; (10004fdc <xTimerCreate+0xb0>)
10004fb0:	200a      	movs	r0, #10
10004fb2:	601a      	str	r2, [r3, #0]
10004fb4:	2200      	movs	r2, #0
10004fb6:	f7fc fd39 	bl	10001a2c <xQueueGenericCreate>
10004fba:	464b      	mov	r3, r9
10004fbc:	6018      	str	r0, [r3, #0]
10004fbe:	2800      	cmp	r0, #0
10004fc0:	d0cd      	beq.n	10004f5e <xTimerCreate+0x32>
10004fc2:	4907      	ldr	r1, [pc, #28]	; (10004fe0 <xTimerCreate+0xb4>)
10004fc4:	f7fd f920 	bl	10002208 <vQueueAddToRegistry>
10004fc8:	e7c9      	b.n	10004f5e <xTimerCreate+0x32>
10004fca:	46c0      	nop			; (mov r8, r8)
10004fcc:	20020b1c 	.word	0x20020b1c
10004fd0:	20020a54 	.word	0x20020a54
10004fd4:	20020a68 	.word	0x20020a68
10004fd8:	2000077c 	.word	0x2000077c
10004fdc:	2000078c 	.word	0x2000078c
10004fe0:	10009140 	.word	0x10009140

10004fe4 <xTimerGenericCommandFromTask>:
10004fe4:	b510      	push	{r4, lr}
10004fe6:	4c0f      	ldr	r4, [pc, #60]	; (10005024 <xTimerGenericCommandFromTask+0x40>)
10004fe8:	b084      	sub	sp, #16
10004fea:	6823      	ldr	r3, [r4, #0]
10004fec:	2b00      	cmp	r3, #0
10004fee:	d004      	beq.n	10004ffa <xTimerGenericCommandFromTask+0x16>
10004ff0:	9100      	str	r1, [sp, #0]
10004ff2:	9201      	str	r2, [sp, #4]
10004ff4:	9002      	str	r0, [sp, #8]
10004ff6:	2905      	cmp	r1, #5
10004ff8:	dd02      	ble.n	10005000 <xTimerGenericCommandFromTask+0x1c>
10004ffa:	2000      	movs	r0, #0
10004ffc:	b004      	add	sp, #16
10004ffe:	bd10      	pop	{r4, pc}
10005000:	f7fe fb8c 	bl	1000371c <xTaskGetSchedulerState>
10005004:	2802      	cmp	r0, #2
10005006:	d006      	beq.n	10005016 <xTimerGenericCommandFromTask+0x32>
10005008:	2300      	movs	r3, #0
1000500a:	2200      	movs	r2, #0
1000500c:	4669      	mov	r1, sp
1000500e:	6820      	ldr	r0, [r4, #0]
10005010:	f7fc fd6a 	bl	10001ae8 <xQueueGenericSend>
10005014:	e7f2      	b.n	10004ffc <xTimerGenericCommandFromTask+0x18>
10005016:	2300      	movs	r3, #0
10005018:	4669      	mov	r1, sp
1000501a:	6820      	ldr	r0, [r4, #0]
1000501c:	9a06      	ldr	r2, [sp, #24]
1000501e:	f7fc fd63 	bl	10001ae8 <xQueueGenericSend>
10005022:	e7eb      	b.n	10004ffc <xTimerGenericCommandFromTask+0x18>
10005024:	20020b1c 	.word	0x20020b1c

10005028 <pvTimerGetTimerID>:
10005028:	b510      	push	{r4, lr}
1000502a:	0004      	movs	r4, r0
1000502c:	f7fe fd46 	bl	10003abc <vTaskEnterCritical>
10005030:	69e4      	ldr	r4, [r4, #28]
10005032:	f7ff fa81 	bl	10004538 <vTaskExitCritical>
10005036:	0020      	movs	r0, r4
10005038:	bd10      	pop	{r4, pc}
1000503a:	46c0      	nop			; (mov r8, r8)

1000503c <xTimerPendFunctionCallFromISR>:
1000503c:	b510      	push	{r4, lr}
1000503e:	0014      	movs	r4, r2
10005040:	001a      	movs	r2, r3
10005042:	2302      	movs	r3, #2
10005044:	b084      	sub	sp, #16
10005046:	425b      	negs	r3, r3
10005048:	9300      	str	r3, [sp, #0]
1000504a:	4b05      	ldr	r3, [pc, #20]	; (10005060 <xTimerPendFunctionCallFromISR+0x24>)
1000504c:	9001      	str	r0, [sp, #4]
1000504e:	9102      	str	r1, [sp, #8]
10005050:	6818      	ldr	r0, [r3, #0]
10005052:	4669      	mov	r1, sp
10005054:	2300      	movs	r3, #0
10005056:	9403      	str	r4, [sp, #12]
10005058:	f7fc fe78 	bl	10001d4c <xQueueGenericSendFromISR>
1000505c:	b004      	add	sp, #16
1000505e:	bd10      	pop	{r4, pc}
10005060:	20020b1c 	.word	0x20020b1c

10005064 <clock_configure_int_divider>:
10005064:	b5f8      	push	{r3, r4, r5, r6, r7, lr}
10005066:	46de      	mov	lr, fp
10005068:	464e      	mov	r6, r9
1000506a:	4657      	mov	r7, sl
1000506c:	4645      	mov	r5, r8
1000506e:	b5e0      	push	{r5, r6, r7, lr}
10005070:	468b      	mov	fp, r1
10005072:	0005      	movs	r5, r0
10005074:	990a      	ldr	r1, [sp, #40]	; 0x28
10005076:	0018      	movs	r0, r3
10005078:	0016      	movs	r6, r2
1000507a:	f001 f9bf 	bl	100063fc <__wrap___aeabi_uidiv>
1000507e:	9b0a      	ldr	r3, [sp, #40]	; 0x28
10005080:	006c      	lsls	r4, r5, #1
10005082:	021f      	lsls	r7, r3, #8
10005084:	4b32      	ldr	r3, [pc, #200]	; (10005150 <clock_configure_int_divider+0xec>)
10005086:	1964      	adds	r4, r4, r5
10005088:	469c      	mov	ip, r3
1000508a:	00a4      	lsls	r4, r4, #2
1000508c:	4464      	add	r4, ip
1000508e:	6863      	ldr	r3, [r4, #4]
10005090:	4681      	mov	r9, r0
10005092:	429f      	cmp	r7, r3
10005094:	d900      	bls.n	10005098 <clock_configure_int_divider+0x34>
10005096:	6067      	str	r7, [r4, #4]
10005098:	1f2b      	subs	r3, r5, #4
1000509a:	b2db      	uxtb	r3, r3
1000509c:	4698      	mov	r8, r3
1000509e:	2b01      	cmp	r3, #1
100050a0:	d930      	bls.n	10005104 <clock_configure_int_divider+0xa0>
100050a2:	23c0      	movs	r3, #192	; 0xc0
100050a4:	2280      	movs	r2, #128	; 0x80
100050a6:	019b      	lsls	r3, r3, #6
100050a8:	18e3      	adds	r3, r4, r3
100050aa:	0112      	lsls	r2, r2, #4
100050ac:	601a      	str	r2, [r3, #0]
100050ae:	4b29      	ldr	r3, [pc, #164]	; (10005154 <clock_configure_int_divider+0xf0>)
100050b0:	00ad      	lsls	r5, r5, #2
100050b2:	5959      	ldr	r1, [r3, r5]
100050b4:	469a      	mov	sl, r3
100050b6:	2900      	cmp	r1, #0
100050b8:	d11b      	bne.n	100050f2 <clock_configure_int_divider+0x8e>
100050ba:	6822      	ldr	r2, [r4, #0]
100050bc:	0176      	lsls	r6, r6, #5
100050be:	4072      	eors	r2, r6
100050c0:	26e0      	movs	r6, #224	; 0xe0
100050c2:	2380      	movs	r3, #128	; 0x80
100050c4:	4016      	ands	r6, r2
100050c6:	4642      	mov	r2, r8
100050c8:	015b      	lsls	r3, r3, #5
100050ca:	18e3      	adds	r3, r4, r3
100050cc:	601e      	str	r6, [r3, #0]
100050ce:	2a01      	cmp	r2, #1
100050d0:	d930      	bls.n	10005134 <clock_configure_int_divider+0xd0>
100050d2:	2380      	movs	r3, #128	; 0x80
100050d4:	2280      	movs	r2, #128	; 0x80
100050d6:	019b      	lsls	r3, r3, #6
100050d8:	18e3      	adds	r3, r4, r3
100050da:	0112      	lsls	r2, r2, #4
100050dc:	601a      	str	r2, [r3, #0]
100050de:	4653      	mov	r3, sl
100050e0:	464a      	mov	r2, r9
100050e2:	6067      	str	r7, [r4, #4]
100050e4:	515a      	str	r2, [r3, r5]
100050e6:	bcf0      	pop	{r4, r5, r6, r7}
100050e8:	46bb      	mov	fp, r7
100050ea:	46b2      	mov	sl, r6
100050ec:	46a9      	mov	r9, r5
100050ee:	46a0      	mov	r8, r4
100050f0:	bdf8      	pop	{r3, r4, r5, r6, r7, pc}
100050f2:	6958      	ldr	r0, [r3, #20]
100050f4:	f001 f982 	bl	100063fc <__wrap___aeabi_uidiv>
100050f8:	1c43      	adds	r3, r0, #1
100050fa:	0058      	lsls	r0, r3, #1
100050fc:	18c0      	adds	r0, r0, r3
100050fe:	3803      	subs	r0, #3
10005100:	d2fd      	bcs.n	100050fe <clock_configure_int_divider+0x9a>
10005102:	e7da      	b.n	100050ba <clock_configure_int_divider+0x56>
10005104:	465b      	mov	r3, fp
10005106:	2b01      	cmp	r3, #1
10005108:	d1cb      	bne.n	100050a2 <clock_configure_int_divider+0x3e>
1000510a:	23c0      	movs	r3, #192	; 0xc0
1000510c:	2203      	movs	r2, #3
1000510e:	019b      	lsls	r3, r3, #6
10005110:	18e3      	adds	r3, r4, r3
10005112:	601a      	str	r2, [r3, #0]
10005114:	3a02      	subs	r2, #2
10005116:	68a3      	ldr	r3, [r4, #8]
10005118:	421a      	tst	r2, r3
1000511a:	d0fc      	beq.n	10005116 <clock_configure_int_divider+0xb2>
1000511c:	23e0      	movs	r3, #224	; 0xe0
1000511e:	6822      	ldr	r2, [r4, #0]
10005120:	0176      	lsls	r6, r6, #5
10005122:	4056      	eors	r6, r2
10005124:	401e      	ands	r6, r3
10005126:	2380      	movs	r3, #128	; 0x80
10005128:	4a0a      	ldr	r2, [pc, #40]	; (10005154 <clock_configure_int_divider+0xf0>)
1000512a:	015b      	lsls	r3, r3, #5
1000512c:	4692      	mov	sl, r2
1000512e:	18e3      	adds	r3, r4, r3
10005130:	601e      	str	r6, [r3, #0]
10005132:	00ad      	lsls	r5, r5, #2
10005134:	465a      	mov	r2, fp
10005136:	6821      	ldr	r1, [r4, #0]
10005138:	4051      	eors	r1, r2
1000513a:	2203      	movs	r2, #3
1000513c:	400a      	ands	r2, r1
1000513e:	601a      	str	r2, [r3, #0]
10005140:	2201      	movs	r2, #1
10005142:	465b      	mov	r3, fp
10005144:	409a      	lsls	r2, r3
10005146:	68a3      	ldr	r3, [r4, #8]
10005148:	421a      	tst	r2, r3
1000514a:	d0fc      	beq.n	10005146 <clock_configure_int_divider+0xe2>
1000514c:	e7c1      	b.n	100050d2 <clock_configure_int_divider+0x6e>
1000514e:	46c0      	nop			; (mov r8, r8)
10005150:	40008000 	.word	0x40008000
10005154:	2000072c 	.word	0x2000072c

10005158 <clock_configure_undivided>:
10005158:	b5f0      	push	{r4, r5, r6, r7, lr}
1000515a:	4646      	mov	r6, r8
1000515c:	464f      	mov	r7, r9
1000515e:	46d6      	mov	lr, sl
10005160:	b5c0      	push	{r6, r7, lr}
10005162:	001f      	movs	r7, r3
10005164:	4b34      	ldr	r3, [pc, #208]	; (10005238 <clock_configure_undivided+0xe0>)
10005166:	0044      	lsls	r4, r0, #1
10005168:	469c      	mov	ip, r3
1000516a:	1824      	adds	r4, r4, r0
1000516c:	00a4      	lsls	r4, r4, #2
1000516e:	4464      	add	r4, ip
10005170:	6863      	ldr	r3, [r4, #4]
10005172:	4688      	mov	r8, r1
10005174:	0016      	movs	r6, r2
10005176:	2bff      	cmp	r3, #255	; 0xff
10005178:	d802      	bhi.n	10005180 <clock_configure_undivided+0x28>
1000517a:	2380      	movs	r3, #128	; 0x80
1000517c:	005b      	lsls	r3, r3, #1
1000517e:	6063      	str	r3, [r4, #4]
10005180:	1f03      	subs	r3, r0, #4
10005182:	b2db      	uxtb	r3, r3
10005184:	469a      	mov	sl, r3
10005186:	2b01      	cmp	r3, #1
10005188:	d930      	bls.n	100051ec <clock_configure_undivided+0x94>
1000518a:	23c0      	movs	r3, #192	; 0xc0
1000518c:	2280      	movs	r2, #128	; 0x80
1000518e:	019b      	lsls	r3, r3, #6
10005190:	18e3      	adds	r3, r4, r3
10005192:	0112      	lsls	r2, r2, #4
10005194:	601a      	str	r2, [r3, #0]
10005196:	4b29      	ldr	r3, [pc, #164]	; (1000523c <clock_configure_undivided+0xe4>)
10005198:	0085      	lsls	r5, r0, #2
1000519a:	5959      	ldr	r1, [r3, r5]
1000519c:	4699      	mov	r9, r3
1000519e:	2900      	cmp	r1, #0
100051a0:	d11b      	bne.n	100051da <clock_configure_undivided+0x82>
100051a2:	6822      	ldr	r2, [r4, #0]
100051a4:	0176      	lsls	r6, r6, #5
100051a6:	4072      	eors	r2, r6
100051a8:	26e0      	movs	r6, #224	; 0xe0
100051aa:	2380      	movs	r3, #128	; 0x80
100051ac:	4016      	ands	r6, r2
100051ae:	4652      	mov	r2, sl
100051b0:	015b      	lsls	r3, r3, #5
100051b2:	18e3      	adds	r3, r4, r3
100051b4:	601e      	str	r6, [r3, #0]
100051b6:	2a01      	cmp	r2, #1
100051b8:	d930      	bls.n	1000521c <clock_configure_undivided+0xc4>
100051ba:	2380      	movs	r3, #128	; 0x80
100051bc:	2280      	movs	r2, #128	; 0x80
100051be:	019b      	lsls	r3, r3, #6
100051c0:	18e3      	adds	r3, r4, r3
100051c2:	0112      	lsls	r2, r2, #4
100051c4:	601a      	str	r2, [r3, #0]
100051c6:	2380      	movs	r3, #128	; 0x80
100051c8:	005b      	lsls	r3, r3, #1
100051ca:	6063      	str	r3, [r4, #4]
100051cc:	464b      	mov	r3, r9
100051ce:	515f      	str	r7, [r3, r5]
100051d0:	bce0      	pop	{r5, r6, r7}
100051d2:	46ba      	mov	sl, r7
100051d4:	46b1      	mov	r9, r6
100051d6:	46a8      	mov	r8, r5
100051d8:	bdf0      	pop	{r4, r5, r6, r7, pc}
100051da:	6958      	ldr	r0, [r3, #20]
100051dc:	f001 f90e 	bl	100063fc <__wrap___aeabi_uidiv>
100051e0:	1c43      	adds	r3, r0, #1
100051e2:	0058      	lsls	r0, r3, #1
100051e4:	18c0      	adds	r0, r0, r3
100051e6:	3803      	subs	r0, #3
100051e8:	d2fd      	bcs.n	100051e6 <clock_configure_undivided+0x8e>
100051ea:	e7da      	b.n	100051a2 <clock_configure_undivided+0x4a>
100051ec:	4643      	mov	r3, r8
100051ee:	2b01      	cmp	r3, #1
100051f0:	d1cb      	bne.n	1000518a <clock_configure_undivided+0x32>
100051f2:	23c0      	movs	r3, #192	; 0xc0
100051f4:	2203      	movs	r2, #3
100051f6:	019b      	lsls	r3, r3, #6
100051f8:	18e3      	adds	r3, r4, r3
100051fa:	601a      	str	r2, [r3, #0]
100051fc:	3a02      	subs	r2, #2
100051fe:	68a3      	ldr	r3, [r4, #8]
10005200:	421a      	tst	r2, r3
10005202:	d0fc      	beq.n	100051fe <clock_configure_undivided+0xa6>
10005204:	23e0      	movs	r3, #224	; 0xe0
10005206:	6822      	ldr	r2, [r4, #0]
10005208:	0176      	lsls	r6, r6, #5
1000520a:	4056      	eors	r6, r2
1000520c:	401e      	ands	r6, r3
1000520e:	2380      	movs	r3, #128	; 0x80
10005210:	4a0a      	ldr	r2, [pc, #40]	; (1000523c <clock_configure_undivided+0xe4>)
10005212:	015b      	lsls	r3, r3, #5
10005214:	4691      	mov	r9, r2
10005216:	18e3      	adds	r3, r4, r3
10005218:	601e      	str	r6, [r3, #0]
1000521a:	0085      	lsls	r5, r0, #2
1000521c:	4642      	mov	r2, r8
1000521e:	6821      	ldr	r1, [r4, #0]
10005220:	4051      	eors	r1, r2
10005222:	2203      	movs	r2, #3
10005224:	400a      	ands	r2, r1
10005226:	601a      	str	r2, [r3, #0]
10005228:	2301      	movs	r3, #1
1000522a:	4642      	mov	r2, r8
1000522c:	4093      	lsls	r3, r2
1000522e:	68a2      	ldr	r2, [r4, #8]
10005230:	4213      	tst	r3, r2
10005232:	d0fc      	beq.n	1000522e <clock_configure_undivided+0xd6>
10005234:	e7c1      	b.n	100051ba <clock_configure_undivided+0x62>
10005236:	46c0      	nop			; (mov r8, r8)
10005238:	40008000 	.word	0x40008000
1000523c:	2000072c 	.word	0x2000072c

10005240 <clock_get_hz>:
10005240:	4b01      	ldr	r3, [pc, #4]	; (10005248 <clock_get_hz+0x8>)
10005242:	0080      	lsls	r0, r0, #2
10005244:	58c0      	ldr	r0, [r0, r3]
10005246:	4770      	bx	lr
10005248:	2000072c 	.word	0x2000072c

1000524c <hw_claim_or_assert>:
1000524c:	b570      	push	{r4, r5, r6, lr}
1000524e:	f3ef 8c10 	mrs	ip, PRIMASK
10005252:	b672      	cpsid	i
10005254:	4d0d      	ldr	r5, [pc, #52]	; (1000528c <hw_claim_or_assert+0x40>)
10005256:	682b      	ldr	r3, [r5, #0]
10005258:	2b00      	cmp	r3, #0
1000525a:	d0fc      	beq.n	10005256 <hw_claim_or_assert+0xa>
1000525c:	f3bf 8f5f 	dmb	sy
10005260:	2407      	movs	r4, #7
10005262:	08cb      	lsrs	r3, r1, #3
10005264:	18c6      	adds	r6, r0, r3
10005266:	5cc0      	ldrb	r0, [r0, r3]
10005268:	2301      	movs	r3, #1
1000526a:	400c      	ands	r4, r1
1000526c:	40a3      	lsls	r3, r4
1000526e:	001c      	movs	r4, r3
10005270:	4004      	ands	r4, r0
10005272:	4203      	tst	r3, r0
10005274:	d107      	bne.n	10005286 <hw_claim_or_assert+0x3a>
10005276:	4303      	orrs	r3, r0
10005278:	7033      	strb	r3, [r6, #0]
1000527a:	f3bf 8f5f 	dmb	sy
1000527e:	602c      	str	r4, [r5, #0]
10005280:	f38c 8810 	msr	PRIMASK, ip
10005284:	bd70      	pop	{r4, r5, r6, pc}
10005286:	0010      	movs	r0, r2
10005288:	f7fb fe82 	bl	10000f90 <panic>
1000528c:	d000012c 	.word	0xd000012c

10005290 <next_striped_spin_lock_num>:
10005290:	4a04      	ldr	r2, [pc, #16]	; (100052a4 <next_striped_spin_lock_num+0x14>)
10005292:	7810      	ldrb	r0, [r2, #0]
10005294:	1c43      	adds	r3, r0, #1
10005296:	b2db      	uxtb	r3, r3
10005298:	2b17      	cmp	r3, #23
1000529a:	d900      	bls.n	1000529e <next_striped_spin_lock_num+0xe>
1000529c:	2310      	movs	r3, #16
1000529e:	7013      	strb	r3, [r2, #0]
100052a0:	4770      	bx	lr
100052a2:	46c0      	nop			; (mov r8, r8)
100052a4:	20000258 	.word	0x20000258

100052a8 <spin_lock_claim>:
100052a8:	b510      	push	{r4, lr}
100052aa:	0001      	movs	r1, r0
100052ac:	4a02      	ldr	r2, [pc, #8]	; (100052b8 <spin_lock_claim+0x10>)
100052ae:	4803      	ldr	r0, [pc, #12]	; (100052bc <spin_lock_claim+0x14>)
100052b0:	f7ff ffcc 	bl	1000524c <hw_claim_or_assert>
100052b4:	bd10      	pop	{r4, pc}
100052b6:	46c0      	nop			; (mov r8, r8)
100052b8:	10009150 	.word	0x10009150
100052bc:	20000724 	.word	0x20000724

100052c0 <spin_locks_reset>:
100052c0:	2100      	movs	r1, #0
100052c2:	4b04      	ldr	r3, [pc, #16]	; (100052d4 <spin_locks_reset+0x14>)
100052c4:	4a04      	ldr	r2, [pc, #16]	; (100052d8 <spin_locks_reset+0x18>)
100052c6:	f3bf 8f5f 	dmb	sy
100052ca:	c302      	stmia	r3!, {r1}
100052cc:	4293      	cmp	r3, r2
100052ce:	d1fa      	bne.n	100052c6 <spin_locks_reset+0x6>
100052d0:	4770      	bx	lr
100052d2:	46c0      	nop			; (mov r8, r8)
100052d4:	d0000100 	.word	0xd0000100
100052d8:	d0000180 	.word	0xd0000180

100052dc <gpio_set_function>:
100052dc:	b510      	push	{r4, lr}
100052de:	2440      	movs	r4, #64	; 0x40
100052e0:	4a08      	ldr	r2, [pc, #32]	; (10005304 <gpio_set_function+0x28>)
100052e2:	0083      	lsls	r3, r0, #2
100052e4:	189a      	adds	r2, r3, r2
100052e6:	6812      	ldr	r2, [r2, #0]
100052e8:	00c0      	lsls	r0, r0, #3
100052ea:	4054      	eors	r4, r2
100052ec:	22c0      	movs	r2, #192	; 0xc0
100052ee:	4022      	ands	r2, r4
100052f0:	4c05      	ldr	r4, [pc, #20]	; (10005308 <gpio_set_function+0x2c>)
100052f2:	46a4      	mov	ip, r4
100052f4:	4463      	add	r3, ip
100052f6:	601a      	str	r2, [r3, #0]
100052f8:	4b04      	ldr	r3, [pc, #16]	; (1000530c <gpio_set_function+0x30>)
100052fa:	469c      	mov	ip, r3
100052fc:	4460      	add	r0, ip
100052fe:	6041      	str	r1, [r0, #4]
10005300:	bd10      	pop	{r4, pc}
10005302:	46c0      	nop			; (mov r8, r8)
10005304:	4001c004 	.word	0x4001c004
10005308:	4001d004 	.word	0x4001d004
1000530c:	40014000 	.word	0x40014000

10005310 <gpio_init>:
10005310:	2301      	movs	r3, #1
10005312:	22d0      	movs	r2, #208	; 0xd0
10005314:	4083      	lsls	r3, r0
10005316:	2140      	movs	r1, #64	; 0x40
10005318:	0612      	lsls	r2, r2, #24
1000531a:	6293      	str	r3, [r2, #40]	; 0x28
1000531c:	6193      	str	r3, [r2, #24]
1000531e:	4a09      	ldr	r2, [pc, #36]	; (10005344 <gpio_init+0x34>)
10005320:	0083      	lsls	r3, r0, #2
10005322:	189a      	adds	r2, r3, r2
10005324:	6812      	ldr	r2, [r2, #0]
10005326:	00c0      	lsls	r0, r0, #3
10005328:	4051      	eors	r1, r2
1000532a:	22c0      	movs	r2, #192	; 0xc0
1000532c:	400a      	ands	r2, r1
1000532e:	4906      	ldr	r1, [pc, #24]	; (10005348 <gpio_init+0x38>)
10005330:	468c      	mov	ip, r1
10005332:	4463      	add	r3, ip
10005334:	601a      	str	r2, [r3, #0]
10005336:	4b05      	ldr	r3, [pc, #20]	; (1000534c <gpio_init+0x3c>)
10005338:	469c      	mov	ip, r3
1000533a:	2305      	movs	r3, #5
1000533c:	4460      	add	r0, ip
1000533e:	6043      	str	r3, [r0, #4]
10005340:	4770      	bx	lr
10005342:	46c0      	nop			; (mov r8, r8)
10005344:	4001c004 	.word	0x4001c004
10005348:	4001d004 	.word	0x4001d004
1000534c:	40014000 	.word	0x40014000

10005350 <runtime_init_per_core_irq_priorities>:
10005350:	4b05      	ldr	r3, [pc, #20]	; (10005368 <runtime_init_per_core_irq_priorities+0x18>)
10005352:	4a06      	ldr	r2, [pc, #24]	; (1000536c <runtime_init_per_core_irq_priorities+0x1c>)
10005354:	6013      	str	r3, [r2, #0]
10005356:	4a06      	ldr	r2, [pc, #24]	; (10005370 <runtime_init_per_core_irq_priorities+0x20>)
10005358:	6013      	str	r3, [r2, #0]
1000535a:	6053      	str	r3, [r2, #4]
1000535c:	6093      	str	r3, [r2, #8]
1000535e:	60d3      	str	r3, [r2, #12]
10005360:	6113      	str	r3, [r2, #16]
10005362:	6153      	str	r3, [r2, #20]
10005364:	6193      	str	r3, [r2, #24]
10005366:	4770      	bx	lr
10005368:	80808080 	.word	0x80808080
1000536c:	e000e400 	.word	0xe000e400
10005370:	e000e404 	.word	0xe000e404

10005374 <irq_set_enabled>:
10005374:	231f      	movs	r3, #31
10005376:	4018      	ands	r0, r3
10005378:	3b1e      	subs	r3, #30
1000537a:	4083      	lsls	r3, r0
1000537c:	2900      	cmp	r1, #0
1000537e:	d005      	beq.n	1000538c <irq_set_enabled+0x18>
10005380:	21c0      	movs	r1, #192	; 0xc0
10005382:	4a04      	ldr	r2, [pc, #16]	; (10005394 <irq_set_enabled+0x20>)
10005384:	0049      	lsls	r1, r1, #1
10005386:	5053      	str	r3, [r2, r1]
10005388:	6013      	str	r3, [r2, #0]
1000538a:	4770      	bx	lr
1000538c:	2280      	movs	r2, #128	; 0x80
1000538e:	4901      	ldr	r1, [pc, #4]	; (10005394 <irq_set_enabled+0x20>)
10005390:	508b      	str	r3, [r1, r2]
10005392:	e7fa      	b.n	1000538a <irq_set_enabled+0x16>
10005394:	e000e100 	.word	0xe000e100

10005398 <irq_is_enabled>:
10005398:	2201      	movs	r2, #1
1000539a:	4082      	lsls	r2, r0
1000539c:	4b03      	ldr	r3, [pc, #12]	; (100053ac <irq_is_enabled+0x14>)
1000539e:	681b      	ldr	r3, [r3, #0]
100053a0:	4013      	ands	r3, r2
100053a2:	1e5a      	subs	r2, r3, #1
100053a4:	4193      	sbcs	r3, r2
100053a6:	b2d8      	uxtb	r0, r3
100053a8:	4770      	bx	lr
100053aa:	46c0      	nop			; (mov r8, r8)
100053ac:	e000e100 	.word	0xe000e100

100053b0 <irq_set_exclusive_handler>:
100053b0:	b570      	push	{r4, r5, r6, lr}
100053b2:	000d      	movs	r5, r1
100053b4:	f3ef 8610 	mrs	r6, PRIMASK
100053b8:	b672      	cpsid	i
100053ba:	4a0f      	ldr	r2, [pc, #60]	; (100053f8 <irq_set_exclusive_handler+0x48>)
100053bc:	6813      	ldr	r3, [r2, #0]
100053be:	2b00      	cmp	r3, #0
100053c0:	d0fc      	beq.n	100053bc <irq_set_exclusive_handler+0xc>
100053c2:	f3bf 8f5f 	dmb	sy
100053c6:	4b0d      	ldr	r3, [pc, #52]	; (100053fc <irq_set_exclusive_handler+0x4c>)
100053c8:	3010      	adds	r0, #16
100053ca:	689b      	ldr	r3, [r3, #8]
100053cc:	0084      	lsls	r4, r0, #2
100053ce:	591b      	ldr	r3, [r3, r4]
100053d0:	4a0b      	ldr	r2, [pc, #44]	; (10005400 <irq_set_exclusive_handler+0x50>)
100053d2:	4293      	cmp	r3, r2
100053d4:	d003      	beq.n	100053de <irq_set_exclusive_handler+0x2e>
100053d6:	429d      	cmp	r5, r3
100053d8:	d001      	beq.n	100053de <irq_set_exclusive_handler+0x2e>
100053da:	f000 fef5 	bl	100061c8 <hard_assertion_failure>
100053de:	4b07      	ldr	r3, [pc, #28]	; (100053fc <irq_set_exclusive_handler+0x4c>)
100053e0:	689b      	ldr	r3, [r3, #8]
100053e2:	511d      	str	r5, [r3, r4]
100053e4:	f3bf 8f5f 	dmb	sy
100053e8:	f3bf 8f5f 	dmb	sy
100053ec:	2200      	movs	r2, #0
100053ee:	4b02      	ldr	r3, [pc, #8]	; (100053f8 <irq_set_exclusive_handler+0x48>)
100053f0:	601a      	str	r2, [r3, #0]
100053f2:	f386 8810 	msr	PRIMASK, r6
100053f6:	bd70      	pop	{r4, r5, r6, pc}
100053f8:	d0000124 	.word	0xd0000124
100053fc:	e000ed00 	.word	0xe000ed00
10005400:	100001cd 	.word	0x100001cd

10005404 <irq_remove_handler>:
10005404:	b5f0      	push	{r4, r5, r6, r7, lr}
10005406:	46de      	mov	lr, fp
10005408:	4657      	mov	r7, sl
1000540a:	464e      	mov	r6, r9
1000540c:	4645      	mov	r5, r8
1000540e:	b5e0      	push	{r5, r6, r7, lr}
10005410:	000c      	movs	r4, r1
10005412:	b083      	sub	sp, #12
10005414:	f3ef 8910 	mrs	r9, PRIMASK
10005418:	b672      	cpsid	i
1000541a:	4a5f      	ldr	r2, [pc, #380]	; (10005598 <irq_remove_handler+0x194>)
1000541c:	6813      	ldr	r3, [r2, #0]
1000541e:	2b00      	cmp	r3, #0
10005420:	d0fc      	beq.n	1000541c <irq_remove_handler+0x18>
10005422:	f3bf 8f5f 	dmb	sy
10005426:	4b5d      	ldr	r3, [pc, #372]	; (1000559c <irq_remove_handler+0x198>)
10005428:	689a      	ldr	r2, [r3, #8]
1000542a:	0003      	movs	r3, r0
1000542c:	3310      	adds	r3, #16
1000542e:	009f      	lsls	r7, r3, #2
10005430:	59d5      	ldr	r5, [r2, r7]
10005432:	4a5b      	ldr	r2, [pc, #364]	; (100055a0 <irq_remove_handler+0x19c>)
10005434:	4690      	mov	r8, r2
10005436:	4295      	cmp	r5, r2
10005438:	d03d      	beq.n	100054b6 <irq_remove_handler+0xb2>
1000543a:	42a5      	cmp	r5, r4
1000543c:	d04e      	beq.n	100054dc <irq_remove_handler+0xd8>
1000543e:	4e59      	ldr	r6, [pc, #356]	; (100055a4 <irq_remove_handler+0x1a0>)
10005440:	1baa      	subs	r2, r5, r6
10005442:	2a2f      	cmp	r2, #47	; 0x2f
10005444:	d837      	bhi.n	100054b6 <irq_remove_handler+0xb2>
10005446:	4a58      	ldr	r2, [pc, #352]	; (100055a8 <irq_remove_handler+0x1a4>)
10005448:	4693      	mov	fp, r2
1000544a:	6812      	ldr	r2, [r2, #0]
1000544c:	4694      	mov	ip, r2
1000544e:	2201      	movs	r2, #1
10005450:	4661      	mov	r1, ip
10005452:	4692      	mov	sl, r2
10005454:	4082      	lsls	r2, r0
10005456:	4011      	ands	r1, r2
10005458:	221f      	movs	r2, #31
1000545a:	4010      	ands	r0, r2
1000545c:	4652      	mov	r2, sl
1000545e:	4082      	lsls	r2, r0
10005460:	4692      	mov	sl, r2
10005462:	9101      	str	r1, [sp, #4]
10005464:	2280      	movs	r2, #128	; 0x80
10005466:	4651      	mov	r1, sl
10005468:	4658      	mov	r0, fp
1000546a:	5081      	str	r1, [r0, r2]
1000546c:	f3bf 8f5f 	dmb	sy
10005470:	f3ef 8205 	mrs	r2, IPSR
10005474:	4693      	mov	fp, r2
10005476:	2a00      	cmp	r2, #0
10005478:	d132      	bne.n	100054e0 <irq_remove_handler+0xdc>
1000547a:	2301      	movs	r3, #1
1000547c:	002a      	movs	r2, r5
1000547e:	439a      	bics	r2, r3
10005480:	6890      	ldr	r0, [r2, #8]
10005482:	4284      	cmp	r4, r0
10005484:	d108      	bne.n	10005498 <irq_remove_handler+0x94>
10005486:	e07c      	b.n	10005582 <irq_remove_handler+0x17e>
10005488:	004b      	lsls	r3, r1, #1
1000548a:	185b      	adds	r3, r3, r1
1000548c:	009b      	lsls	r3, r3, #2
1000548e:	18f3      	adds	r3, r6, r3
10005490:	6898      	ldr	r0, [r3, #8]
10005492:	4284      	cmp	r4, r0
10005494:	d02e      	beq.n	100054f4 <irq_remove_handler+0xf0>
10005496:	001a      	movs	r2, r3
10005498:	2106      	movs	r1, #6
1000549a:	5651      	ldrsb	r1, [r2, r1]
1000549c:	2900      	cmp	r1, #0
1000549e:	daf3      	bge.n	10005488 <irq_remove_handler+0x84>
100054a0:	4284      	cmp	r4, r0
100054a2:	d04d      	beq.n	10005540 <irq_remove_handler+0x13c>
100054a4:	9b01      	ldr	r3, [sp, #4]
100054a6:	2b00      	cmp	r3, #0
100054a8:	d01f      	beq.n	100054ea <irq_remove_handler+0xe6>
100054aa:	22c0      	movs	r2, #192	; 0xc0
100054ac:	4651      	mov	r1, sl
100054ae:	4b3e      	ldr	r3, [pc, #248]	; (100055a8 <irq_remove_handler+0x1a4>)
100054b0:	0052      	lsls	r2, r2, #1
100054b2:	5099      	str	r1, [r3, r2]
100054b4:	6019      	str	r1, [r3, #0]
100054b6:	4b39      	ldr	r3, [pc, #228]	; (1000559c <irq_remove_handler+0x198>)
100054b8:	689b      	ldr	r3, [r3, #8]
100054ba:	51dd      	str	r5, [r3, r7]
100054bc:	f3bf 8f5f 	dmb	sy
100054c0:	f3bf 8f5f 	dmb	sy
100054c4:	2200      	movs	r2, #0
100054c6:	4b34      	ldr	r3, [pc, #208]	; (10005598 <irq_remove_handler+0x194>)
100054c8:	601a      	str	r2, [r3, #0]
100054ca:	f389 8810 	msr	PRIMASK, r9
100054ce:	b003      	add	sp, #12
100054d0:	bcf0      	pop	{r4, r5, r6, r7}
100054d2:	46bb      	mov	fp, r7
100054d4:	46b2      	mov	sl, r6
100054d6:	46a9      	mov	r9, r5
100054d8:	46a0      	mov	r8, r4
100054da:	bdf0      	pop	{r4, r5, r6, r7, pc}
100054dc:	0015      	movs	r5, r2
100054de:	e7ea      	b.n	100054b6 <irq_remove_handler+0xb2>
100054e0:	4293      	cmp	r3, r2
100054e2:	d0ca      	beq.n	1000547a <irq_remove_handler+0x76>
100054e4:	f000 fe70 	bl	100061c8 <hard_assertion_failure>
100054e8:	e7c7      	b.n	1000547a <irq_remove_handler+0x76>
100054ea:	2380      	movs	r3, #128	; 0x80
100054ec:	4651      	mov	r1, sl
100054ee:	4a2e      	ldr	r2, [pc, #184]	; (100055a8 <irq_remove_handler+0x1a4>)
100054f0:	50d1      	str	r1, [r2, r3]
100054f2:	e7e0      	b.n	100054b6 <irq_remove_handler+0xb2>
100054f4:	2106      	movs	r1, #6
100054f6:	5659      	ldrsb	r1, [r3, r1]
100054f8:	2900      	cmp	r1, #0
100054fa:	db22      	blt.n	10005542 <irq_remove_handler+0x13e>
100054fc:	004a      	lsls	r2, r1, #1
100054fe:	1850      	adds	r0, r2, r1
10005500:	0080      	lsls	r0, r0, #2
10005502:	1834      	adds	r4, r6, r0
10005504:	4680      	mov	r8, r0
10005506:	68a0      	ldr	r0, [r4, #8]
10005508:	6098      	str	r0, [r3, #8]
1000550a:	79e0      	ldrb	r0, [r4, #7]
1000550c:	71d8      	strb	r0, [r3, #7]
1000550e:	2006      	movs	r0, #6
10005510:	5620      	ldrsb	r0, [r4, r0]
10005512:	7198      	strb	r0, [r3, #6]
10005514:	2800      	cmp	r0, #0
10005516:	db25      	blt.n	10005564 <irq_remove_handler+0x160>
10005518:	88a4      	ldrh	r4, [r4, #4]
1000551a:	1af0      	subs	r0, r6, r3
1000551c:	0564      	lsls	r4, r4, #21
1000551e:	1524      	asrs	r4, r4, #20
10005520:	4444      	add	r4, r8
10005522:	1900      	adds	r0, r0, r4
10005524:	24e0      	movs	r4, #224	; 0xe0
10005526:	0500      	lsls	r0, r0, #20
10005528:	0d40      	lsrs	r0, r0, #21
1000552a:	0224      	lsls	r4, r4, #8
1000552c:	4320      	orrs	r0, r4
1000552e:	8098      	strh	r0, [r3, #4]
10005530:	1852      	adds	r2, r2, r1
10005532:	4b1e      	ldr	r3, [pc, #120]	; (100055ac <irq_remove_handler+0x1a8>)
10005534:	0092      	lsls	r2, r2, #2
10005536:	18b6      	adds	r6, r6, r2
10005538:	781a      	ldrb	r2, [r3, #0]
1000553a:	7019      	strb	r1, [r3, #0]
1000553c:	71b2      	strb	r2, [r6, #6]
1000553e:	e7b1      	b.n	100054a4 <irq_remove_handler+0xa0>
10005540:	0013      	movs	r3, r2
10005542:	4659      	mov	r1, fp
10005544:	2900      	cmp	r1, #0
10005546:	d10f      	bne.n	10005568 <irq_remove_handler+0x164>
10005548:	31ff      	adds	r1, #255	; 0xff
1000554a:	7191      	strb	r1, [r2, #6]
1000554c:	4918      	ldr	r1, [pc, #96]	; (100055b0 <irq_remove_handler+0x1ac>)
1000554e:	8091      	strh	r1, [r2, #4]
10005550:	4916      	ldr	r1, [pc, #88]	; (100055ac <irq_remove_handler+0x1a8>)
10005552:	780a      	ldrb	r2, [r1, #0]
10005554:	719a      	strb	r2, [r3, #6]
10005556:	4a17      	ldr	r2, [pc, #92]	; (100055b4 <irq_remove_handler+0x1b0>)
10005558:	1b9b      	subs	r3, r3, r6
1000555a:	415b      	adcs	r3, r3
1000555c:	435a      	muls	r2, r3
1000555e:	0d12      	lsrs	r2, r2, #20
10005560:	700a      	strb	r2, [r1, #0]
10005562:	e79f      	b.n	100054a4 <irq_remove_handler+0xa0>
10005564:	4814      	ldr	r0, [pc, #80]	; (100055b8 <irq_remove_handler+0x1b4>)
10005566:	e7e2      	b.n	1000552e <irq_remove_handler+0x12a>
10005568:	4a14      	ldr	r2, [pc, #80]	; (100055bc <irq_remove_handler+0x1b8>)
1000556a:	4915      	ldr	r1, [pc, #84]	; (100055c0 <irq_remove_handler+0x1bc>)
1000556c:	1ad2      	subs	r2, r2, r3
1000556e:	3a08      	subs	r2, #8
10005570:	0250      	lsls	r0, r2, #9
10005572:	0d40      	lsrs	r0, r0, #21
10005574:	4301      	orrs	r1, r0
10005576:	8099      	strh	r1, [r3, #4]
10005578:	4912      	ldr	r1, [pc, #72]	; (100055c4 <irq_remove_handler+0x1c0>)
1000557a:	0852      	lsrs	r2, r2, #1
1000557c:	430a      	orrs	r2, r1
1000557e:	80da      	strh	r2, [r3, #6]
10005580:	e790      	b.n	100054a4 <irq_remove_handler+0xa0>
10005582:	2106      	movs	r1, #6
10005584:	5651      	ldrsb	r1, [r2, r1]
10005586:	0013      	movs	r3, r2
10005588:	2900      	cmp	r1, #0
1000558a:	dab7      	bge.n	100054fc <irq_remove_handler+0xf8>
1000558c:	465a      	mov	r2, fp
1000558e:	2a00      	cmp	r2, #0
10005590:	d1ea      	bne.n	10005568 <irq_remove_handler+0x164>
10005592:	4645      	mov	r5, r8
10005594:	e7dc      	b.n	10005550 <irq_remove_handler+0x14c>
10005596:	46c0      	nop			; (mov r8, r8)
10005598:	d0000124 	.word	0xd0000124
1000559c:	e000ed00 	.word	0xe000ed00
100055a0:	100001cd 	.word	0x100001cd
100055a4:	2000025c 	.word	0x2000025c
100055a8:	e000e100 	.word	0xe000e100
100055ac:	20020b2c 	.word	0x20020b2c
100055b0:	ffffbd01 	.word	0xffffbd01
100055b4:	0000aaaa 	.word	0x0000aaaa
100055b8:	0000bd01 	.word	0x0000bd01
100055bc:	20000296 	.word	0x20000296
100055c0:	fffff000 	.word	0xfffff000
100055c4:	fffff800 	.word	0xfffff800

100055c8 <irq_set_priority>:
100055c8:	b510      	push	{r4, lr}
100055ca:	0883      	lsrs	r3, r0, #2
100055cc:	0004      	movs	r4, r0
100055ce:	2003      	movs	r0, #3
100055d0:	4020      	ands	r0, r4
100055d2:	24ff      	movs	r4, #255	; 0xff
100055d4:	4a05      	ldr	r2, [pc, #20]	; (100055ec <irq_set_priority+0x24>)
100055d6:	00c0      	lsls	r0, r0, #3
100055d8:	4694      	mov	ip, r2
100055da:	4084      	lsls	r4, r0
100055dc:	4081      	lsls	r1, r0
100055de:	009b      	lsls	r3, r3, #2
100055e0:	4463      	add	r3, ip
100055e2:	681a      	ldr	r2, [r3, #0]
100055e4:	43a2      	bics	r2, r4
100055e6:	430a      	orrs	r2, r1
100055e8:	601a      	str	r2, [r3, #0]
100055ea:	bd10      	pop	{r4, pc}
100055ec:	e000e400 	.word	0xe000e400

100055f0 <irq_add_tail_to_free_list>:
100055f0:	b570      	push	{r4, r5, r6, lr}
100055f2:	2401      	movs	r4, #1
100055f4:	4304      	orrs	r4, r0
100055f6:	f3ef 8105 	mrs	r1, IPSR
100055fa:	f3ef 8c10 	mrs	ip, PRIMASK
100055fe:	b672      	cpsid	i
10005600:	4a21      	ldr	r2, [pc, #132]	; (10005688 <irq_add_tail_to_free_list+0x98>)
10005602:	6813      	ldr	r3, [r2, #0]
10005604:	2b00      	cmp	r3, #0
10005606:	d0fc      	beq.n	10005602 <irq_add_tail_to_free_list+0x12>
10005608:	f3bf 8f5f 	dmb	sy
1000560c:	4b1f      	ldr	r3, [pc, #124]	; (1000568c <irq_add_tail_to_free_list+0x9c>)
1000560e:	0005      	movs	r5, r0
10005610:	4a1f      	ldr	r2, [pc, #124]	; (10005690 <irq_add_tail_to_free_list+0xa0>)
10005612:	1aed      	subs	r5, r5, r3
10005614:	416d      	adcs	r5, r5
10005616:	436a      	muls	r2, r5
10005618:	0d12      	lsrs	r2, r2, #20
1000561a:	4d1e      	ldr	r5, [pc, #120]	; (10005694 <irq_add_tail_to_free_list+0xa4>)
1000561c:	0089      	lsls	r1, r1, #2
1000561e:	68ae      	ldr	r6, [r5, #8]
10005620:	b252      	sxtb	r2, r2
10005622:	5876      	ldr	r6, [r6, r1]
10005624:	42a6      	cmp	r6, r4
10005626:	d01c      	beq.n	10005662 <irq_add_tail_to_free_list+0x72>
10005628:	2106      	movs	r1, #6
1000562a:	5659      	ldrsb	r1, [r3, r1]
1000562c:	4291      	cmp	r1, r2
1000562e:	d01c      	beq.n	1000566a <irq_add_tail_to_free_list+0x7a>
10005630:	2112      	movs	r1, #18
10005632:	5659      	ldrsb	r1, [r3, r1]
10005634:	4291      	cmp	r1, r2
10005636:	d022      	beq.n	1000567e <irq_add_tail_to_free_list+0x8e>
10005638:	211e      	movs	r1, #30
1000563a:	5659      	ldrsb	r1, [r3, r1]
1000563c:	4291      	cmp	r1, r2
1000563e:	d020      	beq.n	10005682 <irq_add_tail_to_free_list+0x92>
10005640:	212a      	movs	r1, #42	; 0x2a
10005642:	5659      	ldrsb	r1, [r3, r1]
10005644:	2403      	movs	r4, #3
10005646:	4291      	cmp	r1, r2
10005648:	d010      	beq.n	1000566c <irq_add_tail_to_free_list+0x7c>
1000564a:	4b13      	ldr	r3, [pc, #76]	; (10005698 <irq_add_tail_to_free_list+0xa8>)
1000564c:	7819      	ldrb	r1, [r3, #0]
1000564e:	701a      	strb	r2, [r3, #0]
10005650:	7181      	strb	r1, [r0, #6]
10005652:	f3bf 8f5f 	dmb	sy
10005656:	2200      	movs	r2, #0
10005658:	4b0b      	ldr	r3, [pc, #44]	; (10005688 <irq_add_tail_to_free_list+0x98>)
1000565a:	601a      	str	r2, [r3, #0]
1000565c:	f38c 8810 	msr	PRIMASK, ip
10005660:	bd70      	pop	{r4, r5, r6, pc}
10005662:	68ab      	ldr	r3, [r5, #8]
10005664:	4c0d      	ldr	r4, [pc, #52]	; (1000569c <irq_add_tail_to_free_list+0xac>)
10005666:	505c      	str	r4, [r3, r1]
10005668:	e7ef      	b.n	1000564a <irq_add_tail_to_free_list+0x5a>
1000566a:	2400      	movs	r4, #0
1000566c:	0061      	lsls	r1, r4, #1
1000566e:	1909      	adds	r1, r1, r4
10005670:	0089      	lsls	r1, r1, #2
10005672:	185b      	adds	r3, r3, r1
10005674:	21ff      	movs	r1, #255	; 0xff
10005676:	7199      	strb	r1, [r3, #6]
10005678:	4909      	ldr	r1, [pc, #36]	; (100056a0 <irq_add_tail_to_free_list+0xb0>)
1000567a:	8099      	strh	r1, [r3, #4]
1000567c:	e7e5      	b.n	1000564a <irq_add_tail_to_free_list+0x5a>
1000567e:	2401      	movs	r4, #1
10005680:	e7f4      	b.n	1000566c <irq_add_tail_to_free_list+0x7c>
10005682:	2402      	movs	r4, #2
10005684:	e7f2      	b.n	1000566c <irq_add_tail_to_free_list+0x7c>
10005686:	46c0      	nop			; (mov r8, r8)
10005688:	d0000124 	.word	0xd0000124
1000568c:	2000025c 	.word	0x2000025c
10005690:	0000aaaa 	.word	0x0000aaaa
10005694:	e000ed00 	.word	0xe000ed00
10005698:	20020b2c 	.word	0x20020b2c
1000569c:	100001cd 	.word	0x100001cd
100056a0:	ffffbd01 	.word	0xffffbd01

100056a4 <lock_init>:
100056a4:	4b02      	ldr	r3, [pc, #8]	; (100056b0 <lock_init+0xc>)
100056a6:	469c      	mov	ip, r3
100056a8:	4461      	add	r1, ip
100056aa:	0089      	lsls	r1, r1, #2
100056ac:	6001      	str	r1, [r0, #0]
100056ae:	4770      	bx	lr
100056b0:	34000040 	.word	0x34000040

100056b4 <runtime_init_mutex>:
100056b4:	b5f0      	push	{r4, r5, r6, r7, lr}
100056b6:	46c6      	mov	lr, r8
100056b8:	4d16      	ldr	r5, [pc, #88]	; (10005714 <runtime_init_mutex+0x60>)
100056ba:	4e17      	ldr	r6, [pc, #92]	; (10005718 <runtime_init_mutex+0x64>)
100056bc:	002c      	movs	r4, r5
100056be:	b500      	push	{lr}
100056c0:	42b5      	cmp	r5, r6
100056c2:	d224      	bcs.n	1000570e <runtime_init_mutex+0x5a>
100056c4:	2300      	movs	r3, #0
100056c6:	2701      	movs	r7, #1
100056c8:	4698      	mov	r8, r3
100056ca:	6823      	ldr	r3, [r4, #0]
100056cc:	427f      	negs	r7, r7
100056ce:	2b00      	cmp	r3, #0
100056d0:	d011      	beq.n	100056f6 <runtime_init_mutex+0x42>
100056d2:	f7ff fddd 	bl	10005290 <next_striped_spin_lock_num>
100056d6:	0001      	movs	r1, r0
100056d8:	0028      	movs	r0, r5
100056da:	f7ff ffe3 	bl	100056a4 <lock_init>
100056de:	4643      	mov	r3, r8
100056e0:	6067      	str	r7, [r4, #4]
100056e2:	7223      	strb	r3, [r4, #8]
100056e4:	f3bf 8f5f 	dmb	sy
100056e8:	340c      	adds	r4, #12
100056ea:	42b4      	cmp	r4, r6
100056ec:	d20f      	bcs.n	1000570e <runtime_init_mutex+0x5a>
100056ee:	6823      	ldr	r3, [r4, #0]
100056f0:	0025      	movs	r5, r4
100056f2:	2b00      	cmp	r3, #0
100056f4:	d1ed      	bne.n	100056d2 <runtime_init_mutex+0x1e>
100056f6:	f7ff fdcb 	bl	10005290 <next_striped_spin_lock_num>
100056fa:	0001      	movs	r1, r0
100056fc:	0028      	movs	r0, r5
100056fe:	f7ff ffd1 	bl	100056a4 <lock_init>
10005702:	6067      	str	r7, [r4, #4]
10005704:	f3bf 8f5f 	dmb	sy
10005708:	3408      	adds	r4, #8
1000570a:	42b4      	cmp	r4, r6
1000570c:	d3ef      	bcc.n	100056ee <runtime_init_mutex+0x3a>
1000570e:	bc80      	pop	{r7}
10005710:	46b8      	mov	r8, r7
10005712:	bdf0      	pop	{r4, r5, r6, r7, pc}
10005714:	200002f8 	.word	0x200002f8
10005718:	20000308 	.word	0x20000308

1000571c <alarm_pool_irq_handler>:
1000571c:	b5f0      	push	{r4, r5, r6, r7, lr}
1000571e:	46de      	mov	lr, fp
10005720:	4657      	mov	r7, sl
10005722:	464e      	mov	r6, r9
10005724:	4645      	mov	r5, r8
10005726:	b5e0      	push	{r5, r6, r7, lr}
10005728:	b085      	sub	sp, #20
1000572a:	f3ef 8205 	mrs	r2, IPSR
1000572e:	2303      	movs	r3, #3
10005730:	4013      	ands	r3, r2
10005732:	009a      	lsls	r2, r3, #2
10005734:	0011      	movs	r1, r2
10005736:	9203      	str	r2, [sp, #12]
10005738:	4ab6      	ldr	r2, [pc, #728]	; (10005a14 <alarm_pool_irq_handler+0x2f8>)
1000573a:	5852      	ldr	r2, [r2, r1]
1000573c:	4690      	mov	r8, r2
1000573e:	2201      	movs	r2, #1
10005740:	409a      	lsls	r2, r3
10005742:	4bb5      	ldr	r3, [pc, #724]	; (10005a18 <alarm_pool_irq_handler+0x2fc>)
10005744:	4691      	mov	r9, r2
10005746:	601a      	str	r2, [r3, #0]
10005748:	e031      	b.n	100057ae <alarm_pool_irq_handler+0x92>
1000574a:	4643      	mov	r3, r8
1000574c:	889b      	ldrh	r3, [r3, #4]
1000574e:	b21b      	sxth	r3, r3
10005750:	2b00      	cmp	r3, #0
10005752:	db00      	blt.n	10005756 <alarm_pool_irq_handler+0x3a>
10005754:	e09d      	b.n	10005892 <alarm_pool_irq_handler+0x176>
10005756:	4643      	mov	r3, r8
10005758:	799b      	ldrb	r3, [r3, #6]
1000575a:	2b00      	cmp	r3, #0
1000575c:	d000      	beq.n	10005760 <alarm_pool_irq_handler+0x44>
1000575e:	e0ef      	b.n	10005940 <alarm_pool_irq_handler+0x224>
10005760:	4643      	mov	r3, r8
10005762:	2408      	movs	r4, #8
10005764:	5f1c      	ldrsh	r4, [r3, r4]
10005766:	2c00      	cmp	r4, #0
10005768:	da00      	bge.n	1000576c <alarm_pool_irq_handler+0x50>
1000576a:	e117      	b.n	1000599c <alarm_pool_irq_handler+0x280>
1000576c:	4642      	mov	r2, r8
1000576e:	6952      	ldr	r2, [r2, #20]
10005770:	0063      	lsls	r3, r4, #1
10005772:	4694      	mov	ip, r2
10005774:	191b      	adds	r3, r3, r4
10005776:	00db      	lsls	r3, r3, #3
10005778:	4463      	add	r3, ip
1000577a:	689c      	ldr	r4, [r3, #8]
1000577c:	68dd      	ldr	r5, [r3, #12]
1000577e:	1c63      	adds	r3, r4, #1
10005780:	d100      	bne.n	10005784 <alarm_pool_irq_handler+0x68>
10005782:	e113      	b.n	100059ac <alarm_pool_irq_handler+0x290>
10005784:	4ba5      	ldr	r3, [pc, #660]	; (10005a1c <alarm_pool_irq_handler+0x300>)
10005786:	9903      	ldr	r1, [sp, #12]
10005788:	469c      	mov	ip, r3
1000578a:	4461      	add	r1, ip
1000578c:	6a9a      	ldr	r2, [r3, #40]	; 0x28
1000578e:	690b      	ldr	r3, [r1, #16]
10005790:	1aa0      	subs	r0, r4, r2
10005792:	1a9b      	subs	r3, r3, r2
10005794:	4298      	cmp	r0, r3
10005796:	d200      	bcs.n	1000579a <alarm_pool_irq_handler+0x7e>
10005798:	610c      	str	r4, [r1, #16]
1000579a:	48a0      	ldr	r0, [pc, #640]	; (10005a1c <alarm_pool_irq_handler+0x300>)
1000579c:	f000 fad2 	bl	10005d44 <timer_time_us_64>
100057a0:	1a24      	subs	r4, r4, r0
100057a2:	418d      	sbcs	r5, r1
100057a4:	2d00      	cmp	r5, #0
100057a6:	dd00      	ble.n	100057aa <alarm_pool_irq_handler+0x8e>
100057a8:	e0f8      	b.n	1000599c <alarm_pool_irq_handler+0x280>
100057aa:	d100      	bne.n	100057ae <alarm_pool_irq_handler+0x92>
100057ac:	e12e      	b.n	10005a0c <alarm_pool_irq_handler+0x2f0>
100057ae:	464b      	mov	r3, r9
100057b0:	489a      	ldr	r0, [pc, #616]	; (10005a1c <alarm_pool_irq_handler+0x300>)
100057b2:	6343      	str	r3, [r0, #52]	; 0x34
100057b4:	4643      	mov	r3, r8
100057b6:	2208      	movs	r2, #8
100057b8:	5e9b      	ldrsh	r3, [r3, r2]
100057ba:	469a      	mov	sl, r3
100057bc:	2b00      	cmp	r3, #0
100057be:	dbc4      	blt.n	1000574a <alarm_pool_irq_handler+0x2e>
100057c0:	4642      	mov	r2, r8
100057c2:	6952      	ldr	r2, [r2, #20]
100057c4:	005b      	lsls	r3, r3, #1
100057c6:	4693      	mov	fp, r2
100057c8:	4453      	add	r3, sl
100057ca:	00db      	lsls	r3, r3, #3
100057cc:	449b      	add	fp, r3
100057ce:	465b      	mov	r3, fp
100057d0:	689e      	ldr	r6, [r3, #8]
100057d2:	68df      	ldr	r7, [r3, #12]
100057d4:	f000 fab6 	bl	10005d44 <timer_time_us_64>
100057d8:	1b80      	subs	r0, r0, r6
100057da:	41b9      	sbcs	r1, r7
100057dc:	2900      	cmp	r1, #0
100057de:	dbb4      	blt.n	1000574a <alarm_pool_irq_handler+0x2e>
100057e0:	2f00      	cmp	r7, #0
100057e2:	da00      	bge.n	100057e6 <alarm_pool_irq_handler+0xca>
100057e4:	e0ed      	b.n	100059c2 <alarm_pool_irq_handler+0x2a6>
100057e6:	465b      	mov	r3, fp
100057e8:	4a8d      	ldr	r2, [pc, #564]	; (10005a20 <alarm_pool_irq_handler+0x304>)
100057ea:	691b      	ldr	r3, [r3, #16]
100057ec:	4293      	cmp	r3, r2
100057ee:	d100      	bne.n	100057f2 <alarm_pool_irq_handler+0xd6>
100057f0:	e0e0      	b.n	100059b4 <alarm_pool_irq_handler+0x298>
100057f2:	4641      	mov	r1, r8
100057f4:	465a      	mov	r2, fp
100057f6:	2008      	movs	r0, #8
100057f8:	5e08      	ldrsh	r0, [r1, r0]
100057fa:	8852      	ldrh	r2, [r2, #2]
100057fc:	0400      	lsls	r0, r0, #16
100057fe:	4310      	orrs	r0, r2
10005800:	465a      	mov	r2, fp
10005802:	6951      	ldr	r1, [r2, #20]
10005804:	4798      	blx	r3
10005806:	0004      	movs	r4, r0
10005808:	000d      	movs	r5, r1
1000580a:	0023      	movs	r3, r4
1000580c:	432b      	orrs	r3, r5
1000580e:	d100      	bne.n	10005812 <alarm_pool_irq_handler+0xf6>
10005810:	e0d7      	b.n	100059c2 <alarm_pool_irq_handler+0x2a6>
10005812:	2d00      	cmp	r5, #0
10005814:	db00      	blt.n	10005818 <alarm_pool_irq_handler+0xfc>
10005816:	e0f0      	b.n	100059fa <alarm_pool_irq_handler+0x2de>
10005818:	1b36      	subs	r6, r6, r4
1000581a:	41af      	sbcs	r7, r5
1000581c:	0034      	movs	r4, r6
1000581e:	003d      	movs	r5, r7
10005820:	465b      	mov	r3, fp
10005822:	609c      	str	r4, [r3, #8]
10005824:	60dd      	str	r5, [r3, #12]
10005826:	2100      	movs	r1, #0
10005828:	5e59      	ldrsh	r1, [r3, r1]
1000582a:	2900      	cmp	r1, #0
1000582c:	db8d      	blt.n	1000574a <alarm_pool_irq_handler+0x2e>
1000582e:	4643      	mov	r3, r8
10005830:	695b      	ldr	r3, [r3, #20]
10005832:	0022      	movs	r2, r4
10005834:	469c      	mov	ip, r3
10005836:	002b      	movs	r3, r5
10005838:	0048      	lsls	r0, r1, #1
1000583a:	1840      	adds	r0, r0, r1
1000583c:	00c0      	lsls	r0, r0, #3
1000583e:	4460      	add	r0, ip
10005840:	6886      	ldr	r6, [r0, #8]
10005842:	68c7      	ldr	r7, [r0, #12]
10005844:	1b92      	subs	r2, r2, r6
10005846:	41bb      	sbcs	r3, r7
10005848:	2b00      	cmp	r3, #0
1000584a:	da00      	bge.n	1000584e <alarm_pool_irq_handler+0x132>
1000584c:	e77d      	b.n	1000574a <alarm_pool_irq_handler+0x2e>
1000584e:	4643      	mov	r3, r8
10005850:	4666      	mov	r6, ip
10005852:	0002      	movs	r2, r0
10005854:	9400      	str	r4, [sp, #0]
10005856:	9501      	str	r5, [sp, #4]
10005858:	8119      	strh	r1, [r3, #8]
1000585a:	e00c      	b.n	10005876 <alarm_pool_irq_handler+0x15a>
1000585c:	007b      	lsls	r3, r7, #1
1000585e:	19db      	adds	r3, r3, r7
10005860:	00db      	lsls	r3, r3, #3
10005862:	18f3      	adds	r3, r6, r3
10005864:	9800      	ldr	r0, [sp, #0]
10005866:	9901      	ldr	r1, [sp, #4]
10005868:	689c      	ldr	r4, [r3, #8]
1000586a:	68dd      	ldr	r5, [r3, #12]
1000586c:	1b00      	subs	r0, r0, r4
1000586e:	41a9      	sbcs	r1, r5
10005870:	2900      	cmp	r1, #0
10005872:	db04      	blt.n	1000587e <alarm_pool_irq_handler+0x162>
10005874:	001a      	movs	r2, r3
10005876:	2300      	movs	r3, #0
10005878:	5ed7      	ldrsh	r7, [r2, r3]
1000587a:	2f00      	cmp	r7, #0
1000587c:	daee      	bge.n	1000585c <alarm_pool_irq_handler+0x140>
1000587e:	465b      	mov	r3, fp
10005880:	801f      	strh	r7, [r3, #0]
10005882:	4653      	mov	r3, sl
10005884:	8013      	strh	r3, [r2, #0]
10005886:	4643      	mov	r3, r8
10005888:	889b      	ldrh	r3, [r3, #4]
1000588a:	b21b      	sxth	r3, r3
1000588c:	2b00      	cmp	r3, #0
1000588e:	da00      	bge.n	10005892 <alarm_pool_irq_handler+0x176>
10005890:	e761      	b.n	10005756 <alarm_pool_irq_handler+0x3a>
10005892:	4643      	mov	r3, r8
10005894:	691a      	ldr	r2, [r3, #16]
10005896:	f3ef 8110 	mrs	r1, PRIMASK
1000589a:	b672      	cpsid	i
1000589c:	6813      	ldr	r3, [r2, #0]
1000589e:	2b00      	cmp	r3, #0
100058a0:	d0fc      	beq.n	1000589c <alarm_pool_irq_handler+0x180>
100058a2:	f3bf 8f5f 	dmb	sy
100058a6:	4643      	mov	r3, r8
100058a8:	889b      	ldrh	r3, [r3, #4]
100058aa:	4642      	mov	r2, r8
100058ac:	b21b      	sxth	r3, r3
100058ae:	469a      	mov	sl, r3
100058b0:	2301      	movs	r3, #1
100058b2:	425b      	negs	r3, r3
100058b4:	8093      	strh	r3, [r2, #4]
100058b6:	6913      	ldr	r3, [r2, #16]
100058b8:	f3bf 8f5f 	dmb	sy
100058bc:	2200      	movs	r2, #0
100058be:	601a      	str	r2, [r3, #0]
100058c0:	f381 8810 	msr	PRIMASK, r1
100058c4:	4653      	mov	r3, sl
100058c6:	2b00      	cmp	r3, #0
100058c8:	da00      	bge.n	100058cc <alarm_pool_irq_handler+0x1b0>
100058ca:	e744      	b.n	10005756 <alarm_pool_irq_handler+0x3a>
100058cc:	4643      	mov	r3, r8
100058ce:	695b      	ldr	r3, [r3, #20]
100058d0:	469c      	mov	ip, r3
100058d2:	2308      	movs	r3, #8
100058d4:	4443      	add	r3, r8
100058d6:	469b      	mov	fp, r3
100058d8:	4653      	mov	r3, sl
100058da:	005f      	lsls	r7, r3, #1
100058dc:	4643      	mov	r3, r8
100058de:	4457      	add	r7, sl
100058e0:	00ff      	lsls	r7, r7, #3
100058e2:	2208      	movs	r2, #8
100058e4:	5e9a      	ldrsh	r2, [r3, r2]
100058e6:	4467      	add	r7, ip
100058e8:	465e      	mov	r6, fp
100058ea:	68bc      	ldr	r4, [r7, #8]
100058ec:	68fd      	ldr	r5, [r7, #12]
100058ee:	2a00      	cmp	r2, #0
100058f0:	db19      	blt.n	10005926 <alarm_pool_irq_handler+0x20a>
100058f2:	003b      	movs	r3, r7
100058f4:	9400      	str	r4, [sp, #0]
100058f6:	9501      	str	r5, [sp, #4]
100058f8:	4667      	mov	r7, ip
100058fa:	469c      	mov	ip, r3
100058fc:	e004      	b.n	10005908 <alarm_pool_irq_handler+0x1ec>
100058fe:	001e      	movs	r6, r3
10005900:	2300      	movs	r3, #0
10005902:	5ef2      	ldrsh	r2, [r6, r3]
10005904:	2a00      	cmp	r2, #0
10005906:	db0b      	blt.n	10005920 <alarm_pool_irq_handler+0x204>
10005908:	9800      	ldr	r0, [sp, #0]
1000590a:	9901      	ldr	r1, [sp, #4]
1000590c:	0053      	lsls	r3, r2, #1
1000590e:	189b      	adds	r3, r3, r2
10005910:	00db      	lsls	r3, r3, #3
10005912:	18fb      	adds	r3, r7, r3
10005914:	689c      	ldr	r4, [r3, #8]
10005916:	68dd      	ldr	r5, [r3, #12]
10005918:	1b00      	subs	r0, r0, r4
1000591a:	41a9      	sbcs	r1, r5
1000591c:	2900      	cmp	r1, #0
1000591e:	daee      	bge.n	100058fe <alarm_pool_irq_handler+0x1e2>
10005920:	4663      	mov	r3, ip
10005922:	46bc      	mov	ip, r7
10005924:	001f      	movs	r7, r3
10005926:	4653      	mov	r3, sl
10005928:	8033      	strh	r3, [r6, #0]
1000592a:	2100      	movs	r1, #0
1000592c:	5e7b      	ldrsh	r3, [r7, r1]
1000592e:	803a      	strh	r2, [r7, #0]
10005930:	469a      	mov	sl, r3
10005932:	2b00      	cmp	r3, #0
10005934:	dad0      	bge.n	100058d8 <alarm_pool_irq_handler+0x1bc>
10005936:	4643      	mov	r3, r8
10005938:	799b      	ldrb	r3, [r3, #6]
1000593a:	2b00      	cmp	r3, #0
1000593c:	d100      	bne.n	10005940 <alarm_pool_irq_handler+0x224>
1000593e:	e70f      	b.n	10005760 <alarm_pool_irq_handler+0x44>
10005940:	2300      	movs	r3, #0
10005942:	4642      	mov	r2, r8
10005944:	7193      	strb	r3, [r2, #6]
10005946:	4643      	mov	r3, r8
10005948:	4646      	mov	r6, r8
1000594a:	2108      	movs	r1, #8
1000594c:	5e59      	ldrsh	r1, [r3, r1]
1000594e:	3608      	adds	r6, #8
10005950:	1c4b      	adds	r3, r1, #1
10005952:	d023      	beq.n	1000599c <alarm_pool_irq_handler+0x280>
10005954:	4647      	mov	r7, r8
10005956:	468c      	mov	ip, r1
10005958:	6955      	ldr	r5, [r2, #20]
1000595a:	e002      	b.n	10005962 <alarm_pool_irq_handler+0x246>
1000595c:	0006      	movs	r6, r0
1000595e:	1c4b      	adds	r3, r1, #1
10005960:	d017      	beq.n	10005992 <alarm_pool_irq_handler+0x276>
10005962:	004b      	lsls	r3, r1, #1
10005964:	185b      	adds	r3, r3, r1
10005966:	00db      	lsls	r3, r3, #3
10005968:	18e8      	adds	r0, r5, r3
1000596a:	000a      	movs	r2, r1
1000596c:	5ee9      	ldrsh	r1, [r5, r3]
1000596e:	8843      	ldrh	r3, [r0, #2]
10005970:	b21b      	sxth	r3, r3
10005972:	2b00      	cmp	r3, #0
10005974:	daf2      	bge.n	1000595c <alarm_pool_irq_handler+0x240>
10005976:	2301      	movs	r3, #1
10005978:	425b      	negs	r3, r3
1000597a:	17dc      	asrs	r4, r3, #31
1000597c:	6083      	str	r3, [r0, #8]
1000597e:	60c4      	str	r4, [r0, #12]
10005980:	4562      	cmp	r2, ip
10005982:	d0ec      	beq.n	1000595e <alarm_pool_irq_handler+0x242>
10005984:	8031      	strh	r1, [r6, #0]
10005986:	893b      	ldrh	r3, [r7, #8]
10005988:	4694      	mov	ip, r2
1000598a:	8003      	strh	r3, [r0, #0]
1000598c:	813a      	strh	r2, [r7, #8]
1000598e:	1c4b      	adds	r3, r1, #1
10005990:	d1e7      	bne.n	10005962 <alarm_pool_irq_handler+0x246>
10005992:	4664      	mov	r4, ip
10005994:	46b8      	mov	r8, r7
10005996:	2c00      	cmp	r4, #0
10005998:	db00      	blt.n	1000599c <alarm_pool_irq_handler+0x280>
1000599a:	e6e7      	b.n	1000576c <alarm_pool_irq_handler+0x50>
1000599c:	bf40      	sev
1000599e:	b005      	add	sp, #20
100059a0:	bcf0      	pop	{r4, r5, r6, r7}
100059a2:	46bb      	mov	fp, r7
100059a4:	46b2      	mov	sl, r6
100059a6:	46a9      	mov	r9, r5
100059a8:	46a0      	mov	r8, r4
100059aa:	bdf0      	pop	{r4, r5, r6, r7, pc}
100059ac:	1c6b      	adds	r3, r5, #1
100059ae:	d000      	beq.n	100059b2 <alarm_pool_irq_handler+0x296>
100059b0:	e6e8      	b.n	10005784 <alarm_pool_irq_handler+0x68>
100059b2:	e6f2      	b.n	1000579a <alarm_pool_irq_handler+0x7e>
100059b4:	465b      	mov	r3, fp
100059b6:	695c      	ldr	r4, [r3, #20]
100059b8:	0020      	movs	r0, r4
100059ba:	6923      	ldr	r3, [r4, #16]
100059bc:	4798      	blx	r3
100059be:	2800      	cmp	r0, #0
100059c0:	d121      	bne.n	10005a06 <alarm_pool_irq_handler+0x2ea>
100059c2:	465b      	mov	r3, fp
100059c4:	4642      	mov	r2, r8
100059c6:	881b      	ldrh	r3, [r3, #0]
100059c8:	8113      	strh	r3, [r2, #8]
100059ca:	6912      	ldr	r2, [r2, #16]
100059cc:	f3ef 8310 	mrs	r3, PRIMASK
100059d0:	b672      	cpsid	i
100059d2:	6811      	ldr	r1, [r2, #0]
100059d4:	2900      	cmp	r1, #0
100059d6:	d0fc      	beq.n	100059d2 <alarm_pool_irq_handler+0x2b6>
100059d8:	f3bf 8f5f 	dmb	sy
100059dc:	4642      	mov	r2, r8
100059de:	4659      	mov	r1, fp
100059e0:	8852      	ldrh	r2, [r2, #2]
100059e2:	800a      	strh	r2, [r1, #0]
100059e4:	4642      	mov	r2, r8
100059e6:	4651      	mov	r1, sl
100059e8:	8051      	strh	r1, [r2, #2]
100059ea:	6912      	ldr	r2, [r2, #16]
100059ec:	f3bf 8f5f 	dmb	sy
100059f0:	2100      	movs	r1, #0
100059f2:	6011      	str	r1, [r2, #0]
100059f4:	f383 8810 	msr	PRIMASK, r3
100059f8:	e6a7      	b.n	1000574a <alarm_pool_irq_handler+0x2e>
100059fa:	4808      	ldr	r0, [pc, #32]	; (10005a1c <alarm_pool_irq_handler+0x300>)
100059fc:	f000 f9a2 	bl	10005d44 <timer_time_us_64>
10005a00:	1824      	adds	r4, r4, r0
10005a02:	414d      	adcs	r5, r1
10005a04:	e70c      	b.n	10005820 <alarm_pool_irq_handler+0x104>
10005a06:	6865      	ldr	r5, [r4, #4]
10005a08:	6824      	ldr	r4, [r4, #0]
10005a0a:	e6fe      	b.n	1000580a <alarm_pool_irq_handler+0xee>
10005a0c:	2c00      	cmp	r4, #0
10005a0e:	d100      	bne.n	10005a12 <alarm_pool_irq_handler+0x2f6>
10005a10:	e6cd      	b.n	100057ae <alarm_pool_irq_handler+0x92>
10005a12:	e7c3      	b.n	1000599c <alarm_pool_irq_handler+0x280>
10005a14:	20000764 	.word	0x20000764
10005a18:	4005703c 	.word	0x4005703c
10005a1c:	40054000 	.word	0x40054000
10005a20:	1000571d 	.word	0x1000571d

10005a24 <sleep_until_callback>:
10005a24:	4807      	ldr	r0, [pc, #28]	; (10005a44 <sleep_until_callback+0x20>)
10005a26:	b510      	push	{r4, lr}
10005a28:	6802      	ldr	r2, [r0, #0]
10005a2a:	f3ef 8110 	mrs	r1, PRIMASK
10005a2e:	b672      	cpsid	i
10005a30:	6813      	ldr	r3, [r2, #0]
10005a32:	2b00      	cmp	r3, #0
10005a34:	d0fc      	beq.n	10005a30 <sleep_until_callback+0xc>
10005a36:	f3bf 8f5f 	dmb	sy
10005a3a:	f7fb fd01 	bl	10001440 <vPortLockInternalSpinUnlockWithNotify>
10005a3e:	2000      	movs	r0, #0
10005a40:	2100      	movs	r1, #0
10005a42:	bd10      	pop	{r4, pc}
10005a44:	20000a1c 	.word	0x20000a1c

10005a48 <runtime_init_default_alarm_pool>:
10005a48:	b570      	push	{r4, r5, r6, lr}
10005a4a:	4c2e      	ldr	r4, [pc, #184]	; (10005b04 <runtime_init_default_alarm_pool+0xbc>)
10005a4c:	6925      	ldr	r5, [r4, #16]
10005a4e:	2d00      	cmp	r5, #0
10005a50:	d004      	beq.n	10005a5c <runtime_init_default_alarm_pool+0x14>
10005a52:	210a      	movs	r1, #10
10005a54:	482c      	ldr	r0, [pc, #176]	; (10005b08 <runtime_init_default_alarm_pool+0xc0>)
10005a56:	f7ff fe25 	bl	100056a4 <lock_init>
10005a5a:	bd70      	pop	{r4, r5, r6, pc}
10005a5c:	4e2b      	ldr	r6, [pc, #172]	; (10005b0c <runtime_init_default_alarm_pool+0xc4>)
10005a5e:	2103      	movs	r1, #3
10005a60:	0030      	movs	r0, r6
10005a62:	f000 f965 	bl	10005d30 <timer_hardware_alarm_claim>
10005a66:	60e6      	str	r6, [r4, #12]
10005a68:	f7ff fc12 	bl	10005290 <next_striped_spin_lock_num>
10005a6c:	4b28      	ldr	r3, [pc, #160]	; (10005b10 <runtime_init_default_alarm_pool+0xc8>)
10005a6e:	2203      	movs	r2, #3
10005a70:	469c      	mov	ip, r3
10005a72:	23d0      	movs	r3, #208	; 0xd0
10005a74:	7022      	strb	r2, [r4, #0]
10005a76:	061b      	lsls	r3, r3, #24
10005a78:	681b      	ldr	r3, [r3, #0]
10005a7a:	2101      	movs	r1, #1
10005a7c:	7063      	strb	r3, [r4, #1]
10005a7e:	4b25      	ldr	r3, [pc, #148]	; (10005b14 <runtime_init_default_alarm_pool+0xcc>)
10005a80:	4460      	add	r0, ip
10005a82:	60a3      	str	r3, [r4, #8]
10005a84:	230f      	movs	r3, #15
10005a86:	0080      	lsls	r0, r0, #2
10005a88:	6120      	str	r0, [r4, #16]
10005a8a:	2002      	movs	r0, #2
10005a8c:	8063      	strh	r3, [r4, #2]
10005a8e:	6963      	ldr	r3, [r4, #20]
10005a90:	4249      	negs	r1, r1
10005a92:	80a1      	strh	r1, [r4, #4]
10005a94:	8019      	strh	r1, [r3, #0]
10005a96:	3102      	adds	r1, #2
10005a98:	8619      	strh	r1, [r3, #48]	; 0x30
10005a9a:	3147      	adds	r1, #71	; 0x47
10005a9c:	831d      	strh	r5, [r3, #24]
10005a9e:	5258      	strh	r0, [r3, r1]
10005aa0:	3118      	adds	r1, #24
10005aa2:	525a      	strh	r2, [r3, r1]
10005aa4:	3275      	adds	r2, #117	; 0x75
10005aa6:	395c      	subs	r1, #92	; 0x5c
10005aa8:	5299      	strh	r1, [r3, r2]
10005aaa:	3218      	adds	r2, #24
10005aac:	3101      	adds	r1, #1
10005aae:	5299      	strh	r1, [r3, r2]
10005ab0:	3218      	adds	r2, #24
10005ab2:	3101      	adds	r1, #1
10005ab4:	5299      	strh	r1, [r3, r2]
10005ab6:	3218      	adds	r2, #24
10005ab8:	3101      	adds	r1, #1
10005aba:	5299      	strh	r1, [r3, r2]
10005abc:	3508      	adds	r5, #8
10005abe:	3218      	adds	r2, #24
10005ac0:	529d      	strh	r5, [r3, r2]
10005ac2:	3102      	adds	r1, #2
10005ac4:	3218      	adds	r2, #24
10005ac6:	5299      	strh	r1, [r3, r2]
10005ac8:	3218      	adds	r2, #24
10005aca:	3101      	adds	r1, #1
10005acc:	5299      	strh	r1, [r3, r2]
10005ace:	3218      	adds	r2, #24
10005ad0:	3101      	adds	r1, #1
10005ad2:	5299      	strh	r1, [r3, r2]
10005ad4:	3218      	adds	r2, #24
10005ad6:	3101      	adds	r1, #1
10005ad8:	5299      	strh	r1, [r3, r2]
10005ada:	3218      	adds	r2, #24
10005adc:	3101      	adds	r1, #1
10005ade:	5299      	strh	r1, [r3, r2]
10005ae0:	3218      	adds	r2, #24
10005ae2:	3101      	adds	r1, #1
10005ae4:	5299      	strh	r1, [r3, r2]
10005ae6:	4b0c      	ldr	r3, [pc, #48]	; (10005b18 <runtime_init_default_alarm_pool+0xd0>)
10005ae8:	490c      	ldr	r1, [pc, #48]	; (10005b1c <runtime_init_default_alarm_pool+0xd4>)
10005aea:	60dc      	str	r4, [r3, #12]
10005aec:	3001      	adds	r0, #1
10005aee:	6235      	str	r5, [r6, #32]
10005af0:	f7ff fc5e 	bl	100053b0 <irq_set_exclusive_handler>
10005af4:	2101      	movs	r1, #1
10005af6:	2003      	movs	r0, #3
10005af8:	f7ff fc3c 	bl	10005374 <irq_set_enabled>
10005afc:	4b08      	ldr	r3, [pc, #32]	; (10005b20 <runtime_init_default_alarm_pool+0xd8>)
10005afe:	601d      	str	r5, [r3, #0]
10005b00:	e7a7      	b.n	10005a52 <runtime_init_default_alarm_pool+0xa>
10005b02:	46c0      	nop			; (mov r8, r8)
10005b04:	200002a4 	.word	0x200002a4
10005b08:	20000a1c 	.word	0x20000a1c
10005b0c:	40054000 	.word	0x40054000
10005b10:	34000040 	.word	0x34000040
10005b14:	0010ffff 	.word	0x0010ffff
10005b18:	20000764 	.word	0x20000764
10005b1c:	1000571d 	.word	0x1000571d
10005b20:	40056038 	.word	0x40056038

10005b24 <alarm_pool_add_alarm_at_force_in_context>:
10005b24:	b570      	push	{r4, r5, r6, lr}
10005b26:	46c6      	mov	lr, r8
10005b28:	0001      	movs	r1, r0
10005b2a:	b500      	push	{lr}
10005b2c:	6904      	ldr	r4, [r0, #16]
10005b2e:	f3ef 8c10 	mrs	ip, PRIMASK
10005b32:	b672      	cpsid	i
10005b34:	6820      	ldr	r0, [r4, #0]
10005b36:	2800      	cmp	r0, #0
10005b38:	d0fc      	beq.n	10005b34 <alarm_pool_add_alarm_at_force_in_context+0x10>
10005b3a:	f3bf 8f5f 	dmb	sy
10005b3e:	2002      	movs	r0, #2
10005b40:	5e0d      	ldrsh	r5, [r1, r0]
10005b42:	6948      	ldr	r0, [r1, #20]
10005b44:	006c      	lsls	r4, r5, #1
10005b46:	4680      	mov	r8, r0
10005b48:	1964      	adds	r4, r4, r5
10005b4a:	00e4      	lsls	r4, r4, #3
10005b4c:	4444      	add	r4, r8
10005b4e:	2d00      	cmp	r5, #0
10005b50:	db01      	blt.n	10005b56 <alarm_pool_add_alarm_at_force_in_context+0x32>
10005b52:	8820      	ldrh	r0, [r4, #0]
10005b54:	8048      	strh	r0, [r1, #2]
10005b56:	6908      	ldr	r0, [r1, #16]
10005b58:	f3bf 8f5f 	dmb	sy
10005b5c:	2600      	movs	r6, #0
10005b5e:	6006      	str	r6, [r0, #0]
10005b60:	f38c 8810 	msr	PRIMASK, ip
10005b64:	2d00      	cmp	r5, #0
10005b66:	db30      	blt.n	10005bca <alarm_pool_add_alarm_at_force_in_context+0xa6>
10005b68:	60e3      	str	r3, [r4, #12]
10005b6a:	8863      	ldrh	r3, [r4, #2]
10005b6c:	9805      	ldr	r0, [sp, #20]
10005b6e:	3301      	adds	r3, #1
10005b70:	6120      	str	r0, [r4, #16]
10005b72:	045b      	lsls	r3, r3, #17
10005b74:	9806      	ldr	r0, [sp, #24]
10005b76:	0c5b      	lsrs	r3, r3, #17
10005b78:	60a2      	str	r2, [r4, #8]
10005b7a:	6160      	str	r0, [r4, #20]
10005b7c:	1c1a      	adds	r2, r3, #0
10005b7e:	2b00      	cmp	r3, #0
10005b80:	d021      	beq.n	10005bc6 <alarm_pool_add_alarm_at_force_in_context+0xa2>
10005b82:	b290      	uxth	r0, r2
10005b84:	042b      	lsls	r3, r5, #16
10005b86:	8062      	strh	r2, [r4, #2]
10005b88:	4318      	orrs	r0, r3
10005b8a:	690a      	ldr	r2, [r1, #16]
10005b8c:	f3ef 8610 	mrs	r6, PRIMASK
10005b90:	b672      	cpsid	i
10005b92:	6813      	ldr	r3, [r2, #0]
10005b94:	2b00      	cmp	r3, #0
10005b96:	d0fc      	beq.n	10005b92 <alarm_pool_add_alarm_at_force_in_context+0x6e>
10005b98:	f3bf 8f5f 	dmb	sy
10005b9c:	888b      	ldrh	r3, [r1, #4]
10005b9e:	8023      	strh	r3, [r4, #0]
10005ba0:	808d      	strh	r5, [r1, #4]
10005ba2:	690b      	ldr	r3, [r1, #16]
10005ba4:	f3bf 8f5f 	dmb	sy
10005ba8:	2200      	movs	r2, #0
10005baa:	601a      	str	r2, [r3, #0]
10005bac:	f386 8810 	msr	PRIMASK, r6
10005bb0:	780b      	ldrb	r3, [r1, #0]
10005bb2:	3201      	adds	r2, #1
10005bb4:	409a      	lsls	r2, r3
10005bb6:	68cb      	ldr	r3, [r1, #12]
10005bb8:	4905      	ldr	r1, [pc, #20]	; (10005bd0 <alarm_pool_add_alarm_at_force_in_context+0xac>)
10005bba:	468c      	mov	ip, r1
10005bbc:	4463      	add	r3, ip
10005bbe:	601a      	str	r2, [r3, #0]
10005bc0:	bc40      	pop	{r6}
10005bc2:	46b0      	mov	r8, r6
10005bc4:	bd70      	pop	{r4, r5, r6, pc}
10005bc6:	2201      	movs	r2, #1
10005bc8:	e7db      	b.n	10005b82 <alarm_pool_add_alarm_at_force_in_context+0x5e>
10005bca:	2001      	movs	r0, #1
10005bcc:	4240      	negs	r0, r0
10005bce:	e7f7      	b.n	10005bc0 <alarm_pool_add_alarm_at_force_in_context+0x9c>
10005bd0:	0000203c 	.word	0x0000203c

10005bd4 <alarm_pool_cancel_alarm>:
10005bd4:	b510      	push	{r4, lr}
10005bd6:	8943      	ldrh	r3, [r0, #10]
10005bd8:	140a      	asrs	r2, r1, #16
10005bda:	4293      	cmp	r3, r2
10005bdc:	dd33      	ble.n	10005c46 <alarm_pool_cancel_alarm+0x72>
10005bde:	0053      	lsls	r3, r2, #1
10005be0:	189b      	adds	r3, r3, r2
10005be2:	6942      	ldr	r2, [r0, #20]
10005be4:	00db      	lsls	r3, r3, #3
10005be6:	4694      	mov	ip, r2
10005be8:	6904      	ldr	r4, [r0, #16]
10005bea:	4463      	add	r3, ip
10005bec:	f3ef 8c10 	mrs	ip, PRIMASK
10005bf0:	b672      	cpsid	i
10005bf2:	6822      	ldr	r2, [r4, #0]
10005bf4:	2a00      	cmp	r2, #0
10005bf6:	d0fc      	beq.n	10005bf2 <alarm_pool_cancel_alarm+0x1e>
10005bf8:	f3bf 8f5f 	dmb	sy
10005bfc:	885a      	ldrh	r2, [r3, #2]
10005bfe:	0409      	lsls	r1, r1, #16
10005c00:	b294      	uxth	r4, r2
10005c02:	0c09      	lsrs	r1, r1, #16
10005c04:	428a      	cmp	r2, r1
10005c06:	d008      	beq.n	10005c1a <alarm_pool_cancel_alarm+0x46>
10005c08:	6903      	ldr	r3, [r0, #16]
10005c0a:	f3bf 8f5f 	dmb	sy
10005c0e:	2200      	movs	r2, #0
10005c10:	601a      	str	r2, [r3, #0]
10005c12:	f38c 8810 	msr	PRIMASK, ip
10005c16:	2000      	movs	r0, #0
10005c18:	bd10      	pop	{r4, pc}
10005c1a:	2280      	movs	r2, #128	; 0x80
10005c1c:	0212      	lsls	r2, r2, #8
10005c1e:	4314      	orrs	r4, r2
10005c20:	805c      	strh	r4, [r3, #2]
10005c22:	2301      	movs	r3, #1
10005c24:	6902      	ldr	r2, [r0, #16]
10005c26:	7183      	strb	r3, [r0, #6]
10005c28:	f3bf 8f5f 	dmb	sy
10005c2c:	2100      	movs	r1, #0
10005c2e:	6011      	str	r1, [r2, #0]
10005c30:	f38c 8810 	msr	PRIMASK, ip
10005c34:	4905      	ldr	r1, [pc, #20]	; (10005c4c <alarm_pool_cancel_alarm+0x78>)
10005c36:	7802      	ldrb	r2, [r0, #0]
10005c38:	468c      	mov	ip, r1
10005c3a:	4093      	lsls	r3, r2
10005c3c:	68c2      	ldr	r2, [r0, #12]
10005c3e:	2001      	movs	r0, #1
10005c40:	4462      	add	r2, ip
10005c42:	6013      	str	r3, [r2, #0]
10005c44:	e7e8      	b.n	10005c18 <alarm_pool_cancel_alarm+0x44>
10005c46:	2000      	movs	r0, #0
10005c48:	e7e6      	b.n	10005c18 <alarm_pool_cancel_alarm+0x44>
10005c4a:	46c0      	nop			; (mov r8, r8)
10005c4c:	0000203c 	.word	0x0000203c

10005c50 <best_effort_wfe_or_timeout>:
10005c50:	b5f0      	push	{r4, r5, r6, r7, lr}
10005c52:	46ce      	mov	lr, r9
10005c54:	4647      	mov	r7, r8
10005c56:	b580      	push	{r7, lr}
10005c58:	0004      	movs	r4, r0
10005c5a:	000d      	movs	r5, r1
10005c5c:	b083      	sub	sp, #12
10005c5e:	f3ef 8705 	mrs	r7, IPSR
10005c62:	2f00      	cmp	r7, #0
10005c64:	d13b      	bne.n	10005cde <best_effort_wfe_or_timeout+0x8e>
10005c66:	4e2f      	ldr	r6, [pc, #188]	; (10005d24 <best_effort_wfe_or_timeout+0xd4>)
10005c68:	4681      	mov	r9, r0
10005c6a:	7833      	ldrb	r3, [r6, #0]
10005c6c:	68f2      	ldr	r2, [r6, #12]
10005c6e:	3304      	adds	r3, #4
10005c70:	009b      	lsls	r3, r3, #2
10005c72:	6a91      	ldr	r1, [r2, #40]	; 0x28
10005c74:	589b      	ldr	r3, [r3, r2]
10005c76:	1a42      	subs	r2, r0, r1
10005c78:	1a5b      	subs	r3, r3, r1
10005c7a:	429a      	cmp	r2, r3
10005c7c:	d30e      	bcc.n	10005c9c <best_effort_wfe_or_timeout+0x4c>
10005c7e:	bf20      	wfe
10005c80:	4a29      	ldr	r2, [pc, #164]	; (10005d28 <best_effort_wfe_or_timeout+0xd8>)
10005c82:	2000      	movs	r0, #0
10005c84:	6a53      	ldr	r3, [r2, #36]	; 0x24
10005c86:	42ab      	cmp	r3, r5
10005c88:	d303      	bcc.n	10005c92 <best_effort_wfe_or_timeout+0x42>
10005c8a:	6a92      	ldr	r2, [r2, #40]	; 0x28
10005c8c:	3001      	adds	r0, #1
10005c8e:	4591      	cmp	r9, r2
10005c90:	d83c      	bhi.n	10005d0c <best_effort_wfe_or_timeout+0xbc>
10005c92:	b003      	add	sp, #12
10005c94:	bcc0      	pop	{r6, r7}
10005c96:	46b9      	mov	r9, r7
10005c98:	46b0      	mov	r8, r6
10005c9a:	bdf0      	pop	{r4, r5, r6, r7, pc}
10005c9c:	f000 f85a 	bl	10005d54 <time_us_64>
10005ca0:	0022      	movs	r2, r4
10005ca2:	002b      	movs	r3, r5
10005ca4:	1a12      	subs	r2, r2, r0
10005ca6:	418b      	sbcs	r3, r1
10005ca8:	2b00      	cmp	r3, #0
10005caa:	db26      	blt.n	10005cfa <best_effort_wfe_or_timeout+0xaa>
10005cac:	4b1f      	ldr	r3, [pc, #124]	; (10005d2c <best_effort_wfe_or_timeout+0xdc>)
10005cae:	0022      	movs	r2, r4
10005cb0:	9300      	str	r3, [sp, #0]
10005cb2:	0030      	movs	r0, r6
10005cb4:	002b      	movs	r3, r5
10005cb6:	9701      	str	r7, [sp, #4]
10005cb8:	f7ff ff34 	bl	10005b24 <alarm_pool_add_alarm_at_force_in_context>
10005cbc:	1e01      	subs	r1, r0, #0
10005cbe:	dd1c      	ble.n	10005cfa <best_effort_wfe_or_timeout+0xaa>
10005cc0:	4b19      	ldr	r3, [pc, #100]	; (10005d28 <best_effort_wfe_or_timeout+0xd8>)
10005cc2:	46a8      	mov	r8, r5
10005cc4:	6a5a      	ldr	r2, [r3, #36]	; 0x24
10005cc6:	4295      	cmp	r5, r2
10005cc8:	d925      	bls.n	10005d16 <best_effort_wfe_or_timeout+0xc6>
10005cca:	bf20      	wfe
10005ccc:	0030      	movs	r0, r6
10005cce:	f7ff ff81 	bl	10005bd4 <alarm_pool_cancel_alarm>
10005cd2:	4a15      	ldr	r2, [pc, #84]	; (10005d28 <best_effort_wfe_or_timeout+0xd8>)
10005cd4:	2000      	movs	r0, #0
10005cd6:	6a53      	ldr	r3, [r2, #36]	; 0x24
10005cd8:	4598      	cmp	r8, r3
10005cda:	d8da      	bhi.n	10005c92 <best_effort_wfe_or_timeout+0x42>
10005cdc:	e7d5      	b.n	10005c8a <best_effort_wfe_or_timeout+0x3a>
10005cde:	4a12      	ldr	r2, [pc, #72]	; (10005d28 <best_effort_wfe_or_timeout+0xd8>)
10005ce0:	2000      	movs	r0, #0
10005ce2:	6a53      	ldr	r3, [r2, #36]	; 0x24
10005ce4:	428b      	cmp	r3, r1
10005ce6:	d3d4      	bcc.n	10005c92 <best_effort_wfe_or_timeout+0x42>
10005ce8:	6a92      	ldr	r2, [r2, #40]	; 0x28
10005cea:	3001      	adds	r0, #1
10005cec:	42a2      	cmp	r2, r4
10005cee:	d2d0      	bcs.n	10005c92 <best_effort_wfe_or_timeout+0x42>
10005cf0:	1a58      	subs	r0, r3, r1
10005cf2:	1e42      	subs	r2, r0, #1
10005cf4:	4190      	sbcs	r0, r2
10005cf6:	b2c0      	uxtb	r0, r0
10005cf8:	e7cb      	b.n	10005c92 <best_effort_wfe_or_timeout+0x42>
10005cfa:	4a0b      	ldr	r2, [pc, #44]	; (10005d28 <best_effort_wfe_or_timeout+0xd8>)
10005cfc:	2000      	movs	r0, #0
10005cfe:	6a53      	ldr	r3, [r2, #36]	; 0x24
10005d00:	42ab      	cmp	r3, r5
10005d02:	d3c6      	bcc.n	10005c92 <best_effort_wfe_or_timeout+0x42>
10005d04:	6a92      	ldr	r2, [r2, #40]	; 0x28
10005d06:	2001      	movs	r0, #1
10005d08:	4591      	cmp	r9, r2
10005d0a:	d9c2      	bls.n	10005c92 <best_effort_wfe_or_timeout+0x42>
10005d0c:	1ae8      	subs	r0, r5, r3
10005d0e:	1e42      	subs	r2, r0, #1
10005d10:	4190      	sbcs	r0, r2
10005d12:	b2c0      	uxtb	r0, r0
10005d14:	e7bd      	b.n	10005c92 <best_effort_wfe_or_timeout+0x42>
10005d16:	6a9b      	ldr	r3, [r3, #40]	; 0x28
10005d18:	429c      	cmp	r4, r3
10005d1a:	d9d7      	bls.n	10005ccc <best_effort_wfe_or_timeout+0x7c>
10005d1c:	4295      	cmp	r5, r2
10005d1e:	d1d5      	bne.n	10005ccc <best_effort_wfe_or_timeout+0x7c>
10005d20:	e7d3      	b.n	10005cca <best_effort_wfe_or_timeout+0x7a>
10005d22:	46c0      	nop			; (mov r8, r8)
10005d24:	200002a4 	.word	0x200002a4
10005d28:	40054000 	.word	0x40054000
10005d2c:	10005a25 	.word	0x10005a25

10005d30 <timer_hardware_alarm_claim>:
10005d30:	b510      	push	{r4, lr}
10005d32:	4a02      	ldr	r2, [pc, #8]	; (10005d3c <timer_hardware_alarm_claim+0xc>)
10005d34:	4802      	ldr	r0, [pc, #8]	; (10005d40 <timer_hardware_alarm_claim+0x10>)
10005d36:	f7ff fa89 	bl	1000524c <hw_claim_or_assert>
10005d3a:	bd10      	pop	{r4, pc}
10005d3c:	10009178 	.word	0x10009178
10005d40:	20000728 	.word	0x20000728

10005d44 <timer_time_us_64>:
10005d44:	0003      	movs	r3, r0
10005d46:	6a41      	ldr	r1, [r0, #36]	; 0x24
10005d48:	000a      	movs	r2, r1
10005d4a:	6a98      	ldr	r0, [r3, #40]	; 0x28
10005d4c:	6a59      	ldr	r1, [r3, #36]	; 0x24
10005d4e:	428a      	cmp	r2, r1
10005d50:	d1fa      	bne.n	10005d48 <timer_time_us_64+0x4>
10005d52:	4770      	bx	lr

10005d54 <time_us_64>:
10005d54:	4b03      	ldr	r3, [pc, #12]	; (10005d64 <time_us_64+0x10>)
10005d56:	6a59      	ldr	r1, [r3, #36]	; 0x24
10005d58:	000a      	movs	r2, r1
10005d5a:	6a98      	ldr	r0, [r3, #40]	; 0x28
10005d5c:	6a59      	ldr	r1, [r3, #36]	; 0x24
10005d5e:	4291      	cmp	r1, r2
10005d60:	d1fa      	bne.n	10005d58 <time_us_64+0x4>
10005d62:	4770      	bx	lr
10005d64:	40054000 	.word	0x40054000

10005d68 <busy_wait_us>:
10005d68:	b570      	push	{r4, r5, r6, lr}
10005d6a:	0004      	movs	r4, r0
10005d6c:	000d      	movs	r5, r1
10005d6e:	4a12      	ldr	r2, [pc, #72]	; (10005db8 <busy_wait_us+0x50>)
10005d70:	6a53      	ldr	r3, [r2, #36]	; 0x24
10005d72:	0019      	movs	r1, r3
10005d74:	6a96      	ldr	r6, [r2, #40]	; 0x28
10005d76:	6a53      	ldr	r3, [r2, #36]	; 0x24
10005d78:	428b      	cmp	r3, r1
10005d7a:	d1fa      	bne.n	10005d72 <busy_wait_us+0xa>
10005d7c:	0030      	movs	r0, r6
10005d7e:	0019      	movs	r1, r3
10005d80:	1824      	adds	r4, r4, r0
10005d82:	414d      	adcs	r5, r1
10005d84:	42ab      	cmp	r3, r5
10005d86:	d811      	bhi.n	10005dac <busy_wait_us+0x44>
10005d88:	d00e      	beq.n	10005da8 <busy_wait_us+0x40>
10005d8a:	002b      	movs	r3, r5
10005d8c:	490a      	ldr	r1, [pc, #40]	; (10005db8 <busy_wait_us+0x50>)
10005d8e:	6a4a      	ldr	r2, [r1, #36]	; 0x24
10005d90:	429a      	cmp	r2, r3
10005d92:	d3fc      	bcc.n	10005d8e <busy_wait_us+0x26>
10005d94:	d107      	bne.n	10005da6 <busy_wait_us+0x3e>
10005d96:	4a08      	ldr	r2, [pc, #32]	; (10005db8 <busy_wait_us+0x50>)
10005d98:	e002      	b.n	10005da0 <busy_wait_us+0x38>
10005d9a:	6a51      	ldr	r1, [r2, #36]	; 0x24
10005d9c:	4299      	cmp	r1, r3
10005d9e:	d102      	bne.n	10005da6 <busy_wait_us+0x3e>
10005da0:	6a91      	ldr	r1, [r2, #40]	; 0x28
10005da2:	42a1      	cmp	r1, r4
10005da4:	d3f9      	bcc.n	10005d9a <busy_wait_us+0x32>
10005da6:	bd70      	pop	{r4, r5, r6, pc}
10005da8:	42a6      	cmp	r6, r4
10005daa:	d9ee      	bls.n	10005d8a <busy_wait_us+0x22>
10005dac:	2301      	movs	r3, #1
10005dae:	2401      	movs	r4, #1
10005db0:	4264      	negs	r4, r4
10005db2:	17e5      	asrs	r5, r4, #31
10005db4:	425b      	negs	r3, r3
10005db6:	e7e9      	b.n	10005d8c <busy_wait_us+0x24>
10005db8:	40054000 	.word	0x40054000

10005dbc <busy_wait_ms>:
10005dbc:	4b1f      	ldr	r3, [pc, #124]	; (10005e3c <busy_wait_ms+0x80>)
10005dbe:	b570      	push	{r4, r5, r6, lr}
10005dc0:	4298      	cmp	r0, r3
10005dc2:	d80b      	bhi.n	10005ddc <busy_wait_ms+0x20>
10005dc4:	0142      	lsls	r2, r0, #5
10005dc6:	1a12      	subs	r2, r2, r0
10005dc8:	0092      	lsls	r2, r2, #2
10005dca:	1810      	adds	r0, r2, r0
10005dcc:	4a1c      	ldr	r2, [pc, #112]	; (10005e40 <busy_wait_ms+0x84>)
10005dce:	00c0      	lsls	r0, r0, #3
10005dd0:	6a91      	ldr	r1, [r2, #40]	; 0x28
10005dd2:	6a93      	ldr	r3, [r2, #40]	; 0x28
10005dd4:	1a5b      	subs	r3, r3, r1
10005dd6:	4298      	cmp	r0, r3
10005dd8:	d8fb      	bhi.n	10005dd2 <busy_wait_ms+0x16>
10005dda:	bd70      	pop	{r4, r5, r6, pc}
10005ddc:	22fa      	movs	r2, #250	; 0xfa
10005dde:	2300      	movs	r3, #0
10005de0:	0092      	lsls	r2, r2, #2
10005de2:	2100      	movs	r1, #0
10005de4:	f001 f92c 	bl	10007040 <__wrap___aeabi_lmul>
10005de8:	0004      	movs	r4, r0
10005dea:	000d      	movs	r5, r1
10005dec:	4a14      	ldr	r2, [pc, #80]	; (10005e40 <busy_wait_ms+0x84>)
10005dee:	6a53      	ldr	r3, [r2, #36]	; 0x24
10005df0:	0019      	movs	r1, r3
10005df2:	6a96      	ldr	r6, [r2, #40]	; 0x28
10005df4:	6a53      	ldr	r3, [r2, #36]	; 0x24
10005df6:	428b      	cmp	r3, r1
10005df8:	d1fa      	bne.n	10005df0 <busy_wait_ms+0x34>
10005dfa:	0030      	movs	r0, r6
10005dfc:	0019      	movs	r1, r3
10005dfe:	1824      	adds	r4, r4, r0
10005e00:	414d      	adcs	r5, r1
10005e02:	42ab      	cmp	r3, r5
10005e04:	d912      	bls.n	10005e2c <busy_wait_ms+0x70>
10005e06:	2301      	movs	r3, #1
10005e08:	2401      	movs	r4, #1
10005e0a:	4264      	negs	r4, r4
10005e0c:	17e5      	asrs	r5, r4, #31
10005e0e:	425b      	negs	r3, r3
10005e10:	490b      	ldr	r1, [pc, #44]	; (10005e40 <busy_wait_ms+0x84>)
10005e12:	6a4a      	ldr	r2, [r1, #36]	; 0x24
10005e14:	429a      	cmp	r2, r3
10005e16:	d3fc      	bcc.n	10005e12 <busy_wait_ms+0x56>
10005e18:	d1df      	bne.n	10005dda <busy_wait_ms+0x1e>
10005e1a:	4a09      	ldr	r2, [pc, #36]	; (10005e40 <busy_wait_ms+0x84>)
10005e1c:	e002      	b.n	10005e24 <busy_wait_ms+0x68>
10005e1e:	6a51      	ldr	r1, [r2, #36]	; 0x24
10005e20:	4299      	cmp	r1, r3
10005e22:	d1da      	bne.n	10005dda <busy_wait_ms+0x1e>
10005e24:	6a91      	ldr	r1, [r2, #40]	; 0x28
10005e26:	42a1      	cmp	r1, r4
10005e28:	d3f9      	bcc.n	10005e1e <busy_wait_ms+0x62>
10005e2a:	e7d6      	b.n	10005dda <busy_wait_ms+0x1e>
10005e2c:	42ab      	cmp	r3, r5
10005e2e:	d001      	beq.n	10005e34 <busy_wait_ms+0x78>
10005e30:	002b      	movs	r3, r5
10005e32:	e7ed      	b.n	10005e10 <busy_wait_ms+0x54>
10005e34:	42a6      	cmp	r6, r4
10005e36:	d8e6      	bhi.n	10005e06 <busy_wait_ms+0x4a>
10005e38:	e7fa      	b.n	10005e30 <busy_wait_ms+0x74>
10005e3a:	46c0      	nop			; (mov r8, r8)
10005e3c:	0020c49b 	.word	0x0020c49b
10005e40:	40054000 	.word	0x40054000

10005e44 <pll_init>:
10005e44:	b5f8      	push	{r3, r4, r5, r6, r7, lr}
10005e46:	0004      	movs	r4, r0
10005e48:	4820      	ldr	r0, [pc, #128]	; (10005ecc <pll_init+0x88>)
10005e4a:	001d      	movs	r5, r3
10005e4c:	0017      	movs	r7, r2
10005e4e:	000e      	movs	r6, r1
10005e50:	f000 fad4 	bl	100063fc <__wrap___aeabi_uidiv>
10005e54:	0001      	movs	r1, r0
10005e56:	0038      	movs	r0, r7
10005e58:	f000 fad0 	bl	100063fc <__wrap___aeabi_uidiv>
10005e5c:	9b06      	ldr	r3, [sp, #24]
10005e5e:	0429      	lsls	r1, r5, #16
10005e60:	031b      	lsls	r3, r3, #12
10005e62:	4319      	orrs	r1, r3
10005e64:	6823      	ldr	r3, [r4, #0]
10005e66:	2b00      	cmp	r3, #0
10005e68:	db1e      	blt.n	10005ea8 <pll_init+0x64>
10005e6a:	4b19      	ldr	r3, [pc, #100]	; (10005ed0 <pll_init+0x8c>)
10005e6c:	4d19      	ldr	r5, [pc, #100]	; (10005ed4 <pll_init+0x90>)
10005e6e:	18e2      	adds	r2, r4, r3
10005e70:	4253      	negs	r3, r2
10005e72:	415a      	adcs	r2, r3
10005e74:	2380      	movs	r3, #128	; 0x80
10005e76:	015b      	lsls	r3, r3, #5
10005e78:	469c      	mov	ip, r3
10005e7a:	0312      	lsls	r2, r2, #12
10005e7c:	4b16      	ldr	r3, [pc, #88]	; (10005ed8 <pll_init+0x94>)
10005e7e:	4462      	add	r2, ip
10005e80:	601a      	str	r2, [r3, #0]
10005e82:	4b16      	ldr	r3, [pc, #88]	; (10005edc <pll_init+0x98>)
10005e84:	601a      	str	r2, [r3, #0]
10005e86:	0017      	movs	r7, r2
10005e88:	682b      	ldr	r3, [r5, #0]
10005e8a:	439f      	bics	r7, r3
10005e8c:	d1fb      	bne.n	10005e86 <pll_init+0x42>
10005e8e:	4b14      	ldr	r3, [pc, #80]	; (10005ee0 <pll_init+0x9c>)
10005e90:	6026      	str	r6, [r4, #0]
10005e92:	18e2      	adds	r2, r4, r3
10005e94:	2321      	movs	r3, #33	; 0x21
10005e96:	60a0      	str	r0, [r4, #8]
10005e98:	6013      	str	r3, [r2, #0]
10005e9a:	6823      	ldr	r3, [r4, #0]
10005e9c:	2b00      	cmp	r3, #0
10005e9e:	dafc      	bge.n	10005e9a <pll_init+0x56>
10005ea0:	2308      	movs	r3, #8
10005ea2:	60e1      	str	r1, [r4, #12]
10005ea4:	6013      	str	r3, [r2, #0]
10005ea6:	bdf8      	pop	{r3, r4, r5, r6, r7, pc}
10005ea8:	233f      	movs	r3, #63	; 0x3f
10005eaa:	6822      	ldr	r2, [r4, #0]
10005eac:	4013      	ands	r3, r2
10005eae:	42b3      	cmp	r3, r6
10005eb0:	d1db      	bne.n	10005e6a <pll_init+0x26>
10005eb2:	68a3      	ldr	r3, [r4, #8]
10005eb4:	051b      	lsls	r3, r3, #20
10005eb6:	0d1b      	lsrs	r3, r3, #20
10005eb8:	4283      	cmp	r3, r0
10005eba:	d1d6      	bne.n	10005e6a <pll_init+0x26>
10005ebc:	22ee      	movs	r2, #238	; 0xee
10005ebe:	68e3      	ldr	r3, [r4, #12]
10005ec0:	02d2      	lsls	r2, r2, #11
10005ec2:	4013      	ands	r3, r2
10005ec4:	428b      	cmp	r3, r1
10005ec6:	d1d0      	bne.n	10005e6a <pll_init+0x26>
10005ec8:	e7ed      	b.n	10005ea6 <pll_init+0x62>
10005eca:	46c0      	nop			; (mov r8, r8)
10005ecc:	00b71b00 	.word	0x00b71b00
10005ed0:	bffd4000 	.word	0xbffd4000
10005ed4:	4000c008 	.word	0x4000c008
10005ed8:	4000e000 	.word	0x4000e000
10005edc:	4000f000 	.word	0x4000f000
10005ee0:	00003004 	.word	0x00003004

10005ee4 <tick_start>:
10005ee4:	2380      	movs	r3, #128	; 0x80
10005ee6:	4a02      	ldr	r2, [pc, #8]	; (10005ef0 <tick_start+0xc>)
10005ee8:	009b      	lsls	r3, r3, #2
10005eea:	430b      	orrs	r3, r1
10005eec:	62d3      	str	r3, [r2, #44]	; 0x2c
10005eee:	4770      	bx	lr
10005ef0:	40058000 	.word	0x40058000

10005ef4 <rom_func_lookup>:
10005ef4:	2314      	movs	r3, #20
10005ef6:	b510      	push	{r4, lr}
10005ef8:	0001      	movs	r1, r0
10005efa:	8818      	ldrh	r0, [r3, #0]
10005efc:	3304      	adds	r3, #4
10005efe:	881b      	ldrh	r3, [r3, #0]
10005f00:	4798      	blx	r3
10005f02:	bd10      	pop	{r4, pc}

10005f04 <rom_data_lookup>:
10005f04:	2316      	movs	r3, #22
10005f06:	b510      	push	{r4, lr}
10005f08:	0001      	movs	r1, r0
10005f0a:	8818      	ldrh	r0, [r3, #0]
10005f0c:	3302      	adds	r3, #2
10005f0e:	881b      	ldrh	r3, [r3, #0]
10005f10:	4798      	blx	r3
10005f12:	bd10      	pop	{r4, pc}

10005f14 <rom_funcs_lookup>:
10005f14:	b5f8      	push	{r3, r4, r5, r6, r7, lr}
10005f16:	4647      	mov	r7, r8
10005f18:	46ce      	mov	lr, r9
10005f1a:	b580      	push	{r7, lr}
10005f1c:	1e0f      	subs	r7, r1, #0
10005f1e:	d019      	beq.n	10005f54 <rom_funcs_lookup+0x40>
10005f20:	2314      	movs	r3, #20
10005f22:	4699      	mov	r9, r3
10005f24:	3304      	adds	r3, #4
10005f26:	0004      	movs	r4, r0
10005f28:	2500      	movs	r5, #0
10005f2a:	2601      	movs	r6, #1
10005f2c:	4698      	mov	r8, r3
10005f2e:	464b      	mov	r3, r9
10005f30:	8818      	ldrh	r0, [r3, #0]
10005f32:	4643      	mov	r3, r8
10005f34:	6821      	ldr	r1, [r4, #0]
10005f36:	881b      	ldrh	r3, [r3, #0]
10005f38:	4798      	blx	r3
10005f3a:	c401      	stmia	r4!, {r0}
10005f3c:	1e43      	subs	r3, r0, #1
10005f3e:	4198      	sbcs	r0, r3
10005f40:	3501      	adds	r5, #1
10005f42:	4240      	negs	r0, r0
10005f44:	4006      	ands	r6, r0
10005f46:	42af      	cmp	r7, r5
10005f48:	d1f1      	bne.n	10005f2e <rom_funcs_lookup+0x1a>
10005f4a:	0030      	movs	r0, r6
10005f4c:	bcc0      	pop	{r6, r7}
10005f4e:	46b9      	mov	r9, r7
10005f50:	46b0      	mov	r8, r6
10005f52:	bdf8      	pop	{r3, r4, r5, r6, r7, pc}
10005f54:	2601      	movs	r6, #1
10005f56:	e7f8      	b.n	10005f4a <rom_funcs_lookup+0x36>

10005f58 <xosc_init>:
10005f58:	23aa      	movs	r3, #170	; 0xaa
10005f5a:	4a06      	ldr	r2, [pc, #24]	; (10005f74 <xosc_init+0x1c>)
10005f5c:	011b      	lsls	r3, r3, #4
10005f5e:	6013      	str	r3, [r2, #0]
10005f60:	232f      	movs	r3, #47	; 0x2f
10005f62:	4905      	ldr	r1, [pc, #20]	; (10005f78 <xosc_init+0x20>)
10005f64:	60d3      	str	r3, [r2, #12]
10005f66:	4b05      	ldr	r3, [pc, #20]	; (10005f7c <xosc_init+0x24>)
10005f68:	6019      	str	r1, [r3, #0]
10005f6a:	6853      	ldr	r3, [r2, #4]
10005f6c:	2b00      	cmp	r3, #0
10005f6e:	dafc      	bge.n	10005f6a <xosc_init+0x12>
10005f70:	4770      	bx	lr
10005f72:	46c0      	nop			; (mov r8, r8)
10005f74:	40024000 	.word	0x40024000
10005f78:	00fab000 	.word	0x00fab000
10005f7c:	40026000 	.word	0x40026000

10005f80 <exception_set_exclusive_handler>:
10005f80:	b5f8      	push	{r3, r4, r5, r6, r7, lr}
10005f82:	000e      	movs	r6, r1
10005f84:	f3ef 8710 	mrs	r7, PRIMASK
10005f88:	b672      	cpsid	i
10005f8a:	4b0c      	ldr	r3, [pc, #48]	; (10005fbc <exception_set_exclusive_handler+0x3c>)
10005f8c:	0084      	lsls	r4, r0, #2
10005f8e:	689b      	ldr	r3, [r3, #8]
10005f90:	591d      	ldr	r5, [r3, r4]
10005f92:	42a9      	cmp	r1, r5
10005f94:	d005      	beq.n	10005fa2 <exception_set_exclusive_handler+0x22>
10005f96:	4b0a      	ldr	r3, [pc, #40]	; (10005fc0 <exception_set_exclusive_handler+0x40>)
10005f98:	429d      	cmp	r5, r3
10005f9a:	d30b      	bcc.n	10005fb4 <exception_set_exclusive_handler+0x34>
10005f9c:	4b09      	ldr	r3, [pc, #36]	; (10005fc4 <exception_set_exclusive_handler+0x44>)
10005f9e:	429d      	cmp	r5, r3
10005fa0:	d208      	bcs.n	10005fb4 <exception_set_exclusive_handler+0x34>
10005fa2:	4b06      	ldr	r3, [pc, #24]	; (10005fbc <exception_set_exclusive_handler+0x3c>)
10005fa4:	689b      	ldr	r3, [r3, #8]
10005fa6:	511e      	str	r6, [r3, r4]
10005fa8:	f3bf 8f5f 	dmb	sy
10005fac:	f387 8810 	msr	PRIMASK, r7
10005fb0:	0028      	movs	r0, r5
10005fb2:	bdf8      	pop	{r3, r4, r5, r6, r7, pc}
10005fb4:	f000 f908 	bl	100061c8 <hard_assertion_failure>
10005fb8:	e7f3      	b.n	10005fa2 <exception_set_exclusive_handler+0x22>
10005fba:	46c0      	nop			; (mov r8, r8)
10005fbc:	e000ed00 	.word	0xe000ed00
10005fc0:	100001c0 	.word	0x100001c0
10005fc4:	100001cc 	.word	0x100001cc

10005fc8 <core1_trampoline>:
10005fc8:	bd03      	pop	{r0, r1, pc}
10005fca:	46c0      	nop			; (mov r8, r8)

10005fcc <core1_wrapper>:
10005fcc:	b510      	push	{r4, lr}
10005fce:	0004      	movs	r4, r0
10005fd0:	f000 f914 	bl	100061fc <runtime_run_per_core_initializers>
10005fd4:	47a0      	blx	r4
10005fd6:	bd10      	pop	{r4, pc}

10005fd8 <multicore_launch_core1_raw>:
10005fd8:	b5f0      	push	{r4, r5, r6, r7, lr}
10005fda:	0004      	movs	r4, r0
10005fdc:	b087      	sub	sp, #28
10005fde:	200f      	movs	r0, #15
10005fe0:	000e      	movs	r6, r1
10005fe2:	0017      	movs	r7, r2
10005fe4:	f7ff f9d8 	bl	10005398 <irq_is_enabled>
10005fe8:	2100      	movs	r1, #0
10005fea:	0005      	movs	r5, r0
10005fec:	200f      	movs	r0, #15
10005fee:	f7ff f9c1 	bl	10005374 <irq_set_enabled>
10005ff2:	2300      	movs	r3, #0
10005ff4:	2200      	movs	r2, #0
10005ff6:	9200      	str	r2, [sp, #0]
10005ff8:	9301      	str	r3, [sp, #4]
10005ffa:	2301      	movs	r3, #1
10005ffc:	9302      	str	r3, [sp, #8]
10005ffe:	23d0      	movs	r3, #208	; 0xd0
10006000:	9604      	str	r6, [sp, #16]
10006002:	9405      	str	r4, [sp, #20]
10006004:	2600      	movs	r6, #0
10006006:	2400      	movs	r4, #0
10006008:	2101      	movs	r1, #1
1000600a:	2002      	movs	r0, #2
1000600c:	9703      	str	r7, [sp, #12]
1000600e:	061b      	lsls	r3, r3, #24
10006010:	2c00      	cmp	r4, #0
10006012:	d014      	beq.n	1000603e <multicore_launch_core1_raw+0x66>
10006014:	6d1a      	ldr	r2, [r3, #80]	; 0x50
10006016:	4210      	tst	r0, r2
10006018:	d0fc      	beq.n	10006014 <multicore_launch_core1_raw+0x3c>
1000601a:	655c      	str	r4, [r3, #84]	; 0x54
1000601c:	bf40      	sev
1000601e:	6d1a      	ldr	r2, [r3, #80]	; 0x50
10006020:	4211      	tst	r1, r2
10006022:	d103      	bne.n	1000602c <multicore_launch_core1_raw+0x54>
10006024:	bf20      	wfe
10006026:	6d1a      	ldr	r2, [r3, #80]	; 0x50
10006028:	4211      	tst	r1, r2
1000602a:	d0fb      	beq.n	10006024 <multicore_launch_core1_raw+0x4c>
1000602c:	6d9a      	ldr	r2, [r3, #88]	; 0x58
1000602e:	42a2      	cmp	r2, r4
10006030:	d00a      	beq.n	10006048 <multicore_launch_core1_raw+0x70>
10006032:	2600      	movs	r6, #0
10006034:	466c      	mov	r4, sp
10006036:	00b2      	lsls	r2, r6, #2
10006038:	58a4      	ldr	r4, [r4, r2]
1000603a:	e7e9      	b.n	10006010 <multicore_launch_core1_raw+0x38>
1000603c:	6d9a      	ldr	r2, [r3, #88]	; 0x58
1000603e:	6d1a      	ldr	r2, [r3, #80]	; 0x50
10006040:	4211      	tst	r1, r2
10006042:	d1fb      	bne.n	1000603c <multicore_launch_core1_raw+0x64>
10006044:	bf40      	sev
10006046:	e7e5      	b.n	10006014 <multicore_launch_core1_raw+0x3c>
10006048:	3601      	adds	r6, #1
1000604a:	2e05      	cmp	r6, #5
1000604c:	d9f2      	bls.n	10006034 <multicore_launch_core1_raw+0x5c>
1000604e:	0029      	movs	r1, r5
10006050:	200f      	movs	r0, #15
10006052:	f7ff f98f 	bl	10005374 <irq_set_enabled>
10006056:	b007      	add	sp, #28
10006058:	bdf0      	pop	{r4, r5, r6, r7, pc}
1000605a:	46c0      	nop			; (mov r8, r8)

1000605c <multicore_launch_core1>:
1000605c:	4b0b      	ldr	r3, [pc, #44]	; (1000608c <multicore_launch_core1+0x30>)
1000605e:	4a0c      	ldr	r2, [pc, #48]	; (10006090 <multicore_launch_core1+0x34>)
10006060:	b510      	push	{r4, lr}
10006062:	4293      	cmp	r3, r2
10006064:	d201      	bcs.n	1000606a <multicore_launch_core1+0xe>
10006066:	2301      	movs	r3, #1
10006068:	425b      	negs	r3, r3
1000606a:	4c0a      	ldr	r4, [pc, #40]	; (10006094 <multicore_launch_core1+0x38>)
1000606c:	4a0a      	ldr	r2, [pc, #40]	; (10006098 <multicore_launch_core1+0x3c>)
1000606e:	0019      	movs	r1, r3
10006070:	6892      	ldr	r2, [r2, #8]
10006072:	5118      	str	r0, [r3, r4]
10006074:	20ff      	movs	r0, #255	; 0xff
10006076:	46a4      	mov	ip, r4
10006078:	00c0      	lsls	r0, r0, #3
1000607a:	501b      	str	r3, [r3, r0]
1000607c:	4b07      	ldr	r3, [pc, #28]	; (1000609c <multicore_launch_core1+0x40>)
1000607e:	4808      	ldr	r0, [pc, #32]	; (100060a0 <multicore_launch_core1+0x44>)
10006080:	50c8      	str	r0, [r1, r3]
10006082:	4808      	ldr	r0, [pc, #32]	; (100060a4 <multicore_launch_core1+0x48>)
10006084:	4461      	add	r1, ip
10006086:	f7ff ffa7 	bl	10005fd8 <multicore_launch_core1_raw>
1000608a:	bd10      	pop	{r4, pc}
1000608c:	20040800 	.word	0x20040800
10006090:	20040000 	.word	0x20040000
10006094:	000007f4 	.word	0x000007f4
10006098:	e000ed00 	.word	0xe000ed00
1000609c:	000007fc 	.word	0x000007fc
100060a0:	10005fcd 	.word	0x10005fcd
100060a4:	10005fc9 	.word	0x10005fc9

100060a8 <uart_init>:
100060a8:	b5f8      	push	{r3, r4, r5, r6, r7, lr}
100060aa:	0004      	movs	r4, r0
100060ac:	2006      	movs	r0, #6
100060ae:	000d      	movs	r5, r1
100060b0:	f7ff f8c6 	bl	10005240 <clock_get_hz>
100060b4:	2800      	cmp	r0, #0
100060b6:	d042      	beq.n	1000613e <uart_init+0x96>
100060b8:	4b36      	ldr	r3, [pc, #216]	; (10006194 <uart_init+0xec>)
100060ba:	4937      	ldr	r1, [pc, #220]	; (10006198 <uart_init+0xf0>)
100060bc:	18e2      	adds	r2, r4, r3
100060be:	4253      	negs	r3, r2
100060c0:	415a      	adcs	r2, r3
100060c2:	2380      	movs	r3, #128	; 0x80
100060c4:	03db      	lsls	r3, r3, #15
100060c6:	469c      	mov	ip, r3
100060c8:	0592      	lsls	r2, r2, #22
100060ca:	4b34      	ldr	r3, [pc, #208]	; (1000619c <uart_init+0xf4>)
100060cc:	4462      	add	r2, ip
100060ce:	601a      	str	r2, [r3, #0]
100060d0:	4b33      	ldr	r3, [pc, #204]	; (100061a0 <uart_init+0xf8>)
100060d2:	601a      	str	r2, [r3, #0]
100060d4:	0010      	movs	r0, r2
100060d6:	680b      	ldr	r3, [r1, #0]
100060d8:	4398      	bics	r0, r3
100060da:	d1fb      	bne.n	100060d4 <uart_init+0x2c>
100060dc:	4b2d      	ldr	r3, [pc, #180]	; (10006194 <uart_init+0xec>)
100060de:	2180      	movs	r1, #128	; 0x80
100060e0:	18e3      	adds	r3, r4, r3
100060e2:	425a      	negs	r2, r3
100060e4:	4153      	adcs	r3, r2
100060e6:	4a2f      	ldr	r2, [pc, #188]	; (100061a4 <uart_init+0xfc>)
100060e8:	005b      	lsls	r3, r3, #1
100060ea:	0049      	lsls	r1, r1, #1
100060ec:	5299      	strh	r1, [r3, r2]
100060ee:	2006      	movs	r0, #6
100060f0:	f7ff f8a6 	bl	10005240 <clock_get_hz>
100060f4:	0029      	movs	r1, r5
100060f6:	00c0      	lsls	r0, r0, #3
100060f8:	f000 f980 	bl	100063fc <__wrap___aeabi_uidiv>
100060fc:	3001      	adds	r0, #1
100060fe:	09c3      	lsrs	r3, r0, #7
10006100:	d11e      	bne.n	10006140 <uart_init+0x98>
10006102:	2740      	movs	r7, #64	; 0x40
10006104:	2201      	movs	r2, #1
10006106:	6262      	str	r2, [r4, #36]	; 0x24
10006108:	62a3      	str	r3, [r4, #40]	; 0x28
1000610a:	6b26      	ldr	r6, [r4, #48]	; 0x30
1000610c:	07f3      	lsls	r3, r6, #31
1000610e:	d422      	bmi.n	10006156 <uart_init+0xae>
10006110:	6ae3      	ldr	r3, [r4, #44]	; 0x2c
10006112:	4b25      	ldr	r3, [pc, #148]	; (100061a8 <uart_init+0x100>)
10006114:	2006      	movs	r0, #6
10006116:	18e5      	adds	r5, r4, r3
10006118:	2300      	movs	r3, #0
1000611a:	602b      	str	r3, [r5, #0]
1000611c:	6326      	str	r6, [r4, #48]	; 0x30
1000611e:	f7ff f88f 	bl	10005240 <clock_get_hz>
10006122:	0039      	movs	r1, r7
10006124:	0080      	lsls	r0, r0, #2
10006126:	f000 f969 	bl	100063fc <__wrap___aeabi_uidiv>
1000612a:	2270      	movs	r2, #112	; 0x70
1000612c:	6ae3      	ldr	r3, [r4, #44]	; 0x2c
1000612e:	405a      	eors	r2, r3
10006130:	237e      	movs	r3, #126	; 0x7e
10006132:	4013      	ands	r3, r2
10006134:	602b      	str	r3, [r5, #0]
10006136:	4b1d      	ldr	r3, [pc, #116]	; (100061ac <uart_init+0x104>)
10006138:	6323      	str	r3, [r4, #48]	; 0x30
1000613a:	2303      	movs	r3, #3
1000613c:	64a3      	str	r3, [r4, #72]	; 0x48
1000613e:	bdf8      	pop	{r3, r4, r5, r6, r7, pc}
10006140:	4a1b      	ldr	r2, [pc, #108]	; (100061b0 <uart_init+0x108>)
10006142:	4293      	cmp	r3, r2
10006144:	d91e      	bls.n	10006184 <uart_init+0xdc>
10006146:	2300      	movs	r3, #0
10006148:	4a1a      	ldr	r2, [pc, #104]	; (100061b4 <uart_init+0x10c>)
1000614a:	4f1b      	ldr	r7, [pc, #108]	; (100061b8 <uart_init+0x110>)
1000614c:	6262      	str	r2, [r4, #36]	; 0x24
1000614e:	62a3      	str	r3, [r4, #40]	; 0x28
10006150:	6b26      	ldr	r6, [r4, #48]	; 0x30
10006152:	07f3      	lsls	r3, r6, #31
10006154:	d5dc      	bpl.n	10006110 <uart_init+0x68>
10006156:	4b19      	ldr	r3, [pc, #100]	; (100061bc <uart_init+0x114>)
10006158:	4a14      	ldr	r2, [pc, #80]	; (100061ac <uart_init+0x104>)
1000615a:	18e3      	adds	r3, r4, r3
1000615c:	601a      	str	r2, [r3, #0]
1000615e:	6a65      	ldr	r5, [r4, #36]	; 0x24
10006160:	6aa2      	ldr	r2, [r4, #40]	; 0x28
10006162:	2006      	movs	r0, #6
10006164:	01ad      	lsls	r5, r5, #6
10006166:	18ad      	adds	r5, r5, r2
10006168:	f7ff f86a 	bl	10005240 <clock_get_hz>
1000616c:	4914      	ldr	r1, [pc, #80]	; (100061c0 <uart_init+0x118>)
1000616e:	f000 f945 	bl	100063fc <__wrap___aeabi_uidiv>
10006172:	02ad      	lsls	r5, r5, #10
10006174:	0001      	movs	r1, r0
10006176:	0028      	movs	r0, r5
10006178:	f000 f940 	bl	100063fc <__wrap___aeabi_uidiv>
1000617c:	2100      	movs	r1, #0
1000617e:	f7ff fdf3 	bl	10005d68 <busy_wait_us>
10006182:	e7c5      	b.n	10006110 <uart_init+0x68>
10006184:	0640      	lsls	r0, r0, #25
10006186:	0e80      	lsrs	r0, r0, #26
10006188:	019f      	lsls	r7, r3, #6
1000618a:	001a      	movs	r2, r3
1000618c:	183f      	adds	r7, r7, r0
1000618e:	0003      	movs	r3, r0
10006190:	e7b9      	b.n	10006106 <uart_init+0x5e>
10006192:	46c0      	nop			; (mov r8, r8)
10006194:	bffc8000 	.word	0xbffc8000
10006198:	4000c008 	.word	0x4000c008
1000619c:	4000e000 	.word	0x4000e000
100061a0:	4000f000 	.word	0x4000f000
100061a4:	20000a20 	.word	0x20000a20
100061a8:	0000102c 	.word	0x0000102c
100061ac:	00000301 	.word	0x00000301
100061b0:	0000fffe 	.word	0x0000fffe
100061b4:	0000ffff 	.word	0x0000ffff
100061b8:	003fffc0 	.word	0x003fffc0
100061bc:	00003030 	.word	0x00003030
100061c0:	00000e4e 	.word	0x00000e4e

100061c4 <first_per_core_initializer>:
100061c4:	4770      	bx	lr
100061c6:	46c0      	nop			; (mov r8, r8)

100061c8 <hard_assertion_failure>:
100061c8:	b510      	push	{r4, lr}
100061ca:	4801      	ldr	r0, [pc, #4]	; (100061d0 <hard_assertion_failure+0x8>)
100061cc:	f7fa fee0 	bl	10000f90 <panic>
100061d0:	1000919c 	.word	0x1000919c

100061d4 <runtime_run_initializers>:
100061d4:	b570      	push	{r4, r5, r6, lr}
100061d6:	4d07      	ldr	r5, [pc, #28]	; (100061f4 <runtime_run_initializers+0x20>)
100061d8:	4e07      	ldr	r6, [pc, #28]	; (100061f8 <runtime_run_initializers+0x24>)
100061da:	42b5      	cmp	r5, r6
100061dc:	d209      	bcs.n	100061f2 <runtime_run_initializers+0x1e>
100061de:	2400      	movs	r4, #0
100061e0:	3e01      	subs	r6, #1
100061e2:	1b76      	subs	r6, r6, r5
100061e4:	08b6      	lsrs	r6, r6, #2
100061e6:	cd08      	ldmia	r5!, {r3}
100061e8:	4798      	blx	r3
100061ea:	0023      	movs	r3, r4
100061ec:	3401      	adds	r4, #1
100061ee:	42b3      	cmp	r3, r6
100061f0:	d1f9      	bne.n	100061e6 <runtime_run_initializers+0x12>
100061f2:	bd70      	pop	{r4, r5, r6, pc}
100061f4:	10008f18 	.word	0x10008f18
100061f8:	10008f54 	.word	0x10008f54

100061fc <runtime_run_per_core_initializers>:
100061fc:	b570      	push	{r4, r5, r6, lr}
100061fe:	4d07      	ldr	r5, [pc, #28]	; (1000621c <runtime_run_per_core_initializers+0x20>)
10006200:	4e07      	ldr	r6, [pc, #28]	; (10006220 <runtime_run_per_core_initializers+0x24>)
10006202:	42b5      	cmp	r5, r6
10006204:	d209      	bcs.n	1000621a <runtime_run_per_core_initializers+0x1e>
10006206:	2400      	movs	r4, #0
10006208:	3e01      	subs	r6, #1
1000620a:	1b76      	subs	r6, r6, r5
1000620c:	08b6      	lsrs	r6, r6, #2
1000620e:	cd08      	ldmia	r5!, {r3}
10006210:	4798      	blx	r3
10006212:	0023      	movs	r3, r4
10006214:	3401      	adds	r4, #1
10006216:	42b3      	cmp	r3, r6
10006218:	d1f9      	bne.n	1000620e <runtime_run_per_core_initializers+0x12>
1000621a:	bd70      	pop	{r4, r5, r6, pc}
1000621c:	10008f4c 	.word	0x10008f4c
10006220:	10008f54 	.word	0x10008f54

10006224 <runtime_init_early_resets>:
10006224:	4b05      	ldr	r3, [pc, #20]	; (1000623c <runtime_init_early_resets+0x18>)
10006226:	4a06      	ldr	r2, [pc, #24]	; (10006240 <runtime_init_early_resets+0x1c>)
10006228:	4906      	ldr	r1, [pc, #24]	; (10006244 <runtime_init_early_resets+0x20>)
1000622a:	601a      	str	r2, [r3, #0]
1000622c:	4a06      	ldr	r2, [pc, #24]	; (10006248 <runtime_init_early_resets+0x24>)
1000622e:	4b07      	ldr	r3, [pc, #28]	; (1000624c <runtime_init_early_resets+0x28>)
10006230:	601a      	str	r2, [r3, #0]
10006232:	0010      	movs	r0, r2
10006234:	680b      	ldr	r3, [r1, #0]
10006236:	4398      	bics	r0, r3
10006238:	d1fb      	bne.n	10006232 <runtime_init_early_resets+0xe>
1000623a:	4770      	bx	lr
1000623c:	4000e000 	.word	0x4000e000
10006240:	fefbcdbf 	.word	0xfefbcdbf
10006244:	4000c008 	.word	0x4000c008
10006248:	003c7ffe 	.word	0x003c7ffe
1000624c:	4000f000 	.word	0x4000f000

10006250 <runtime_init_usb_power_down>:
10006250:	4b04      	ldr	r3, [pc, #16]	; (10006264 <runtime_init_usb_power_down+0x14>)
10006252:	6cdb      	ldr	r3, [r3, #76]	; 0x4c
10006254:	2b00      	cmp	r3, #0
10006256:	d103      	bne.n	10006260 <runtime_init_usb_power_down+0x10>
10006258:	2280      	movs	r2, #128	; 0x80
1000625a:	4b03      	ldr	r3, [pc, #12]	; (10006268 <runtime_init_usb_power_down+0x18>)
1000625c:	02d2      	lsls	r2, r2, #11
1000625e:	601a      	str	r2, [r3, #0]
10006260:	4770      	bx	lr
10006262:	46c0      	nop			; (mov r8, r8)
10006264:	50110000 	.word	0x50110000
10006268:	5011204c 	.word	0x5011204c

1000626c <runtime_init_post_clock_resets>:
1000626c:	4a04      	ldr	r2, [pc, #16]	; (10006280 <runtime_init_post_clock_resets+0x14>)
1000626e:	4b05      	ldr	r3, [pc, #20]	; (10006284 <runtime_init_post_clock_resets+0x18>)
10006270:	601a      	str	r2, [r3, #0]
10006272:	4a05      	ldr	r2, [pc, #20]	; (10006288 <runtime_init_post_clock_resets+0x1c>)
10006274:	6813      	ldr	r3, [r2, #0]
10006276:	01db      	lsls	r3, r3, #7
10006278:	3380      	adds	r3, #128	; 0x80
1000627a:	d1fb      	bne.n	10006274 <runtime_init_post_clock_resets+0x8>
1000627c:	4770      	bx	lr
1000627e:	46c0      	nop			; (mov r8, r8)
10006280:	01ffffff 	.word	0x01ffffff
10006284:	4000f000 	.word	0x4000f000
10006288:	4000c008 	.word	0x4000c008

1000628c <runtime_init_rp2040_gpio_ie_disable>:
1000628c:	2240      	movs	r2, #64	; 0x40
1000628e:	4b03      	ldr	r3, [pc, #12]	; (1000629c <runtime_init_rp2040_gpio_ie_disable+0x10>)
10006290:	679a      	str	r2, [r3, #120]	; 0x78
10006292:	675a      	str	r2, [r3, #116]	; 0x74
10006294:	671a      	str	r2, [r3, #112]	; 0x70
10006296:	66da      	str	r2, [r3, #108]	; 0x6c
10006298:	4770      	bx	lr
1000629a:	46c0      	nop			; (mov r8, r8)
1000629c:	4001f000 	.word	0x4001f000

100062a0 <runtime_init_spin_locks_reset>:
100062a0:	b510      	push	{r4, lr}
100062a2:	f7ff f80d 	bl	100052c0 <spin_locks_reset>
100062a6:	bd10      	pop	{r4, pc}

100062a8 <runtime_init_install_ram_vector_table>:
100062a8:	b570      	push	{r4, r5, r6, lr}
100062aa:	4d04      	ldr	r5, [pc, #16]	; (100062bc <runtime_init_install_ram_vector_table+0x14>)
100062ac:	4c04      	ldr	r4, [pc, #16]	; (100062c0 <runtime_init_install_ram_vector_table+0x18>)
100062ae:	0028      	movs	r0, r5
100062b0:	22c0      	movs	r2, #192	; 0xc0
100062b2:	68a1      	ldr	r1, [r4, #8]
100062b4:	f000 ff34 	bl	10007120 <__wrap___aeabi_memcpy>
100062b8:	60a5      	str	r5, [r4, #8]
100062ba:	bd70      	pop	{r4, r5, r6, pc}
100062bc:	20000000 	.word	0x20000000
100062c0:	e000ed00 	.word	0xe000ed00

100062c4 <runtime_init_clocks>:
100062c4:	2300      	movs	r3, #0
100062c6:	b510      	push	{r4, lr}
100062c8:	4c29      	ldr	r4, [pc, #164]	; (10006370 <runtime_init_clocks+0xac>)
100062ca:	b082      	sub	sp, #8
100062cc:	67a3      	str	r3, [r4, #120]	; 0x78
100062ce:	f7ff fe43 	bl	10005f58 <xosc_init>
100062d2:	2201      	movs	r2, #1
100062d4:	4b27      	ldr	r3, [pc, #156]	; (10006374 <runtime_init_clocks+0xb0>)
100062d6:	601a      	str	r2, [r3, #0]
100062d8:	6c63      	ldr	r3, [r4, #68]	; 0x44
100062da:	2b01      	cmp	r3, #1
100062dc:	d1fc      	bne.n	100062d8 <runtime_init_clocks+0x14>
100062de:	2203      	movs	r2, #3
100062e0:	4b25      	ldr	r3, [pc, #148]	; (10006378 <runtime_init_clocks+0xb4>)
100062e2:	601a      	str	r2, [r3, #0]
100062e4:	4a22      	ldr	r2, [pc, #136]	; (10006370 <runtime_init_clocks+0xac>)
100062e6:	6b93      	ldr	r3, [r2, #56]	; 0x38
100062e8:	2b01      	cmp	r3, #1
100062ea:	d1fc      	bne.n	100062e6 <runtime_init_clocks+0x22>
100062ec:	3301      	adds	r3, #1
100062ee:	9300      	str	r3, [sp, #0]
100062f0:	2101      	movs	r1, #1
100062f2:	4a22      	ldr	r2, [pc, #136]	; (1000637c <runtime_init_clocks+0xb8>)
100062f4:	4822      	ldr	r0, [pc, #136]	; (10006380 <runtime_init_clocks+0xbc>)
100062f6:	3304      	adds	r3, #4
100062f8:	f7ff fda4 	bl	10005e44 <pll_init>
100062fc:	2305      	movs	r3, #5
100062fe:	2101      	movs	r1, #1
10006300:	9300      	str	r3, [sp, #0]
10006302:	4a20      	ldr	r2, [pc, #128]	; (10006384 <runtime_init_clocks+0xc0>)
10006304:	4820      	ldr	r0, [pc, #128]	; (10006388 <runtime_init_clocks+0xc4>)
10006306:	f7ff fd9d 	bl	10005e44 <pll_init>
1000630a:	2200      	movs	r2, #0
1000630c:	2102      	movs	r1, #2
1000630e:	2004      	movs	r0, #4
10006310:	4b1e      	ldr	r3, [pc, #120]	; (1000638c <runtime_init_clocks+0xc8>)
10006312:	f7fe ff21 	bl	10005158 <clock_configure_undivided>
10006316:	2200      	movs	r2, #0
10006318:	2101      	movs	r1, #1
1000631a:	2005      	movs	r0, #5
1000631c:	4b1c      	ldr	r3, [pc, #112]	; (10006390 <runtime_init_clocks+0xcc>)
1000631e:	f7fe ff1b 	bl	10005158 <clock_configure_undivided>
10006322:	2200      	movs	r2, #0
10006324:	2100      	movs	r1, #0
10006326:	2007      	movs	r0, #7
10006328:	4b1a      	ldr	r3, [pc, #104]	; (10006394 <runtime_init_clocks+0xd0>)
1000632a:	f7fe ff15 	bl	10005158 <clock_configure_undivided>
1000632e:	2200      	movs	r2, #0
10006330:	2100      	movs	r1, #0
10006332:	2008      	movs	r0, #8
10006334:	4b17      	ldr	r3, [pc, #92]	; (10006394 <runtime_init_clocks+0xd0>)
10006336:	f7fe ff0f 	bl	10005158 <clock_configure_undivided>
1000633a:	2380      	movs	r3, #128	; 0x80
1000633c:	00db      	lsls	r3, r3, #3
1000633e:	9300      	str	r3, [sp, #0]
10006340:	2200      	movs	r2, #0
10006342:	2100      	movs	r1, #0
10006344:	2009      	movs	r0, #9
10006346:	4b13      	ldr	r3, [pc, #76]	; (10006394 <runtime_init_clocks+0xd0>)
10006348:	f7fe fe8c 	bl	10005064 <clock_configure_int_divider>
1000634c:	2200      	movs	r2, #0
1000634e:	4b10      	ldr	r3, [pc, #64]	; (10006390 <runtime_init_clocks+0xcc>)
10006350:	2100      	movs	r1, #0
10006352:	2006      	movs	r0, #6
10006354:	f7fe ff00 	bl	10005158 <clock_configure_undivided>
10006358:	2004      	movs	r0, #4
1000635a:	f7fe ff71 	bl	10005240 <clock_get_hz>
1000635e:	490e      	ldr	r1, [pc, #56]	; (10006398 <runtime_init_clocks+0xd4>)
10006360:	f000 f84c 	bl	100063fc <__wrap___aeabi_uidiv>
10006364:	0001      	movs	r1, r0
10006366:	2000      	movs	r0, #0
10006368:	f7ff fdbc 	bl	10005ee4 <tick_start>
1000636c:	b002      	add	sp, #8
1000636e:	bd10      	pop	{r4, pc}
10006370:	40008000 	.word	0x40008000
10006374:	4000b03c 	.word	0x4000b03c
10006378:	4000b030 	.word	0x4000b030
1000637c:	59682f00 	.word	0x59682f00
10006380:	40028000 	.word	0x40028000
10006384:	47868c00 	.word	0x47868c00
10006388:	4002c000 	.word	0x4002c000
1000638c:	00b71b00 	.word	0x00b71b00
10006390:	07735940 	.word	0x07735940
10006394:	02dc6c00 	.word	0x02dc6c00
10006398:	000f4240 	.word	0x000f4240

1000639c <__aeabi_bits_init>:
1000639c:	4801      	ldr	r0, [pc, #4]	; (100063a4 <__aeabi_bits_init+0x8>)
1000639e:	2104      	movs	r1, #4
100063a0:	4b01      	ldr	r3, [pc, #4]	; (100063a8 <__aeabi_bits_init+0xc>)
100063a2:	4718      	bx	r3
100063a4:	200002c0 	.word	0x200002c0
100063a8:	10005f15 	.word	0x10005f15

100063ac <__wrap___aeabi_idiv>:
100063ac:	4a12      	ldr	r2, [pc, #72]	; (100063f8 <divmod_s32s32_savestate+0x18>)
100063ae:	6f93      	ldr	r3, [r2, #120]	; 0x78
100063b0:	089b      	lsrs	r3, r3, #2
100063b2:	d215      	bcs.n	100063e0 <divmod_s32s32_savestate>

100063b4 <divmod_s32s32_unsafe>:
100063b4:	6690      	str	r0, [r2, #104]	; 0x68
100063b6:	66d1      	str	r1, [r2, #108]	; 0x6c
100063b8:	2900      	cmp	r1, #0
100063ba:	d005      	beq.n	100063c8 <divmod_s32s32_unsafe+0x14>
100063bc:	e7ff      	b.n	100063be <divmod_s32s32_unsafe+0xa>
100063be:	e7ff      	b.n	100063c0 <divmod_s32s32_unsafe+0xc>
100063c0:	e7ff      	b.n	100063c2 <divmod_s32s32_unsafe+0xe>
100063c2:	6f51      	ldr	r1, [r2, #116]	; 0x74
100063c4:	6f10      	ldr	r0, [r2, #112]	; 0x70
100063c6:	4770      	bx	lr
100063c8:	b504      	push	{r2, lr}
100063ca:	2180      	movs	r1, #128	; 0x80
100063cc:	0609      	lsls	r1, r1, #24
100063ce:	17c2      	asrs	r2, r0, #31
100063d0:	4051      	eors	r1, r2
100063d2:	2800      	cmp	r0, #0
100063d4:	d000      	beq.n	100063d8 <divmod_s32s32_unsafe+0x24>
100063d6:	43c8      	mvns	r0, r1
100063d8:	f002 fd86 	bl	10008ee8 <____aeabi_idiv0_veneer>
100063dc:	2100      	movs	r1, #0
100063de:	bd04      	pop	{r2, pc}

100063e0 <divmod_s32s32_savestate>:
100063e0:	b5f0      	push	{r4, r5, r6, r7, lr}
100063e2:	6e14      	ldr	r4, [r2, #96]	; 0x60
100063e4:	6e55      	ldr	r5, [r2, #100]	; 0x64
100063e6:	6f57      	ldr	r7, [r2, #116]	; 0x74
100063e8:	6f16      	ldr	r6, [r2, #112]	; 0x70
100063ea:	f7ff ffe3 	bl	100063b4 <divmod_s32s32_unsafe>
100063ee:	6614      	str	r4, [r2, #96]	; 0x60
100063f0:	6655      	str	r5, [r2, #100]	; 0x64
100063f2:	6757      	str	r7, [r2, #116]	; 0x74
100063f4:	6716      	str	r6, [r2, #112]	; 0x70
100063f6:	bdf0      	pop	{r4, r5, r6, r7, pc}
100063f8:	d0000000 	.word	0xd0000000

100063fc <__wrap___aeabi_uidiv>:
100063fc:	4a11      	ldr	r2, [pc, #68]	; (10006444 <divmod_u32u32_savestate+0x18>)
100063fe:	6f93      	ldr	r3, [r2, #120]	; 0x78
10006400:	089b      	lsrs	r3, r3, #2
10006402:	d213      	bcs.n	1000642c <divmod_u32u32_savestate>

10006404 <divmod_u32u32_unsafe>:
10006404:	6610      	str	r0, [r2, #96]	; 0x60
10006406:	6651      	str	r1, [r2, #100]	; 0x64
10006408:	2900      	cmp	r1, #0
1000640a:	d005      	beq.n	10006418 <divmod_u32u32_unsafe+0x14>
1000640c:	e7ff      	b.n	1000640e <divmod_u32u32_unsafe+0xa>
1000640e:	e7ff      	b.n	10006410 <divmod_u32u32_unsafe+0xc>
10006410:	e7ff      	b.n	10006412 <divmod_u32u32_unsafe+0xe>
10006412:	6f51      	ldr	r1, [r2, #116]	; 0x74
10006414:	6f10      	ldr	r0, [r2, #112]	; 0x70
10006416:	4770      	bx	lr
10006418:	b504      	push	{r2, lr}
1000641a:	2800      	cmp	r0, #0
1000641c:	d001      	beq.n	10006422 <divmod_u32u32_unsafe+0x1e>
1000641e:	2000      	movs	r0, #0
10006420:	43c0      	mvns	r0, r0
10006422:	f002 fd61 	bl	10008ee8 <____aeabi_idiv0_veneer>
10006426:	2100      	movs	r1, #0
10006428:	bd04      	pop	{r2, pc}
1000642a:	46c0      	nop			; (mov r8, r8)

1000642c <divmod_u32u32_savestate>:
1000642c:	b5f0      	push	{r4, r5, r6, r7, lr}
1000642e:	6e14      	ldr	r4, [r2, #96]	; 0x60
10006430:	6e55      	ldr	r5, [r2, #100]	; 0x64
10006432:	6f57      	ldr	r7, [r2, #116]	; 0x74
10006434:	6f16      	ldr	r6, [r2, #112]	; 0x70
10006436:	f7ff ffe5 	bl	10006404 <divmod_u32u32_unsafe>
1000643a:	6614      	str	r4, [r2, #96]	; 0x60
1000643c:	6655      	str	r5, [r2, #100]	; 0x64
1000643e:	6757      	str	r7, [r2, #116]	; 0x74
10006440:	6716      	str	r6, [r2, #112]	; 0x70
10006442:	bdf0      	pop	{r4, r5, r6, r7, pc}
10006444:	d0000000 	.word	0xd0000000

10006448 <__wrap___aeabi_ldivmod>:
10006448:	4694      	mov	ip, r2
1000644a:	4a4a      	ldr	r2, [pc, #296]	; (10006574 <udiv0+0x1a>)
1000644c:	6f92      	ldr	r2, [r2, #120]	; 0x78
1000644e:	0892      	lsrs	r2, r2, #2
10006450:	4662      	mov	r2, ip
10006452:	d201      	bcs.n	10006458 <divmod_s64s64_savestate>
10006454:	e028      	b.n	100064a8 <divmod_s64s64_unsafe>
10006456:	46c0      	nop			; (mov r8, r8)

10006458 <divmod_s64s64_savestate>:
10006458:	b5f0      	push	{r4, r5, r6, r7, lr}
1000645a:	4e46      	ldr	r6, [pc, #280]	; (10006574 <udiv0+0x1a>)
1000645c:	6e34      	ldr	r4, [r6, #96]	; 0x60
1000645e:	6e75      	ldr	r5, [r6, #100]	; 0x64
10006460:	6f77      	ldr	r7, [r6, #116]	; 0x74
10006462:	6f36      	ldr	r6, [r6, #112]	; 0x70
10006464:	f000 f820 	bl	100064a8 <divmod_s64s64_unsafe>
10006468:	4694      	mov	ip, r2
1000646a:	4a42      	ldr	r2, [pc, #264]	; (10006574 <udiv0+0x1a>)
1000646c:	6614      	str	r4, [r2, #96]	; 0x60
1000646e:	6655      	str	r5, [r2, #100]	; 0x64
10006470:	6757      	str	r7, [r2, #116]	; 0x74
10006472:	6716      	str	r6, [r2, #112]	; 0x70
10006474:	4662      	mov	r2, ip
10006476:	bdf0      	pop	{r4, r5, r6, r7, pc}

10006478 <__wrap___aeabi_uldivmod>:
10006478:	4694      	mov	ip, r2
1000647a:	4a3e      	ldr	r2, [pc, #248]	; (10006574 <udiv0+0x1a>)
1000647c:	6f92      	ldr	r2, [r2, #120]	; 0x78
1000647e:	0892      	lsrs	r2, r2, #2
10006480:	4662      	mov	r2, ip
10006482:	d201      	bcs.n	10006488 <divmod_u64u64_savestate>
10006484:	e054      	b.n	10006530 <divmod_u64u64_unsafe>
10006486:	46c0      	nop			; (mov r8, r8)

10006488 <divmod_u64u64_savestate>:
10006488:	b5f0      	push	{r4, r5, r6, r7, lr}
1000648a:	4e3a      	ldr	r6, [pc, #232]	; (10006574 <udiv0+0x1a>)
1000648c:	6e34      	ldr	r4, [r6, #96]	; 0x60
1000648e:	6e75      	ldr	r5, [r6, #100]	; 0x64
10006490:	6f77      	ldr	r7, [r6, #116]	; 0x74
10006492:	6f36      	ldr	r6, [r6, #112]	; 0x70
10006494:	f000 f84c 	bl	10006530 <divmod_u64u64_unsafe>
10006498:	4694      	mov	ip, r2
1000649a:	4a36      	ldr	r2, [pc, #216]	; (10006574 <udiv0+0x1a>)
1000649c:	6614      	str	r4, [r2, #96]	; 0x60
1000649e:	6655      	str	r5, [r2, #100]	; 0x64
100064a0:	6757      	str	r7, [r2, #116]	; 0x74
100064a2:	6716      	str	r6, [r2, #112]	; 0x70
100064a4:	4662      	mov	r2, ip
100064a6:	bdf0      	pop	{r4, r5, r6, r7, pc}

100064a8 <divmod_s64s64_unsafe>:
100064a8:	2b00      	cmp	r3, #0
100064aa:	db24      	blt.n	100064f6 <l42_1+0x26>
100064ac:	d011      	beq.n	100064d2 <l42_1+0x2>
100064ae:	2900      	cmp	r1, #0
100064b0:	da3e      	bge.n	10006530 <divmod_u64u64_unsafe>
100064b2:	b500      	push	{lr}
100064b4:	43c9      	mvns	r1, r1
100064b6:	4240      	negs	r0, r0
100064b8:	d100      	bne.n	100064bc <l40_1>
100064ba:	3101      	adds	r1, #1

100064bc <l40_1>:
100064bc:	f000 f838 	bl	10006530 <divmod_u64u64_unsafe>
100064c0:	43c9      	mvns	r1, r1
100064c2:	4240      	negs	r0, r0
100064c4:	d100      	bne.n	100064c8 <l41_1>
100064c6:	3101      	adds	r1, #1

100064c8 <l41_1>:
100064c8:	43db      	mvns	r3, r3
100064ca:	4252      	negs	r2, r2
100064cc:	d100      	bne.n	100064d0 <l42_1>
100064ce:	3301      	adds	r3, #1

100064d0 <l42_1>:
100064d0:	bd00      	pop	{pc}
100064d2:	2a00      	cmp	r2, #0
100064d4:	d1eb      	bne.n	100064ae <divmod_s64s64_unsafe+0x6>
100064d6:	2800      	cmp	r0, #0
100064d8:	d101      	bne.n	100064de <l42_1+0xe>
100064da:	2900      	cmp	r1, #0
100064dc:	d005      	beq.n	100064ea <l42_1+0x1a>
100064de:	2000      	movs	r0, #0
100064e0:	0fc9      	lsrs	r1, r1, #31
100064e2:	07c9      	lsls	r1, r1, #31
100064e4:	d101      	bne.n	100064ea <l42_1+0x1a>
100064e6:	43c0      	mvns	r0, r0
100064e8:	0841      	lsrs	r1, r0, #1
100064ea:	b500      	push	{lr}
100064ec:	f002 fcf4 	bl	10008ed8 <____aeabi_ldiv0_veneer>
100064f0:	2200      	movs	r2, #0
100064f2:	2300      	movs	r3, #0
100064f4:	bd00      	pop	{pc}
100064f6:	b500      	push	{lr}
100064f8:	2900      	cmp	r1, #0
100064fa:	db0a      	blt.n	10006512 <l44_1+0x2>
100064fc:	43db      	mvns	r3, r3
100064fe:	4252      	negs	r2, r2
10006500:	d100      	bne.n	10006504 <l43_1>
10006502:	3301      	adds	r3, #1

10006504 <l43_1>:
10006504:	f000 f814 	bl	10006530 <divmod_u64u64_unsafe>
10006508:	43c9      	mvns	r1, r1
1000650a:	4240      	negs	r0, r0
1000650c:	d100      	bne.n	10006510 <l44_1>
1000650e:	3101      	adds	r1, #1

10006510 <l44_1>:
10006510:	bd00      	pop	{pc}
10006512:	43c9      	mvns	r1, r1
10006514:	4240      	negs	r0, r0
10006516:	d100      	bne.n	1000651a <l45_1>
10006518:	3101      	adds	r1, #1

1000651a <l45_1>:
1000651a:	43db      	mvns	r3, r3
1000651c:	4252      	negs	r2, r2
1000651e:	d100      	bne.n	10006522 <l46_1>
10006520:	3301      	adds	r3, #1

10006522 <l46_1>:
10006522:	f000 f805 	bl	10006530 <divmod_u64u64_unsafe>
10006526:	43db      	mvns	r3, r3
10006528:	4252      	negs	r2, r2
1000652a:	d100      	bne.n	1000652e <l47_1>
1000652c:	3301      	adds	r3, #1

1000652e <l47_1>:
1000652e:	bd00      	pop	{pc}

10006530 <divmod_u64u64_unsafe>:
10006530:	2900      	cmp	r1, #0
10006532:	d123      	bne.n	1000657c <y64>
10006534:	2b00      	cmp	r3, #0
10006536:	d118      	bne.n	1000656a <udiv0+0x10>
10006538:	2a00      	cmp	r2, #0
1000653a:	d00c      	beq.n	10006556 <divmod_u64u64_unsafe+0x26>
1000653c:	46bc      	mov	ip, r7
1000653e:	4f0d      	ldr	r7, [pc, #52]	; (10006574 <udiv0+0x1a>)
10006540:	6638      	str	r0, [r7, #96]	; 0x60
10006542:	667a      	str	r2, [r7, #100]	; 0x64
10006544:	2100      	movs	r1, #0
10006546:	2300      	movs	r3, #0
10006548:	e7ff      	b.n	1000654a <divmod_u64u64_unsafe+0x1a>
1000654a:	e7ff      	b.n	1000654c <divmod_u64u64_unsafe+0x1c>
1000654c:	e7ff      	b.n	1000654e <divmod_u64u64_unsafe+0x1e>
1000654e:	6f7a      	ldr	r2, [r7, #116]	; 0x74
10006550:	6f38      	ldr	r0, [r7, #112]	; 0x70
10006552:	4667      	mov	r7, ip
10006554:	4770      	bx	lr
10006556:	2800      	cmp	r0, #0
10006558:	d001      	beq.n	1000655e <udiv0+0x4>

1000655a <udiv0>:
1000655a:	4807      	ldr	r0, [pc, #28]	; (10006578 <udiv0+0x1e>)
1000655c:	0001      	movs	r1, r0
1000655e:	b500      	push	{lr}
10006560:	f002 fcba 	bl	10008ed8 <____aeabi_ldiv0_veneer>
10006564:	2200      	movs	r2, #0
10006566:	2300      	movs	r3, #0
10006568:	bd00      	pop	{pc}
1000656a:	0002      	movs	r2, r0
1000656c:	000b      	movs	r3, r1
1000656e:	2000      	movs	r0, #0
10006570:	2100      	movs	r1, #0
10006572:	4770      	bx	lr
10006574:	d0000000 	.word	0xd0000000
10006578:	ffffffff 	.word	0xffffffff

1000657c <y64>:
1000657c:	2b00      	cmp	r3, #0
1000657e:	d000      	beq.n	10006582 <y64+0x6>
10006580:	e0bf      	b.n	10006702 <y64_x48>
10006582:	0c13      	lsrs	r3, r2, #16
10006584:	d128      	bne.n	100065d8 <y64_x32>
10006586:	2a00      	cmp	r2, #0
10006588:	d0e7      	beq.n	1000655a <udiv0>
1000658a:	b480      	push	{r7}
1000658c:	4f11      	ldr	r7, [pc, #68]	; (100065d4 <y64+0x58>)
1000658e:	6639      	str	r1, [r7, #96]	; 0x60
10006590:	667a      	str	r2, [r7, #100]	; 0x64
10006592:	e7ff      	b.n	10006594 <y64+0x18>
10006594:	e7ff      	b.n	10006596 <y64+0x1a>
10006596:	b430      	push	{r4, r5}
10006598:	0c04      	lsrs	r4, r0, #16
1000659a:	6f7b      	ldr	r3, [r7, #116]	; 0x74
1000659c:	6f39      	ldr	r1, [r7, #112]	; 0x70
1000659e:	041b      	lsls	r3, r3, #16
100065a0:	4323      	orrs	r3, r4
100065a2:	663b      	str	r3, [r7, #96]	; 0x60
100065a4:	667a      	str	r2, [r7, #100]	; 0x64
100065a6:	e7ff      	b.n	100065a8 <y64+0x2c>
100065a8:	e7ff      	b.n	100065aa <y64+0x2e>
100065aa:	e7ff      	b.n	100065ac <y64+0x30>
100065ac:	46c0      	nop			; (mov r8, r8)
100065ae:	b284      	uxth	r4, r0
100065b0:	6f7b      	ldr	r3, [r7, #116]	; 0x74
100065b2:	6f3d      	ldr	r5, [r7, #112]	; 0x70
100065b4:	041b      	lsls	r3, r3, #16
100065b6:	4323      	orrs	r3, r4
100065b8:	663b      	str	r3, [r7, #96]	; 0x60
100065ba:	667a      	str	r2, [r7, #100]	; 0x64
100065bc:	e7ff      	b.n	100065be <y64+0x42>
100065be:	e7ff      	b.n	100065c0 <y64+0x44>
100065c0:	46c0      	nop			; (mov r8, r8)
100065c2:	2300      	movs	r3, #0
100065c4:	042c      	lsls	r4, r5, #16
100065c6:	0c2d      	lsrs	r5, r5, #16
100065c8:	6f7a      	ldr	r2, [r7, #116]	; 0x74
100065ca:	6f38      	ldr	r0, [r7, #112]	; 0x70
100065cc:	1900      	adds	r0, r0, r4
100065ce:	4169      	adcs	r1, r5
100065d0:	bcb0      	pop	{r4, r5, r7}
100065d2:	4770      	bx	lr
100065d4:	d0000000 	.word	0xd0000000

100065d8 <y64_x32>:
100065d8:	b5f0      	push	{r4, r5, r6, r7, lr}
100065da:	4694      	mov	ip, r2
100065dc:	2500      	movs	r5, #0
100065de:	0e14      	lsrs	r4, r2, #24
100065e0:	d101      	bne.n	100065e6 <y64_x32+0xe>
100065e2:	0212      	lsls	r2, r2, #8
100065e4:	3508      	adds	r5, #8
100065e6:	0f14      	lsrs	r4, r2, #28
100065e8:	d101      	bne.n	100065ee <y64_x32+0x16>
100065ea:	0112      	lsls	r2, r2, #4
100065ec:	3504      	adds	r5, #4
100065ee:	0f94      	lsrs	r4, r2, #30
100065f0:	d101      	bne.n	100065f6 <y64_x32+0x1e>
100065f2:	0092      	lsls	r2, r2, #2
100065f4:	3502      	adds	r5, #2
100065f6:	0fd4      	lsrs	r4, r2, #31
100065f8:	d101      	bne.n	100065fe <y64_x32+0x26>
100065fa:	0052      	lsls	r2, r2, #1
100065fc:	3501      	adds	r5, #1
100065fe:	0bd4      	lsrs	r4, r2, #15
10006600:	3401      	adds	r4, #1
10006602:	4f25      	ldr	r7, [pc, #148]	; (10006698 <y64_x32+0xc0>)
10006604:	667c      	str	r4, [r7, #100]	; 0x64
10006606:	4c25      	ldr	r4, [pc, #148]	; (1000669c <y64_x32+0xc4>)
10006608:	663c      	str	r4, [r7, #96]	; 0x60
1000660a:	0c0e      	lsrs	r6, r1, #16
1000660c:	b293      	uxth	r3, r2
1000660e:	e7ff      	b.n	10006610 <y64_x32+0x38>
10006610:	e7ff      	b.n	10006612 <y64_x32+0x3a>
10006612:	e7ff      	b.n	10006614 <y64_x32+0x3c>
10006614:	6f3c      	ldr	r4, [r7, #112]	; 0x70
10006616:	4366      	muls	r6, r4
10006618:	0c36      	lsrs	r6, r6, #16
1000661a:	0377      	lsls	r7, r6, #13
1000661c:	46be      	mov	lr, r7
1000661e:	4373      	muls	r3, r6
10006620:	0bdf      	lsrs	r7, r3, #15
10006622:	045b      	lsls	r3, r3, #17
10006624:	1ac0      	subs	r0, r0, r3
10006626:	41b9      	sbcs	r1, r7
10006628:	0c13      	lsrs	r3, r2, #16
1000662a:	4373      	muls	r3, r6
1000662c:	18db      	adds	r3, r3, r3
1000662e:	1ac9      	subs	r1, r1, r3
10006630:	08ce      	lsrs	r6, r1, #3
10006632:	4366      	muls	r6, r4
10006634:	0c36      	lsrs	r6, r6, #16
10006636:	44b6      	add	lr, r6
10006638:	b293      	uxth	r3, r2
1000663a:	4373      	muls	r3, r6
1000663c:	0f1f      	lsrs	r7, r3, #28
1000663e:	011b      	lsls	r3, r3, #4
10006640:	1ac0      	subs	r0, r0, r3
10006642:	41b9      	sbcs	r1, r7
10006644:	0c13      	lsrs	r3, r2, #16
10006646:	4373      	muls	r3, r6
10006648:	0b1f      	lsrs	r7, r3, #12
1000664a:	051b      	lsls	r3, r3, #20
1000664c:	1ac0      	subs	r0, r0, r3
1000664e:	41b9      	sbcs	r1, r7
10006650:	0d86      	lsrs	r6, r0, #22
10006652:	028f      	lsls	r7, r1, #10
10006654:	433e      	orrs	r6, r7
10006656:	4366      	muls	r6, r4
10006658:	0c36      	lsrs	r6, r6, #16
1000665a:	2d09      	cmp	r5, #9
1000665c:	db24      	blt.n	100066a8 <last0>
1000665e:	0a52      	lsrs	r2, r2, #9
10006660:	4372      	muls	r2, r6
10006662:	1a80      	subs	r0, r0, r2
10006664:	0377      	lsls	r7, r6, #13
10006666:	0a46      	lsrs	r6, r0, #9
10006668:	4366      	muls	r6, r4
1000666a:	0c36      	lsrs	r6, r6, #16
1000666c:	2316      	movs	r3, #22
1000666e:	1b5b      	subs	r3, r3, r5
10006670:	40de      	lsrs	r6, r3
10006672:	40df      	lsrs	r7, r3
10006674:	19bf      	adds	r7, r7, r6
10006676:	4664      	mov	r4, ip
10006678:	4366      	muls	r6, r4
1000667a:	1b82      	subs	r2, r0, r6
1000667c:	4670      	mov	r0, lr
1000667e:	3504      	adds	r5, #4
10006680:	3306      	adds	r3, #6
10006682:	0001      	movs	r1, r0
10006684:	40d9      	lsrs	r1, r3
10006686:	40a8      	lsls	r0, r5
10006688:	19c0      	adds	r0, r0, r7
1000668a:	d300      	bcc.n	1000668e <y64_x32+0xb6>
1000668c:	3101      	adds	r1, #1
1000668e:	42a2      	cmp	r2, r4
10006690:	d206      	bcs.n	100066a0 <y64_x32+0xc8>
10006692:	2300      	movs	r3, #0
10006694:	bdf0      	pop	{r4, r5, r6, r7, pc}
10006696:	0000      	.short	0x0000
10006698:	d0000000 	.word	0xd0000000
1000669c:	ffffffff 	.word	0xffffffff
100066a0:	1b12      	subs	r2, r2, r4
100066a2:	3001      	adds	r0, #1
100066a4:	d3f3      	bcc.n	1000668e <y64_x32+0xb6>
100066a6:	e7f1      	b.n	1000668c <y64_x32+0xb4>

100066a8 <last0>:
100066a8:	2709      	movs	r7, #9
100066aa:	1b7f      	subs	r7, r7, r5
100066ac:	40fe      	lsrs	r6, r7
100066ae:	4664      	mov	r4, ip
100066b0:	b2a2      	uxth	r2, r4
100066b2:	4372      	muls	r2, r6
100066b4:	1a80      	subs	r0, r0, r2
100066b6:	d200      	bcs.n	100066ba <last0+0x12>
100066b8:	3901      	subs	r1, #1
100066ba:	0c22      	lsrs	r2, r4, #16
100066bc:	4372      	muls	r2, r6
100066be:	0c13      	lsrs	r3, r2, #16
100066c0:	0412      	lsls	r2, r2, #16
100066c2:	1a82      	subs	r2, r0, r2
100066c4:	4199      	sbcs	r1, r3
100066c6:	000b      	movs	r3, r1
100066c8:	4670      	mov	r0, lr
100066ca:	3504      	adds	r5, #4
100066cc:	3713      	adds	r7, #19
100066ce:	0001      	movs	r1, r0
100066d0:	40f9      	lsrs	r1, r7
100066d2:	40a8      	lsls	r0, r5
100066d4:	1980      	adds	r0, r0, r6
100066d6:	d300      	bcc.n	100066da <last0+0x32>
100066d8:	3101      	adds	r1, #1
100066da:	2b00      	cmp	r3, #0
100066dc:	d102      	bne.n	100066e4 <last0+0x3c>
100066de:	42a2      	cmp	r2, r4
100066e0:	d20a      	bcs.n	100066f8 <last0+0x50>
100066e2:	bdf0      	pop	{r4, r5, r6, r7, pc}
100066e4:	3001      	adds	r0, #1
100066e6:	d300      	bcc.n	100066ea <last0+0x42>
100066e8:	3101      	adds	r1, #1
100066ea:	1b12      	subs	r2, r2, r4
100066ec:	d2fa      	bcs.n	100066e4 <last0+0x3c>
100066ee:	3b01      	subs	r3, #1
100066f0:	d1f8      	bne.n	100066e4 <last0+0x3c>
100066f2:	42a2      	cmp	r2, r4
100066f4:	d200      	bcs.n	100066f8 <last0+0x50>
100066f6:	bdf0      	pop	{r4, r5, r6, r7, pc}
100066f8:	3001      	adds	r0, #1
100066fa:	d300      	bcc.n	100066fe <last0+0x56>
100066fc:	3101      	adds	r1, #1
100066fe:	1b12      	subs	r2, r2, r4
10006700:	e7f7      	b.n	100066f2 <last0+0x4a>

10006702 <y64_x48>:
10006702:	b5f0      	push	{r4, r5, r6, r7, lr}
10006704:	0c1c      	lsrs	r4, r3, #16
10006706:	d000      	beq.n	1000670a <y64_x48+0x8>
10006708:	e080      	b.n	1000680c <y64_x64>
1000670a:	b40c      	push	{r2, r3}
1000670c:	2500      	movs	r5, #0
1000670e:	0a1c      	lsrs	r4, r3, #8
10006710:	d104      	bne.n	1000671c <y64_x48+0x1a>
10006712:	021b      	lsls	r3, r3, #8
10006714:	0e16      	lsrs	r6, r2, #24
10006716:	4333      	orrs	r3, r6
10006718:	0212      	lsls	r2, r2, #8
1000671a:	3508      	adds	r5, #8
1000671c:	0b1c      	lsrs	r4, r3, #12
1000671e:	d104      	bne.n	1000672a <y64_x48+0x28>
10006720:	011b      	lsls	r3, r3, #4
10006722:	0f16      	lsrs	r6, r2, #28
10006724:	4333      	orrs	r3, r6
10006726:	0112      	lsls	r2, r2, #4
10006728:	3504      	adds	r5, #4
1000672a:	0b9c      	lsrs	r4, r3, #14
1000672c:	d104      	bne.n	10006738 <y64_x48+0x36>
1000672e:	009b      	lsls	r3, r3, #2
10006730:	0f96      	lsrs	r6, r2, #30
10006732:	4333      	orrs	r3, r6
10006734:	0092      	lsls	r2, r2, #2
10006736:	3502      	adds	r5, #2
10006738:	0bdc      	lsrs	r4, r3, #15
1000673a:	d102      	bne.n	10006742 <y64_x48+0x40>
1000673c:	1892      	adds	r2, r2, r2
1000673e:	415b      	adcs	r3, r3
10006740:	3501      	adds	r5, #1
10006742:	001c      	movs	r4, r3
10006744:	1897      	adds	r7, r2, r2
10006746:	4164      	adcs	r4, r4
10006748:	3401      	adds	r4, #1
1000674a:	4f46      	ldr	r7, [pc, #280]	; (10006864 <y64_x64+0x58>)
1000674c:	667c      	str	r4, [r7, #100]	; 0x64
1000674e:	4c46      	ldr	r4, [pc, #280]	; (10006868 <y64_x64+0x5c>)
10006750:	663c      	str	r4, [r7, #96]	; 0x60
10006752:	0c0e      	lsrs	r6, r1, #16
10006754:	e7ff      	b.n	10006756 <y64_x48+0x54>
10006756:	e7ff      	b.n	10006758 <y64_x48+0x56>
10006758:	e7ff      	b.n	1000675a <y64_x48+0x58>
1000675a:	46c0      	nop			; (mov r8, r8)
1000675c:	6f3c      	ldr	r4, [r7, #112]	; 0x70
1000675e:	4366      	muls	r6, r4
10006760:	0c36      	lsrs	r6, r6, #16
10006762:	0377      	lsls	r7, r6, #13
10006764:	46be      	mov	lr, r7
10006766:	b297      	uxth	r7, r2
10006768:	4377      	muls	r7, r6
1000676a:	1bc0      	subs	r0, r0, r7
1000676c:	d200      	bcs.n	10006770 <y64_x48+0x6e>
1000676e:	3901      	subs	r1, #1
10006770:	1bc0      	subs	r0, r0, r7
10006772:	d200      	bcs.n	10006776 <y64_x48+0x74>
10006774:	3901      	subs	r1, #1
10006776:	b29f      	uxth	r7, r3
10006778:	4377      	muls	r7, r6
1000677a:	1bc9      	subs	r1, r1, r7
1000677c:	1bc9      	subs	r1, r1, r7
1000677e:	0c17      	lsrs	r7, r2, #16
10006780:	4377      	muls	r7, r6
10006782:	047e      	lsls	r6, r7, #17
10006784:	0bff      	lsrs	r7, r7, #15
10006786:	1b80      	subs	r0, r0, r6
10006788:	41b9      	sbcs	r1, r7
1000678a:	08ce      	lsrs	r6, r1, #3
1000678c:	4366      	muls	r6, r4
1000678e:	0c36      	lsrs	r6, r6, #16
10006790:	2d0c      	cmp	r5, #12
10006792:	db33      	blt.n	100067fc <last1>
10006794:	44b6      	add	lr, r6
10006796:	0b12      	lsrs	r2, r2, #12
10006798:	051f      	lsls	r7, r3, #20
1000679a:	433a      	orrs	r2, r7
1000679c:	0b1b      	lsrs	r3, r3, #12
1000679e:	b297      	uxth	r7, r2
100067a0:	4377      	muls	r7, r6
100067a2:	1bc0      	subs	r0, r0, r7
100067a4:	d200      	bcs.n	100067a8 <y64_x48+0xa6>
100067a6:	3901      	subs	r1, #1
100067a8:	b29f      	uxth	r7, r3
100067aa:	4377      	muls	r7, r6
100067ac:	1bc9      	subs	r1, r1, r7
100067ae:	0c17      	lsrs	r7, r2, #16
100067b0:	4377      	muls	r7, r6
100067b2:	043e      	lsls	r6, r7, #16
100067b4:	0c3f      	lsrs	r7, r7, #16
100067b6:	1b80      	subs	r0, r0, r6
100067b8:	41b9      	sbcs	r1, r7
100067ba:	0d86      	lsrs	r6, r0, #22
100067bc:	028f      	lsls	r7, r1, #10
100067be:	433e      	orrs	r6, r7
100067c0:	4366      	muls	r6, r4
100067c2:	2729      	movs	r7, #41	; 0x29
100067c4:	1b7f      	subs	r7, r7, r5
100067c6:	40fe      	lsrs	r6, r7
100067c8:	3d0c      	subs	r5, #12
100067ca:	4677      	mov	r7, lr
100067cc:	40af      	lsls	r7, r5
100067ce:	19bf      	adds	r7, r7, r6
100067d0:	bc30      	pop	{r4, r5}
100067d2:	b2a2      	uxth	r2, r4
100067d4:	b2ab      	uxth	r3, r5
100067d6:	4372      	muls	r2, r6
100067d8:	4373      	muls	r3, r6
100067da:	1a80      	subs	r0, r0, r2
100067dc:	4199      	sbcs	r1, r3
100067de:	0c22      	lsrs	r2, r4, #16
100067e0:	4372      	muls	r2, r6
100067e2:	0c13      	lsrs	r3, r2, #16
100067e4:	0412      	lsls	r2, r2, #16
100067e6:	1a80      	subs	r0, r0, r2
100067e8:	4199      	sbcs	r1, r3
100067ea:	0002      	movs	r2, r0
100067ec:	000b      	movs	r3, r1
100067ee:	3701      	adds	r7, #1
100067f0:	1b00      	subs	r0, r0, r4
100067f2:	41a9      	sbcs	r1, r5
100067f4:	d2f9      	bcs.n	100067ea <y64_x48+0xe8>
100067f6:	1e78      	subs	r0, r7, #1
100067f8:	2100      	movs	r1, #0
100067fa:	bdf0      	pop	{r4, r5, r6, r7, pc}

100067fc <last1>:
100067fc:	270c      	movs	r7, #12
100067fe:	1b7f      	subs	r7, r7, r5
10006800:	40fe      	lsrs	r6, r7
10006802:	4677      	mov	r7, lr
10006804:	0b7f      	lsrs	r7, r7, #13
10006806:	40af      	lsls	r7, r5
10006808:	19ff      	adds	r7, r7, r7
1000680a:	e7e0      	b.n	100067ce <y64_x48+0xcc>

1000680c <y64_x64>:
1000680c:	2400      	movs	r4, #0
1000680e:	1c5d      	adds	r5, r3, #1
10006810:	d007      	beq.n	10006822 <y64_x64+0x16>
10006812:	4f14      	ldr	r7, [pc, #80]	; (10006864 <y64_x64+0x58>)
10006814:	667d      	str	r5, [r7, #100]	; 0x64
10006816:	6639      	str	r1, [r7, #96]	; 0x60
10006818:	e7ff      	b.n	1000681a <y64_x64+0xe>
1000681a:	e7ff      	b.n	1000681c <y64_x64+0x10>
1000681c:	e7ff      	b.n	1000681e <y64_x64+0x12>
1000681e:	e7ff      	b.n	10006820 <y64_x64+0x14>
10006820:	6f3c      	ldr	r4, [r7, #112]	; 0x70
10006822:	b295      	uxth	r5, r2
10006824:	b29e      	uxth	r6, r3
10006826:	4365      	muls	r5, r4
10006828:	4366      	muls	r6, r4
1000682a:	1b40      	subs	r0, r0, r5
1000682c:	41b1      	sbcs	r1, r6
1000682e:	0c15      	lsrs	r5, r2, #16
10006830:	0c1e      	lsrs	r6, r3, #16
10006832:	4365      	muls	r5, r4
10006834:	4366      	muls	r6, r4
10006836:	0436      	lsls	r6, r6, #16
10006838:	0c2f      	lsrs	r7, r5, #16
1000683a:	433e      	orrs	r6, r7
1000683c:	042d      	lsls	r5, r5, #16
1000683e:	1b40      	subs	r0, r0, r5
10006840:	41b1      	sbcs	r1, r6
10006842:	4299      	cmp	r1, r3
10006844:	d204      	bcs.n	10006850 <y64_x64+0x44>
10006846:	0002      	movs	r2, r0
10006848:	000b      	movs	r3, r1
1000684a:	0020      	movs	r0, r4
1000684c:	2100      	movs	r1, #0
1000684e:	bdf0      	pop	{r4, r5, r6, r7, pc}
10006850:	d101      	bne.n	10006856 <y64_x64+0x4a>
10006852:	4290      	cmp	r0, r2
10006854:	d3f7      	bcc.n	10006846 <y64_x64+0x3a>
10006856:	1a80      	subs	r0, r0, r2
10006858:	4199      	sbcs	r1, r3
1000685a:	3401      	adds	r4, #1
1000685c:	4299      	cmp	r1, r3
1000685e:	d3f2      	bcc.n	10006846 <y64_x64+0x3a>
10006860:	e7f6      	b.n	10006850 <y64_x64+0x44>
10006862:	0000      	.short	0x0000
10006864:	d0000000 	.word	0xd0000000
10006868:	ffffffff 	.word	0xffffffff

1000686c <__wrap___aeabi_drsub>:
1000686c:	4048      	eors	r0, r1
1000686e:	4041      	eors	r1, r0
10006870:	4048      	eors	r0, r1

10006872 <__wrap___aeabi_dsub>:
10006872:	b418      	push	{r3, r4}
10006874:	4b1b      	ldr	r3, [pc, #108]	; (100068e4 <__wrap___aeabi_dmul+0x12>)
10006876:	685b      	ldr	r3, [r3, #4]
10006878:	46fc      	mov	ip, pc
1000687a:	9301      	str	r3, [sp, #4]
1000687c:	bd08      	pop	{r3, pc}
1000687e:	df04      	.short	0xdf04
10006880:	10006b13 	.word	0x10006b13

10006884 <__wrap___aeabi_dadd>:
10006884:	b418      	push	{r3, r4}
10006886:	4b17      	ldr	r3, [pc, #92]	; (100068e4 <__wrap___aeabi_dmul+0x12>)
10006888:	681b      	ldr	r3, [r3, #0]
1000688a:	46fc      	mov	ip, pc
1000688c:	9301      	str	r3, [sp, #4]
1000688e:	bd08      	pop	{r3, pc}
10006890:	6b1ddf00 	.word	0x6b1ddf00
10006894:	1000      	.short	0x1000

10006896 <__wrap___aeabi_ddiv>:
10006896:	4694      	mov	ip, r2
10006898:	4a13      	ldr	r2, [pc, #76]	; (100068e8 <__wrap___aeabi_dmul+0x16>)
1000689a:	6f92      	ldr	r2, [r2, #120]	; 0x78
1000689c:	0892      	lsrs	r2, r2, #2
1000689e:	d209      	bcs.n	100068b4 <ddiv_save_state>
100068a0:	4662      	mov	r2, ip

100068a2 <ddiv_shim_call>:
100068a2:	b418      	push	{r3, r4}
100068a4:	4b0f      	ldr	r3, [pc, #60]	; (100068e4 <__wrap___aeabi_dmul+0x12>)
100068a6:	68db      	ldr	r3, [r3, #12]
100068a8:	46fc      	mov	ip, pc
100068aa:	9301      	str	r3, [sp, #4]
100068ac:	bd08      	pop	{r3, pc}
100068ae:	df0c      	.short	0xdf0c
100068b0:	10006dd5 	.word	0x10006dd5

100068b4 <ddiv_save_state>:
100068b4:	4a0c      	ldr	r2, [pc, #48]	; (100068e8 <__wrap___aeabi_dmul+0x16>)
100068b6:	b5f0      	push	{r4, r5, r6, r7, lr}
100068b8:	6e14      	ldr	r4, [r2, #96]	; 0x60
100068ba:	6e55      	ldr	r5, [r2, #100]	; 0x64
100068bc:	6f57      	ldr	r7, [r2, #116]	; 0x74
100068be:	6f16      	ldr	r6, [r2, #112]	; 0x70
100068c0:	4662      	mov	r2, ip
100068c2:	f7ff ffee 	bl	100068a2 <ddiv_shim_call>
100068c6:	4a08      	ldr	r2, [pc, #32]	; (100068e8 <__wrap___aeabi_dmul+0x16>)
100068c8:	6614      	str	r4, [r2, #96]	; 0x60
100068ca:	6655      	str	r5, [r2, #100]	; 0x64
100068cc:	6757      	str	r7, [r2, #116]	; 0x74
100068ce:	6716      	str	r6, [r2, #112]	; 0x70
100068d0:	bdf0      	pop	{r4, r5, r6, r7, pc}

100068d2 <__wrap___aeabi_dmul>:
100068d2:	b418      	push	{r3, r4}
100068d4:	4b03      	ldr	r3, [pc, #12]	; (100068e4 <__wrap___aeabi_dmul+0x12>)
100068d6:	689b      	ldr	r3, [r3, #8]
100068d8:	46fc      	mov	ip, pc
100068da:	9301      	str	r3, [sp, #4]
100068dc:	bd08      	pop	{r3, pc}
100068de:	df08      	.short	0xdf08
100068e0:	10006c79 	.word	0x10006c79
100068e4:	200004c0 	.word	0x200004c0
100068e8:	d0000000 	.word	0xd0000000

100068ec <__wrap___aeabi_cdrcmple>:
100068ec:	b5ff      	push	{r0, r1, r2, r3, r4, r5, r6, r7, lr}
100068ee:	4050      	eors	r0, r2
100068f0:	4042      	eors	r2, r0
100068f2:	4050      	eors	r0, r2
100068f4:	4059      	eors	r1, r3
100068f6:	404b      	eors	r3, r1
100068f8:	4059      	eors	r1, r3
100068fa:	e000      	b.n	100068fe <__aeabi_dfcmple_guts>

100068fc <__wrap___aeabi_cdcmpeq>:
100068fc:	b5ff      	push	{r0, r1, r2, r3, r4, r5, r6, r7, lr}

100068fe <__aeabi_dfcmple_guts>:
100068fe:	4f15      	ldr	r7, [pc, #84]	; (10006954 <__aeabi_dfcmple_guts+0x56>)
10006900:	004c      	lsls	r4, r1, #1
10006902:	0d64      	lsrs	r4, r4, #21
10006904:	d003      	beq.n	1000690e <__aeabi_dfcmple_guts+0x10>
10006906:	42bc      	cmp	r4, r7
10006908:	d104      	bne.n	10006914 <__aeabi_dfcmple_guts+0x16>
1000690a:	030c      	lsls	r4, r1, #12
1000690c:	d814      	bhi.n	10006938 <__aeabi_dfcmple_guts+0x3a>
1000690e:	2000      	movs	r0, #0
10006910:	0d09      	lsrs	r1, r1, #20
10006912:	0509      	lsls	r1, r1, #20
10006914:	005c      	lsls	r4, r3, #1
10006916:	0d64      	lsrs	r4, r4, #21
10006918:	d003      	beq.n	10006922 <__aeabi_dfcmple_guts+0x24>
1000691a:	42bc      	cmp	r4, r7
1000691c:	d104      	bne.n	10006928 <__aeabi_dfcmple_guts+0x2a>
1000691e:	031c      	lsls	r4, r3, #12
10006920:	d80a      	bhi.n	10006938 <__aeabi_dfcmple_guts+0x3a>
10006922:	2200      	movs	r2, #0
10006924:	0d1b      	lsrs	r3, r3, #20
10006926:	051b      	lsls	r3, r3, #20
10006928:	2601      	movs	r6, #1
1000692a:	404b      	eors	r3, r1
1000692c:	d409      	bmi.n	10006942 <__aeabi_dfcmple_guts+0x44>
1000692e:	404b      	eors	r3, r1
10006930:	d503      	bpl.n	1000693a <__aeabi_dfcmple_guts+0x3c>
10006932:	428b      	cmp	r3, r1
10006934:	d100      	bne.n	10006938 <__aeabi_dfcmple_guts+0x3a>
10006936:	4282      	cmp	r2, r0
10006938:	bdff      	pop	{r0, r1, r2, r3, r4, r5, r6, r7, pc}
1000693a:	4299      	cmp	r1, r3
1000693c:	d1fc      	bne.n	10006938 <__aeabi_dfcmple_guts+0x3a>
1000693e:	4290      	cmp	r0, r2
10006940:	bdff      	pop	{r0, r1, r2, r3, r4, r5, r6, r7, pc}
10006942:	430b      	orrs	r3, r1
10006944:	18db      	adds	r3, r3, r3
10006946:	4303      	orrs	r3, r0
10006948:	4313      	orrs	r3, r2
1000694a:	d0f5      	beq.n	10006938 <__aeabi_dfcmple_guts+0x3a>
1000694c:	43c9      	mvns	r1, r1
1000694e:	1849      	adds	r1, r1, r1
10006950:	bdff      	pop	{r0, r1, r2, r3, r4, r5, r6, r7, pc}
10006952:	0000      	.short	0x0000
10006954:	000007ff 	.word	0x000007ff

10006958 <__wrap___aeabi_dcmplt>:
10006958:	b500      	push	{lr}
1000695a:	f7ff ffcf 	bl	100068fc <__wrap___aeabi_cdcmpeq>
1000695e:	4180      	sbcs	r0, r0
10006960:	bd00      	pop	{pc}
10006962:	46c0      	nop			; (mov r8, r8)

10006964 <__wrap___aeabi_dcmple>:
10006964:	b500      	push	{lr}
10006966:	f7ff ffc9 	bl	100068fc <__wrap___aeabi_cdcmpeq>
1000696a:	d901      	bls.n	10006970 <__wrap___aeabi_dcmple+0xc>
1000696c:	2000      	movs	r0, #0
1000696e:	bd00      	pop	{pc}
10006970:	2001      	movs	r0, #1
10006972:	bd00      	pop	{pc}

10006974 <__wrap___aeabi_dcmpge>:
10006974:	b500      	push	{lr}
10006976:	f7ff ffb9 	bl	100068ec <__wrap___aeabi_cdrcmple>
1000697a:	d901      	bls.n	10006980 <__wrap___aeabi_dcmpge+0xc>
1000697c:	2000      	movs	r0, #0
1000697e:	bd00      	pop	{pc}
10006980:	2001      	movs	r0, #1
10006982:	bd00      	pop	{pc}

10006984 <__wrap___aeabi_dcmpgt>:
10006984:	b500      	push	{lr}
10006986:	f7ff ffb1 	bl	100068ec <__wrap___aeabi_cdrcmple>
1000698a:	4180      	sbcs	r0, r0
1000698c:	bd00      	pop	{pc}

1000698e <__wrap___aeabi_dcmpun>:
1000698e:	2001      	movs	r0, #1
10006990:	0540      	lsls	r0, r0, #21
10006992:	004a      	lsls	r2, r1, #1
10006994:	1812      	adds	r2, r2, r0
10006996:	d804      	bhi.n	100069a2 <__wrap___aeabi_dcmpun+0x14>
10006998:	005a      	lsls	r2, r3, #1
1000699a:	1812      	adds	r2, r2, r0
1000699c:	d801      	bhi.n	100069a2 <__wrap___aeabi_dcmpun+0x14>
1000699e:	2000      	movs	r0, #0
100069a0:	4770      	bx	lr
100069a2:	2001      	movs	r0, #1
100069a4:	4770      	bx	lr
	...

100069a8 <__wrap___aeabi_ui2d>:
100069a8:	2100      	movs	r1, #0
100069aa:	2800      	cmp	r0, #0
100069ac:	d105      	bne.n	100069ba <__wrap___aeabi_i2d+0xa>
100069ae:	4770      	bx	lr

100069b0 <__wrap___aeabi_i2d>:
100069b0:	17c1      	asrs	r1, r0, #31
100069b2:	4048      	eors	r0, r1
100069b4:	1a40      	subs	r0, r0, r1
100069b6:	d0fa      	beq.n	100069ae <__wrap___aeabi_ui2d+0x6>
100069b8:	07c9      	lsls	r1, r1, #31
100069ba:	b513      	push	{r0, r1, r4, lr}
100069bc:	4b06      	ldr	r3, [pc, #24]	; (100069d8 <__wrap___aeabi_i2d+0x28>)
100069be:	681b      	ldr	r3, [r3, #0]
100069c0:	4798      	blx	r3
100069c2:	bc0c      	pop	{r2, r3}
100069c4:	1c44      	adds	r4, r0, #1
100069c6:	40a2      	lsls	r2, r4
100069c8:	0510      	lsls	r0, r2, #20
100069ca:	0b12      	lsrs	r2, r2, #12
100069cc:	4903      	ldr	r1, [pc, #12]	; (100069dc <__wrap___aeabi_i2d+0x2c>)
100069ce:	1b09      	subs	r1, r1, r4
100069d0:	0509      	lsls	r1, r1, #20
100069d2:	4319      	orrs	r1, r3
100069d4:	4311      	orrs	r1, r2
100069d6:	bd10      	pop	{r4, pc}
100069d8:	20000a18 	.word	0x20000a18
100069dc:	0000041f 	.word	0x0000041f

100069e0 <__wrap___aeabi_d2iz>:
100069e0:	b510      	push	{r4, lr}
100069e2:	004c      	lsls	r4, r1, #1
100069e4:	0d62      	lsrs	r2, r4, #21
100069e6:	2380      	movs	r3, #128	; 0x80
100069e8:	18d2      	adds	r2, r2, r3
100069ea:	00db      	lsls	r3, r3, #3
100069ec:	1ad2      	subs	r2, r2, r3
100069ee:	055b      	lsls	r3, r3, #21
100069f0:	2a7e      	cmp	r2, #126	; 0x7e
100069f2:	dd10      	ble.n	10006a16 <__wrap___aeabi_d2iz+0x36>
100069f4:	3a9e      	subs	r2, #158	; 0x9e
100069f6:	da13      	bge.n	10006a20 <__wrap___aeabi_d2iz+0x40>
100069f8:	17cc      	asrs	r4, r1, #31
100069fa:	0309      	lsls	r1, r1, #12
100069fc:	0849      	lsrs	r1, r1, #1
100069fe:	4319      	orrs	r1, r3
10006a00:	4252      	negs	r2, r2
10006a02:	40d1      	lsrs	r1, r2
10006a04:	0064      	lsls	r4, r4, #1
10006a06:	3401      	adds	r4, #1
10006a08:	3215      	adds	r2, #21
10006a0a:	2a20      	cmp	r2, #32
10006a0c:	da05      	bge.n	10006a1a <__wrap___aeabi_d2iz+0x3a>
10006a0e:	40d0      	lsrs	r0, r2
10006a10:	4308      	orrs	r0, r1
10006a12:	4360      	muls	r0, r4
10006a14:	bd10      	pop	{r4, pc}
10006a16:	2000      	movs	r0, #0
10006a18:	bd10      	pop	{r4, pc}
10006a1a:	4608      	mov	r0, r1
10006a1c:	4360      	muls	r0, r4
10006a1e:	bd10      	pop	{r4, pc}
10006a20:	0fc8      	lsrs	r0, r1, #31
10006a22:	18c0      	adds	r0, r0, r3
10006a24:	3801      	subs	r0, #1
10006a26:	bd10      	pop	{r4, pc}

10006a28 <__wrap___aeabi_d2uiz>:
10006a28:	b418      	push	{r3, r4}
10006a2a:	4b04      	ldr	r3, [pc, #16]	; (10006a3c <__wrap___aeabi_d2uiz+0x14>)
10006a2c:	6a5b      	ldr	r3, [r3, #36]	; 0x24
10006a2e:	46fc      	mov	ip, pc
10006a30:	9301      	str	r3, [sp, #4]
10006a32:	bd08      	pop	{r3, pc}
10006a34:	6f85df24 	.word	0x6f85df24
10006a38:	00001000 	.word	0x00001000
10006a3c:	200004c0 	.word	0x200004c0

10006a40 <__aeabi_double_init>:
10006a40:	2313      	movs	r3, #19
10006a42:	b570      	push	{r4, r5, r6, lr}
10006a44:	781d      	ldrb	r5, [r3, #0]
10006a46:	2d01      	cmp	r5, #1
10006a48:	d019      	beq.n	10006a7e <__aeabi_double_init+0x3e>
10006a4a:	dd14      	ble.n	10006a76 <__aeabi_double_init+0x36>
10006a4c:	481e      	ldr	r0, [pc, #120]	; (10006ac8 <__aeabi_double_init+0x88>)
10006a4e:	f7ff fa59 	bl	10005f04 <rom_data_lookup>
10006a52:	0006      	movs	r6, r0
10006a54:	481d      	ldr	r0, [pc, #116]	; (10006acc <__aeabi_double_init+0x8c>)
10006a56:	f7ff fa55 	bl	10005f04 <rom_data_lookup>
10006a5a:	4c1d      	ldr	r4, [pc, #116]	; (10006ad0 <__aeabi_double_init+0x90>)
10006a5c:	2280      	movs	r2, #128	; 0x80
10006a5e:	0031      	movs	r1, r6
10006a60:	0020      	movs	r0, r4
10006a62:	f000 fb5d 	bl	10007120 <__wrap___aeabi_memcpy>
10006a66:	2d02      	cmp	r5, #2
10006a68:	d006      	beq.n	10006a78 <__aeabi_double_init+0x38>
10006a6a:	481a      	ldr	r0, [pc, #104]	; (10006ad4 <__aeabi_double_init+0x94>)
10006a6c:	f7ff fa42 	bl	10005ef4 <rom_func_lookup>
10006a70:	4b19      	ldr	r3, [pc, #100]	; (10006ad8 <__aeabi_double_init+0x98>)
10006a72:	6018      	str	r0, [r3, #0]
10006a74:	bd70      	pop	{r4, r5, r6, pc}
10006a76:	4c16      	ldr	r4, [pc, #88]	; (10006ad0 <__aeabi_double_init+0x90>)
10006a78:	4b18      	ldr	r3, [pc, #96]	; (10006adc <__aeabi_double_init+0x9c>)
10006a7a:	64a3      	str	r3, [r4, #72]	; 0x48
10006a7c:	e7f5      	b.n	10006a6a <__aeabi_double_init+0x2a>
10006a7e:	4b17      	ldr	r3, [pc, #92]	; (10006adc <__aeabi_double_init+0x9c>)
10006a80:	4c13      	ldr	r4, [pc, #76]	; (10006ad0 <__aeabi_double_init+0x90>)
10006a82:	6023      	str	r3, [r4, #0]
10006a84:	6063      	str	r3, [r4, #4]
10006a86:	60a3      	str	r3, [r4, #8]
10006a88:	60e3      	str	r3, [r4, #12]
10006a8a:	6123      	str	r3, [r4, #16]
10006a8c:	6163      	str	r3, [r4, #20]
10006a8e:	61a3      	str	r3, [r4, #24]
10006a90:	61e3      	str	r3, [r4, #28]
10006a92:	6223      	str	r3, [r4, #32]
10006a94:	6263      	str	r3, [r4, #36]	; 0x24
10006a96:	62a3      	str	r3, [r4, #40]	; 0x28
10006a98:	62e3      	str	r3, [r4, #44]	; 0x2c
10006a9a:	6323      	str	r3, [r4, #48]	; 0x30
10006a9c:	6363      	str	r3, [r4, #52]	; 0x34
10006a9e:	63a3      	str	r3, [r4, #56]	; 0x38
10006aa0:	63e3      	str	r3, [r4, #60]	; 0x3c
10006aa2:	6423      	str	r3, [r4, #64]	; 0x40
10006aa4:	6463      	str	r3, [r4, #68]	; 0x44
10006aa6:	64a3      	str	r3, [r4, #72]	; 0x48
10006aa8:	64e3      	str	r3, [r4, #76]	; 0x4c
10006aaa:	6523      	str	r3, [r4, #80]	; 0x50
10006aac:	6563      	str	r3, [r4, #84]	; 0x54
10006aae:	65a3      	str	r3, [r4, #88]	; 0x58
10006ab0:	65e3      	str	r3, [r4, #92]	; 0x5c
10006ab2:	6623      	str	r3, [r4, #96]	; 0x60
10006ab4:	6663      	str	r3, [r4, #100]	; 0x64
10006ab6:	66a3      	str	r3, [r4, #104]	; 0x68
10006ab8:	66e3      	str	r3, [r4, #108]	; 0x6c
10006aba:	6723      	str	r3, [r4, #112]	; 0x70
10006abc:	6763      	str	r3, [r4, #116]	; 0x74
10006abe:	67a3      	str	r3, [r4, #120]	; 0x78
10006ac0:	67e3      	str	r3, [r4, #124]	; 0x7c
10006ac2:	64a3      	str	r3, [r4, #72]	; 0x48
10006ac4:	e7d1      	b.n	10006a6a <__aeabi_double_init+0x2a>
10006ac6:	46c0      	nop			; (mov r8, r8)
10006ac8:	00004453 	.word	0x00004453
10006acc:	00004653 	.word	0x00004653
10006ad0:	200004c0 	.word	0x200004c0
10006ad4:	0000334c 	.word	0x0000334c
10006ad8:	20000a18 	.word	0x20000a18
10006adc:	10006ae1 	.word	0x10006ae1

10006ae0 <double_table_shim_on_use_helper>:
10006ae0:	b507      	push	{r0, r1, r2, lr}
10006ae2:	4660      	mov	r0, ip
10006ae4:	8801      	ldrh	r1, [r0, #0]
10006ae6:	0a0a      	lsrs	r2, r1, #8
10006ae8:	3002      	adds	r0, #2
10006aea:	2adf      	cmp	r2, #223	; 0xdf
10006aec:	d1fa      	bne.n	10006ae4 <double_table_shim_on_use_helper+0x4>
10006aee:	b2c9      	uxtb	r1, r1
10006af0:	0882      	lsrs	r2, r0, #2
10006af2:	d304      	bcc.n	10006afe <double_table_shim_on_use_helper+0x1e>
10006af4:	8802      	ldrh	r2, [r0, #0]
10006af6:	8840      	ldrh	r0, [r0, #2]
10006af8:	0400      	lsls	r0, r0, #16
10006afa:	4310      	orrs	r0, r2
10006afc:	e000      	b.n	10006b00 <double_table_shim_on_use_helper+0x20>
10006afe:	6800      	ldr	r0, [r0, #0]
10006b00:	4a01      	ldr	r2, [pc, #4]	; (10006b08 <double_table_shim_on_use_helper+0x28>)
10006b02:	5050      	str	r0, [r2, r1]
10006b04:	9003      	str	r0, [sp, #12]
10006b06:	bd07      	pop	{r0, r1, r2, pc}
10006b08:	200004c0 	.word	0x200004c0

10006b0c <drsub_shim>:
10006b0c:	b40f      	push	{r0, r1, r2, r3}
10006b0e:	bc03      	pop	{r0, r1}
10006b10:	bc0c      	pop	{r2, r3}

10006b12 <dsub_shim>:
10006b12:	b5f0      	push	{r4, r5, r6, r7, lr}
10006b14:	2401      	movs	r4, #1
10006b16:	07e4      	lsls	r4, r4, #31
10006b18:	4063      	eors	r3, r4
10006b1a:	e000      	b.n	10006b1e <da_entry>

10006b1c <dadd_shim>:
10006b1c:	b5f0      	push	{r4, r5, r6, r7, lr}

10006b1e <da_entry>:
10006b1e:	0d0c      	lsrs	r4, r1, #20
10006b20:	0fcf      	lsrs	r7, r1, #31
10006b22:	1e66      	subs	r6, r4, #1
10006b24:	0536      	lsls	r6, r6, #20
10006b26:	1b89      	subs	r1, r1, r6
10006b28:	0564      	lsls	r4, r4, #21
10006b2a:	d303      	bcc.n	10006b34 <l8_1>
10006b2c:	43c9      	mvns	r1, r1
10006b2e:	4240      	negs	r0, r0
10006b30:	d300      	bcc.n	10006b34 <l8_1>
10006b32:	3101      	adds	r1, #1

10006b34 <l8_1>:
10006b34:	0d64      	lsrs	r4, r4, #21
10006b36:	d003      	beq.n	10006b40 <l8_2>
10006b38:	1c66      	adds	r6, r4, #1
10006b3a:	0af6      	lsrs	r6, r6, #11
10006b3c:	d007      	beq.n	10006b4e <l8_3>
10006b3e:	1be4      	subs	r4, r4, r7

10006b40 <l8_2>:
10006b40:	2000      	movs	r0, #0
10006b42:	007f      	lsls	r7, r7, #1
10006b44:	1c79      	adds	r1, r7, #1
10006b46:	0789      	lsls	r1, r1, #30
10006b48:	1289      	asrs	r1, r1, #10
10006b4a:	3c80      	subs	r4, #128	; 0x80
10006b4c:	0324      	lsls	r4, r4, #12

10006b4e <l8_3>:
10006b4e:	0d1d      	lsrs	r5, r3, #20
10006b50:	0fdf      	lsrs	r7, r3, #31
10006b52:	1e6e      	subs	r6, r5, #1
10006b54:	0536      	lsls	r6, r6, #20
10006b56:	1b9b      	subs	r3, r3, r6
10006b58:	056d      	lsls	r5, r5, #21
10006b5a:	d303      	bcc.n	10006b64 <l9_1>
10006b5c:	43db      	mvns	r3, r3
10006b5e:	4252      	negs	r2, r2
10006b60:	d300      	bcc.n	10006b64 <l9_1>
10006b62:	3301      	adds	r3, #1

10006b64 <l9_1>:
10006b64:	0d6d      	lsrs	r5, r5, #21
10006b66:	d003      	beq.n	10006b70 <l9_2>
10006b68:	1c6e      	adds	r6, r5, #1
10006b6a:	0af6      	lsrs	r6, r6, #11
10006b6c:	d007      	beq.n	10006b7e <l9_3>
10006b6e:	1bed      	subs	r5, r5, r7

10006b70 <l9_2>:
10006b70:	2200      	movs	r2, #0
10006b72:	007f      	lsls	r7, r7, #1
10006b74:	1c7b      	adds	r3, r7, #1
10006b76:	079b      	lsls	r3, r3, #30
10006b78:	129b      	asrs	r3, r3, #10
10006b7a:	3d80      	subs	r5, #128	; 0x80
10006b7c:	032d      	lsls	r5, r5, #12

10006b7e <l9_3>:
10006b7e:	1b2f      	subs	r7, r5, r4
10006b80:	1b66      	subs	r6, r4, r5
10006b82:	d458      	bmi.n	10006c36 <da_ygtx>
10006b84:	46a4      	mov	ip, r4
10006b86:	2e20      	cmp	r6, #32
10006b88:	da46      	bge.n	10006c18 <da_xrgty>
10006b8a:	3720      	adds	r7, #32
10006b8c:	0014      	movs	r4, r2
10006b8e:	40bc      	lsls	r4, r7

10006b90 <da_xgty0>:
10006b90:	001d      	movs	r5, r3
10006b92:	40bd      	lsls	r5, r7
10006b94:	40f2      	lsrs	r2, r6
10006b96:	4133      	asrs	r3, r6
10006b98:	432a      	orrs	r2, r5

10006b9a <da_add>:
10006b9a:	1880      	adds	r0, r0, r2
10006b9c:	4159      	adcs	r1, r3

10006b9e <da_pack>:
10006b9e:	0fcb      	lsrs	r3, r1, #31
10006ba0:	d005      	beq.n	10006bae <da_pack+0x10>
10006ba2:	43c9      	mvns	r1, r1
10006ba4:	43c0      	mvns	r0, r0
10006ba6:	2200      	movs	r2, #0
10006ba8:	4264      	negs	r4, r4
10006baa:	4150      	adcs	r0, r2
10006bac:	4151      	adcs	r1, r2
10006bae:	4662      	mov	r2, ip
10006bb0:	0d4d      	lsrs	r5, r1, #21
10006bb2:	d128      	bne.n	10006c06 <da_0>
10006bb4:	0d0d      	lsrs	r5, r1, #20
10006bb6:	d107      	bne.n	10006bc8 <da_1>
10006bb8:	2800      	cmp	r0, #0
10006bba:	d01f      	beq.n	10006bfc <da_5>

10006bbc <da_2>:
10006bbc:	1924      	adds	r4, r4, r4
10006bbe:	4140      	adcs	r0, r0
10006bc0:	4149      	adcs	r1, r1
10006bc2:	3a01      	subs	r2, #1
10006bc4:	0d0d      	lsrs	r5, r1, #20
10006bc6:	d0f9      	beq.n	10006bbc <da_2>

10006bc8 <da_1>:
10006bc8:	0064      	lsls	r4, r4, #1
10006bca:	d306      	bcc.n	10006bda <da_3>

10006bcc <da_4>:
10006bcc:	3001      	adds	r0, #1
10006bce:	d300      	bcc.n	10006bd2 <da_4+0x6>
10006bd0:	3101      	adds	r1, #1
10006bd2:	2c00      	cmp	r4, #0
10006bd4:	d101      	bne.n	10006bda <da_3>
10006bd6:	0840      	lsrs	r0, r0, #1
10006bd8:	0040      	lsls	r0, r0, #1

10006bda <da_3>:
10006bda:	3a01      	subs	r2, #1
10006bdc:	d40b      	bmi.n	10006bf6 <da_6>
10006bde:	1c94      	adds	r4, r2, #2
10006be0:	0ae4      	lsrs	r4, r4, #11
10006be2:	d104      	bne.n	10006bee <da_7>
10006be4:	0512      	lsls	r2, r2, #20
10006be6:	4411      	add	r1, r2
10006be8:	07db      	lsls	r3, r3, #31
10006bea:	4419      	add	r1, r3
10006bec:	bdf0      	pop	{r4, r5, r6, r7, pc}

10006bee <da_7>:
10006bee:	07d9      	lsls	r1, r3, #31
10006bf0:	4b20      	ldr	r3, [pc, #128]	; (10006c74 <da_xmgty+0x4>)
10006bf2:	4319      	orrs	r1, r3
10006bf4:	e000      	b.n	10006bf8 <da_6+0x2>

10006bf6 <da_6>:
10006bf6:	07d9      	lsls	r1, r3, #31
10006bf8:	2000      	movs	r0, #0
10006bfa:	bdf0      	pop	{r4, r5, r6, r7, pc}

10006bfc <da_5>:
10006bfc:	2900      	cmp	r1, #0
10006bfe:	d1dd      	bne.n	10006bbc <da_2>
10006c00:	2c00      	cmp	r4, #0
10006c02:	d1db      	bne.n	10006bbc <da_2>
10006c04:	bdf0      	pop	{r4, r5, r6, r7, pc}

10006c06 <da_0>:
10006c06:	3201      	adds	r2, #1
10006c08:	07c6      	lsls	r6, r0, #31
10006c0a:	0840      	lsrs	r0, r0, #1
10006c0c:	07cd      	lsls	r5, r1, #31
10006c0e:	4328      	orrs	r0, r5
10006c10:	0849      	lsrs	r1, r1, #1
10006c12:	2e00      	cmp	r6, #0
10006c14:	d0e1      	beq.n	10006bda <da_3>
10006c16:	e7d9      	b.n	10006bcc <da_4>

10006c18 <da_xrgty>:
10006c18:	2e3c      	cmp	r6, #60	; 0x3c
10006c1a:	da29      	bge.n	10006c70 <da_xmgty>
10006c1c:	3e20      	subs	r6, #32
10006c1e:	3740      	adds	r7, #64	; 0x40
10006c20:	0014      	movs	r4, r2
10006c22:	40bc      	lsls	r4, r7
10006c24:	d000      	beq.n	10006c28 <da_xrgty+0x10>
10006c26:	2401      	movs	r4, #1
10006c28:	40f2      	lsrs	r2, r6
10006c2a:	4314      	orrs	r4, r2
10006c2c:	001a      	movs	r2, r3
10006c2e:	40bb      	lsls	r3, r7
10006c30:	431c      	orrs	r4, r3
10006c32:	17d3      	asrs	r3, r2, #31
10006c34:	e7ac      	b.n	10006b90 <da_xgty0>

10006c36 <da_ygtx>:
10006c36:	46ac      	mov	ip, r5
10006c38:	2f20      	cmp	r7, #32
10006c3a:	da08      	bge.n	10006c4e <da_yrgtx>
10006c3c:	3620      	adds	r6, #32
10006c3e:	0004      	movs	r4, r0
10006c40:	40b4      	lsls	r4, r6

10006c42 <da_ygtx0>:
10006c42:	000d      	movs	r5, r1
10006c44:	40b5      	lsls	r5, r6
10006c46:	40f8      	lsrs	r0, r7
10006c48:	4139      	asrs	r1, r7
10006c4a:	4328      	orrs	r0, r5
10006c4c:	e7a5      	b.n	10006b9a <da_add>

10006c4e <da_yrgtx>:
10006c4e:	2f3c      	cmp	r7, #60	; 0x3c
10006c50:	da0c      	bge.n	10006c6c <da_ymgtx>
10006c52:	3f20      	subs	r7, #32
10006c54:	3640      	adds	r6, #64	; 0x40
10006c56:	0004      	movs	r4, r0
10006c58:	40b4      	lsls	r4, r6
10006c5a:	d000      	beq.n	10006c5e <da_yrgtx+0x10>
10006c5c:	2401      	movs	r4, #1
10006c5e:	40f8      	lsrs	r0, r7
10006c60:	4304      	orrs	r4, r0
10006c62:	0008      	movs	r0, r1
10006c64:	40b1      	lsls	r1, r6
10006c66:	430c      	orrs	r4, r1
10006c68:	17c1      	asrs	r1, r0, #31
10006c6a:	e7ea      	b.n	10006c42 <da_ygtx0>

10006c6c <da_ymgtx>:
10006c6c:	0010      	movs	r0, r2
10006c6e:	0019      	movs	r1, r3

10006c70 <da_xmgty>:
10006c70:	2400      	movs	r4, #0
10006c72:	e794      	b.n	10006b9e <da_pack>
10006c74:	7ff00000 	.word	0x7ff00000

10006c78 <dmul_shim>:
10006c78:	b5f0      	push	{r4, r5, r6, r7, lr}
10006c7a:	0d0c      	lsrs	r4, r1, #20
10006c7c:	1e66      	subs	r6, r4, #1
10006c7e:	0536      	lsls	r6, r6, #20
10006c80:	1b89      	subs	r1, r1, r6
10006c82:	0ae6      	lsrs	r6, r4, #11
10006c84:	0564      	lsls	r4, r4, #21
10006c86:	0d64      	lsrs	r4, r4, #21
10006c88:	d002      	beq.n	10006c90 <l12_1>
10006c8a:	1c65      	adds	r5, r4, #1
10006c8c:	0aed      	lsrs	r5, r5, #11
10006c8e:	d004      	beq.n	10006c9a <l12_2>

10006c90 <l12_1>:
10006c90:	2000      	movs	r0, #0
10006c92:	2101      	movs	r1, #1
10006c94:	0509      	lsls	r1, r1, #20
10006c96:	3c80      	subs	r4, #128	; 0x80
10006c98:	0324      	lsls	r4, r4, #12

10006c9a <l12_2>:
10006c9a:	46a4      	mov	ip, r4
10006c9c:	0d1c      	lsrs	r4, r3, #20
10006c9e:	1e67      	subs	r7, r4, #1
10006ca0:	053f      	lsls	r7, r7, #20
10006ca2:	1bdb      	subs	r3, r3, r7
10006ca4:	0ae7      	lsrs	r7, r4, #11
10006ca6:	0564      	lsls	r4, r4, #21
10006ca8:	0d64      	lsrs	r4, r4, #21
10006caa:	d002      	beq.n	10006cb2 <l13_1>
10006cac:	1c65      	adds	r5, r4, #1
10006cae:	0aed      	lsrs	r5, r5, #11
10006cb0:	d004      	beq.n	10006cbc <l13_2>

10006cb2 <l13_1>:
10006cb2:	2200      	movs	r2, #0
10006cb4:	2301      	movs	r3, #1
10006cb6:	051b      	lsls	r3, r3, #20
10006cb8:	3c80      	subs	r4, #128	; 0x80
10006cba:	0324      	lsls	r4, r4, #12

10006cbc <l13_2>:
10006cbc:	4077      	eors	r7, r6
10006cbe:	4464      	add	r4, ip
10006cc0:	b497      	push	{r0, r1, r2, r4, r7}
10006cc2:	b284      	uxth	r4, r0
10006cc4:	b296      	uxth	r6, r2
10006cc6:	4374      	muls	r4, r6
10006cc8:	0c07      	lsrs	r7, r0, #16
10006cca:	437e      	muls	r6, r7
10006ccc:	0c15      	lsrs	r5, r2, #16
10006cce:	436f      	muls	r7, r5
10006cd0:	b280      	uxth	r0, r0
10006cd2:	4368      	muls	r0, r5
10006cd4:	1836      	adds	r6, r6, r0
10006cd6:	d302      	bcc.n	10006cde <l14_1>
10006cd8:	2001      	movs	r0, #1
10006cda:	0400      	lsls	r0, r0, #16
10006cdc:	183f      	adds	r7, r7, r0

10006cde <l14_1>:
10006cde:	0430      	lsls	r0, r6, #16
10006ce0:	0c35      	lsrs	r5, r6, #16
10006ce2:	1900      	adds	r0, r0, r4
10006ce4:	417d      	adcs	r5, r7
10006ce6:	4684      	mov	ip, r0
10006ce8:	b288      	uxth	r0, r1
10006cea:	b29a      	uxth	r2, r3
10006cec:	4350      	muls	r0, r2
10006cee:	0c0c      	lsrs	r4, r1, #16
10006cf0:	4362      	muls	r2, r4
10006cf2:	0c1f      	lsrs	r7, r3, #16
10006cf4:	437c      	muls	r4, r7
10006cf6:	b28e      	uxth	r6, r1
10006cf8:	437e      	muls	r6, r7
10006cfa:	1992      	adds	r2, r2, r6
10006cfc:	d302      	bcc.n	10006d04 <l15_1>
10006cfe:	2601      	movs	r6, #1
10006d00:	0436      	lsls	r6, r6, #16
10006d02:	19a4      	adds	r4, r4, r6

10006d04 <l15_1>:
10006d04:	0416      	lsls	r6, r2, #16
10006d06:	0c17      	lsrs	r7, r2, #16
10006d08:	1836      	adds	r6, r6, r0
10006d0a:	4167      	adcs	r7, r4
10006d0c:	bc01      	pop	{r0}
10006d0e:	b281      	uxth	r1, r0
10006d10:	b29a      	uxth	r2, r3
10006d12:	4351      	muls	r1, r2
10006d14:	0c04      	lsrs	r4, r0, #16
10006d16:	4362      	muls	r2, r4
10006d18:	0c1b      	lsrs	r3, r3, #16
10006d1a:	435c      	muls	r4, r3
10006d1c:	b280      	uxth	r0, r0
10006d1e:	4358      	muls	r0, r3
10006d20:	1812      	adds	r2, r2, r0
10006d22:	d302      	bcc.n	10006d2a <l16_1>
10006d24:	2001      	movs	r0, #1
10006d26:	0400      	lsls	r0, r0, #16
10006d28:	1824      	adds	r4, r4, r0

10006d2a <l16_1>:
10006d2a:	0410      	lsls	r0, r2, #16
10006d2c:	0c13      	lsrs	r3, r2, #16
10006d2e:	1840      	adds	r0, r0, r1
10006d30:	4163      	adcs	r3, r4
10006d32:	182d      	adds	r5, r5, r0
10006d34:	415e      	adcs	r6, r3
10006d36:	2000      	movs	r0, #0
10006d38:	4147      	adcs	r7, r0
10006d3a:	bc06      	pop	{r1, r2}
10006d3c:	b288      	uxth	r0, r1
10006d3e:	b293      	uxth	r3, r2
10006d40:	4358      	muls	r0, r3
10006d42:	0c0c      	lsrs	r4, r1, #16
10006d44:	4363      	muls	r3, r4
10006d46:	0c12      	lsrs	r2, r2, #16
10006d48:	4354      	muls	r4, r2
10006d4a:	b289      	uxth	r1, r1
10006d4c:	4351      	muls	r1, r2
10006d4e:	185b      	adds	r3, r3, r1
10006d50:	d302      	bcc.n	10006d58 <l17_1>
10006d52:	2101      	movs	r1, #1
10006d54:	0409      	lsls	r1, r1, #16
10006d56:	1864      	adds	r4, r4, r1

10006d58 <l17_1>:
10006d58:	0419      	lsls	r1, r3, #16
10006d5a:	0c1a      	lsrs	r2, r3, #16
10006d5c:	1809      	adds	r1, r1, r0
10006d5e:	4162      	adcs	r2, r4
10006d60:	186d      	adds	r5, r5, r1
10006d62:	4156      	adcs	r6, r2
10006d64:	2000      	movs	r0, #0
10006d66:	4147      	adcs	r7, r0
10006d68:	bc18      	pop	{r3, r4}
10006d6a:	02f9      	lsls	r1, r7, #11
10006d6c:	0d72      	lsrs	r2, r6, #21
10006d6e:	4311      	orrs	r1, r2
10006d70:	02f0      	lsls	r0, r6, #11
10006d72:	0d6a      	lsrs	r2, r5, #21
10006d74:	4310      	orrs	r0, r2
10006d76:	02ed      	lsls	r5, r5, #11
10006d78:	0d0a      	lsrs	r2, r1, #20
10006d7a:	d103      	bne.n	10006d84 <l17_1+0x2c>
10006d7c:	196d      	adds	r5, r5, r5
10006d7e:	4140      	adcs	r0, r0
10006d80:	4149      	adcs	r1, r1
10006d82:	3b01      	subs	r3, #1
10006d84:	4e12      	ldr	r6, [pc, #72]	; (10006dd0 <dm_1+0xa>)
10006d86:	1b9b      	subs	r3, r3, r6
10006d88:	0076      	lsls	r6, r6, #1
10006d8a:	42b3      	cmp	r3, r6
10006d8c:	d20e      	bcs.n	10006dac <dm_0>
10006d8e:	006d      	lsls	r5, r5, #1
10006d90:	d307      	bcc.n	10006da2 <l17_1+0x4a>
10006d92:	3001      	adds	r0, #1
10006d94:	2600      	movs	r6, #0
10006d96:	4171      	adcs	r1, r6
10006d98:	4666      	mov	r6, ip
10006d9a:	4335      	orrs	r5, r6
10006d9c:	d101      	bne.n	10006da2 <l17_1+0x4a>
10006d9e:	0840      	lsrs	r0, r0, #1
10006da0:	0040      	lsls	r0, r0, #1
10006da2:	051b      	lsls	r3, r3, #20
10006da4:	18c9      	adds	r1, r1, r3

10006da6 <dm_2>:
10006da6:	07e4      	lsls	r4, r4, #31
10006da8:	4421      	add	r1, r4
10006daa:	bdf0      	pop	{r4, r5, r6, r7, pc}

10006dac <dm_0>:
10006dac:	da0b      	bge.n	10006dc6 <dm_1>
10006dae:	3301      	adds	r3, #1
10006db0:	d106      	bne.n	10006dc0 <dm_0+0x14>
10006db2:	3001      	adds	r0, #1
10006db4:	d104      	bne.n	10006dc0 <dm_0+0x14>
10006db6:	3101      	adds	r1, #1
10006db8:	0d4f      	lsrs	r7, r1, #21
10006dba:	d001      	beq.n	10006dc0 <dm_0+0x14>
10006dbc:	0849      	lsrs	r1, r1, #1
10006dbe:	e7f2      	b.n	10006da6 <dm_2>
10006dc0:	07e1      	lsls	r1, r4, #31
10006dc2:	2000      	movs	r0, #0
10006dc4:	bdf0      	pop	{r4, r5, r6, r7, pc}

10006dc6 <dm_1>:
10006dc6:	3601      	adds	r6, #1
10006dc8:	0531      	lsls	r1, r6, #20
10006dca:	2000      	movs	r0, #0
10006dcc:	e7eb      	b.n	10006da6 <dm_2>
10006dce:	0000      	.short	0x0000
10006dd0:	000003ff 	.word	0x000003ff

10006dd4 <ddiv_shim>:
10006dd4:	b5f0      	push	{r4, r5, r6, r7, lr}

10006dd6 <ddiv0>:
10006dd6:	0d1c      	lsrs	r4, r3, #20
10006dd8:	1e67      	subs	r7, r4, #1
10006dda:	053f      	lsls	r7, r7, #20
10006ddc:	1bdb      	subs	r3, r3, r7
10006dde:	0ae7      	lsrs	r7, r4, #11
10006de0:	0564      	lsls	r4, r4, #21
10006de2:	0d64      	lsrs	r4, r4, #21
10006de4:	d002      	beq.n	10006dec <l20_1>
10006de6:	1c66      	adds	r6, r4, #1
10006de8:	0af6      	lsrs	r6, r6, #11
10006dea:	d004      	beq.n	10006df6 <l20_2>

10006dec <l20_1>:
10006dec:	2200      	movs	r2, #0
10006dee:	2301      	movs	r3, #1
10006df0:	051b      	lsls	r3, r3, #20
10006df2:	3c80      	subs	r4, #128	; 0x80
10006df4:	0324      	lsls	r4, r4, #12

10006df6 <l20_2>:
10006df6:	25d0      	movs	r5, #208	; 0xd0
10006df8:	062d      	lsls	r5, r5, #24
10006dfa:	2600      	movs	r6, #0
10006dfc:	43f6      	mvns	r6, r6
10006dfe:	662e      	str	r6, [r5, #96]	; 0x60
10006e00:	091e      	lsrs	r6, r3, #4
10006e02:	666e      	str	r6, [r5, #100]	; 0x64
10006e04:	0fce      	lsrs	r6, r1, #31
10006e06:	19f6      	adds	r6, r6, r7
10006e08:	46b4      	mov	ip, r6
10006e0a:	0049      	lsls	r1, r1, #1
10006e0c:	0d4f      	lsrs	r7, r1, #21
10006e0e:	d002      	beq.n	10006e16 <l20_2+0x20>
10006e10:	1c7e      	adds	r6, r7, #1
10006e12:	0af6      	lsrs	r6, r6, #11
10006e14:	d003      	beq.n	10006e1e <l20_2+0x28>
10006e16:	2000      	movs	r0, #0
10006e18:	2100      	movs	r1, #0
10006e1a:	3f40      	subs	r7, #64	; 0x40
10006e1c:	033f      	lsls	r7, r7, #12
10006e1e:	1b3e      	subs	r6, r7, r4
10006e20:	00b6      	lsls	r6, r6, #2
10006e22:	44b4      	add	ip, r6
10006e24:	3f01      	subs	r7, #1
10006e26:	057f      	lsls	r7, r7, #21
10006e28:	1bc9      	subs	r1, r1, r7
10006e2a:	0849      	lsrs	r1, r1, #1
10006e2c:	6f2e      	ldr	r6, [r5, #112]	; 0x70
10006e2e:	3601      	adds	r6, #1
10006e30:	0876      	lsrs	r6, r6, #1
10006e32:	029c      	lsls	r4, r3, #10
10006e34:	0d95      	lsrs	r5, r2, #22
10006e36:	4325      	orrs	r5, r4
10006e38:	4375      	muls	r5, r6
10006e3a:	13ed      	asrs	r5, r5, #15
10006e3c:	4375      	muls	r5, r6
10006e3e:	13ad      	asrs	r5, r5, #14
10006e40:	3501      	adds	r5, #1
10006e42:	106d      	asrs	r5, r5, #1
10006e44:	03f6      	lsls	r6, r6, #15
10006e46:	1b76      	subs	r6, r6, r5
10006e48:	b40c      	push	{r2, r3}
10006e4a:	02cc      	lsls	r4, r1, #11
10006e4c:	0d45      	lsrs	r5, r0, #21
10006e4e:	432c      	orrs	r4, r5
10006e50:	b2a2      	uxth	r2, r4
10006e52:	b2b3      	uxth	r3, r6
10006e54:	435a      	muls	r2, r3
10006e56:	0c27      	lsrs	r7, r4, #16
10006e58:	437b      	muls	r3, r7
10006e5a:	0c35      	lsrs	r5, r6, #16
10006e5c:	436f      	muls	r7, r5
10006e5e:	b2a4      	uxth	r4, r4
10006e60:	436c      	muls	r4, r5
10006e62:	191b      	adds	r3, r3, r4
10006e64:	d302      	bcc.n	10006e6c <l21_1>
10006e66:	2401      	movs	r4, #1
10006e68:	0424      	lsls	r4, r4, #16
10006e6a:	193f      	adds	r7, r7, r4

10006e6c <l21_1>:
10006e6c:	041c      	lsls	r4, r3, #16
10006e6e:	0c1d      	lsrs	r5, r3, #16
10006e70:	18a4      	adds	r4, r4, r2
10006e72:	417d      	adcs	r5, r7
10006e74:	1924      	adds	r4, r4, r4
10006e76:	416d      	adcs	r5, r5
10006e78:	9a00      	ldr	r2, [sp, #0]
10006e7a:	b291      	uxth	r1, r2
10006e7c:	b2ac      	uxth	r4, r5
10006e7e:	4361      	muls	r1, r4
10006e80:	0c17      	lsrs	r7, r2, #16
10006e82:	437c      	muls	r4, r7
10006e84:	0c2b      	lsrs	r3, r5, #16
10006e86:	435f      	muls	r7, r3
10006e88:	b292      	uxth	r2, r2
10006e8a:	435a      	muls	r2, r3
10006e8c:	18a4      	adds	r4, r4, r2
10006e8e:	d302      	bcc.n	10006e96 <l22_1>
10006e90:	2201      	movs	r2, #1
10006e92:	0412      	lsls	r2, r2, #16
10006e94:	18bf      	adds	r7, r7, r2

10006e96 <l22_1>:
10006e96:	0422      	lsls	r2, r4, #16
10006e98:	0c23      	lsrs	r3, r4, #16
10006e9a:	1852      	adds	r2, r2, r1
10006e9c:	417b      	adcs	r3, r7
10006e9e:	9c01      	ldr	r4, [sp, #4]
10006ea0:	436c      	muls	r4, r5
10006ea2:	191b      	adds	r3, r3, r4
10006ea4:	0e52      	lsrs	r2, r2, #25
10006ea6:	01d9      	lsls	r1, r3, #7
10006ea8:	430a      	orrs	r2, r1
10006eaa:	0144      	lsls	r4, r0, #5
10006eac:	1aa0      	subs	r0, r4, r2
10006eae:	b281      	uxth	r1, r0
10006eb0:	b2b2      	uxth	r2, r6
10006eb2:	4351      	muls	r1, r2
10006eb4:	1403      	asrs	r3, r0, #16
10006eb6:	435a      	muls	r2, r3
10006eb8:	0c36      	lsrs	r6, r6, #16
10006eba:	4373      	muls	r3, r6
10006ebc:	b287      	uxth	r7, r0
10006ebe:	4377      	muls	r7, r6
10006ec0:	17d6      	asrs	r6, r2, #31
10006ec2:	19d2      	adds	r2, r2, r7
10006ec4:	2700      	movs	r7, #0
10006ec6:	417e      	adcs	r6, r7
10006ec8:	0436      	lsls	r6, r6, #16
10006eca:	199b      	adds	r3, r3, r6
10006ecc:	0417      	lsls	r7, r2, #16
10006ece:	0c16      	lsrs	r6, r2, #16
10006ed0:	187f      	adds	r7, r7, r1
10006ed2:	415e      	adcs	r6, r3
10006ed4:	1673      	asrs	r3, r6, #25
10006ed6:	18ed      	adds	r5, r5, r3
10006ed8:	01f3      	lsls	r3, r6, #7
10006eda:	2600      	movs	r6, #0
10006edc:	3380      	adds	r3, #128	; 0x80
10006ede:	4175      	adcs	r5, r6
10006ee0:	0fa9      	lsrs	r1, r5, #30
10006ee2:	d106      	bne.n	10006ef2 <dd_0>
10006ee4:	0064      	lsls	r4, r4, #1
10006ee6:	0a69      	lsrs	r1, r5, #9
10006ee8:	05e8      	lsls	r0, r5, #23
10006eea:	0a5b      	lsrs	r3, r3, #9
10006eec:	4318      	orrs	r0, r3
10006eee:	d209      	bcs.n	10006f04 <dd_1>
10006ef0:	e02f      	b.n	10006f52 <dd_2>

10006ef2 <dd_0>:
10006ef2:	2204      	movs	r2, #4
10006ef4:	4494      	add	ip, r2
10006ef6:	3380      	adds	r3, #128	; 0x80
10006ef8:	4175      	adcs	r5, r6
10006efa:	0aa9      	lsrs	r1, r5, #10
10006efc:	05a8      	lsls	r0, r5, #22
10006efe:	0a9b      	lsrs	r3, r3, #10
10006f00:	4318      	orrs	r0, r3
10006f02:	d326      	bcc.n	10006f52 <dd_2>

10006f04 <dd_1>:
10006f04:	4140      	adcs	r0, r0
10006f06:	4149      	adcs	r1, r1
10006f08:	0424      	lsls	r4, r4, #16
10006f0a:	9a00      	ldr	r2, [sp, #0]
10006f0c:	9b01      	ldr	r3, [sp, #4]
10006f0e:	000d      	movs	r5, r1
10006f10:	4355      	muls	r5, r2
10006f12:	1b64      	subs	r4, r4, r5
10006f14:	4343      	muls	r3, r0
10006f16:	1ae4      	subs	r4, r4, r3
10006f18:	b295      	uxth	r5, r2
10006f1a:	b286      	uxth	r6, r0
10006f1c:	4375      	muls	r5, r6
10006f1e:	0c17      	lsrs	r7, r2, #16
10006f20:	437e      	muls	r6, r7
10006f22:	0c03      	lsrs	r3, r0, #16
10006f24:	435f      	muls	r7, r3
10006f26:	b292      	uxth	r2, r2
10006f28:	435a      	muls	r2, r3
10006f2a:	18b6      	adds	r6, r6, r2
10006f2c:	d302      	bcc.n	10006f34 <l24_1>
10006f2e:	2201      	movs	r2, #1
10006f30:	0412      	lsls	r2, r2, #16
10006f32:	18bf      	adds	r7, r7, r2

10006f34 <l24_1>:
10006f34:	0432      	lsls	r2, r6, #16
10006f36:	0c33      	lsrs	r3, r6, #16
10006f38:	1952      	adds	r2, r2, r5
10006f3a:	417b      	adcs	r3, r7
10006f3c:	4252      	negs	r2, r2
10006f3e:	419c      	sbcs	r4, r3
10006f40:	2c00      	cmp	r4, #0
10006f42:	d402      	bmi.n	10006f4a <l24_1+0x16>
10006f44:	2200      	movs	r2, #0
10006f46:	3001      	adds	r0, #1
10006f48:	4151      	adcs	r1, r2
10006f4a:	0840      	lsrs	r0, r0, #1
10006f4c:	07ca      	lsls	r2, r1, #31
10006f4e:	4310      	orrs	r0, r2
10006f50:	0849      	lsrs	r1, r1, #1

10006f52 <dd_2>:
10006f52:	b002      	add	sp, #8
10006f54:	4662      	mov	r2, ip
10006f56:	07d7      	lsls	r7, r2, #31
10006f58:	1092      	asrs	r2, r2, #2
10006f5a:	4b08      	ldr	r3, [pc, #32]	; (10006f7c <dd_4+0x6>)
10006f5c:	18d2      	adds	r2, r2, r3
10006f5e:	4b08      	ldr	r3, [pc, #32]	; (10006f80 <dd_4+0xa>)
10006f60:	429a      	cmp	r2, r3
10006f62:	d203      	bcs.n	10006f6c <dd_3>
10006f64:	0512      	lsls	r2, r2, #20
10006f66:	1889      	adds	r1, r1, r2

10006f68 <dd_5>:
10006f68:	19c9      	adds	r1, r1, r7
10006f6a:	bdf0      	pop	{r4, r5, r6, r7, pc}

10006f6c <dd_3>:
10006f6c:	2000      	movs	r0, #0
10006f6e:	2a00      	cmp	r2, #0
10006f70:	dc01      	bgt.n	10006f76 <dd_4>
10006f72:	0039      	movs	r1, r7
10006f74:	bdf0      	pop	{r4, r5, r6, r7, pc}

10006f76 <dd_4>:
10006f76:	3301      	adds	r3, #1
10006f78:	0519      	lsls	r1, r3, #20
10006f7a:	e7f5      	b.n	10006f68 <dd_5>
10006f7c:	000003fd 	.word	0x000003fd
10006f80:	000007fe 	.word	0x000007fe

10006f84 <double2uint_shim>:
10006f84:	2200      	movs	r2, #0

10006f86 <double2ufix_shim>:
10006f86:	b500      	push	{lr}
10006f88:	3220      	adds	r2, #32
10006f8a:	f000 f804 	bl	10006f96 <double2ufix64_shim>
10006f8e:	0008      	movs	r0, r1
10006f90:	bd00      	pop	{pc}
	...

10006f94 <double2uint64_shim>:
10006f94:	2200      	movs	r2, #0

10006f96 <double2ufix64_shim>:
10006f96:	150b      	asrs	r3, r1, #20
10006f98:	d40a      	bmi.n	10006fb0 <ret_dzero>

10006f9a <d2fix>:
10006f9a:	b510      	push	{r4, lr}
10006f9c:	4694      	mov	ip, r2
10006f9e:	f000 f831 	bl	10007004 <dunpacks>
10006fa2:	1414      	asrs	r4, r2, #16
10006fa4:	3401      	adds	r4, #1
10006fa6:	da00      	bge.n	10006faa <d2fix+0x10>
10006fa8:	2100      	movs	r1, #0
10006faa:	17cb      	asrs	r3, r1, #31
10006fac:	4c14      	ldr	r4, [pc, #80]	; (10007000 <d2fix_a+0x4a>)
10006fae:	4720      	bx	r4

10006fb0 <ret_dzero>:
10006fb0:	2000      	movs	r0, #0
10006fb2:	2100      	movs	r1, #0
10006fb4:	4770      	bx	lr

10006fb6 <d2fix_a>:
10006fb6:	4462      	add	r2, ip
10006fb8:	3a34      	subs	r2, #52	; 0x34
10006fba:	d40c      	bmi.n	10006fd6 <d2fix_a+0x20>
10006fbc:	2a0c      	cmp	r2, #12
10006fbe:	da07      	bge.n	10006fd0 <d2fix_a+0x1a>
10006fc0:	0004      	movs	r4, r0
10006fc2:	4091      	lsls	r1, r2
10006fc4:	4090      	lsls	r0, r2
10006fc6:	4252      	negs	r2, r2
10006fc8:	3220      	adds	r2, #32
10006fca:	40d4      	lsrs	r4, r2
10006fcc:	4321      	orrs	r1, r4
10006fce:	bd10      	pop	{r4, pc}
10006fd0:	43d8      	mvns	r0, r3
10006fd2:	43d9      	mvns	r1, r3
10006fd4:	bd10      	pop	{r4, pc}
10006fd6:	3220      	adds	r2, #32
10006fd8:	d407      	bmi.n	10006fea <d2fix_a+0x34>
10006fda:	460c      	mov	r4, r1
10006fdc:	4094      	lsls	r4, r2
10006fde:	4252      	negs	r2, r2
10006fe0:	3220      	adds	r2, #32
10006fe2:	4111      	asrs	r1, r2
10006fe4:	40d0      	lsrs	r0, r2
10006fe6:	4320      	orrs	r0, r4
10006fe8:	bd10      	pop	{r4, pc}
10006fea:	0008      	movs	r0, r1
10006fec:	17c9      	asrs	r1, r1, #31
10006fee:	3220      	adds	r2, #32
10006ff0:	d403      	bmi.n	10006ffa <d2fix_a+0x44>
10006ff2:	4252      	negs	r2, r2
10006ff4:	3220      	adds	r2, #32
10006ff6:	4110      	asrs	r0, r2
10006ff8:	bd10      	pop	{r4, pc}
10006ffa:	0018      	movs	r0, r3
10006ffc:	0019      	movs	r1, r3
10006ffe:	bd10      	pop	{r4, pc}
10007000:	10006fb7 	.word	0x10006fb7

10007004 <dunpacks>:
10007004:	0d0a      	lsrs	r2, r1, #20
10007006:	0fcc      	lsrs	r4, r1, #31
10007008:	1e53      	subs	r3, r2, #1
1000700a:	051b      	lsls	r3, r3, #20
1000700c:	1ac9      	subs	r1, r1, r3
1000700e:	0552      	lsls	r2, r2, #21
10007010:	d303      	bcc.n	1000701a <l60_1>
10007012:	43c9      	mvns	r1, r1
10007014:	4240      	negs	r0, r0
10007016:	d300      	bcc.n	1000701a <l60_1>
10007018:	3101      	adds	r1, #1

1000701a <l60_1>:
1000701a:	0d52      	lsrs	r2, r2, #21
1000701c:	d003      	beq.n	10007026 <l60_2>
1000701e:	1c53      	adds	r3, r2, #1
10007020:	0adb      	lsrs	r3, r3, #11
10007022:	d007      	beq.n	10007034 <l60_3>
10007024:	1b12      	subs	r2, r2, r4

10007026 <l60_2>:
10007026:	2000      	movs	r0, #0
10007028:	0064      	lsls	r4, r4, #1
1000702a:	1c61      	adds	r1, r4, #1
1000702c:	0789      	lsls	r1, r1, #30
1000702e:	1289      	asrs	r1, r1, #10
10007030:	3a80      	subs	r2, #128	; 0x80
10007032:	0312      	lsls	r2, r2, #12

10007034 <l60_3>:
10007034:	4b01      	ldr	r3, [pc, #4]	; (1000703c <l60_3+0x8>)
10007036:	1ad2      	subs	r2, r2, r3
10007038:	4770      	bx	lr
1000703a:	0000      	.short	0x0000
1000703c:	000003ff 	.word	0x000003ff

10007040 <__wrap___aeabi_lmul>:
10007040:	4351      	muls	r1, r2
10007042:	4343      	muls	r3, r0
10007044:	18c9      	adds	r1, r1, r3
10007046:	468c      	mov	ip, r1
10007048:	0c11      	lsrs	r1, r2, #16
1000704a:	b283      	uxth	r3, r0
1000704c:	434b      	muls	r3, r1
1000704e:	b410      	push	{r4}
10007050:	0c04      	lsrs	r4, r0, #16
10007052:	4361      	muls	r1, r4
10007054:	b292      	uxth	r2, r2
10007056:	b280      	uxth	r0, r0
10007058:	4350      	muls	r0, r2
1000705a:	4362      	muls	r2, r4
1000705c:	041c      	lsls	r4, r3, #16
1000705e:	0c1b      	lsrs	r3, r3, #16
10007060:	1900      	adds	r0, r0, r4
10007062:	bc10      	pop	{r4}
10007064:	4159      	adcs	r1, r3
10007066:	0413      	lsls	r3, r2, #16
10007068:	0c12      	lsrs	r2, r2, #16
1000706a:	18c0      	adds	r0, r0, r3
1000706c:	4151      	adcs	r1, r2
1000706e:	4461      	add	r1, ip
10007070:	4770      	bx	lr
	...

10007074 <__aeabi_float_init>:
10007074:	2313      	movs	r3, #19
10007076:	b510      	push	{r4, lr}
10007078:	4812      	ldr	r0, [pc, #72]	; (100070c4 <__aeabi_float_init+0x50>)
1000707a:	781c      	ldrb	r4, [r3, #0]
1000707c:	f7fe ff42 	bl	10005f04 <rom_data_lookup>
10007080:	0001      	movs	r1, r0
10007082:	2c01      	cmp	r4, #1
10007084:	d00a      	beq.n	1000709c <__aeabi_float_init+0x28>
10007086:	dd03      	ble.n	10007090 <__aeabi_float_init+0x1c>
10007088:	2280      	movs	r2, #128	; 0x80
1000708a:	480f      	ldr	r0, [pc, #60]	; (100070c8 <__aeabi_float_init+0x54>)
1000708c:	f000 f848 	bl	10007120 <__wrap___aeabi_memcpy>
10007090:	480e      	ldr	r0, [pc, #56]	; (100070cc <__aeabi_float_init+0x58>)
10007092:	f7fe ff2f 	bl	10005ef4 <rom_func_lookup>
10007096:	4b0e      	ldr	r3, [pc, #56]	; (100070d0 <__aeabi_float_init+0x5c>)
10007098:	6018      	str	r0, [r3, #0]
1000709a:	bd10      	pop	{r4, pc}
1000709c:	4c0a      	ldr	r4, [pc, #40]	; (100070c8 <__aeabi_float_init+0x54>)
1000709e:	2254      	movs	r2, #84	; 0x54
100070a0:	0020      	movs	r0, r4
100070a2:	f000 f83d 	bl	10007120 <__wrap___aeabi_memcpy>
100070a6:	4b0b      	ldr	r3, [pc, #44]	; (100070d4 <__aeabi_float_init+0x60>)
100070a8:	6563      	str	r3, [r4, #84]	; 0x54
100070aa:	65a3      	str	r3, [r4, #88]	; 0x58
100070ac:	65e3      	str	r3, [r4, #92]	; 0x5c
100070ae:	6623      	str	r3, [r4, #96]	; 0x60
100070b0:	6663      	str	r3, [r4, #100]	; 0x64
100070b2:	66a3      	str	r3, [r4, #104]	; 0x68
100070b4:	66e3      	str	r3, [r4, #108]	; 0x6c
100070b6:	6723      	str	r3, [r4, #112]	; 0x70
100070b8:	6763      	str	r3, [r4, #116]	; 0x74
100070ba:	67a3      	str	r3, [r4, #120]	; 0x78
100070bc:	67e3      	str	r3, [r4, #124]	; 0x7c
100070be:	6223      	str	r3, [r4, #32]
100070c0:	61e3      	str	r3, [r4, #28]
100070c2:	e7e5      	b.n	10007090 <__aeabi_float_init+0x1c>
100070c4:	00004653 	.word	0x00004653
100070c8:	200005c0 	.word	0x200005c0
100070cc:	0000334c 	.word	0x0000334c
100070d0:	20000a18 	.word	0x20000a18
100070d4:	100070d9 	.word	0x100070d9

100070d8 <float_table_shim_on_use_helper>:
100070d8:	b507      	push	{r0, r1, r2, lr}
100070da:	4660      	mov	r0, ip
100070dc:	8801      	ldrh	r1, [r0, #0]
100070de:	0a0a      	lsrs	r2, r1, #8
100070e0:	3002      	adds	r0, #2
100070e2:	2adf      	cmp	r2, #223	; 0xdf
100070e4:	d1fa      	bne.n	100070dc <float_table_shim_on_use_helper+0x4>
100070e6:	b2c9      	uxtb	r1, r1
100070e8:	0882      	lsrs	r2, r0, #2
100070ea:	d304      	bcc.n	100070f6 <float_table_shim_on_use_helper+0x1e>
100070ec:	8802      	ldrh	r2, [r0, #0]
100070ee:	8840      	ldrh	r0, [r0, #2]
100070f0:	0400      	lsls	r0, r0, #16
100070f2:	4310      	orrs	r0, r2
100070f4:	e000      	b.n	100070f8 <float_table_shim_on_use_helper+0x20>
100070f6:	6800      	ldr	r0, [r0, #0]
100070f8:	4a01      	ldr	r2, [pc, #4]	; (10007100 <float_table_shim_on_use_helper+0x28>)
100070fa:	5050      	str	r0, [r2, r1]
100070fc:	9003      	str	r0, [sp, #12]
100070fe:	bd07      	pop	{r0, r1, r2, pc}
10007100:	200005c0 	.word	0x200005c0

10007104 <__aeabi_mem_init>:
10007104:	4801      	ldr	r0, [pc, #4]	; (1000710c <__aeabi_mem_init+0x8>)
10007106:	2104      	movs	r1, #4
10007108:	4b01      	ldr	r3, [pc, #4]	; (10007110 <__aeabi_mem_init+0xc>)
1000710a:	4718      	bx	r3
1000710c:	200002d0 	.word	0x200002d0
10007110:	10005f15 	.word	0x10005f15

10007114 <__wrap_memset>:
10007114:	4b01      	ldr	r3, [pc, #4]	; (1000711c <__wrap_memset+0x8>)
10007116:	681b      	ldr	r3, [r3, #0]
10007118:	4718      	bx	r3
1000711a:	0000      	.short	0x0000
1000711c:	200002d0 	.word	0x200002d0

10007120 <__wrap___aeabi_memcpy>:
10007120:	4b01      	ldr	r3, [pc, #4]	; (10007128 <__wrap___aeabi_memcpy+0x8>)
10007122:	685b      	ldr	r3, [r3, #4]
10007124:	4718      	bx	r3
10007126:	0000      	.short	0x0000
10007128:	200002d0 	.word	0x200002d0

1000712c <_out_null>:
1000712c:	4770      	bx	lr
1000712e:	46c0      	nop			; (mov r8, r8)

10007130 <_out_rev>:
10007130:	b5f8      	push	{r3, r4, r5, r6, r7, lr}
10007132:	4657      	mov	r7, sl
10007134:	464e      	mov	r6, r9
10007136:	4645      	mov	r5, r8
10007138:	46de      	mov	lr, fp
1000713a:	b5e0      	push	{r5, r6, r7, lr}
1000713c:	4699      	mov	r9, r3
1000713e:	9b0a      	ldr	r3, [sp, #40]	; 0x28
10007140:	0007      	movs	r7, r0
10007142:	469a      	mov	sl, r3
10007144:	9b0d      	ldr	r3, [sp, #52]	; 0x34
10007146:	4688      	mov	r8, r1
10007148:	4693      	mov	fp, r2
1000714a:	0015      	movs	r5, r2
1000714c:	9e0b      	ldr	r6, [sp, #44]	; 0x2c
1000714e:	079b      	lsls	r3, r3, #30
10007150:	d110      	bne.n	10007174 <_out_rev+0x44>
10007152:	9b0c      	ldr	r3, [sp, #48]	; 0x30
10007154:	429e      	cmp	r6, r3
10007156:	d20d      	bcs.n	10007174 <_out_rev+0x44>
10007158:	1b9d      	subs	r5, r3, r6
1000715a:	0014      	movs	r4, r2
1000715c:	000e      	movs	r6, r1
1000715e:	445d      	add	r5, fp
10007160:	0022      	movs	r2, r4
10007162:	464b      	mov	r3, r9
10007164:	3401      	adds	r4, #1
10007166:	0031      	movs	r1, r6
10007168:	2020      	movs	r0, #32
1000716a:	47b8      	blx	r7
1000716c:	42a5      	cmp	r5, r4
1000716e:	d1f7      	bne.n	10007160 <_out_rev+0x30>
10007170:	46b0      	mov	r8, r6
10007172:	9e0b      	ldr	r6, [sp, #44]	; 0x2c
10007174:	2e00      	cmp	r6, #0
10007176:	d027      	beq.n	100071c8 <_out_rev+0x98>
10007178:	4644      	mov	r4, r8
1000717a:	1975      	adds	r5, r6, r5
1000717c:	4653      	mov	r3, sl
1000717e:	1baa      	subs	r2, r5, r6
10007180:	3e01      	subs	r6, #1
10007182:	5d98      	ldrb	r0, [r3, r6]
10007184:	0021      	movs	r1, r4
10007186:	464b      	mov	r3, r9
10007188:	47b8      	blx	r7
1000718a:	2e00      	cmp	r6, #0
1000718c:	d1f6      	bne.n	1000717c <_out_rev+0x4c>
1000718e:	0023      	movs	r3, r4
10007190:	002c      	movs	r4, r5
10007192:	4698      	mov	r8, r3
10007194:	9b0d      	ldr	r3, [sp, #52]	; 0x34
10007196:	079b      	lsls	r3, r3, #30
10007198:	d50f      	bpl.n	100071ba <_out_rev+0x8a>
1000719a:	465b      	mov	r3, fp
1000719c:	1ae5      	subs	r5, r4, r3
1000719e:	9b0c      	ldr	r3, [sp, #48]	; 0x30
100071a0:	42ab      	cmp	r3, r5
100071a2:	d90a      	bls.n	100071ba <_out_rev+0x8a>
100071a4:	4646      	mov	r6, r8
100071a6:	4698      	mov	r8, r3
100071a8:	0022      	movs	r2, r4
100071aa:	464b      	mov	r3, r9
100071ac:	0031      	movs	r1, r6
100071ae:	2020      	movs	r0, #32
100071b0:	3501      	adds	r5, #1
100071b2:	47b8      	blx	r7
100071b4:	3401      	adds	r4, #1
100071b6:	45a8      	cmp	r8, r5
100071b8:	d8f6      	bhi.n	100071a8 <_out_rev+0x78>
100071ba:	0020      	movs	r0, r4
100071bc:	bcf0      	pop	{r4, r5, r6, r7}
100071be:	46bb      	mov	fp, r7
100071c0:	46b2      	mov	sl, r6
100071c2:	46a9      	mov	r9, r5
100071c4:	46a0      	mov	r8, r4
100071c6:	bdf8      	pop	{r3, r4, r5, r6, r7, pc}
100071c8:	002c      	movs	r4, r5
100071ca:	e7e3      	b.n	10007194 <_out_rev+0x64>

100071cc <_ntoa_format>:
100071cc:	b5f0      	push	{r4, r5, r6, r7, lr}
100071ce:	464f      	mov	r7, r9
100071d0:	4646      	mov	r6, r8
100071d2:	46d6      	mov	lr, sl
100071d4:	b5c0      	push	{r6, r7, lr}
100071d6:	b084      	sub	sp, #16
100071d8:	4698      	mov	r8, r3
100071da:	ab0e      	add	r3, sp, #56	; 0x38
100071dc:	781b      	ldrb	r3, [r3, #0]
100071de:	9f12      	ldr	r7, [sp, #72]	; 0x48
100071e0:	4699      	mov	r9, r3
100071e2:	4694      	mov	ip, r2
100071e4:	9c0d      	ldr	r4, [sp, #52]	; 0x34
100071e6:	9b10      	ldr	r3, [sp, #64]	; 0x40
100071e8:	9e11      	ldr	r6, [sp, #68]	; 0x44
100071ea:	07ba      	lsls	r2, r7, #30
100071ec:	d425      	bmi.n	1000723a <_ntoa_format+0x6e>
100071ee:	2e00      	cmp	r6, #0
100071f0:	d14b      	bne.n	1000728a <_ntoa_format+0xbe>
100071f2:	429c      	cmp	r4, r3
100071f4:	d300      	bcc.n	100071f8 <_ntoa_format+0x2c>
100071f6:	e0bf      	b.n	10007378 <_ntoa_format+0x1ac>
100071f8:	2201      	movs	r2, #1
100071fa:	403a      	ands	r2, r7
100071fc:	4692      	mov	sl, r2
100071fe:	2c1f      	cmp	r4, #31
10007200:	d900      	bls.n	10007204 <_ntoa_format+0x38>
10007202:	e0b8      	b.n	10007376 <_ntoa_format+0x1aa>
10007204:	9a0c      	ldr	r2, [sp, #48]	; 0x30
10007206:	1e55      	subs	r5, r2, #1
10007208:	2230      	movs	r2, #48	; 0x30
1000720a:	e001      	b.n	10007210 <_ntoa_format+0x44>
1000720c:	2c20      	cmp	r4, #32
1000720e:	d003      	beq.n	10007218 <_ntoa_format+0x4c>
10007210:	3401      	adds	r4, #1
10007212:	552a      	strb	r2, [r5, r4]
10007214:	42a3      	cmp	r3, r4
10007216:	d8f9      	bhi.n	1000720c <_ntoa_format+0x40>
10007218:	4652      	mov	r2, sl
1000721a:	2a00      	cmp	r2, #0
1000721c:	d00d      	beq.n	1000723a <_ntoa_format+0x6e>
1000721e:	42a6      	cmp	r6, r4
10007220:	d90b      	bls.n	1000723a <_ntoa_format+0x6e>
10007222:	2c20      	cmp	r4, #32
10007224:	d044      	beq.n	100072b0 <_ntoa_format+0xe4>
10007226:	9a0c      	ldr	r2, [sp, #48]	; 0x30
10007228:	1e55      	subs	r5, r2, #1
1000722a:	2230      	movs	r2, #48	; 0x30
1000722c:	e001      	b.n	10007232 <_ntoa_format+0x66>
1000722e:	2c20      	cmp	r4, #32
10007230:	d03e      	beq.n	100072b0 <_ntoa_format+0xe4>
10007232:	3401      	adds	r4, #1
10007234:	552a      	strb	r2, [r5, r4]
10007236:	42b4      	cmp	r4, r6
10007238:	d1f9      	bne.n	1000722e <_ntoa_format+0x62>
1000723a:	06fa      	lsls	r2, r7, #27
1000723c:	d54d      	bpl.n	100072da <_ntoa_format+0x10e>
1000723e:	057a      	lsls	r2, r7, #21
10007240:	d43f      	bmi.n	100072c2 <_ntoa_format+0xf6>
10007242:	2c00      	cmp	r4, #0
10007244:	d139      	bne.n	100072ba <_ntoa_format+0xee>
10007246:	9b0f      	ldr	r3, [sp, #60]	; 0x3c
10007248:	2b10      	cmp	r3, #16
1000724a:	d100      	bne.n	1000724e <_ntoa_format+0x82>
1000724c:	e079      	b.n	10007342 <_ntoa_format+0x176>
1000724e:	9b0f      	ldr	r3, [sp, #60]	; 0x3c
10007250:	2b02      	cmp	r3, #2
10007252:	d100      	bne.n	10007256 <_ntoa_format+0x8a>
10007254:	e08a      	b.n	1000736c <_ntoa_format+0x1a0>
10007256:	2330      	movs	r3, #48	; 0x30
10007258:	9a0c      	ldr	r2, [sp, #48]	; 0x30
1000725a:	2401      	movs	r4, #1
1000725c:	7013      	strb	r3, [r2, #0]
1000725e:	464b      	mov	r3, r9
10007260:	2b00      	cmp	r3, #0
10007262:	d03f      	beq.n	100072e4 <_ntoa_format+0x118>
10007264:	232d      	movs	r3, #45	; 0x2d
10007266:	9a0c      	ldr	r2, [sp, #48]	; 0x30
10007268:	5513      	strb	r3, [r2, r4]
1000726a:	3401      	adds	r4, #1
1000726c:	9b0c      	ldr	r3, [sp, #48]	; 0x30
1000726e:	4662      	mov	r2, ip
10007270:	9300      	str	r3, [sp, #0]
10007272:	9703      	str	r7, [sp, #12]
10007274:	4643      	mov	r3, r8
10007276:	9602      	str	r6, [sp, #8]
10007278:	9401      	str	r4, [sp, #4]
1000727a:	f7ff ff59 	bl	10007130 <_out_rev>
1000727e:	b004      	add	sp, #16
10007280:	bce0      	pop	{r5, r6, r7}
10007282:	46ba      	mov	sl, r7
10007284:	46b1      	mov	r9, r6
10007286:	46a8      	mov	r8, r5
10007288:	bdf0      	pop	{r4, r5, r6, r7, pc}
1000728a:	2201      	movs	r2, #1
1000728c:	0015      	movs	r5, r2
1000728e:	403d      	ands	r5, r7
10007290:	46aa      	mov	sl, r5
10007292:	423a      	tst	r2, r7
10007294:	d02f      	beq.n	100072f6 <_ntoa_format+0x12a>
10007296:	464a      	mov	r2, r9
10007298:	2a00      	cmp	r2, #0
1000729a:	d102      	bne.n	100072a2 <_ntoa_format+0xd6>
1000729c:	320c      	adds	r2, #12
1000729e:	423a      	tst	r2, r7
100072a0:	d000      	beq.n	100072a4 <_ntoa_format+0xd8>
100072a2:	3e01      	subs	r6, #1
100072a4:	429c      	cmp	r4, r3
100072a6:	d2ba      	bcs.n	1000721e <_ntoa_format+0x52>
100072a8:	2c1f      	cmp	r4, #31
100072aa:	d9ab      	bls.n	10007204 <_ntoa_format+0x38>
100072ac:	2e20      	cmp	r6, #32
100072ae:	d927      	bls.n	10007300 <_ntoa_format+0x134>
100072b0:	2420      	movs	r4, #32
100072b2:	06fa      	lsls	r2, r7, #27
100072b4:	d5da      	bpl.n	1000726c <_ntoa_format+0xa0>
100072b6:	057a      	lsls	r2, r7, #21
100072b8:	d403      	bmi.n	100072c2 <_ntoa_format+0xf6>
100072ba:	42a3      	cmp	r3, r4
100072bc:	d02d      	beq.n	1000731a <_ntoa_format+0x14e>
100072be:	42a6      	cmp	r6, r4
100072c0:	d02b      	beq.n	1000731a <_ntoa_format+0x14e>
100072c2:	9b0f      	ldr	r3, [sp, #60]	; 0x3c
100072c4:	2b10      	cmp	r3, #16
100072c6:	d032      	beq.n	1000732e <_ntoa_format+0x162>
100072c8:	2b02      	cmp	r3, #2
100072ca:	d020      	beq.n	1000730e <_ntoa_format+0x142>
100072cc:	2c20      	cmp	r4, #32
100072ce:	d0cd      	beq.n	1000726c <_ntoa_format+0xa0>
100072d0:	2230      	movs	r2, #48	; 0x30
100072d2:	9b0c      	ldr	r3, [sp, #48]	; 0x30
100072d4:	191b      	adds	r3, r3, r4
100072d6:	701a      	strb	r2, [r3, #0]
100072d8:	3401      	adds	r4, #1
100072da:	2c20      	cmp	r4, #32
100072dc:	d0c6      	beq.n	1000726c <_ntoa_format+0xa0>
100072de:	464b      	mov	r3, r9
100072e0:	2b00      	cmp	r3, #0
100072e2:	d1bf      	bne.n	10007264 <_ntoa_format+0x98>
100072e4:	077b      	lsls	r3, r7, #29
100072e6:	d40d      	bmi.n	10007304 <_ntoa_format+0x138>
100072e8:	073b      	lsls	r3, r7, #28
100072ea:	d5bf      	bpl.n	1000726c <_ntoa_format+0xa0>
100072ec:	2320      	movs	r3, #32
100072ee:	9a0c      	ldr	r2, [sp, #48]	; 0x30
100072f0:	5513      	strb	r3, [r2, r4]
100072f2:	3401      	adds	r4, #1
100072f4:	e7ba      	b.n	1000726c <_ntoa_format+0xa0>
100072f6:	429c      	cmp	r4, r3
100072f8:	d29f      	bcs.n	1000723a <_ntoa_format+0x6e>
100072fa:	2c1f      	cmp	r4, #31
100072fc:	d800      	bhi.n	10007300 <_ntoa_format+0x134>
100072fe:	e781      	b.n	10007204 <_ntoa_format+0x38>
10007300:	2420      	movs	r4, #32
10007302:	e79a      	b.n	1000723a <_ntoa_format+0x6e>
10007304:	232b      	movs	r3, #43	; 0x2b
10007306:	9a0c      	ldr	r2, [sp, #48]	; 0x30
10007308:	5513      	strb	r3, [r2, r4]
1000730a:	3401      	adds	r4, #1
1000730c:	e7ae      	b.n	1000726c <_ntoa_format+0xa0>
1000730e:	2c20      	cmp	r4, #32
10007310:	d0ac      	beq.n	1000726c <_ntoa_format+0xa0>
10007312:	9b0c      	ldr	r3, [sp, #48]	; 0x30
10007314:	191b      	adds	r3, r3, r4
10007316:	3401      	adds	r4, #1
10007318:	e03a      	b.n	10007390 <_ntoa_format+0x1c4>
1000731a:	1e63      	subs	r3, r4, #1
1000731c:	2c01      	cmp	r4, #1
1000731e:	d092      	beq.n	10007246 <_ntoa_format+0x7a>
10007320:	9a0f      	ldr	r2, [sp, #60]	; 0x3c
10007322:	2a10      	cmp	r2, #16
10007324:	d02a      	beq.n	1000737c <_ntoa_format+0x1b0>
10007326:	2a02      	cmp	r2, #2
10007328:	d02f      	beq.n	1000738a <_ntoa_format+0x1be>
1000732a:	001c      	movs	r4, r3
1000732c:	e7d0      	b.n	100072d0 <_ntoa_format+0x104>
1000732e:	06bb      	lsls	r3, r7, #26
10007330:	d40e      	bmi.n	10007350 <_ntoa_format+0x184>
10007332:	2c20      	cmp	r4, #32
10007334:	d09a      	beq.n	1000726c <_ntoa_format+0xa0>
10007336:	9b0c      	ldr	r3, [sp, #48]	; 0x30
10007338:	191a      	adds	r2, r3, r4
1000733a:	3401      	adds	r4, #1
1000733c:	2378      	movs	r3, #120	; 0x78
1000733e:	7013      	strb	r3, [r2, #0]
10007340:	e7c4      	b.n	100072cc <_ntoa_format+0x100>
10007342:	06bb      	lsls	r3, r7, #26
10007344:	d40d      	bmi.n	10007362 <_ntoa_format+0x196>
10007346:	2378      	movs	r3, #120	; 0x78
10007348:	9a0c      	ldr	r2, [sp, #48]	; 0x30
1000734a:	2401      	movs	r4, #1
1000734c:	7013      	strb	r3, [r2, #0]
1000734e:	e7bf      	b.n	100072d0 <_ntoa_format+0x104>
10007350:	2c20      	cmp	r4, #32
10007352:	d100      	bne.n	10007356 <_ntoa_format+0x18a>
10007354:	e78a      	b.n	1000726c <_ntoa_format+0xa0>
10007356:	2258      	movs	r2, #88	; 0x58
10007358:	9b0c      	ldr	r3, [sp, #48]	; 0x30
1000735a:	191b      	adds	r3, r3, r4
1000735c:	701a      	strb	r2, [r3, #0]
1000735e:	3401      	adds	r4, #1
10007360:	e7b4      	b.n	100072cc <_ntoa_format+0x100>
10007362:	2358      	movs	r3, #88	; 0x58
10007364:	9a0c      	ldr	r2, [sp, #48]	; 0x30
10007366:	2401      	movs	r4, #1
10007368:	7013      	strb	r3, [r2, #0]
1000736a:	e7b1      	b.n	100072d0 <_ntoa_format+0x104>
1000736c:	9a0c      	ldr	r2, [sp, #48]	; 0x30
1000736e:	3360      	adds	r3, #96	; 0x60
10007370:	2401      	movs	r4, #1
10007372:	7013      	strb	r3, [r2, #0]
10007374:	e7ac      	b.n	100072d0 <_ntoa_format+0x104>
10007376:	2420      	movs	r4, #32
10007378:	2600      	movs	r6, #0
1000737a:	e75e      	b.n	1000723a <_ntoa_format+0x6e>
1000737c:	3c02      	subs	r4, #2
1000737e:	06ba      	lsls	r2, r7, #26
10007380:	d4e9      	bmi.n	10007356 <_ntoa_format+0x18a>
10007382:	9a0c      	ldr	r2, [sp, #48]	; 0x30
10007384:	1912      	adds	r2, r2, r4
10007386:	001c      	movs	r4, r3
10007388:	e7d8      	b.n	1000733c <_ntoa_format+0x170>
1000738a:	9a0c      	ldr	r2, [sp, #48]	; 0x30
1000738c:	4692      	mov	sl, r2
1000738e:	4453      	add	r3, sl
10007390:	2262      	movs	r2, #98	; 0x62
10007392:	701a      	strb	r2, [r3, #0]
10007394:	e79a      	b.n	100072cc <_ntoa_format+0x100>
10007396:	46c0      	nop			; (mov r8, r8)

10007398 <_out_char>:
10007398:	b510      	push	{r4, lr}
1000739a:	2800      	cmp	r0, #0
1000739c:	d100      	bne.n	100073a0 <_out_char+0x8>
1000739e:	bd10      	pop	{r4, pc}
100073a0:	f001 faf4 	bl	1000898c <__wrap_putchar>
100073a4:	e7fb      	b.n	1000739e <_out_char+0x6>
100073a6:	46c0      	nop			; (mov r8, r8)

100073a8 <_out_fct>:
100073a8:	000b      	movs	r3, r1
100073aa:	b510      	push	{r4, lr}
100073ac:	2800      	cmp	r0, #0
100073ae:	d002      	beq.n	100073b6 <_out_fct+0xe>
100073b0:	6849      	ldr	r1, [r1, #4]
100073b2:	681b      	ldr	r3, [r3, #0]
100073b4:	4798      	blx	r3
100073b6:	bd10      	pop	{r4, pc}

100073b8 <_etoa>:
100073b8:	b5f0      	push	{r4, r5, r6, r7, lr}
100073ba:	46de      	mov	lr, fp
100073bc:	4657      	mov	r7, sl
100073be:	464e      	mov	r6, r9
100073c0:	4645      	mov	r5, r8
100073c2:	b5e0      	push	{r5, r6, r7, lr}
100073c4:	b09b      	sub	sp, #108	; 0x6c
100073c6:	469b      	mov	fp, r3
100073c8:	9b24      	ldr	r3, [sp, #144]	; 0x90
100073ca:	4689      	mov	r9, r1
100073cc:	4698      	mov	r8, r3
100073ce:	9b25      	ldr	r3, [sp, #148]	; 0x94
100073d0:	900b      	str	r0, [sp, #44]	; 0x2c
100073d2:	920c      	str	r2, [sp, #48]	; 0x30
100073d4:	4640      	mov	r0, r8
100073d6:	4642      	mov	r2, r8
100073d8:	0019      	movs	r1, r3
100073da:	469a      	mov	sl, r3
100073dc:	f7ff fad7 	bl	1000698e <__wrap___aeabi_dcmpun>
100073e0:	2800      	cmp	r0, #0
100073e2:	d000      	beq.n	100073e6 <_etoa+0x2e>
100073e4:	e0d8      	b.n	10007598 <_etoa+0x1e0>
100073e6:	2201      	movs	r2, #1
100073e8:	4640      	mov	r0, r8
100073ea:	4651      	mov	r1, sl
100073ec:	4b77      	ldr	r3, [pc, #476]	; (100075cc <_etoa+0x214>)
100073ee:	4252      	negs	r2, r2
100073f0:	f7ff fac8 	bl	10006984 <__wrap___aeabi_dcmpgt>
100073f4:	2800      	cmp	r0, #0
100073f6:	d000      	beq.n	100073fa <_etoa+0x42>
100073f8:	e0ce      	b.n	10007598 <_etoa+0x1e0>
100073fa:	2201      	movs	r2, #1
100073fc:	4640      	mov	r0, r8
100073fe:	4651      	mov	r1, sl
10007400:	4b73      	ldr	r3, [pc, #460]	; (100075d0 <_etoa+0x218>)
10007402:	4252      	negs	r2, r2
10007404:	f7ff faa8 	bl	10006958 <__wrap___aeabi_dcmplt>
10007408:	2800      	cmp	r0, #0
1000740a:	d000      	beq.n	1000740e <_etoa+0x56>
1000740c:	e0c4      	b.n	10007598 <_etoa+0x1e0>
1000740e:	2200      	movs	r2, #0
10007410:	2300      	movs	r3, #0
10007412:	4640      	mov	r0, r8
10007414:	4651      	mov	r1, sl
10007416:	f7ff fa9f 	bl	10006958 <__wrap___aeabi_dcmplt>
1000741a:	2800      	cmp	r0, #0
1000741c:	d000      	beq.n	10007420 <_etoa+0x68>
1000741e:	e1b9      	b.n	10007794 <_etoa+0x3dc>
10007420:	4642      	mov	r2, r8
10007422:	4653      	mov	r3, sl
10007424:	920a      	str	r2, [sp, #40]	; 0x28
10007426:	9309      	str	r3, [sp, #36]	; 0x24
10007428:	2380      	movs	r3, #128	; 0x80
1000742a:	9a28      	ldr	r2, [sp, #160]	; 0xa0
1000742c:	00db      	lsls	r3, r3, #3
1000742e:	401a      	ands	r2, r3
10007430:	920e      	str	r2, [sp, #56]	; 0x38
10007432:	9a28      	ldr	r2, [sp, #160]	; 0xa0
10007434:	421a      	tst	r2, r3
10007436:	d101      	bne.n	1000743c <_etoa+0x84>
10007438:	2306      	movs	r3, #6
1000743a:	9326      	str	r3, [sp, #152]	; 0x98
1000743c:	9a0a      	ldr	r2, [sp, #40]	; 0x28
1000743e:	9b09      	ldr	r3, [sp, #36]	; 0x24
10007440:	0016      	movs	r6, r2
10007442:	4313      	orrs	r3, r2
10007444:	d000      	beq.n	10007448 <_etoa+0x90>
10007446:	e0c7      	b.n	100075d8 <_etoa+0x220>
10007448:	9b28      	ldr	r3, [sp, #160]	; 0xa0
1000744a:	2500      	movs	r5, #0
1000744c:	2600      	movs	r6, #0
1000744e:	051b      	lsls	r3, r3, #20
10007450:	d400      	bmi.n	10007454 <_etoa+0x9c>
10007452:	e19b      	b.n	1000778c <_etoa+0x3d4>
10007454:	2300      	movs	r3, #0
10007456:	930d      	str	r3, [sp, #52]	; 0x34
10007458:	9a26      	ldr	r2, [sp, #152]	; 0x98
1000745a:	9b0d      	ldr	r3, [sp, #52]	; 0x34
1000745c:	429a      	cmp	r2, r3
1000745e:	dc00      	bgt.n	10007462 <_etoa+0xaa>
10007460:	e19f      	b.n	100077a2 <_etoa+0x3ea>
10007462:	1ad0      	subs	r0, r2, r3
10007464:	1e43      	subs	r3, r0, #1
10007466:	9326      	str	r3, [sp, #152]	; 0x98
10007468:	2380      	movs	r3, #128	; 0x80
1000746a:	9a28      	ldr	r2, [sp, #160]	; 0xa0
1000746c:	00db      	lsls	r3, r3, #3
1000746e:	431a      	orrs	r2, r3
10007470:	2300      	movs	r3, #0
10007472:	2700      	movs	r7, #0
10007474:	9228      	str	r2, [sp, #160]	; 0xa0
10007476:	930d      	str	r3, [sp, #52]	; 0x34
10007478:	9b27      	ldr	r3, [sp, #156]	; 0x9c
1000747a:	2400      	movs	r4, #0
1000747c:	42bb      	cmp	r3, r7
1000747e:	d900      	bls.n	10007482 <_etoa+0xca>
10007480:	1bdc      	subs	r4, r3, r7
10007482:	2302      	movs	r3, #2
10007484:	9a28      	ldr	r2, [sp, #160]	; 0xa0
10007486:	401a      	ands	r2, r3
10007488:	920e      	str	r2, [sp, #56]	; 0x38
1000748a:	9a28      	ldr	r2, [sp, #160]	; 0xa0
1000748c:	4213      	tst	r3, r2
1000748e:	d003      	beq.n	10007498 <_etoa+0xe0>
10007490:	427b      	negs	r3, r7
10007492:	417b      	adcs	r3, r7
10007494:	425b      	negs	r3, r3
10007496:	401c      	ands	r4, r3
10007498:	9b0d      	ldr	r3, [sp, #52]	; 0x34
1000749a:	2b00      	cmp	r3, #0
1000749c:	d007      	beq.n	100074ae <_etoa+0xf6>
1000749e:	980a      	ldr	r0, [sp, #40]	; 0x28
100074a0:	9909      	ldr	r1, [sp, #36]	; 0x24
100074a2:	002a      	movs	r2, r5
100074a4:	0033      	movs	r3, r6
100074a6:	f7ff f9f6 	bl	10006896 <__wrap___aeabi_ddiv>
100074aa:	900a      	str	r0, [sp, #40]	; 0x28
100074ac:	9109      	str	r1, [sp, #36]	; 0x24
100074ae:	2200      	movs	r2, #0
100074b0:	2300      	movs	r3, #0
100074b2:	4640      	mov	r0, r8
100074b4:	4651      	mov	r1, sl
100074b6:	f7ff fa4f 	bl	10006958 <__wrap___aeabi_dcmplt>
100074ba:	2800      	cmp	r0, #0
100074bc:	d005      	beq.n	100074ca <_etoa+0x112>
100074be:	2080      	movs	r0, #128	; 0x80
100074c0:	0600      	lsls	r0, r0, #24
100074c2:	4684      	mov	ip, r0
100074c4:	9909      	ldr	r1, [sp, #36]	; 0x24
100074c6:	4461      	add	r1, ip
100074c8:	9109      	str	r1, [sp, #36]	; 0x24
100074ca:	9a28      	ldr	r2, [sp, #160]	; 0xa0
100074cc:	4b41      	ldr	r3, [pc, #260]	; (100075d4 <_etoa+0x21c>)
100074ce:	9d0b      	ldr	r5, [sp, #44]	; 0x2c
100074d0:	4013      	ands	r3, r2
100074d2:	9304      	str	r3, [sp, #16]
100074d4:	9b26      	ldr	r3, [sp, #152]	; 0x98
100074d6:	9a0a      	ldr	r2, [sp, #40]	; 0x28
100074d8:	9302      	str	r3, [sp, #8]
100074da:	9b09      	ldr	r3, [sp, #36]	; 0x24
100074dc:	9403      	str	r4, [sp, #12]
100074de:	9200      	str	r2, [sp, #0]
100074e0:	9301      	str	r3, [sp, #4]
100074e2:	4649      	mov	r1, r9
100074e4:	465b      	mov	r3, fp
100074e6:	0028      	movs	r0, r5
100074e8:	9a0c      	ldr	r2, [sp, #48]	; 0x30
100074ea:	f000 f98b 	bl	10007804 <_ftoa>
100074ee:	0004      	movs	r4, r0
100074f0:	2f00      	cmp	r7, #0
100074f2:	d062      	beq.n	100075ba <_etoa+0x202>
100074f4:	9b28      	ldr	r3, [sp, #160]	; 0xa0
100074f6:	0022      	movs	r2, r4
100074f8:	0698      	lsls	r0, r3, #26
100074fa:	231f      	movs	r3, #31
100074fc:	17c0      	asrs	r0, r0, #31
100074fe:	4398      	bics	r0, r3
10007500:	1c63      	adds	r3, r4, #1
10007502:	4698      	mov	r8, r3
10007504:	4649      	mov	r1, r9
10007506:	465b      	mov	r3, fp
10007508:	3065      	adds	r0, #101	; 0x65
1000750a:	47a8      	blx	r5
1000750c:	9b0d      	ldr	r3, [sp, #52]	; 0x34
1000750e:	2500      	movs	r5, #0
10007510:	17da      	asrs	r2, r3, #31
10007512:	189c      	adds	r4, r3, r2
10007514:	0fdb      	lsrs	r3, r3, #31
10007516:	469a      	mov	sl, r3
10007518:	4054      	eors	r4, r2
1000751a:	3f01      	subs	r7, #1
1000751c:	e001      	b.n	10007522 <_etoa+0x16a>
1000751e:	2d20      	cmp	r5, #32
10007520:	d013      	beq.n	1000754a <_etoa+0x192>
10007522:	aa0a      	add	r2, sp, #40	; 0x28
10007524:	4694      	mov	ip, r2
10007526:	231f      	movs	r3, #31
10007528:	0020      	movs	r0, r4
1000752a:	4463      	add	r3, ip
1000752c:	210a      	movs	r1, #10
1000752e:	3501      	adds	r5, #1
10007530:	195e      	adds	r6, r3, r5
10007532:	f7fe ff63 	bl	100063fc <__wrap___aeabi_uidiv>
10007536:	3130      	adds	r1, #48	; 0x30
10007538:	7031      	strb	r1, [r6, #0]
1000753a:	0020      	movs	r0, r4
1000753c:	210a      	movs	r1, #10
1000753e:	f7fe ff5d 	bl	100063fc <__wrap___aeabi_uidiv>
10007542:	0026      	movs	r6, r4
10007544:	0004      	movs	r4, r0
10007546:	2e09      	cmp	r6, #9
10007548:	d8e9      	bhi.n	1000751e <_etoa+0x166>
1000754a:	2305      	movs	r3, #5
1000754c:	9306      	str	r3, [sp, #24]
1000754e:	2300      	movs	r3, #0
10007550:	9304      	str	r3, [sp, #16]
10007552:	330a      	adds	r3, #10
10007554:	9303      	str	r3, [sp, #12]
10007556:	4653      	mov	r3, sl
10007558:	9705      	str	r7, [sp, #20]
1000755a:	9f0b      	ldr	r7, [sp, #44]	; 0x2c
1000755c:	9302      	str	r3, [sp, #8]
1000755e:	ab12      	add	r3, sp, #72	; 0x48
10007560:	9300      	str	r3, [sp, #0]
10007562:	4642      	mov	r2, r8
10007564:	465b      	mov	r3, fp
10007566:	4649      	mov	r1, r9
10007568:	0038      	movs	r0, r7
1000756a:	9501      	str	r5, [sp, #4]
1000756c:	f7ff fe2e 	bl	100071cc <_ntoa_format>
10007570:	9b0e      	ldr	r3, [sp, #56]	; 0x38
10007572:	0004      	movs	r4, r0
10007574:	2b00      	cmp	r3, #0
10007576:	d020      	beq.n	100075ba <_etoa+0x202>
10007578:	9b0c      	ldr	r3, [sp, #48]	; 0x30
1000757a:	1ac5      	subs	r5, r0, r3
1000757c:	9b27      	ldr	r3, [sp, #156]	; 0x9c
1000757e:	42ab      	cmp	r3, r5
10007580:	d91b      	bls.n	100075ba <_etoa+0x202>
10007582:	001e      	movs	r6, r3
10007584:	0022      	movs	r2, r4
10007586:	465b      	mov	r3, fp
10007588:	4649      	mov	r1, r9
1000758a:	2020      	movs	r0, #32
1000758c:	3501      	adds	r5, #1
1000758e:	47b8      	blx	r7
10007590:	3401      	adds	r4, #1
10007592:	42ae      	cmp	r6, r5
10007594:	d8f6      	bhi.n	10007584 <_etoa+0x1cc>
10007596:	e010      	b.n	100075ba <_etoa+0x202>
10007598:	9b28      	ldr	r3, [sp, #160]	; 0xa0
1000759a:	4642      	mov	r2, r8
1000759c:	9304      	str	r3, [sp, #16]
1000759e:	9b27      	ldr	r3, [sp, #156]	; 0x9c
100075a0:	4649      	mov	r1, r9
100075a2:	9303      	str	r3, [sp, #12]
100075a4:	9b26      	ldr	r3, [sp, #152]	; 0x98
100075a6:	980b      	ldr	r0, [sp, #44]	; 0x2c
100075a8:	9302      	str	r3, [sp, #8]
100075aa:	4653      	mov	r3, sl
100075ac:	9200      	str	r2, [sp, #0]
100075ae:	9301      	str	r3, [sp, #4]
100075b0:	465b      	mov	r3, fp
100075b2:	9a0c      	ldr	r2, [sp, #48]	; 0x30
100075b4:	f000 f926 	bl	10007804 <_ftoa>
100075b8:	0004      	movs	r4, r0
100075ba:	0020      	movs	r0, r4
100075bc:	b01b      	add	sp, #108	; 0x6c
100075be:	bcf0      	pop	{r4, r5, r6, r7}
100075c0:	46bb      	mov	fp, r7
100075c2:	46b2      	mov	sl, r6
100075c4:	46a9      	mov	r9, r5
100075c6:	46a0      	mov	r8, r4
100075c8:	bdf0      	pop	{r4, r5, r6, r7, pc}
100075ca:	46c0      	nop			; (mov r8, r8)
100075cc:	7fefffff 	.word	0x7fefffff
100075d0:	ffefffff 	.word	0xffefffff
100075d4:	fffff7ff 	.word	0xfffff7ff
100075d8:	4b73      	ldr	r3, [pc, #460]	; (100077a8 <_etoa+0x3f0>)
100075da:	9f09      	ldr	r7, [sp, #36]	; 0x24
100075dc:	469c      	mov	ip, r3
100075de:	0078      	lsls	r0, r7, #1
100075e0:	0d40      	lsrs	r0, r0, #21
100075e2:	4460      	add	r0, ip
100075e4:	f7ff f9e4 	bl	100069b0 <__wrap___aeabi_i2d>
100075e8:	4a70      	ldr	r2, [pc, #448]	; (100077ac <_etoa+0x3f4>)
100075ea:	4b71      	ldr	r3, [pc, #452]	; (100077b0 <_etoa+0x3f8>)
100075ec:	f7ff f971 	bl	100068d2 <__wrap___aeabi_dmul>
100075f0:	4a70      	ldr	r2, [pc, #448]	; (100077b4 <_etoa+0x3fc>)
100075f2:	4b71      	ldr	r3, [pc, #452]	; (100077b8 <_etoa+0x400>)
100075f4:	f7ff f946 	bl	10006884 <__wrap___aeabi_dadd>
100075f8:	033b      	lsls	r3, r7, #12
100075fa:	4a70      	ldr	r2, [pc, #448]	; (100077bc <_etoa+0x404>)
100075fc:	0b1b      	lsrs	r3, r3, #12
100075fe:	431a      	orrs	r2, r3
10007600:	0004      	movs	r4, r0
10007602:	000d      	movs	r5, r1
10007604:	0030      	movs	r0, r6
10007606:	0011      	movs	r1, r2
10007608:	4b6d      	ldr	r3, [pc, #436]	; (100077c0 <_etoa+0x408>)
1000760a:	2200      	movs	r2, #0
1000760c:	f7ff f931 	bl	10006872 <__wrap___aeabi_dsub>
10007610:	4a6c      	ldr	r2, [pc, #432]	; (100077c4 <_etoa+0x40c>)
10007612:	4b6d      	ldr	r3, [pc, #436]	; (100077c8 <_etoa+0x410>)
10007614:	f7ff f95d 	bl	100068d2 <__wrap___aeabi_dmul>
10007618:	0002      	movs	r2, r0
1000761a:	000b      	movs	r3, r1
1000761c:	0020      	movs	r0, r4
1000761e:	0029      	movs	r1, r5
10007620:	f7ff f930 	bl	10006884 <__wrap___aeabi_dadd>
10007624:	f7ff f9dc 	bl	100069e0 <__wrap___aeabi_d2iz>
10007628:	900d      	str	r0, [sp, #52]	; 0x34
1000762a:	f7ff f9c1 	bl	100069b0 <__wrap___aeabi_i2d>
1000762e:	4a67      	ldr	r2, [pc, #412]	; (100077cc <_etoa+0x414>)
10007630:	4b67      	ldr	r3, [pc, #412]	; (100077d0 <_etoa+0x418>)
10007632:	0004      	movs	r4, r0
10007634:	000d      	movs	r5, r1
10007636:	f7ff f94c 	bl	100068d2 <__wrap___aeabi_dmul>
1000763a:	2200      	movs	r2, #0
1000763c:	4b65      	ldr	r3, [pc, #404]	; (100077d4 <_etoa+0x41c>)
1000763e:	f7ff f921 	bl	10006884 <__wrap___aeabi_dadd>
10007642:	f7ff f9cd 	bl	100069e0 <__wrap___aeabi_d2iz>
10007646:	4a64      	ldr	r2, [pc, #400]	; (100077d8 <_etoa+0x420>)
10007648:	0006      	movs	r6, r0
1000764a:	4b64      	ldr	r3, [pc, #400]	; (100077dc <_etoa+0x424>)
1000764c:	0020      	movs	r0, r4
1000764e:	0029      	movs	r1, r5
10007650:	f7ff f93f 	bl	100068d2 <__wrap___aeabi_dmul>
10007654:	0004      	movs	r4, r0
10007656:	0030      	movs	r0, r6
10007658:	000d      	movs	r5, r1
1000765a:	960f      	str	r6, [sp, #60]	; 0x3c
1000765c:	f7ff f9a8 	bl	100069b0 <__wrap___aeabi_i2d>
10007660:	4a5f      	ldr	r2, [pc, #380]	; (100077e0 <_etoa+0x428>)
10007662:	4b60      	ldr	r3, [pc, #384]	; (100077e4 <_etoa+0x42c>)
10007664:	f7ff f935 	bl	100068d2 <__wrap___aeabi_dmul>
10007668:	0002      	movs	r2, r0
1000766a:	000b      	movs	r3, r1
1000766c:	0020      	movs	r0, r4
1000766e:	0029      	movs	r1, r5
10007670:	f7ff f8ff 	bl	10006872 <__wrap___aeabi_dsub>
10007674:	0002      	movs	r2, r0
10007676:	000b      	movs	r3, r1
10007678:	0006      	movs	r6, r0
1000767a:	000f      	movs	r7, r1
1000767c:	f7ff f929 	bl	100068d2 <__wrap___aeabi_dmul>
10007680:	0032      	movs	r2, r6
10007682:	0004      	movs	r4, r0
10007684:	000d      	movs	r5, r1
10007686:	003b      	movs	r3, r7
10007688:	0030      	movs	r0, r6
1000768a:	0039      	movs	r1, r7
1000768c:	f7ff f8fa 	bl	10006884 <__wrap___aeabi_dadd>
10007690:	2200      	movs	r2, #0
10007692:	9010      	str	r0, [sp, #64]	; 0x40
10007694:	9111      	str	r1, [sp, #68]	; 0x44
10007696:	4b54      	ldr	r3, [pc, #336]	; (100077e8 <_etoa+0x430>)
10007698:	0020      	movs	r0, r4
1000769a:	0029      	movs	r1, r5
1000769c:	f7ff f8fb 	bl	10006896 <__wrap___aeabi_ddiv>
100076a0:	2200      	movs	r2, #0
100076a2:	4b52      	ldr	r3, [pc, #328]	; (100077ec <_etoa+0x434>)
100076a4:	f7ff f8ee 	bl	10006884 <__wrap___aeabi_dadd>
100076a8:	0002      	movs	r2, r0
100076aa:	000b      	movs	r3, r1
100076ac:	0020      	movs	r0, r4
100076ae:	0029      	movs	r1, r5
100076b0:	f7ff f8f1 	bl	10006896 <__wrap___aeabi_ddiv>
100076b4:	2200      	movs	r2, #0
100076b6:	4b4e      	ldr	r3, [pc, #312]	; (100077f0 <_etoa+0x438>)
100076b8:	f7ff f8e4 	bl	10006884 <__wrap___aeabi_dadd>
100076bc:	0002      	movs	r2, r0
100076be:	000b      	movs	r3, r1
100076c0:	0020      	movs	r0, r4
100076c2:	0029      	movs	r1, r5
100076c4:	f7ff f8e7 	bl	10006896 <__wrap___aeabi_ddiv>
100076c8:	000d      	movs	r5, r1
100076ca:	2180      	movs	r1, #128	; 0x80
100076cc:	0004      	movs	r4, r0
100076ce:	0032      	movs	r2, r6
100076d0:	003b      	movs	r3, r7
100076d2:	2000      	movs	r0, #0
100076d4:	05c9      	lsls	r1, r1, #23
100076d6:	f7ff f8cc 	bl	10006872 <__wrap___aeabi_dsub>
100076da:	0002      	movs	r2, r0
100076dc:	000b      	movs	r3, r1
100076de:	0020      	movs	r0, r4
100076e0:	0029      	movs	r1, r5
100076e2:	f7ff f8cf 	bl	10006884 <__wrap___aeabi_dadd>
100076e6:	0002      	movs	r2, r0
100076e8:	000b      	movs	r3, r1
100076ea:	9810      	ldr	r0, [sp, #64]	; 0x40
100076ec:	9911      	ldr	r1, [sp, #68]	; 0x44
100076ee:	f7ff f8d2 	bl	10006896 <__wrap___aeabi_ddiv>
100076f2:	2200      	movs	r2, #0
100076f4:	4b31      	ldr	r3, [pc, #196]	; (100077bc <_etoa+0x404>)
100076f6:	f7ff f8c5 	bl	10006884 <__wrap___aeabi_dadd>
100076fa:	4b3e      	ldr	r3, [pc, #248]	; (100077f4 <_etoa+0x43c>)
100076fc:	9c0f      	ldr	r4, [sp, #60]	; 0x3c
100076fe:	469c      	mov	ip, r3
10007700:	4464      	add	r4, ip
10007702:	2200      	movs	r2, #0
10007704:	0523      	lsls	r3, r4, #20
10007706:	f7ff f8e4 	bl	100068d2 <__wrap___aeabi_dmul>
1000770a:	0005      	movs	r5, r0
1000770c:	000e      	movs	r6, r1
1000770e:	0002      	movs	r2, r0
10007710:	000b      	movs	r3, r1
10007712:	980a      	ldr	r0, [sp, #40]	; 0x28
10007714:	9909      	ldr	r1, [sp, #36]	; 0x24
10007716:	f7ff f91f 	bl	10006958 <__wrap___aeabi_dcmplt>
1000771a:	2800      	cmp	r0, #0
1000771c:	d00a      	beq.n	10007734 <_etoa+0x37c>
1000771e:	9b0d      	ldr	r3, [sp, #52]	; 0x34
10007720:	0028      	movs	r0, r5
10007722:	3b01      	subs	r3, #1
10007724:	0031      	movs	r1, r6
10007726:	930d      	str	r3, [sp, #52]	; 0x34
10007728:	2200      	movs	r2, #0
1000772a:	4b30      	ldr	r3, [pc, #192]	; (100077ec <_etoa+0x434>)
1000772c:	f7ff f8b3 	bl	10006896 <__wrap___aeabi_ddiv>
10007730:	0005      	movs	r5, r0
10007732:	000e      	movs	r6, r1
10007734:	27c6      	movs	r7, #198	; 0xc6
10007736:	990d      	ldr	r1, [sp, #52]	; 0x34
10007738:	002b      	movs	r3, r5
1000773a:	3163      	adds	r1, #99	; 0x63
1000773c:	428f      	cmp	r7, r1
1000773e:	41bf      	sbcs	r7, r7
10007740:	9928      	ldr	r1, [sp, #160]	; 0xa0
10007742:	427f      	negs	r7, r7
10007744:	3704      	adds	r7, #4
10007746:	0509      	lsls	r1, r1, #20
10007748:	d400      	bmi.n	1000774c <_etoa+0x394>
1000774a:	e695      	b.n	10007478 <_etoa+0xc0>
1000774c:	4333      	orrs	r3, r6
1000774e:	d100      	bne.n	10007752 <_etoa+0x39a>
10007750:	e682      	b.n	10007458 <_etoa+0xa0>
10007752:	9c09      	ldr	r4, [sp, #36]	; 0x24
10007754:	4a28      	ldr	r2, [pc, #160]	; (100077f8 <_etoa+0x440>)
10007756:	0021      	movs	r1, r4
10007758:	4b28      	ldr	r3, [pc, #160]	; (100077fc <_etoa+0x444>)
1000775a:	980a      	ldr	r0, [sp, #40]	; 0x28
1000775c:	f7ff f90a 	bl	10006974 <__wrap___aeabi_dcmpge>
10007760:	2800      	cmp	r0, #0
10007762:	d008      	beq.n	10007776 <_etoa+0x3be>
10007764:	2200      	movs	r2, #0
10007766:	0021      	movs	r1, r4
10007768:	4b25      	ldr	r3, [pc, #148]	; (10007800 <_etoa+0x448>)
1000776a:	980a      	ldr	r0, [sp, #40]	; 0x28
1000776c:	f7ff f8f4 	bl	10006958 <__wrap___aeabi_dcmplt>
10007770:	2800      	cmp	r0, #0
10007772:	d000      	beq.n	10007776 <_etoa+0x3be>
10007774:	e670      	b.n	10007458 <_etoa+0xa0>
10007776:	9b26      	ldr	r3, [sp, #152]	; 0x98
10007778:	2b00      	cmp	r3, #0
1000777a:	d100      	bne.n	1000777e <_etoa+0x3c6>
1000777c:	e67c      	b.n	10007478 <_etoa+0xc0>
1000777e:	9b0e      	ldr	r3, [sp, #56]	; 0x38
10007780:	1e5a      	subs	r2, r3, #1
10007782:	4193      	sbcs	r3, r2
10007784:	9a26      	ldr	r2, [sp, #152]	; 0x98
10007786:	1ad3      	subs	r3, r2, r3
10007788:	9326      	str	r3, [sp, #152]	; 0x98
1000778a:	e675      	b.n	10007478 <_etoa+0xc0>
1000778c:	2300      	movs	r3, #0
1000778e:	2704      	movs	r7, #4
10007790:	930d      	str	r3, [sp, #52]	; 0x34
10007792:	e671      	b.n	10007478 <_etoa+0xc0>
10007794:	4643      	mov	r3, r8
10007796:	930a      	str	r3, [sp, #40]	; 0x28
10007798:	2380      	movs	r3, #128	; 0x80
1000779a:	061b      	lsls	r3, r3, #24
1000779c:	4453      	add	r3, sl
1000779e:	9309      	str	r3, [sp, #36]	; 0x24
100077a0:	e642      	b.n	10007428 <_etoa+0x70>
100077a2:	2300      	movs	r3, #0
100077a4:	9326      	str	r3, [sp, #152]	; 0x98
100077a6:	e65f      	b.n	10007468 <_etoa+0xb0>
100077a8:	fffffc01 	.word	0xfffffc01
100077ac:	509f79fb 	.word	0x509f79fb
100077b0:	3fd34413 	.word	0x3fd34413
100077b4:	8b60c8b3 	.word	0x8b60c8b3
100077b8:	3fc68a28 	.word	0x3fc68a28
100077bc:	3ff00000 	.word	0x3ff00000
100077c0:	3ff80000 	.word	0x3ff80000
100077c4:	636f4361 	.word	0x636f4361
100077c8:	3fd287a7 	.word	0x3fd287a7
100077cc:	0979a371 	.word	0x0979a371
100077d0:	400a934f 	.word	0x400a934f
100077d4:	3fe00000 	.word	0x3fe00000
100077d8:	bbb55516 	.word	0xbbb55516
100077dc:	40026bb1 	.word	0x40026bb1
100077e0:	fefa39ef 	.word	0xfefa39ef
100077e4:	3fe62e42 	.word	0x3fe62e42
100077e8:	402c0000 	.word	0x402c0000
100077ec:	40240000 	.word	0x40240000
100077f0:	40180000 	.word	0x40180000
100077f4:	000003ff 	.word	0x000003ff
100077f8:	eb1c432d 	.word	0xeb1c432d
100077fc:	3f1a36e2 	.word	0x3f1a36e2
10007800:	412e8480 	.word	0x412e8480

10007804 <_ftoa>:
10007804:	b5f0      	push	{r4, r5, r6, r7, lr}
10007806:	464e      	mov	r6, r9
10007808:	46de      	mov	lr, fp
1000780a:	4657      	mov	r7, sl
1000780c:	4645      	mov	r5, r8
1000780e:	b5e0      	push	{r5, r6, r7, lr}
10007810:	b097      	sub	sp, #92	; 0x5c
10007812:	4699      	mov	r9, r3
10007814:	9e20      	ldr	r6, [sp, #128]	; 0x80
10007816:	9f21      	ldr	r7, [sp, #132]	; 0x84
10007818:	9b22      	ldr	r3, [sp, #136]	; 0x88
1000781a:	4683      	mov	fp, r0
1000781c:	4698      	mov	r8, r3
1000781e:	9107      	str	r1, [sp, #28]
10007820:	920c      	str	r2, [sp, #48]	; 0x30
10007822:	003b      	movs	r3, r7
10007824:	0032      	movs	r2, r6
10007826:	0030      	movs	r0, r6
10007828:	0039      	movs	r1, r7
1000782a:	f7ff f8b0 	bl	1000698e <__wrap___aeabi_dcmpun>
1000782e:	2800      	cmp	r0, #0
10007830:	d000      	beq.n	10007834 <_ftoa+0x30>
10007832:	e1a9      	b.n	10007b88 <_ftoa+0x384>
10007834:	2201      	movs	r2, #1
10007836:	0030      	movs	r0, r6
10007838:	0039      	movs	r1, r7
1000783a:	4bca      	ldr	r3, [pc, #808]	; (10007b64 <_ftoa+0x360>)
1000783c:	4252      	negs	r2, r2
1000783e:	f7ff f88b 	bl	10006958 <__wrap___aeabi_dcmplt>
10007842:	2800      	cmp	r0, #0
10007844:	d000      	beq.n	10007848 <_ftoa+0x44>
10007846:	e0e1      	b.n	10007a0c <_ftoa+0x208>
10007848:	2201      	movs	r2, #1
1000784a:	0030      	movs	r0, r6
1000784c:	0039      	movs	r1, r7
1000784e:	4bc6      	ldr	r3, [pc, #792]	; (10007b68 <_ftoa+0x364>)
10007850:	4252      	negs	r2, r2
10007852:	f7ff f897 	bl	10006984 <__wrap___aeabi_dcmpgt>
10007856:	2800      	cmp	r0, #0
10007858:	d000      	beq.n	1000785c <_ftoa+0x58>
1000785a:	e0b7      	b.n	100079cc <_ftoa+0x1c8>
1000785c:	2200      	movs	r2, #0
1000785e:	0030      	movs	r0, r6
10007860:	0039      	movs	r1, r7
10007862:	4bc2      	ldr	r3, [pc, #776]	; (10007b6c <_ftoa+0x368>)
10007864:	f7ff f88e 	bl	10006984 <__wrap___aeabi_dcmpgt>
10007868:	2800      	cmp	r0, #0
1000786a:	d000      	beq.n	1000786e <_ftoa+0x6a>
1000786c:	e099      	b.n	100079a2 <_ftoa+0x19e>
1000786e:	2200      	movs	r2, #0
10007870:	0030      	movs	r0, r6
10007872:	0039      	movs	r1, r7
10007874:	4bbe      	ldr	r3, [pc, #760]	; (10007b70 <_ftoa+0x36c>)
10007876:	f7ff f86f 	bl	10006958 <__wrap___aeabi_dcmplt>
1000787a:	2800      	cmp	r0, #0
1000787c:	d000      	beq.n	10007880 <_ftoa+0x7c>
1000787e:	e090      	b.n	100079a2 <_ftoa+0x19e>
10007880:	2200      	movs	r2, #0
10007882:	2300      	movs	r3, #0
10007884:	0030      	movs	r0, r6
10007886:	0039      	movs	r1, r7
10007888:	f7ff f866 	bl	10006958 <__wrap___aeabi_dcmplt>
1000788c:	2800      	cmp	r0, #0
1000788e:	d000      	beq.n	10007892 <_ftoa+0x8e>
10007890:	e0b1      	b.n	100079f6 <_ftoa+0x1f2>
10007892:	2300      	movs	r3, #0
10007894:	930d      	str	r3, [sp, #52]	; 0x34
10007896:	9b24      	ldr	r3, [sp, #144]	; 0x90
10007898:	055b      	lsls	r3, r3, #21
1000789a:	d401      	bmi.n	100078a0 <_ftoa+0x9c>
1000789c:	2306      	movs	r3, #6
1000789e:	4698      	mov	r8, r3
100078a0:	ab08      	add	r3, sp, #32
100078a2:	469c      	mov	ip, r3
100078a4:	2217      	movs	r2, #23
100078a6:	2400      	movs	r4, #0
100078a8:	2330      	movs	r3, #48	; 0x30
100078aa:	4641      	mov	r1, r8
100078ac:	4462      	add	r2, ip
100078ae:	e004      	b.n	100078ba <_ftoa+0xb6>
100078b0:	3401      	adds	r4, #1
100078b2:	5513      	strb	r3, [r2, r4]
100078b4:	3901      	subs	r1, #1
100078b6:	2c20      	cmp	r4, #32
100078b8:	d001      	beq.n	100078be <_ftoa+0xba>
100078ba:	2909      	cmp	r1, #9
100078bc:	d8f8      	bhi.n	100078b0 <_ftoa+0xac>
100078be:	4688      	mov	r8, r1
100078c0:	0030      	movs	r0, r6
100078c2:	0039      	movs	r1, r7
100078c4:	f7ff f88c 	bl	100069e0 <__wrap___aeabi_d2iz>
100078c8:	4643      	mov	r3, r8
100078ca:	00da      	lsls	r2, r3, #3
100078cc:	4ba9      	ldr	r3, [pc, #676]	; (10007b74 <_ftoa+0x370>)
100078ce:	0005      	movs	r5, r0
100078d0:	189b      	adds	r3, r3, r2
100078d2:	681a      	ldr	r2, [r3, #0]
100078d4:	685b      	ldr	r3, [r3, #4]
100078d6:	9208      	str	r2, [sp, #32]
100078d8:	9309      	str	r3, [sp, #36]	; 0x24
100078da:	f7ff f869 	bl	100069b0 <__wrap___aeabi_i2d>
100078de:	0002      	movs	r2, r0
100078e0:	000b      	movs	r3, r1
100078e2:	0030      	movs	r0, r6
100078e4:	0039      	movs	r1, r7
100078e6:	f7fe ffc4 	bl	10006872 <__wrap___aeabi_dsub>
100078ea:	9a08      	ldr	r2, [sp, #32]
100078ec:	9b09      	ldr	r3, [sp, #36]	; 0x24
100078ee:	f7fe fff0 	bl	100068d2 <__wrap___aeabi_dmul>
100078f2:	900a      	str	r0, [sp, #40]	; 0x28
100078f4:	910b      	str	r1, [sp, #44]	; 0x2c
100078f6:	f7ff f897 	bl	10006a28 <__wrap___aeabi_d2uiz>
100078fa:	4682      	mov	sl, r0
100078fc:	f7ff f854 	bl	100069a8 <__wrap___aeabi_ui2d>
10007900:	0002      	movs	r2, r0
10007902:	000b      	movs	r3, r1
10007904:	980a      	ldr	r0, [sp, #40]	; 0x28
10007906:	990b      	ldr	r1, [sp, #44]	; 0x2c
10007908:	f7fe ffb3 	bl	10006872 <__wrap___aeabi_dsub>
1000790c:	2200      	movs	r2, #0
1000790e:	4b9a      	ldr	r3, [pc, #616]	; (10007b78 <_ftoa+0x374>)
10007910:	900a      	str	r0, [sp, #40]	; 0x28
10007912:	910b      	str	r1, [sp, #44]	; 0x2c
10007914:	f7ff f836 	bl	10006984 <__wrap___aeabi_dcmpgt>
10007918:	2800      	cmp	r0, #0
1000791a:	d100      	bne.n	1000791e <_ftoa+0x11a>
1000791c:	e0c0      	b.n	10007aa0 <_ftoa+0x29c>
1000791e:	2301      	movs	r3, #1
10007920:	469c      	mov	ip, r3
10007922:	44e2      	add	sl, ip
10007924:	4650      	mov	r0, sl
10007926:	f7ff f83f 	bl	100069a8 <__wrap___aeabi_ui2d>
1000792a:	0002      	movs	r2, r0
1000792c:	000b      	movs	r3, r1
1000792e:	9808      	ldr	r0, [sp, #32]
10007930:	9909      	ldr	r1, [sp, #36]	; 0x24
10007932:	f7ff f817 	bl	10006964 <__wrap___aeabi_dcmple>
10007936:	2800      	cmp	r0, #0
10007938:	d002      	beq.n	10007940 <_ftoa+0x13c>
1000793a:	2300      	movs	r3, #0
1000793c:	469a      	mov	sl, r3
1000793e:	3501      	adds	r5, #1
10007940:	4643      	mov	r3, r8
10007942:	2b00      	cmp	r3, #0
10007944:	d06a      	beq.n	10007a1c <_ftoa+0x218>
10007946:	ab08      	add	r3, sp, #32
10007948:	2617      	movs	r6, #23
1000794a:	469c      	mov	ip, r3
1000794c:	9508      	str	r5, [sp, #32]
1000794e:	4466      	add	r6, ip
10007950:	4655      	mov	r5, sl
10007952:	e014      	b.n	1000797e <_ftoa+0x17a>
10007954:	2301      	movs	r3, #1
10007956:	425b      	negs	r3, r3
10007958:	4443      	add	r3, r8
1000795a:	210a      	movs	r1, #10
1000795c:	0028      	movs	r0, r5
1000795e:	469a      	mov	sl, r3
10007960:	f7fe fd4c 	bl	100063fc <__wrap___aeabi_uidiv>
10007964:	3401      	adds	r4, #1
10007966:	3130      	adds	r1, #48	; 0x30
10007968:	1937      	adds	r7, r6, r4
1000796a:	7039      	strb	r1, [r7, #0]
1000796c:	0028      	movs	r0, r5
1000796e:	210a      	movs	r1, #10
10007970:	f7fe fd44 	bl	100063fc <__wrap___aeabi_uidiv>
10007974:	2d09      	cmp	r5, #9
10007976:	d800      	bhi.n	1000797a <_ftoa+0x176>
10007978:	e0d0      	b.n	10007b1c <_ftoa+0x318>
1000797a:	46d0      	mov	r8, sl
1000797c:	0005      	movs	r5, r0
1000797e:	2c20      	cmp	r4, #32
10007980:	d1e8      	bne.n	10007954 <_ftoa+0x150>
10007982:	ab0e      	add	r3, sp, #56	; 0x38
10007984:	4698      	mov	r8, r3
10007986:	2303      	movs	r3, #3
10007988:	9a24      	ldr	r2, [sp, #144]	; 0x90
1000798a:	4013      	ands	r3, r2
1000798c:	2b01      	cmp	r3, #1
1000798e:	d100      	bne.n	10007992 <_ftoa+0x18e>
10007990:	e096      	b.n	10007ac0 <_ftoa+0x2bc>
10007992:	2320      	movs	r3, #32
10007994:	9a24      	ldr	r2, [sp, #144]	; 0x90
10007996:	9301      	str	r3, [sp, #4]
10007998:	9203      	str	r2, [sp, #12]
1000799a:	9a23      	ldr	r2, [sp, #140]	; 0x8c
1000799c:	4643      	mov	r3, r8
1000799e:	9202      	str	r2, [sp, #8]
100079a0:	e01e      	b.n	100079e0 <_ftoa+0x1dc>
100079a2:	9b24      	ldr	r3, [sp, #144]	; 0x90
100079a4:	4658      	mov	r0, fp
100079a6:	9304      	str	r3, [sp, #16]
100079a8:	9b23      	ldr	r3, [sp, #140]	; 0x8c
100079aa:	9600      	str	r6, [sp, #0]
100079ac:	9701      	str	r7, [sp, #4]
100079ae:	9303      	str	r3, [sp, #12]
100079b0:	4643      	mov	r3, r8
100079b2:	9a0c      	ldr	r2, [sp, #48]	; 0x30
100079b4:	9302      	str	r3, [sp, #8]
100079b6:	9907      	ldr	r1, [sp, #28]
100079b8:	464b      	mov	r3, r9
100079ba:	f7ff fcfd 	bl	100073b8 <_etoa>
100079be:	b017      	add	sp, #92	; 0x5c
100079c0:	bcf0      	pop	{r4, r5, r6, r7}
100079c2:	46bb      	mov	fp, r7
100079c4:	46b2      	mov	sl, r6
100079c6:	46a9      	mov	r9, r5
100079c8:	46a0      	mov	r8, r4
100079ca:	bdf0      	pop	{r4, r5, r6, r7, pc}
100079cc:	9b24      	ldr	r3, [sp, #144]	; 0x90
100079ce:	075b      	lsls	r3, r3, #29
100079d0:	d40e      	bmi.n	100079f0 <_ftoa+0x1ec>
100079d2:	2203      	movs	r2, #3
100079d4:	4b69      	ldr	r3, [pc, #420]	; (10007b7c <_ftoa+0x378>)
100079d6:	9924      	ldr	r1, [sp, #144]	; 0x90
100079d8:	9201      	str	r2, [sp, #4]
100079da:	9103      	str	r1, [sp, #12]
100079dc:	9923      	ldr	r1, [sp, #140]	; 0x8c
100079de:	9102      	str	r1, [sp, #8]
100079e0:	9300      	str	r3, [sp, #0]
100079e2:	4658      	mov	r0, fp
100079e4:	464b      	mov	r3, r9
100079e6:	9a0c      	ldr	r2, [sp, #48]	; 0x30
100079e8:	9907      	ldr	r1, [sp, #28]
100079ea:	f7ff fba1 	bl	10007130 <_out_rev>
100079ee:	e7e6      	b.n	100079be <_ftoa+0x1ba>
100079f0:	2204      	movs	r2, #4
100079f2:	4b63      	ldr	r3, [pc, #396]	; (10007b80 <_ftoa+0x37c>)
100079f4:	e7ef      	b.n	100079d6 <_ftoa+0x1d2>
100079f6:	003b      	movs	r3, r7
100079f8:	0032      	movs	r2, r6
100079fa:	2000      	movs	r0, #0
100079fc:	2100      	movs	r1, #0
100079fe:	f7fe ff38 	bl	10006872 <__wrap___aeabi_dsub>
10007a02:	2301      	movs	r3, #1
10007a04:	0006      	movs	r6, r0
10007a06:	000f      	movs	r7, r1
10007a08:	930d      	str	r3, [sp, #52]	; 0x34
10007a0a:	e744      	b.n	10007896 <_ftoa+0x92>
10007a0c:	9b24      	ldr	r3, [sp, #144]	; 0x90
10007a0e:	9303      	str	r3, [sp, #12]
10007a10:	9b23      	ldr	r3, [sp, #140]	; 0x8c
10007a12:	9302      	str	r3, [sp, #8]
10007a14:	2304      	movs	r3, #4
10007a16:	9301      	str	r3, [sp, #4]
10007a18:	4b5a      	ldr	r3, [pc, #360]	; (10007b84 <_ftoa+0x380>)
10007a1a:	e7e1      	b.n	100079e0 <_ftoa+0x1dc>
10007a1c:	0028      	movs	r0, r5
10007a1e:	f7fe ffc7 	bl	100069b0 <__wrap___aeabi_i2d>
10007a22:	0002      	movs	r2, r0
10007a24:	000b      	movs	r3, r1
10007a26:	0030      	movs	r0, r6
10007a28:	0039      	movs	r1, r7
10007a2a:	f7fe ff22 	bl	10006872 <__wrap___aeabi_dsub>
10007a2e:	4b52      	ldr	r3, [pc, #328]	; (10007b78 <_ftoa+0x374>)
10007a30:	2200      	movs	r2, #0
10007a32:	0006      	movs	r6, r0
10007a34:	000f      	movs	r7, r1
10007a36:	f7fe ff8f 	bl	10006958 <__wrap___aeabi_dcmplt>
10007a3a:	ab0e      	add	r3, sp, #56	; 0x38
10007a3c:	4698      	mov	r8, r3
10007a3e:	2800      	cmp	r0, #0
10007a40:	d10a      	bne.n	10007a58 <_ftoa+0x254>
10007a42:	2200      	movs	r2, #0
10007a44:	0030      	movs	r0, r6
10007a46:	0039      	movs	r1, r7
10007a48:	4b4b      	ldr	r3, [pc, #300]	; (10007b78 <_ftoa+0x374>)
10007a4a:	f7fe ff9b 	bl	10006984 <__wrap___aeabi_dcmpgt>
10007a4e:	2800      	cmp	r0, #0
10007a50:	d102      	bne.n	10007a58 <_ftoa+0x254>
10007a52:	07eb      	lsls	r3, r5, #31
10007a54:	d500      	bpl.n	10007a58 <_ftoa+0x254>
10007a56:	3501      	adds	r5, #1
10007a58:	2c20      	cmp	r4, #32
10007a5a:	d094      	beq.n	10007986 <_ftoa+0x182>
10007a5c:	aa08      	add	r2, sp, #32
10007a5e:	4694      	mov	ip, r2
10007a60:	2317      	movs	r3, #23
10007a62:	0028      	movs	r0, r5
10007a64:	4463      	add	r3, ip
10007a66:	210a      	movs	r1, #10
10007a68:	3401      	adds	r4, #1
10007a6a:	191e      	adds	r6, r3, r4
10007a6c:	f7fe fc9e 	bl	100063ac <__wrap___aeabi_idiv>
10007a70:	3130      	adds	r1, #48	; 0x30
10007a72:	0028      	movs	r0, r5
10007a74:	7031      	strb	r1, [r6, #0]
10007a76:	210a      	movs	r1, #10
10007a78:	f7fe fc98 	bl	100063ac <__wrap___aeabi_idiv>
10007a7c:	1e05      	subs	r5, r0, #0
10007a7e:	d1eb      	bne.n	10007a58 <_ftoa+0x254>
10007a80:	2303      	movs	r3, #3
10007a82:	9a24      	ldr	r2, [sp, #144]	; 0x90
10007a84:	4013      	ands	r3, r2
10007a86:	2b01      	cmp	r3, #1
10007a88:	d01b      	beq.n	10007ac2 <_ftoa+0x2be>
10007a8a:	2c20      	cmp	r4, #32
10007a8c:	d100      	bne.n	10007a90 <_ftoa+0x28c>
10007a8e:	e780      	b.n	10007992 <_ftoa+0x18e>
10007a90:	9b0d      	ldr	r3, [sp, #52]	; 0x34
10007a92:	2b00      	cmp	r3, #0
10007a94:	d035      	beq.n	10007b02 <_ftoa+0x2fe>
10007a96:	222d      	movs	r2, #45	; 0x2d
10007a98:	4641      	mov	r1, r8
10007a9a:	1c63      	adds	r3, r4, #1
10007a9c:	550a      	strb	r2, [r1, r4]
10007a9e:	e779      	b.n	10007994 <_ftoa+0x190>
10007aa0:	2200      	movs	r2, #0
10007aa2:	980a      	ldr	r0, [sp, #40]	; 0x28
10007aa4:	990b      	ldr	r1, [sp, #44]	; 0x2c
10007aa6:	4b34      	ldr	r3, [pc, #208]	; (10007b78 <_ftoa+0x374>)
10007aa8:	f7fe ff56 	bl	10006958 <__wrap___aeabi_dcmplt>
10007aac:	2800      	cmp	r0, #0
10007aae:	d000      	beq.n	10007ab2 <_ftoa+0x2ae>
10007ab0:	e746      	b.n	10007940 <_ftoa+0x13c>
10007ab2:	4653      	mov	r3, sl
10007ab4:	2b00      	cmp	r3, #0
10007ab6:	d151      	bne.n	10007b5c <_ftoa+0x358>
10007ab8:	2301      	movs	r3, #1
10007aba:	469c      	mov	ip, r3
10007abc:	44e2      	add	sl, ip
10007abe:	e73f      	b.n	10007940 <_ftoa+0x13c>
10007ac0:	2420      	movs	r4, #32
10007ac2:	9b23      	ldr	r3, [sp, #140]	; 0x8c
10007ac4:	2b00      	cmp	r3, #0
10007ac6:	d0e0      	beq.n	10007a8a <_ftoa+0x286>
10007ac8:	9b0d      	ldr	r3, [sp, #52]	; 0x34
10007aca:	2b00      	cmp	r3, #0
10007acc:	d103      	bne.n	10007ad6 <_ftoa+0x2d2>
10007ace:	9a24      	ldr	r2, [sp, #144]	; 0x90
10007ad0:	330c      	adds	r3, #12
10007ad2:	4213      	tst	r3, r2
10007ad4:	d002      	beq.n	10007adc <_ftoa+0x2d8>
10007ad6:	9b23      	ldr	r3, [sp, #140]	; 0x8c
10007ad8:	3b01      	subs	r3, #1
10007ada:	9323      	str	r3, [sp, #140]	; 0x8c
10007adc:	9b23      	ldr	r3, [sp, #140]	; 0x8c
10007ade:	42a3      	cmp	r3, r4
10007ae0:	d9d3      	bls.n	10007a8a <_ftoa+0x286>
10007ae2:	ab08      	add	r3, sp, #32
10007ae4:	469c      	mov	ip, r3
10007ae6:	2217      	movs	r2, #23
10007ae8:	2330      	movs	r3, #48	; 0x30
10007aea:	4462      	add	r2, ip
10007aec:	2c20      	cmp	r4, #32
10007aee:	d100      	bne.n	10007af2 <_ftoa+0x2ee>
10007af0:	e74f      	b.n	10007992 <_ftoa+0x18e>
10007af2:	9923      	ldr	r1, [sp, #140]	; 0x8c
10007af4:	3401      	adds	r4, #1
10007af6:	5513      	strb	r3, [r2, r4]
10007af8:	428c      	cmp	r4, r1
10007afa:	d0c6      	beq.n	10007a8a <_ftoa+0x286>
10007afc:	2c20      	cmp	r4, #32
10007afe:	d1f8      	bne.n	10007af2 <_ftoa+0x2ee>
10007b00:	e747      	b.n	10007992 <_ftoa+0x18e>
10007b02:	9b24      	ldr	r3, [sp, #144]	; 0x90
10007b04:	075b      	lsls	r3, r3, #29
10007b06:	d424      	bmi.n	10007b52 <_ftoa+0x34e>
10007b08:	9a24      	ldr	r2, [sp, #144]	; 0x90
10007b0a:	0023      	movs	r3, r4
10007b0c:	0712      	lsls	r2, r2, #28
10007b0e:	d400      	bmi.n	10007b12 <_ftoa+0x30e>
10007b10:	e740      	b.n	10007994 <_ftoa+0x190>
10007b12:	2220      	movs	r2, #32
10007b14:	4641      	mov	r1, r8
10007b16:	3301      	adds	r3, #1
10007b18:	550a      	strb	r2, [r1, r4]
10007b1a:	e73b      	b.n	10007994 <_ftoa+0x190>
10007b1c:	4657      	mov	r7, sl
10007b1e:	9d08      	ldr	r5, [sp, #32]
10007b20:	2c20      	cmp	r4, #32
10007b22:	d100      	bne.n	10007b26 <_ftoa+0x322>
10007b24:	e72d      	b.n	10007982 <_ftoa+0x17e>
10007b26:	0022      	movs	r2, r4
10007b28:	2130      	movs	r1, #48	; 0x30
10007b2a:	4640      	mov	r0, r8
10007b2c:	2f00      	cmp	r7, #0
10007b2e:	d009      	beq.n	10007b44 <_ftoa+0x340>
10007b30:	3201      	adds	r2, #1
10007b32:	54b1      	strb	r1, [r6, r2]
10007b34:	2a20      	cmp	r2, #32
10007b36:	d100      	bne.n	10007b3a <_ftoa+0x336>
10007b38:	e723      	b.n	10007982 <_ftoa+0x17e>
10007b3a:	43d3      	mvns	r3, r2
10007b3c:	191b      	adds	r3, r3, r4
10007b3e:	181b      	adds	r3, r3, r0
10007b40:	2b00      	cmp	r3, #0
10007b42:	d1f5      	bne.n	10007b30 <_ftoa+0x32c>
10007b44:	ab0e      	add	r3, sp, #56	; 0x38
10007b46:	4698      	mov	r8, r3
10007b48:	232e      	movs	r3, #46	; 0x2e
10007b4a:	4641      	mov	r1, r8
10007b4c:	1c54      	adds	r4, r2, #1
10007b4e:	548b      	strb	r3, [r1, r2]
10007b50:	e782      	b.n	10007a58 <_ftoa+0x254>
10007b52:	222b      	movs	r2, #43	; 0x2b
10007b54:	4641      	mov	r1, r8
10007b56:	1c63      	adds	r3, r4, #1
10007b58:	550a      	strb	r2, [r1, r4]
10007b5a:	e71b      	b.n	10007994 <_ftoa+0x190>
10007b5c:	07db      	lsls	r3, r3, #31
10007b5e:	d400      	bmi.n	10007b62 <_ftoa+0x35e>
10007b60:	e6ee      	b.n	10007940 <_ftoa+0x13c>
10007b62:	e7a9      	b.n	10007ab8 <_ftoa+0x2b4>
10007b64:	ffefffff 	.word	0xffefffff
10007b68:	7fefffff 	.word	0x7fefffff
10007b6c:	41cdcd65 	.word	0x41cdcd65
10007b70:	c1cdcd65 	.word	0xc1cdcd65
10007b74:	10009438 	.word	0x10009438
10007b78:	3fe00000 	.word	0x3fe00000
10007b7c:	10009240 	.word	0x10009240
10007b80:	10009244 	.word	0x10009244
10007b84:	10009250 	.word	0x10009250
10007b88:	9b24      	ldr	r3, [sp, #144]	; 0x90
10007b8a:	9303      	str	r3, [sp, #12]
10007b8c:	9b23      	ldr	r3, [sp, #140]	; 0x8c
10007b8e:	9302      	str	r3, [sp, #8]
10007b90:	2303      	movs	r3, #3
10007b92:	9301      	str	r3, [sp, #4]
10007b94:	4b00      	ldr	r3, [pc, #0]	; (10007b98 <_ftoa+0x394>)
10007b96:	e723      	b.n	100079e0 <_ftoa+0x1dc>
10007b98:	1000924c 	.word	0x1000924c

10007b9c <_vsnprintf>:
10007b9c:	b5f0      	push	{r4, r5, r6, r7, lr}
10007b9e:	46de      	mov	lr, fp
10007ba0:	464e      	mov	r6, r9
10007ba2:	4657      	mov	r7, sl
10007ba4:	4645      	mov	r5, r8
10007ba6:	b5e0      	push	{r5, r6, r7, lr}
10007ba8:	b09f      	sub	sp, #124	; 0x7c
10007baa:	001c      	movs	r4, r3
10007bac:	9b28      	ldr	r3, [sp, #160]	; 0xa0
10007bae:	4691      	mov	r9, r2
10007bb0:	9309      	str	r3, [sp, #36]	; 0x24
10007bb2:	4ac9      	ldr	r2, [pc, #804]	; (10007ed8 <_vsnprintf+0x33c>)
10007bb4:	4bc9      	ldr	r3, [pc, #804]	; (10007edc <_vsnprintf+0x340>)
10007bb6:	468b      	mov	fp, r1
10007bb8:	9008      	str	r0, [sp, #32]
10007bba:	601a      	str	r2, [r3, #0]
10007bbc:	2900      	cmp	r1, #0
10007bbe:	d100      	bne.n	10007bc2 <_vsnprintf+0x26>
10007bc0:	e218      	b.n	10007ff4 <_vsnprintf+0x458>
10007bc2:	2300      	movs	r3, #0
10007bc4:	7820      	ldrb	r0, [r4, #0]
10007bc6:	469a      	mov	sl, r3
10007bc8:	2800      	cmp	r0, #0
10007bca:	d100      	bne.n	10007bce <_vsnprintf+0x32>
10007bcc:	e21a      	b.n	10008004 <_vsnprintf+0x468>
10007bce:	0026      	movs	r6, r4
10007bd0:	001d      	movs	r5, r3
10007bd2:	465c      	mov	r4, fp
10007bd4:	e00a      	b.n	10007bec <_vsnprintf+0x50>
10007bd6:	002a      	movs	r2, r5
10007bd8:	1c6f      	adds	r7, r5, #1
10007bda:	464b      	mov	r3, r9
10007bdc:	9d08      	ldr	r5, [sp, #32]
10007bde:	0021      	movs	r1, r4
10007be0:	47a8      	blx	r5
10007be2:	003d      	movs	r5, r7
10007be4:	3601      	adds	r6, #1
10007be6:	7830      	ldrb	r0, [r6, #0]
10007be8:	2800      	cmp	r0, #0
10007bea:	d070      	beq.n	10007cce <_vsnprintf+0x132>
10007bec:	2825      	cmp	r0, #37	; 0x25
10007bee:	d1f2      	bne.n	10007bd6 <_vsnprintf+0x3a>
10007bf0:	2310      	movs	r3, #16
10007bf2:	469b      	mov	fp, r3
10007bf4:	3b08      	subs	r3, #8
10007bf6:	469a      	mov	sl, r3
10007bf8:	3b04      	subs	r3, #4
10007bfa:	4698      	mov	r8, r3
10007bfc:	3b02      	subs	r3, #2
10007bfe:	2100      	movs	r1, #0
10007c00:	469c      	mov	ip, r3
10007c02:	1c72      	adds	r2, r6, #1
10007c04:	7810      	ldrb	r0, [r2, #0]
10007c06:	0016      	movs	r6, r2
10007c08:	0003      	movs	r3, r0
10007c0a:	3b20      	subs	r3, #32
10007c0c:	b2db      	uxtb	r3, r3
10007c0e:	2b10      	cmp	r3, #16
10007c10:	d803      	bhi.n	10007c1a <_vsnprintf+0x7e>
10007c12:	4fb3      	ldr	r7, [pc, #716]	; (10007ee0 <_vsnprintf+0x344>)
10007c14:	009b      	lsls	r3, r3, #2
10007c16:	58fb      	ldr	r3, [r7, r3]
10007c18:	469f      	mov	pc, r3
10007c1a:	0003      	movs	r3, r0
10007c1c:	3b30      	subs	r3, #48	; 0x30
10007c1e:	2b09      	cmp	r3, #9
10007c20:	d932      	bls.n	10007c88 <_vsnprintf+0xec>
10007c22:	2300      	movs	r3, #0
10007c24:	930a      	str	r3, [sp, #40]	; 0x28
10007c26:	282a      	cmp	r0, #42	; 0x2a
10007c28:	d068      	beq.n	10007cfc <_vsnprintf+0x160>
10007c2a:	2300      	movs	r3, #0
10007c2c:	4698      	mov	r8, r3
10007c2e:	282e      	cmp	r0, #46	; 0x2e
10007c30:	d03e      	beq.n	10007cb0 <_vsnprintf+0x114>
10007c32:	0003      	movs	r3, r0
10007c34:	3b68      	subs	r3, #104	; 0x68
10007c36:	b2db      	uxtb	r3, r3
10007c38:	2b12      	cmp	r3, #18
10007c3a:	d81c      	bhi.n	10007c76 <_vsnprintf+0xda>
10007c3c:	4aa9      	ldr	r2, [pc, #676]	; (10007ee4 <_vsnprintf+0x348>)
10007c3e:	009b      	lsls	r3, r3, #2
10007c40:	58d3      	ldr	r3, [r2, r3]
10007c42:	469f      	mov	pc, r3
10007c44:	2301      	movs	r3, #1
10007c46:	3201      	adds	r2, #1
10007c48:	4319      	orrs	r1, r3
10007c4a:	e7db      	b.n	10007c04 <_vsnprintf+0x68>
10007c4c:	4663      	mov	r3, ip
10007c4e:	3201      	adds	r2, #1
10007c50:	4319      	orrs	r1, r3
10007c52:	e7d7      	b.n	10007c04 <_vsnprintf+0x68>
10007c54:	4643      	mov	r3, r8
10007c56:	3201      	adds	r2, #1
10007c58:	4319      	orrs	r1, r3
10007c5a:	e7d3      	b.n	10007c04 <_vsnprintf+0x68>
10007c5c:	465b      	mov	r3, fp
10007c5e:	3201      	adds	r2, #1
10007c60:	4319      	orrs	r1, r3
10007c62:	e7cf      	b.n	10007c04 <_vsnprintf+0x68>
10007c64:	4653      	mov	r3, sl
10007c66:	3201      	adds	r2, #1
10007c68:	4319      	orrs	r1, r3
10007c6a:	e7cb      	b.n	10007c04 <_vsnprintf+0x68>
10007c6c:	2380      	movs	r3, #128	; 0x80
10007c6e:	005b      	lsls	r3, r3, #1
10007c70:	7870      	ldrb	r0, [r6, #1]
10007c72:	4319      	orrs	r1, r3
10007c74:	3601      	adds	r6, #1
10007c76:	0003      	movs	r3, r0
10007c78:	3b25      	subs	r3, #37	; 0x25
10007c7a:	b2db      	uxtb	r3, r3
10007c7c:	2b53      	cmp	r3, #83	; 0x53
10007c7e:	d8aa      	bhi.n	10007bd6 <_vsnprintf+0x3a>
10007c80:	4a99      	ldr	r2, [pc, #612]	; (10007ee8 <_vsnprintf+0x34c>)
10007c82:	009b      	lsls	r3, r3, #2
10007c84:	58d3      	ldr	r3, [r2, r3]
10007c86:	469f      	mov	pc, r3
10007c88:	2700      	movs	r7, #0
10007c8a:	0003      	movs	r3, r0
10007c8c:	00b8      	lsls	r0, r7, #2
10007c8e:	19c0      	adds	r0, r0, r7
10007c90:	3601      	adds	r6, #1
10007c92:	0040      	lsls	r0, r0, #1
10007c94:	18c0      	adds	r0, r0, r3
10007c96:	7833      	ldrb	r3, [r6, #0]
10007c98:	3830      	subs	r0, #48	; 0x30
10007c9a:	001a      	movs	r2, r3
10007c9c:	3a30      	subs	r2, #48	; 0x30
10007c9e:	0007      	movs	r7, r0
10007ca0:	2a09      	cmp	r2, #9
10007ca2:	d9f3      	bls.n	10007c8c <_vsnprintf+0xf0>
10007ca4:	900a      	str	r0, [sp, #40]	; 0x28
10007ca6:	0018      	movs	r0, r3
10007ca8:	2300      	movs	r3, #0
10007caa:	4698      	mov	r8, r3
10007cac:	282e      	cmp	r0, #46	; 0x2e
10007cae:	d1c0      	bne.n	10007c32 <_vsnprintf+0x96>
10007cb0:	2380      	movs	r3, #128	; 0x80
10007cb2:	7870      	ldrb	r0, [r6, #1]
10007cb4:	00db      	lsls	r3, r3, #3
10007cb6:	4319      	orrs	r1, r3
10007cb8:	0003      	movs	r3, r0
10007cba:	3b30      	subs	r3, #48	; 0x30
10007cbc:	1c72      	adds	r2, r6, #1
10007cbe:	2b09      	cmp	r3, #9
10007cc0:	d800      	bhi.n	10007cc4 <_vsnprintf+0x128>
10007cc2:	e1a1      	b.n	10008008 <_vsnprintf+0x46c>
10007cc4:	282a      	cmp	r0, #42	; 0x2a
10007cc6:	d100      	bne.n	10007cca <_vsnprintf+0x12e>
10007cc8:	e1b2      	b.n	10008030 <_vsnprintf+0x494>
10007cca:	0016      	movs	r6, r2
10007ccc:	e7b1      	b.n	10007c32 <_vsnprintf+0x96>
10007cce:	46a3      	mov	fp, r4
10007cd0:	46aa      	mov	sl, r5
10007cd2:	002c      	movs	r4, r5
10007cd4:	45d1      	cmp	r9, sl
10007cd6:	d803      	bhi.n	10007ce0 <_vsnprintf+0x144>
10007cd8:	2301      	movs	r3, #1
10007cda:	425b      	negs	r3, r3
10007cdc:	444b      	add	r3, r9
10007cde:	469a      	mov	sl, r3
10007ce0:	464b      	mov	r3, r9
10007ce2:	4652      	mov	r2, sl
10007ce4:	4659      	mov	r1, fp
10007ce6:	2000      	movs	r0, #0
10007ce8:	9d08      	ldr	r5, [sp, #32]
10007cea:	47a8      	blx	r5
10007cec:	0020      	movs	r0, r4
10007cee:	b01f      	add	sp, #124	; 0x7c
10007cf0:	bcf0      	pop	{r4, r5, r6, r7}
10007cf2:	46bb      	mov	fp, r7
10007cf4:	46b2      	mov	sl, r6
10007cf6:	46a9      	mov	r9, r5
10007cf8:	46a0      	mov	r8, r4
10007cfa:	bdf0      	pop	{r4, r5, r6, r7, pc}
10007cfc:	9b09      	ldr	r3, [sp, #36]	; 0x24
10007cfe:	cb40      	ldmia	r3!, {r6}
10007d00:	960a      	str	r6, [sp, #40]	; 0x28
10007d02:	2e00      	cmp	r6, #0
10007d04:	db03      	blt.n	10007d0e <_vsnprintf+0x172>
10007d06:	7850      	ldrb	r0, [r2, #1]
10007d08:	9309      	str	r3, [sp, #36]	; 0x24
10007d0a:	1c56      	adds	r6, r2, #1
10007d0c:	e78d      	b.n	10007c2a <_vsnprintf+0x8e>
10007d0e:	3828      	subs	r0, #40	; 0x28
10007d10:	4301      	orrs	r1, r0
10007d12:	4270      	negs	r0, r6
10007d14:	900a      	str	r0, [sp, #40]	; 0x28
10007d16:	9309      	str	r3, [sp, #36]	; 0x24
10007d18:	7850      	ldrb	r0, [r2, #1]
10007d1a:	1c56      	adds	r6, r2, #1
10007d1c:	e785      	b.n	10007c2a <_vsnprintf+0x8e>
10007d1e:	2878      	cmp	r0, #120	; 0x78
10007d20:	d100      	bne.n	10007d24 <_vsnprintf+0x188>
10007d22:	e1df      	b.n	100080e4 <_vsnprintf+0x548>
10007d24:	2858      	cmp	r0, #88	; 0x58
10007d26:	d100      	bne.n	10007d2a <_vsnprintf+0x18e>
10007d28:	e24c      	b.n	100081c4 <_vsnprintf+0x628>
10007d2a:	286f      	cmp	r0, #111	; 0x6f
10007d2c:	d100      	bne.n	10007d30 <_vsnprintf+0x194>
10007d2e:	e34f      	b.n	100083d0 <_vsnprintf+0x834>
10007d30:	2862      	cmp	r0, #98	; 0x62
10007d32:	d101      	bne.n	10007d38 <_vsnprintf+0x19c>
10007d34:	f000 fc30 	bl	10008598 <_vsnprintf+0x9fc>
10007d38:	2310      	movs	r3, #16
10007d3a:	000a      	movs	r2, r1
10007d3c:	439a      	bics	r2, r3
10007d3e:	920b      	str	r2, [sp, #44]	; 0x2c
10007d40:	2869      	cmp	r0, #105	; 0x69
10007d42:	d001      	beq.n	10007d48 <_vsnprintf+0x1ac>
10007d44:	f000 fca9 	bl	1000869a <_vsnprintf+0xafe>
10007d48:	230a      	movs	r3, #10
10007d4a:	930c      	str	r3, [sp, #48]	; 0x30
10007d4c:	054b      	lsls	r3, r1, #21
10007d4e:	d500      	bpl.n	10007d52 <_vsnprintf+0x1b6>
10007d50:	e1d0      	b.n	100080f4 <_vsnprintf+0x558>
10007d52:	9a0b      	ldr	r2, [sp, #44]	; 0x2c
10007d54:	2380      	movs	r3, #128	; 0x80
10007d56:	0011      	movs	r1, r2
10007d58:	009b      	lsls	r3, r3, #2
10007d5a:	4019      	ands	r1, r3
10007d5c:	468b      	mov	fp, r1
10007d5e:	421a      	tst	r2, r3
10007d60:	d000      	beq.n	10007d64 <_vsnprintf+0x1c8>
10007d62:	e2a1      	b.n	100082a8 <_vsnprintf+0x70c>
10007d64:	2380      	movs	r3, #128	; 0x80
10007d66:	0011      	movs	r1, r2
10007d68:	005b      	lsls	r3, r3, #1
10007d6a:	4019      	ands	r1, r3
10007d6c:	468a      	mov	sl, r1
10007d6e:	421a      	tst	r2, r3
10007d70:	d000      	beq.n	10007d74 <_vsnprintf+0x1d8>
10007d72:	e3b6      	b.n	100084e2 <_vsnprintf+0x946>
10007d74:	0013      	movs	r3, r2
10007d76:	065b      	lsls	r3, r3, #25
10007d78:	d500      	bpl.n	10007d7c <_vsnprintf+0x1e0>
10007d7a:	e2ed      	b.n	10008358 <_vsnprintf+0x7bc>
10007d7c:	0013      	movs	r3, r2
10007d7e:	9909      	ldr	r1, [sp, #36]	; 0x24
10007d80:	061b      	lsls	r3, r3, #24
10007d82:	d401      	bmi.n	10007d88 <_vsnprintf+0x1ec>
10007d84:	f000 fc76 	bl	10008674 <_vsnprintf+0xad8>
10007d88:	c908      	ldmia	r1!, {r3}
10007d8a:	b21b      	sxth	r3, r3
10007d8c:	17d8      	asrs	r0, r3, #31
10007d8e:	181a      	adds	r2, r3, r0
10007d90:	4042      	eors	r2, r0
10007d92:	b292      	uxth	r2, r2
10007d94:	9109      	str	r1, [sp, #36]	; 0x24
10007d96:	4693      	mov	fp, r2
10007d98:	0fda      	lsrs	r2, r3, #31
10007d9a:	9212      	str	r2, [sp, #72]	; 0x48
10007d9c:	2b00      	cmp	r3, #0
10007d9e:	d109      	bne.n	10007db4 <_vsnprintf+0x218>
10007da0:	2380      	movs	r3, #128	; 0x80
10007da2:	2210      	movs	r2, #16
10007da4:	990b      	ldr	r1, [sp, #44]	; 0x2c
10007da6:	00db      	lsls	r3, r3, #3
10007da8:	400b      	ands	r3, r1
10007daa:	4391      	bics	r1, r2
10007dac:	910b      	str	r1, [sp, #44]	; 0x2c
10007dae:	2b00      	cmp	r3, #0
10007db0:	d000      	beq.n	10007db4 <_vsnprintf+0x218>
10007db2:	e2e4      	b.n	1000837e <_vsnprintf+0x7e2>
10007db4:	9a0b      	ldr	r2, [sp, #44]	; 0x2c
10007db6:	2361      	movs	r3, #97	; 0x61
10007db8:	0692      	lsls	r2, r2, #26
10007dba:	d500      	bpl.n	10007dbe <_vsnprintf+0x222>
10007dbc:	2341      	movs	r3, #65	; 0x41
10007dbe:	a90e      	add	r1, sp, #56	; 0x38
10007dc0:	221f      	movs	r2, #31
10007dc2:	468c      	mov	ip, r1
10007dc4:	b2db      	uxtb	r3, r3
10007dc6:	4462      	add	r2, ip
10007dc8:	3b0a      	subs	r3, #10
10007dca:	465f      	mov	r7, fp
10007dcc:	9513      	str	r5, [sp, #76]	; 0x4c
10007dce:	46a3      	mov	fp, r4
10007dd0:	4655      	mov	r5, sl
10007dd2:	9c0c      	ldr	r4, [sp, #48]	; 0x30
10007dd4:	46b2      	mov	sl, r6
10007dd6:	930d      	str	r3, [sp, #52]	; 0x34
10007dd8:	0016      	movs	r6, r2
10007dda:	e00a      	b.n	10007df2 <_vsnprintf+0x256>
10007ddc:	3330      	adds	r3, #48	; 0x30
10007dde:	b2db      	uxtb	r3, r3
10007de0:	3501      	adds	r5, #1
10007de2:	5573      	strb	r3, [r6, r5]
10007de4:	42a7      	cmp	r7, r4
10007de6:	d200      	bcs.n	10007dea <_vsnprintf+0x24e>
10007de8:	e2ed      	b.n	100083c6 <_vsnprintf+0x82a>
10007dea:	2d20      	cmp	r5, #32
10007dec:	d100      	bne.n	10007df0 <_vsnprintf+0x254>
10007dee:	e2ea      	b.n	100083c6 <_vsnprintf+0x82a>
10007df0:	0007      	movs	r7, r0
10007df2:	0021      	movs	r1, r4
10007df4:	0038      	movs	r0, r7
10007df6:	f7fe fb01 	bl	100063fc <__wrap___aeabi_uidiv>
10007dfa:	b2cb      	uxtb	r3, r1
10007dfc:	2909      	cmp	r1, #9
10007dfe:	d9ed      	bls.n	10007ddc <_vsnprintf+0x240>
10007e00:	9a0d      	ldr	r2, [sp, #52]	; 0x34
10007e02:	4694      	mov	ip, r2
10007e04:	4463      	add	r3, ip
10007e06:	b2db      	uxtb	r3, r3
10007e08:	e7ea      	b.n	10007de0 <_vsnprintf+0x244>
10007e0a:	2380      	movs	r3, #128	; 0x80
10007e0c:	009b      	lsls	r3, r3, #2
10007e0e:	7870      	ldrb	r0, [r6, #1]
10007e10:	4319      	orrs	r1, r3
10007e12:	3601      	adds	r6, #1
10007e14:	e72f      	b.n	10007c76 <_vsnprintf+0xda>
10007e16:	7870      	ldrb	r0, [r6, #1]
10007e18:	2868      	cmp	r0, #104	; 0x68
10007e1a:	d100      	bne.n	10007e1e <_vsnprintf+0x282>
10007e1c:	e1cd      	b.n	100081ba <_vsnprintf+0x61e>
10007e1e:	2380      	movs	r3, #128	; 0x80
10007e20:	3601      	adds	r6, #1
10007e22:	4319      	orrs	r1, r3
10007e24:	e727      	b.n	10007c76 <_vsnprintf+0xda>
10007e26:	7870      	ldrb	r0, [r6, #1]
10007e28:	286c      	cmp	r0, #108	; 0x6c
10007e2a:	d100      	bne.n	10007e2e <_vsnprintf+0x292>
10007e2c:	e1bf      	b.n	100081ae <_vsnprintf+0x612>
10007e2e:	2380      	movs	r3, #128	; 0x80
10007e30:	005b      	lsls	r3, r3, #1
10007e32:	4319      	orrs	r1, r3
10007e34:	3601      	adds	r6, #1
10007e36:	e71e      	b.n	10007c76 <_vsnprintf+0xda>
10007e38:	2846      	cmp	r0, #70	; 0x46
10007e3a:	d100      	bne.n	10007e3e <_vsnprintf+0x2a2>
10007e3c:	e19b      	b.n	10008176 <_vsnprintf+0x5da>
10007e3e:	2207      	movs	r2, #7
10007e40:	9b09      	ldr	r3, [sp, #36]	; 0x24
10007e42:	9104      	str	r1, [sp, #16]
10007e44:	3307      	adds	r3, #7
10007e46:	4393      	bics	r3, r2
10007e48:	9a0a      	ldr	r2, [sp, #40]	; 0x28
10007e4a:	0019      	movs	r1, r3
10007e4c:	9203      	str	r2, [sp, #12]
10007e4e:	4642      	mov	r2, r8
10007e50:	9202      	str	r2, [sp, #8]
10007e52:	c90c      	ldmia	r1!, {r2, r3}
10007e54:	9808      	ldr	r0, [sp, #32]
10007e56:	9200      	str	r2, [sp, #0]
10007e58:	9301      	str	r3, [sp, #4]
10007e5a:	9109      	str	r1, [sp, #36]	; 0x24
10007e5c:	002a      	movs	r2, r5
10007e5e:	464b      	mov	r3, r9
10007e60:	0021      	movs	r1, r4
10007e62:	f7ff fccf 	bl	10007804 <_ftoa>
10007e66:	3601      	adds	r6, #1
10007e68:	0005      	movs	r5, r0
10007e6a:	e6bc      	b.n	10007be6 <_vsnprintf+0x4a>
10007e6c:	002a      	movs	r2, r5
10007e6e:	1c6f      	adds	r7, r5, #1
10007e70:	464b      	mov	r3, r9
10007e72:	9d08      	ldr	r5, [sp, #32]
10007e74:	0021      	movs	r1, r4
10007e76:	2025      	movs	r0, #37	; 0x25
10007e78:	47a8      	blx	r5
10007e7a:	3601      	adds	r6, #1
10007e7c:	003d      	movs	r5, r7
10007e7e:	e6b2      	b.n	10007be6 <_vsnprintf+0x4a>
10007e80:	078b      	lsls	r3, r1, #30
10007e82:	d400      	bmi.n	10007e86 <_vsnprintf+0x2ea>
10007e84:	e1ad      	b.n	100081e2 <_vsnprintf+0x646>
10007e86:	9b09      	ldr	r3, [sp, #36]	; 0x24
10007e88:	002a      	movs	r2, r5
10007e8a:	469a      	mov	sl, r3
10007e8c:	1c6b      	adds	r3, r5, #1
10007e8e:	4698      	mov	r8, r3
10007e90:	4653      	mov	r3, sl
10007e92:	cb01      	ldmia	r3!, {r0}
10007e94:	0021      	movs	r1, r4
10007e96:	469a      	mov	sl, r3
10007e98:	9f08      	ldr	r7, [sp, #32]
10007e9a:	464b      	mov	r3, r9
10007e9c:	b2c0      	uxtb	r0, r0
10007e9e:	47b8      	blx	r7
10007ea0:	9b0a      	ldr	r3, [sp, #40]	; 0x28
10007ea2:	469c      	mov	ip, r3
10007ea4:	4465      	add	r5, ip
10007ea6:	2b01      	cmp	r3, #1
10007ea8:	d800      	bhi.n	10007eac <_vsnprintf+0x310>
10007eaa:	e286      	b.n	100083ba <_vsnprintf+0x81e>
10007eac:	9b08      	ldr	r3, [sp, #32]
10007eae:	4647      	mov	r7, r8
10007eb0:	46b0      	mov	r8, r6
10007eb2:	0026      	movs	r6, r4
10007eb4:	464c      	mov	r4, r9
10007eb6:	4699      	mov	r9, r3
10007eb8:	003a      	movs	r2, r7
10007eba:	0023      	movs	r3, r4
10007ebc:	3701      	adds	r7, #1
10007ebe:	0031      	movs	r1, r6
10007ec0:	2020      	movs	r0, #32
10007ec2:	47c8      	blx	r9
10007ec4:	42af      	cmp	r7, r5
10007ec6:	d1f7      	bne.n	10007eb8 <_vsnprintf+0x31c>
10007ec8:	46a1      	mov	r9, r4
10007eca:	4653      	mov	r3, sl
10007ecc:	0034      	movs	r4, r6
10007ece:	4646      	mov	r6, r8
10007ed0:	9309      	str	r3, [sp, #36]	; 0x24
10007ed2:	3601      	adds	r6, #1
10007ed4:	e687      	b.n	10007be6 <_vsnprintf+0x4a>
10007ed6:	46c0      	nop			; (mov r8, r8)
10007ed8:	10007b9d 	.word	0x10007b9d
10007edc:	20000760 	.word	0x20000760
10007ee0:	10009258 	.word	0x10009258
10007ee4:	1000929c 	.word	0x1000929c
10007ee8:	100092e8 	.word	0x100092e8
10007eec:	9b09      	ldr	r3, [sp, #36]	; 0x24
10007eee:	cb04      	ldmia	r3!, {r2}
10007ef0:	469b      	mov	fp, r3
10007ef2:	4643      	mov	r3, r8
10007ef4:	9209      	str	r2, [sp, #36]	; 0x24
10007ef6:	2b00      	cmp	r3, #0
10007ef8:	d100      	bne.n	10007efc <_vsnprintf+0x360>
10007efa:	e0c6      	b.n	1000808a <_vsnprintf+0x4ee>
10007efc:	7813      	ldrb	r3, [r2, #0]
10007efe:	469c      	mov	ip, r3
10007f00:	2b00      	cmp	r3, #0
10007f02:	d100      	bne.n	10007f06 <_vsnprintf+0x36a>
10007f04:	e3bd      	b.n	10008682 <_vsnprintf+0xae6>
10007f06:	4643      	mov	r3, r8
10007f08:	3b01      	subs	r3, #1
10007f0a:	9a09      	ldr	r2, [sp, #36]	; 0x24
10007f0c:	3301      	adds	r3, #1
10007f0e:	18d0      	adds	r0, r2, r3
10007f10:	9f0a      	ldr	r7, [sp, #40]	; 0x28
10007f12:	0013      	movs	r3, r2
10007f14:	e001      	b.n	10007f1a <_vsnprintf+0x37e>
10007f16:	4283      	cmp	r3, r0
10007f18:	d003      	beq.n	10007f22 <_vsnprintf+0x386>
10007f1a:	785a      	ldrb	r2, [r3, #1]
10007f1c:	3301      	adds	r3, #1
10007f1e:	2a00      	cmp	r2, #0
10007f20:	d1f9      	bne.n	10007f16 <_vsnprintf+0x37a>
10007f22:	9a09      	ldr	r2, [sp, #36]	; 0x24
10007f24:	970a      	str	r7, [sp, #40]	; 0x28
10007f26:	1a9b      	subs	r3, r3, r2
10007f28:	930b      	str	r3, [sp, #44]	; 0x2c
10007f2a:	2380      	movs	r3, #128	; 0x80
10007f2c:	000a      	movs	r2, r1
10007f2e:	00db      	lsls	r3, r3, #3
10007f30:	401a      	ands	r2, r3
10007f32:	920c      	str	r2, [sp, #48]	; 0x30
10007f34:	4219      	tst	r1, r3
10007f36:	d004      	beq.n	10007f42 <_vsnprintf+0x3a6>
10007f38:	9b0b      	ldr	r3, [sp, #44]	; 0x2c
10007f3a:	4543      	cmp	r3, r8
10007f3c:	d901      	bls.n	10007f42 <_vsnprintf+0x3a6>
10007f3e:	4643      	mov	r3, r8
10007f40:	930b      	str	r3, [sp, #44]	; 0x2c
10007f42:	2302      	movs	r3, #2
10007f44:	001a      	movs	r2, r3
10007f46:	400a      	ands	r2, r1
10007f48:	920d      	str	r2, [sp, #52]	; 0x34
10007f4a:	420b      	tst	r3, r1
10007f4c:	d100      	bne.n	10007f50 <_vsnprintf+0x3b4>
10007f4e:	e187      	b.n	10008260 <_vsnprintf+0x6c4>
10007f50:	4660      	mov	r0, ip
10007f52:	2800      	cmp	r0, #0
10007f54:	d100      	bne.n	10007f58 <_vsnprintf+0x3bc>
10007f56:	e168      	b.n	1000822a <_vsnprintf+0x68e>
10007f58:	9b0c      	ldr	r3, [sp, #48]	; 0x30
10007f5a:	2b00      	cmp	r3, #0
10007f5c:	d100      	bne.n	10007f60 <_vsnprintf+0x3c4>
10007f5e:	e10d      	b.n	1000817c <_vsnprintf+0x5e0>
10007f60:	44a8      	add	r8, r5
10007f62:	46c2      	mov	sl, r8
10007f64:	9b09      	ldr	r3, [sp, #36]	; 0x24
10007f66:	4657      	mov	r7, sl
10007f68:	1b5b      	subs	r3, r3, r5
10007f6a:	4698      	mov	r8, r3
10007f6c:	9b08      	ldr	r3, [sp, #32]
10007f6e:	46b2      	mov	sl, r6
10007f70:	002a      	movs	r2, r5
10007f72:	0026      	movs	r6, r4
10007f74:	464c      	mov	r4, r9
10007f76:	4699      	mov	r9, r3
10007f78:	e009      	b.n	10007f8e <_vsnprintf+0x3f2>
10007f7a:	0023      	movs	r3, r4
10007f7c:	0031      	movs	r1, r6
10007f7e:	1c55      	adds	r5, r2, #1
10007f80:	47c8      	blx	r9
10007f82:	4643      	mov	r3, r8
10007f84:	5d58      	ldrb	r0, [r3, r5]
10007f86:	2800      	cmp	r0, #0
10007f88:	d100      	bne.n	10007f8c <_vsnprintf+0x3f0>
10007f8a:	e126      	b.n	100081da <_vsnprintf+0x63e>
10007f8c:	002a      	movs	r2, r5
10007f8e:	4297      	cmp	r7, r2
10007f90:	d1f3      	bne.n	10007f7a <_vsnprintf+0x3de>
10007f92:	46a1      	mov	r9, r4
10007f94:	003d      	movs	r5, r7
10007f96:	0034      	movs	r4, r6
10007f98:	4656      	mov	r6, sl
10007f9a:	9b0d      	ldr	r3, [sp, #52]	; 0x34
10007f9c:	2b00      	cmp	r3, #0
10007f9e:	d000      	beq.n	10007fa2 <_vsnprintf+0x406>
10007fa0:	e143      	b.n	1000822a <_vsnprintf+0x68e>
10007fa2:	465b      	mov	r3, fp
10007fa4:	3601      	adds	r6, #1
10007fa6:	9309      	str	r3, [sp, #36]	; 0x24
10007fa8:	e61d      	b.n	10007be6 <_vsnprintf+0x4a>
10007faa:	9b09      	ldr	r3, [sp, #36]	; 0x24
10007fac:	001a      	movs	r2, r3
10007fae:	ca08      	ldmia	r2!, {r3}
10007fb0:	4692      	mov	sl, r2
10007fb2:	2b00      	cmp	r3, #0
10007fb4:	d048      	beq.n	10008048 <_vsnprintf+0x4ac>
10007fb6:	2221      	movs	r2, #33	; 0x21
10007fb8:	4311      	orrs	r1, r2
10007fba:	468b      	mov	fp, r1
10007fbc:	a80e      	add	r0, sp, #56	; 0x38
10007fbe:	4684      	mov	ip, r0
10007fc0:	211f      	movs	r1, #31
10007fc2:	4461      	add	r1, ip
10007fc4:	9509      	str	r5, [sp, #36]	; 0x24
10007fc6:	2200      	movs	r2, #0
10007fc8:	270f      	movs	r7, #15
10007fca:	46a4      	mov	ip, r4
10007fcc:	000d      	movs	r5, r1
10007fce:	e002      	b.n	10007fd6 <_vsnprintf+0x43a>
10007fd0:	2a20      	cmp	r2, #32
10007fd2:	d00c      	beq.n	10007fee <_vsnprintf+0x452>
10007fd4:	000b      	movs	r3, r1
10007fd6:	003c      	movs	r4, r7
10007fd8:	401c      	ands	r4, r3
10007fda:	0020      	movs	r0, r4
10007fdc:	3037      	adds	r0, #55	; 0x37
10007fde:	2c09      	cmp	r4, #9
10007fe0:	d800      	bhi.n	10007fe4 <_vsnprintf+0x448>
10007fe2:	3807      	subs	r0, #7
10007fe4:	3201      	adds	r2, #1
10007fe6:	54a8      	strb	r0, [r5, r2]
10007fe8:	0919      	lsrs	r1, r3, #4
10007fea:	2b0f      	cmp	r3, #15
10007fec:	d8f0      	bhi.n	10007fd0 <_vsnprintf+0x434>
10007fee:	4664      	mov	r4, ip
10007ff0:	9d09      	ldr	r5, [sp, #36]	; 0x24
10007ff2:	e032      	b.n	1000805a <_vsnprintf+0x4be>
10007ff4:	4bdc      	ldr	r3, [pc, #880]	; (10008368 <_vsnprintf+0x7cc>)
10007ff6:	7820      	ldrb	r0, [r4, #0]
10007ff8:	9308      	str	r3, [sp, #32]
10007ffa:	2300      	movs	r3, #0
10007ffc:	469a      	mov	sl, r3
10007ffe:	2800      	cmp	r0, #0
10008000:	d000      	beq.n	10008004 <_vsnprintf+0x468>
10008002:	e5e4      	b.n	10007bce <_vsnprintf+0x32>
10008004:	2400      	movs	r4, #0
10008006:	e665      	b.n	10007cd4 <_vsnprintf+0x138>
10008008:	4643      	mov	r3, r8
1000800a:	0006      	movs	r6, r0
1000800c:	9f0a      	ldr	r7, [sp, #40]	; 0x28
1000800e:	0098      	lsls	r0, r3, #2
10008010:	18c0      	adds	r0, r0, r3
10008012:	3201      	adds	r2, #1
10008014:	0040      	lsls	r0, r0, #1
10008016:	1980      	adds	r0, r0, r6
10008018:	7816      	ldrb	r6, [r2, #0]
1000801a:	0003      	movs	r3, r0
1000801c:	0030      	movs	r0, r6
1000801e:	3830      	subs	r0, #48	; 0x30
10008020:	3b30      	subs	r3, #48	; 0x30
10008022:	2809      	cmp	r0, #9
10008024:	d9f3      	bls.n	1000800e <_vsnprintf+0x472>
10008026:	0030      	movs	r0, r6
10008028:	4698      	mov	r8, r3
1000802a:	0016      	movs	r6, r2
1000802c:	970a      	str	r7, [sp, #40]	; 0x28
1000802e:	e600      	b.n	10007c32 <_vsnprintf+0x96>
10008030:	9b09      	ldr	r3, [sp, #36]	; 0x24
10008032:	3602      	adds	r6, #2
10008034:	cb04      	ldmia	r3!, {r2}
10008036:	4690      	mov	r8, r2
10008038:	43d2      	mvns	r2, r2
1000803a:	4640      	mov	r0, r8
1000803c:	17d2      	asrs	r2, r2, #31
1000803e:	4010      	ands	r0, r2
10008040:	4680      	mov	r8, r0
10008042:	9309      	str	r3, [sp, #36]	; 0x24
10008044:	7830      	ldrb	r0, [r6, #0]
10008046:	e5f4      	b.n	10007c32 <_vsnprintf+0x96>
10008048:	2210      	movs	r2, #16
1000804a:	0008      	movs	r0, r1
1000804c:	4390      	bics	r0, r2
1000804e:	3211      	adds	r2, #17
10008050:	4310      	orrs	r0, r2
10008052:	4683      	mov	fp, r0
10008054:	2200      	movs	r2, #0
10008056:	0549      	lsls	r1, r1, #21
10008058:	d5b0      	bpl.n	10007fbc <_vsnprintf+0x420>
1000805a:	465b      	mov	r3, fp
1000805c:	9306      	str	r3, [sp, #24]
1000805e:	2308      	movs	r3, #8
10008060:	9305      	str	r3, [sp, #20]
10008062:	4643      	mov	r3, r8
10008064:	9304      	str	r3, [sp, #16]
10008066:	2310      	movs	r3, #16
10008068:	9303      	str	r3, [sp, #12]
1000806a:	2300      	movs	r3, #0
1000806c:	9302      	str	r3, [sp, #8]
1000806e:	ab16      	add	r3, sp, #88	; 0x58
10008070:	9201      	str	r2, [sp, #4]
10008072:	9300      	str	r3, [sp, #0]
10008074:	002a      	movs	r2, r5
10008076:	464b      	mov	r3, r9
10008078:	0021      	movs	r1, r4
1000807a:	9808      	ldr	r0, [sp, #32]
1000807c:	f7ff f8a6 	bl	100071cc <_ntoa_format>
10008080:	4653      	mov	r3, sl
10008082:	0005      	movs	r5, r0
10008084:	3601      	adds	r6, #1
10008086:	9309      	str	r3, [sp, #36]	; 0x24
10008088:	e5ad      	b.n	10007be6 <_vsnprintf+0x4a>
1000808a:	7813      	ldrb	r3, [r2, #0]
1000808c:	469c      	mov	ip, r3
1000808e:	2b00      	cmp	r3, #0
10008090:	d100      	bne.n	10008094 <_vsnprintf+0x4f8>
10008092:	e2f7      	b.n	10008684 <_vsnprintf+0xae8>
10008094:	2302      	movs	r3, #2
10008096:	425b      	negs	r3, r3
10008098:	e737      	b.n	10007f0a <_vsnprintf+0x36e>
1000809a:	2320      	movs	r3, #32
1000809c:	0002      	movs	r2, r0
1000809e:	439a      	bics	r2, r3
100080a0:	2a47      	cmp	r2, #71	; 0x47
100080a2:	d104      	bne.n	100080ae <_vsnprintf+0x512>
100080a4:	2380      	movs	r3, #128	; 0x80
100080a6:	011b      	lsls	r3, r3, #4
100080a8:	4319      	orrs	r1, r3
100080aa:	2302      	movs	r3, #2
100080ac:	4398      	bics	r0, r3
100080ae:	2845      	cmp	r0, #69	; 0x45
100080b0:	d101      	bne.n	100080b6 <_vsnprintf+0x51a>
100080b2:	2320      	movs	r3, #32
100080b4:	4319      	orrs	r1, r3
100080b6:	2207      	movs	r2, #7
100080b8:	9b09      	ldr	r3, [sp, #36]	; 0x24
100080ba:	9104      	str	r1, [sp, #16]
100080bc:	3307      	adds	r3, #7
100080be:	4393      	bics	r3, r2
100080c0:	9a0a      	ldr	r2, [sp, #40]	; 0x28
100080c2:	0019      	movs	r1, r3
100080c4:	9203      	str	r2, [sp, #12]
100080c6:	4642      	mov	r2, r8
100080c8:	9202      	str	r2, [sp, #8]
100080ca:	c90c      	ldmia	r1!, {r2, r3}
100080cc:	9808      	ldr	r0, [sp, #32]
100080ce:	9200      	str	r2, [sp, #0]
100080d0:	9301      	str	r3, [sp, #4]
100080d2:	9109      	str	r1, [sp, #36]	; 0x24
100080d4:	002a      	movs	r2, r5
100080d6:	464b      	mov	r3, r9
100080d8:	0021      	movs	r1, r4
100080da:	f7ff f96d 	bl	100073b8 <_etoa>
100080de:	3601      	adds	r6, #1
100080e0:	0005      	movs	r5, r0
100080e2:	e580      	b.n	10007be6 <_vsnprintf+0x4a>
100080e4:	2310      	movs	r3, #16
100080e6:	930c      	str	r3, [sp, #48]	; 0x30
100080e8:	230c      	movs	r3, #12
100080ea:	000a      	movs	r2, r1
100080ec:	439a      	bics	r2, r3
100080ee:	920b      	str	r2, [sp, #44]	; 0x2c
100080f0:	054b      	lsls	r3, r1, #21
100080f2:	d503      	bpl.n	100080fc <_vsnprintf+0x560>
100080f4:	2301      	movs	r3, #1
100080f6:	9a0b      	ldr	r2, [sp, #44]	; 0x2c
100080f8:	439a      	bics	r2, r3
100080fa:	920b      	str	r2, [sp, #44]	; 0x2c
100080fc:	2869      	cmp	r0, #105	; 0x69
100080fe:	d100      	bne.n	10008102 <_vsnprintf+0x566>
10008100:	e627      	b.n	10007d52 <_vsnprintf+0x1b6>
10008102:	2864      	cmp	r0, #100	; 0x64
10008104:	d100      	bne.n	10008108 <_vsnprintf+0x56c>
10008106:	e624      	b.n	10007d52 <_vsnprintf+0x1b6>
10008108:	9a0b      	ldr	r2, [sp, #44]	; 0x2c
1000810a:	2380      	movs	r3, #128	; 0x80
1000810c:	0011      	movs	r1, r2
1000810e:	009b      	lsls	r3, r3, #2
10008110:	4019      	ands	r1, r3
10008112:	468b      	mov	fp, r1
10008114:	421a      	tst	r2, r3
10008116:	d000      	beq.n	1000811a <_vsnprintf+0x57e>
10008118:	e166      	b.n	100083e8 <_vsnprintf+0x84c>
1000811a:	2380      	movs	r3, #128	; 0x80
1000811c:	0011      	movs	r1, r2
1000811e:	005b      	lsls	r3, r3, #1
10008120:	4019      	ands	r1, r3
10008122:	468a      	mov	sl, r1
10008124:	421a      	tst	r2, r3
10008126:	d000      	beq.n	1000812a <_vsnprintf+0x58e>
10008128:	e239      	b.n	1000859e <_vsnprintf+0xa02>
1000812a:	0013      	movs	r3, r2
1000812c:	065b      	lsls	r3, r3, #25
1000812e:	d500      	bpl.n	10008132 <_vsnprintf+0x596>
10008130:	e13c      	b.n	100083ac <_vsnprintf+0x810>
10008132:	0013      	movs	r3, r2
10008134:	061b      	lsls	r3, r3, #24
10008136:	d400      	bmi.n	1000813a <_vsnprintf+0x59e>
10008138:	e2a6      	b.n	10008688 <_vsnprintf+0xaec>
1000813a:	9b09      	ldr	r3, [sp, #36]	; 0x24
1000813c:	cb04      	ldmia	r3!, {r2}
1000813e:	0412      	lsls	r2, r2, #16
10008140:	0c12      	lsrs	r2, r2, #16
10008142:	4693      	mov	fp, r2
10008144:	9309      	str	r3, [sp, #36]	; 0x24
10008146:	465b      	mov	r3, fp
10008148:	2b00      	cmp	r3, #0
1000814a:	d000      	beq.n	1000814e <_vsnprintf+0x5b2>
1000814c:	e19a      	b.n	10008484 <_vsnprintf+0x8e8>
1000814e:	9a0b      	ldr	r2, [sp, #44]	; 0x2c
10008150:	3310      	adds	r3, #16
10008152:	0011      	movs	r1, r2
10008154:	4399      	bics	r1, r3
10008156:	910b      	str	r1, [sp, #44]	; 0x2c
10008158:	0552      	lsls	r2, r2, #21
1000815a:	d400      	bmi.n	1000815e <_vsnprintf+0x5c2>
1000815c:	e192      	b.n	10008484 <_vsnprintf+0x8e8>
1000815e:	2300      	movs	r3, #0
10008160:	469a      	mov	sl, r3
10008162:	9b0b      	ldr	r3, [sp, #44]	; 0x2c
10008164:	9306      	str	r3, [sp, #24]
10008166:	9b0a      	ldr	r3, [sp, #40]	; 0x28
10008168:	9305      	str	r3, [sp, #20]
1000816a:	4643      	mov	r3, r8
1000816c:	9304      	str	r3, [sp, #16]
1000816e:	9b0c      	ldr	r3, [sp, #48]	; 0x30
10008170:	9303      	str	r3, [sp, #12]
10008172:	2300      	movs	r3, #0
10008174:	e10c      	b.n	10008390 <_vsnprintf+0x7f4>
10008176:	2320      	movs	r3, #32
10008178:	4319      	orrs	r1, r3
1000817a:	e660      	b.n	10007e3e <_vsnprintf+0x2a2>
1000817c:	9b09      	ldr	r3, [sp, #36]	; 0x24
1000817e:	9a0a      	ldr	r2, [sp, #40]	; 0x28
10008180:	1b5b      	subs	r3, r3, r5
10008182:	4698      	mov	r8, r3
10008184:	464b      	mov	r3, r9
10008186:	4691      	mov	r9, r2
10008188:	001f      	movs	r7, r3
1000818a:	46b2      	mov	sl, r6
1000818c:	0026      	movs	r6, r4
1000818e:	9c08      	ldr	r4, [sp, #32]
10008190:	002a      	movs	r2, r5
10008192:	003b      	movs	r3, r7
10008194:	0031      	movs	r1, r6
10008196:	47a0      	blx	r4
10008198:	4643      	mov	r3, r8
1000819a:	3501      	adds	r5, #1
1000819c:	5d58      	ldrb	r0, [r3, r5]
1000819e:	2800      	cmp	r0, #0
100081a0:	d1f6      	bne.n	10008190 <_vsnprintf+0x5f4>
100081a2:	464a      	mov	r2, r9
100081a4:	0034      	movs	r4, r6
100081a6:	46b9      	mov	r9, r7
100081a8:	4656      	mov	r6, sl
100081aa:	920a      	str	r2, [sp, #40]	; 0x28
100081ac:	e6f5      	b.n	10007f9a <_vsnprintf+0x3fe>
100081ae:	23c0      	movs	r3, #192	; 0xc0
100081b0:	009b      	lsls	r3, r3, #2
100081b2:	78b0      	ldrb	r0, [r6, #2]
100081b4:	4319      	orrs	r1, r3
100081b6:	3602      	adds	r6, #2
100081b8:	e55d      	b.n	10007c76 <_vsnprintf+0xda>
100081ba:	23c0      	movs	r3, #192	; 0xc0
100081bc:	78b0      	ldrb	r0, [r6, #2]
100081be:	4319      	orrs	r1, r3
100081c0:	3602      	adds	r6, #2
100081c2:	e558      	b.n	10007c76 <_vsnprintf+0xda>
100081c4:	230c      	movs	r3, #12
100081c6:	000a      	movs	r2, r1
100081c8:	439a      	bics	r2, r3
100081ca:	3314      	adds	r3, #20
100081cc:	431a      	orrs	r2, r3
100081ce:	3b10      	subs	r3, #16
100081d0:	920b      	str	r2, [sp, #44]	; 0x2c
100081d2:	930c      	str	r3, [sp, #48]	; 0x30
100081d4:	054b      	lsls	r3, r1, #21
100081d6:	d48d      	bmi.n	100080f4 <_vsnprintf+0x558>
100081d8:	e796      	b.n	10008108 <_vsnprintf+0x56c>
100081da:	46a1      	mov	r9, r4
100081dc:	0034      	movs	r4, r6
100081de:	4656      	mov	r6, sl
100081e0:	e6db      	b.n	10007f9a <_vsnprintf+0x3fe>
100081e2:	9a0a      	ldr	r2, [sp, #40]	; 0x28
100081e4:	2a01      	cmp	r2, #1
100081e6:	d800      	bhi.n	100081ea <_vsnprintf+0x64e>
100081e8:	e253      	b.n	10008692 <_vsnprintf+0xaf6>
100081ea:	1e6b      	subs	r3, r5, #1
100081ec:	189f      	adds	r7, r3, r2
100081ee:	9b08      	ldr	r3, [sp, #32]
100081f0:	46b0      	mov	r8, r6
100081f2:	0026      	movs	r6, r4
100081f4:	464c      	mov	r4, r9
100081f6:	4699      	mov	r9, r3
100081f8:	002a      	movs	r2, r5
100081fa:	0023      	movs	r3, r4
100081fc:	3501      	adds	r5, #1
100081fe:	0031      	movs	r1, r6
10008200:	2020      	movs	r0, #32
10008202:	47c8      	blx	r9
10008204:	42bd      	cmp	r5, r7
10008206:	d1f7      	bne.n	100081f8 <_vsnprintf+0x65c>
10008208:	46a1      	mov	r9, r4
1000820a:	0034      	movs	r4, r6
1000820c:	4646      	mov	r6, r8
1000820e:	9b09      	ldr	r3, [sp, #36]	; 0x24
10008210:	003a      	movs	r2, r7
10008212:	cb01      	ldmia	r3!, {r0}
10008214:	0021      	movs	r1, r4
10008216:	4698      	mov	r8, r3
10008218:	1c7d      	adds	r5, r7, #1
1000821a:	464b      	mov	r3, r9
1000821c:	9f08      	ldr	r7, [sp, #32]
1000821e:	b2c0      	uxtb	r0, r0
10008220:	47b8      	blx	r7
10008222:	4643      	mov	r3, r8
10008224:	3601      	adds	r6, #1
10008226:	9309      	str	r3, [sp, #36]	; 0x24
10008228:	e4dd      	b.n	10007be6 <_vsnprintf+0x4a>
1000822a:	9b0b      	ldr	r3, [sp, #44]	; 0x2c
1000822c:	9a0a      	ldr	r2, [sp, #40]	; 0x28
1000822e:	46a8      	mov	r8, r5
10008230:	429a      	cmp	r2, r3
10008232:	d800      	bhi.n	10008236 <_vsnprintf+0x69a>
10008234:	e6b5      	b.n	10007fa2 <_vsnprintf+0x406>
10008236:	4694      	mov	ip, r2
10008238:	4465      	add	r5, ip
1000823a:	1aed      	subs	r5, r5, r3
1000823c:	9b08      	ldr	r3, [sp, #32]
1000823e:	4647      	mov	r7, r8
10008240:	46b0      	mov	r8, r6
10008242:	0026      	movs	r6, r4
10008244:	464c      	mov	r4, r9
10008246:	4699      	mov	r9, r3
10008248:	003a      	movs	r2, r7
1000824a:	0023      	movs	r3, r4
1000824c:	3701      	adds	r7, #1
1000824e:	0031      	movs	r1, r6
10008250:	2020      	movs	r0, #32
10008252:	47c8      	blx	r9
10008254:	42af      	cmp	r7, r5
10008256:	d1f7      	bne.n	10008248 <_vsnprintf+0x6ac>
10008258:	46a1      	mov	r9, r4
1000825a:	0034      	movs	r4, r6
1000825c:	4646      	mov	r6, r8
1000825e:	e6a0      	b.n	10007fa2 <_vsnprintf+0x406>
10008260:	9a0b      	ldr	r2, [sp, #44]	; 0x2c
10008262:	990a      	ldr	r1, [sp, #40]	; 0x28
10008264:	1c53      	adds	r3, r2, #1
10008266:	4291      	cmp	r1, r2
10008268:	d800      	bhi.n	1000826c <_vsnprintf+0x6d0>
1000826a:	e214      	b.n	10008696 <_vsnprintf+0xafa>
1000826c:	194b      	adds	r3, r1, r5
1000826e:	1a9b      	subs	r3, r3, r2
10008270:	001f      	movs	r7, r3
10008272:	9b08      	ldr	r3, [sp, #32]
10008274:	46b2      	mov	sl, r6
10008276:	0026      	movs	r6, r4
10008278:	464c      	mov	r4, r9
1000827a:	4699      	mov	r9, r3
1000827c:	002a      	movs	r2, r5
1000827e:	0023      	movs	r3, r4
10008280:	3501      	adds	r5, #1
10008282:	0031      	movs	r1, r6
10008284:	2020      	movs	r0, #32
10008286:	47c8      	blx	r9
10008288:	42bd      	cmp	r5, r7
1000828a:	d1f7      	bne.n	1000827c <_vsnprintf+0x6e0>
1000828c:	9b0a      	ldr	r3, [sp, #40]	; 0x28
1000828e:	46a1      	mov	r9, r4
10008290:	3301      	adds	r3, #1
10008292:	930b      	str	r3, [sp, #44]	; 0x2c
10008294:	9b09      	ldr	r3, [sp, #36]	; 0x24
10008296:	0034      	movs	r4, r6
10008298:	781b      	ldrb	r3, [r3, #0]
1000829a:	4656      	mov	r6, sl
1000829c:	469c      	mov	ip, r3
1000829e:	4660      	mov	r0, ip
100082a0:	2800      	cmp	r0, #0
100082a2:	d000      	beq.n	100082a6 <_vsnprintf+0x70a>
100082a4:	e658      	b.n	10007f58 <_vsnprintf+0x3bc>
100082a6:	e67c      	b.n	10007fa2 <_vsnprintf+0x406>
100082a8:	2207      	movs	r2, #7
100082aa:	9b09      	ldr	r3, [sp, #36]	; 0x24
100082ac:	3307      	adds	r3, #7
100082ae:	4393      	bics	r3, r2
100082b0:	3201      	adds	r2, #1
100082b2:	4694      	mov	ip, r2
100082b4:	449c      	add	ip, r3
100082b6:	4662      	mov	r2, ip
100082b8:	685f      	ldr	r7, [r3, #4]
100082ba:	9209      	str	r2, [sp, #36]	; 0x24
100082bc:	681a      	ldr	r2, [r3, #0]
100082be:	17fb      	asrs	r3, r7, #31
100082c0:	9310      	str	r3, [sp, #64]	; 0x40
100082c2:	9311      	str	r3, [sp, #68]	; 0x44
100082c4:	9810      	ldr	r0, [sp, #64]	; 0x40
100082c6:	9911      	ldr	r1, [sp, #68]	; 0x44
100082c8:	0003      	movs	r3, r0
100082ca:	4053      	eors	r3, r2
100082cc:	930e      	str	r3, [sp, #56]	; 0x38
100082ce:	000b      	movs	r3, r1
100082d0:	407b      	eors	r3, r7
100082d2:	930f      	str	r3, [sp, #60]	; 0x3c
100082d4:	4694      	mov	ip, r2
100082d6:	9a0e      	ldr	r2, [sp, #56]	; 0x38
100082d8:	9b0f      	ldr	r3, [sp, #60]	; 0x3c
100082da:	1a12      	subs	r2, r2, r0
100082dc:	418b      	sbcs	r3, r1
100082de:	920e      	str	r2, [sp, #56]	; 0x38
100082e0:	930f      	str	r3, [sp, #60]	; 0x3c
100082e2:	0ffb      	lsrs	r3, r7, #31
100082e4:	4662      	mov	r2, ip
100082e6:	9312      	str	r3, [sp, #72]	; 0x48
100082e8:	2300      	movs	r3, #0
100082ea:	433a      	orrs	r2, r7
100082ec:	469b      	mov	fp, r3
100082ee:	d03d      	beq.n	1000836c <_vsnprintf+0x7d0>
100082f0:	9a0b      	ldr	r2, [sp, #44]	; 0x2c
100082f2:	2361      	movs	r3, #97	; 0x61
100082f4:	0692      	lsls	r2, r2, #26
100082f6:	d500      	bpl.n	100082fa <_vsnprintf+0x75e>
100082f8:	2341      	movs	r3, #65	; 0x41
100082fa:	2200      	movs	r2, #0
100082fc:	b2db      	uxtb	r3, r3
100082fe:	a90e      	add	r1, sp, #56	; 0x38
10008300:	3b0a      	subs	r3, #10
10008302:	468c      	mov	ip, r1
10008304:	4692      	mov	sl, r2
10008306:	930d      	str	r3, [sp, #52]	; 0x34
10008308:	4643      	mov	r3, r8
1000830a:	321f      	adds	r2, #31
1000830c:	4462      	add	r2, ip
1000830e:	9513      	str	r5, [sp, #76]	; 0x4c
10008310:	9615      	str	r6, [sp, #84]	; 0x54
10008312:	4655      	mov	r5, sl
10008314:	9e0e      	ldr	r6, [sp, #56]	; 0x38
10008316:	9f0f      	ldr	r7, [sp, #60]	; 0x3c
10008318:	46a2      	mov	sl, r4
1000831a:	4690      	mov	r8, r2
1000831c:	9c0c      	ldr	r4, [sp, #48]	; 0x30
1000831e:	9314      	str	r3, [sp, #80]	; 0x50
10008320:	e00c      	b.n	1000833c <_vsnprintf+0x7a0>
10008322:	3230      	adds	r2, #48	; 0x30
10008324:	b2d2      	uxtb	r2, r2
10008326:	4643      	mov	r3, r8
10008328:	3501      	adds	r5, #1
1000832a:	555a      	strb	r2, [r3, r5]
1000832c:	45bb      	cmp	fp, r7
1000832e:	d100      	bne.n	10008332 <_vsnprintf+0x796>
10008330:	e18a      	b.n	10008648 <_vsnprintf+0xaac>
10008332:	2d20      	cmp	r5, #32
10008334:	d100      	bne.n	10008338 <_vsnprintf+0x79c>
10008336:	e18a      	b.n	1000864e <_vsnprintf+0xab2>
10008338:	0006      	movs	r6, r0
1000833a:	000f      	movs	r7, r1
1000833c:	0022      	movs	r2, r4
1000833e:	2300      	movs	r3, #0
10008340:	0030      	movs	r0, r6
10008342:	0039      	movs	r1, r7
10008344:	f7fe f898 	bl	10006478 <__wrap___aeabi_uldivmod>
10008348:	b2d2      	uxtb	r2, r2
1000834a:	2a09      	cmp	r2, #9
1000834c:	d9e9      	bls.n	10008322 <_vsnprintf+0x786>
1000834e:	9b0d      	ldr	r3, [sp, #52]	; 0x34
10008350:	469c      	mov	ip, r3
10008352:	4462      	add	r2, ip
10008354:	b2d2      	uxtb	r2, r2
10008356:	e7e6      	b.n	10008326 <_vsnprintf+0x78a>
10008358:	23ff      	movs	r3, #255	; 0xff
1000835a:	9909      	ldr	r1, [sp, #36]	; 0x24
1000835c:	c904      	ldmia	r1!, {r2}
1000835e:	4013      	ands	r3, r2
10008360:	001a      	movs	r2, r3
10008362:	9109      	str	r1, [sp, #36]	; 0x24
10008364:	e517      	b.n	10007d96 <_vsnprintf+0x1fa>
10008366:	46c0      	nop			; (mov r8, r8)
10008368:	1000712d 	.word	0x1000712d
1000836c:	9a0b      	ldr	r2, [sp, #44]	; 0x2c
1000836e:	3310      	adds	r3, #16
10008370:	0011      	movs	r1, r2
10008372:	4399      	bics	r1, r3
10008374:	910b      	str	r1, [sp, #44]	; 0x2c
10008376:	0552      	lsls	r2, r2, #21
10008378:	d5ba      	bpl.n	100082f0 <_vsnprintf+0x754>
1000837a:	2300      	movs	r3, #0
1000837c:	469a      	mov	sl, r3
1000837e:	9b0b      	ldr	r3, [sp, #44]	; 0x2c
10008380:	9306      	str	r3, [sp, #24]
10008382:	9b0a      	ldr	r3, [sp, #40]	; 0x28
10008384:	9305      	str	r3, [sp, #20]
10008386:	4643      	mov	r3, r8
10008388:	9304      	str	r3, [sp, #16]
1000838a:	9b0c      	ldr	r3, [sp, #48]	; 0x30
1000838c:	9303      	str	r3, [sp, #12]
1000838e:	9b12      	ldr	r3, [sp, #72]	; 0x48
10008390:	9302      	str	r3, [sp, #8]
10008392:	4653      	mov	r3, sl
10008394:	9301      	str	r3, [sp, #4]
10008396:	ab16      	add	r3, sp, #88	; 0x58
10008398:	002a      	movs	r2, r5
1000839a:	9300      	str	r3, [sp, #0]
1000839c:	0021      	movs	r1, r4
1000839e:	464b      	mov	r3, r9
100083a0:	9808      	ldr	r0, [sp, #32]
100083a2:	f7fe ff13 	bl	100071cc <_ntoa_format>
100083a6:	3601      	adds	r6, #1
100083a8:	0005      	movs	r5, r0
100083aa:	e41c      	b.n	10007be6 <_vsnprintf+0x4a>
100083ac:	22ff      	movs	r2, #255	; 0xff
100083ae:	9b09      	ldr	r3, [sp, #36]	; 0x24
100083b0:	cb02      	ldmia	r3!, {r1}
100083b2:	4011      	ands	r1, r2
100083b4:	468b      	mov	fp, r1
100083b6:	9309      	str	r3, [sp, #36]	; 0x24
100083b8:	e6c5      	b.n	10008146 <_vsnprintf+0x5aa>
100083ba:	4653      	mov	r3, sl
100083bc:	4645      	mov	r5, r8
100083be:	9309      	str	r3, [sp, #36]	; 0x24
100083c0:	3601      	adds	r6, #1
100083c2:	f7ff fc10 	bl	10007be6 <_vsnprintf+0x4a>
100083c6:	4656      	mov	r6, sl
100083c8:	465c      	mov	r4, fp
100083ca:	46aa      	mov	sl, r5
100083cc:	9d13      	ldr	r5, [sp, #76]	; 0x4c
100083ce:	e7d6      	b.n	1000837e <_vsnprintf+0x7e2>
100083d0:	2308      	movs	r3, #8
100083d2:	930c      	str	r3, [sp, #48]	; 0x30
100083d4:	910b      	str	r1, [sp, #44]	; 0x2c
100083d6:	990b      	ldr	r1, [sp, #44]	; 0x2c
100083d8:	2864      	cmp	r0, #100	; 0x64
100083da:	d000      	beq.n	100083de <_vsnprintf+0x842>
100083dc:	e684      	b.n	100080e8 <_vsnprintf+0x54c>
100083de:	9b0b      	ldr	r3, [sp, #44]	; 0x2c
100083e0:	055b      	lsls	r3, r3, #21
100083e2:	d500      	bpl.n	100083e6 <_vsnprintf+0x84a>
100083e4:	e686      	b.n	100080f4 <_vsnprintf+0x558>
100083e6:	e4b4      	b.n	10007d52 <_vsnprintf+0x1b6>
100083e8:	2207      	movs	r2, #7
100083ea:	9b09      	ldr	r3, [sp, #36]	; 0x24
100083ec:	3307      	adds	r3, #7
100083ee:	4393      	bics	r3, r2
100083f0:	3201      	adds	r2, #1
100083f2:	4694      	mov	ip, r2
100083f4:	449c      	add	ip, r3
100083f6:	4662      	mov	r2, ip
100083f8:	9209      	str	r2, [sp, #36]	; 0x24
100083fa:	681a      	ldr	r2, [r3, #0]
100083fc:	685b      	ldr	r3, [r3, #4]
100083fe:	0010      	movs	r0, r2
10008400:	469b      	mov	fp, r3
10008402:	0013      	movs	r3, r2
10008404:	465a      	mov	r2, fp
10008406:	4313      	orrs	r3, r2
10008408:	d107      	bne.n	1000841a <_vsnprintf+0x87e>
1000840a:	9a0b      	ldr	r2, [sp, #44]	; 0x2c
1000840c:	3310      	adds	r3, #16
1000840e:	0011      	movs	r1, r2
10008410:	4399      	bics	r1, r3
10008412:	910b      	str	r1, [sp, #44]	; 0x2c
10008414:	0552      	lsls	r2, r2, #21
10008416:	d500      	bpl.n	1000841a <_vsnprintf+0x87e>
10008418:	e6a1      	b.n	1000815e <_vsnprintf+0x5c2>
1000841a:	9a0b      	ldr	r2, [sp, #44]	; 0x2c
1000841c:	2361      	movs	r3, #97	; 0x61
1000841e:	0692      	lsls	r2, r2, #26
10008420:	d500      	bpl.n	10008424 <_vsnprintf+0x888>
10008422:	2341      	movs	r3, #65	; 0x41
10008424:	2200      	movs	r2, #0
10008426:	b2db      	uxtb	r3, r3
10008428:	a90e      	add	r1, sp, #56	; 0x38
1000842a:	3b0a      	subs	r3, #10
1000842c:	468c      	mov	ip, r1
1000842e:	4692      	mov	sl, r2
10008430:	930d      	str	r3, [sp, #52]	; 0x34
10008432:	4643      	mov	r3, r8
10008434:	321f      	adds	r2, #31
10008436:	4462      	add	r2, ip
10008438:	465f      	mov	r7, fp
1000843a:	9512      	str	r5, [sp, #72]	; 0x48
1000843c:	46a3      	mov	fp, r4
1000843e:	4655      	mov	r5, sl
10008440:	0004      	movs	r4, r0
10008442:	46b2      	mov	sl, r6
10008444:	4690      	mov	r8, r2
10008446:	9e0c      	ldr	r6, [sp, #48]	; 0x30
10008448:	9313      	str	r3, [sp, #76]	; 0x4c
1000844a:	e00d      	b.n	10008468 <_vsnprintf+0x8cc>
1000844c:	3230      	adds	r2, #48	; 0x30
1000844e:	b2d2      	uxtb	r2, r2
10008450:	4643      	mov	r3, r8
10008452:	3501      	adds	r5, #1
10008454:	555a      	strb	r2, [r3, r5]
10008456:	2300      	movs	r3, #0
10008458:	42bb      	cmp	r3, r7
1000845a:	d100      	bne.n	1000845e <_vsnprintf+0x8c2>
1000845c:	e100      	b.n	10008660 <_vsnprintf+0xac4>
1000845e:	2d20      	cmp	r5, #32
10008460:	d100      	bne.n	10008464 <_vsnprintf+0x8c8>
10008462:	e100      	b.n	10008666 <_vsnprintf+0xaca>
10008464:	0004      	movs	r4, r0
10008466:	000f      	movs	r7, r1
10008468:	0032      	movs	r2, r6
1000846a:	2300      	movs	r3, #0
1000846c:	0020      	movs	r0, r4
1000846e:	0039      	movs	r1, r7
10008470:	f7fe f802 	bl	10006478 <__wrap___aeabi_uldivmod>
10008474:	b2d2      	uxtb	r2, r2
10008476:	2a09      	cmp	r2, #9
10008478:	d9e8      	bls.n	1000844c <_vsnprintf+0x8b0>
1000847a:	9b0d      	ldr	r3, [sp, #52]	; 0x34
1000847c:	469c      	mov	ip, r3
1000847e:	4462      	add	r2, ip
10008480:	b2d2      	uxtb	r2, r2
10008482:	e7e5      	b.n	10008450 <_vsnprintf+0x8b4>
10008484:	9a0b      	ldr	r2, [sp, #44]	; 0x2c
10008486:	2361      	movs	r3, #97	; 0x61
10008488:	0692      	lsls	r2, r2, #26
1000848a:	d500      	bpl.n	1000848e <_vsnprintf+0x8f2>
1000848c:	2341      	movs	r3, #65	; 0x41
1000848e:	b2db      	uxtb	r3, r3
10008490:	a90e      	add	r1, sp, #56	; 0x38
10008492:	3b0a      	subs	r3, #10
10008494:	221f      	movs	r2, #31
10008496:	468c      	mov	ip, r1
10008498:	930d      	str	r3, [sp, #52]	; 0x34
1000849a:	0023      	movs	r3, r4
1000849c:	4462      	add	r2, ip
1000849e:	465c      	mov	r4, fp
100084a0:	9512      	str	r5, [sp, #72]	; 0x48
100084a2:	0017      	movs	r7, r2
100084a4:	4655      	mov	r5, sl
100084a6:	469b      	mov	fp, r3
100084a8:	46b2      	mov	sl, r6
100084aa:	9e0c      	ldr	r6, [sp, #48]	; 0x30
100084ac:	e008      	b.n	100084c0 <_vsnprintf+0x924>
100084ae:	3330      	adds	r3, #48	; 0x30
100084b0:	b2db      	uxtb	r3, r3
100084b2:	3501      	adds	r5, #1
100084b4:	557b      	strb	r3, [r7, r5]
100084b6:	42b4      	cmp	r4, r6
100084b8:	d30e      	bcc.n	100084d8 <_vsnprintf+0x93c>
100084ba:	2d20      	cmp	r5, #32
100084bc:	d00c      	beq.n	100084d8 <_vsnprintf+0x93c>
100084be:	0004      	movs	r4, r0
100084c0:	0031      	movs	r1, r6
100084c2:	0020      	movs	r0, r4
100084c4:	f7fd ff9a 	bl	100063fc <__wrap___aeabi_uidiv>
100084c8:	b2cb      	uxtb	r3, r1
100084ca:	2909      	cmp	r1, #9
100084cc:	d9ef      	bls.n	100084ae <_vsnprintf+0x912>
100084ce:	9a0d      	ldr	r2, [sp, #52]	; 0x34
100084d0:	4694      	mov	ip, r2
100084d2:	4463      	add	r3, ip
100084d4:	b2db      	uxtb	r3, r3
100084d6:	e7ec      	b.n	100084b2 <_vsnprintf+0x916>
100084d8:	4656      	mov	r6, sl
100084da:	465c      	mov	r4, fp
100084dc:	46aa      	mov	sl, r5
100084de:	9d12      	ldr	r5, [sp, #72]	; 0x48
100084e0:	e63f      	b.n	10008162 <_vsnprintf+0x5c6>
100084e2:	9b09      	ldr	r3, [sp, #36]	; 0x24
100084e4:	001a      	movs	r2, r3
100084e6:	ca08      	ldmia	r2!, {r3}
100084e8:	17d9      	asrs	r1, r3, #31
100084ea:	9213      	str	r2, [sp, #76]	; 0x4c
100084ec:	185a      	adds	r2, r3, r1
100084ee:	404a      	eors	r2, r1
100084f0:	4692      	mov	sl, r2
100084f2:	0fda      	lsrs	r2, r3, #31
100084f4:	9212      	str	r2, [sp, #72]	; 0x48
100084f6:	2b00      	cmp	r3, #0
100084f8:	d108      	bne.n	1000850c <_vsnprintf+0x970>
100084fa:	2380      	movs	r3, #128	; 0x80
100084fc:	2210      	movs	r2, #16
100084fe:	990b      	ldr	r1, [sp, #44]	; 0x2c
10008500:	00db      	lsls	r3, r3, #3
10008502:	400b      	ands	r3, r1
10008504:	4391      	bics	r1, r2
10008506:	910b      	str	r1, [sp, #44]	; 0x2c
10008508:	2b00      	cmp	r3, #0
1000850a:	d12b      	bne.n	10008564 <_vsnprintf+0x9c8>
1000850c:	9a0b      	ldr	r2, [sp, #44]	; 0x2c
1000850e:	2361      	movs	r3, #97	; 0x61
10008510:	0692      	lsls	r2, r2, #26
10008512:	d500      	bpl.n	10008516 <_vsnprintf+0x97a>
10008514:	2341      	movs	r3, #65	; 0x41
10008516:	aa0e      	add	r2, sp, #56	; 0x38
10008518:	271f      	movs	r7, #31
1000851a:	4694      	mov	ip, r2
1000851c:	b2db      	uxtb	r3, r3
1000851e:	3b0a      	subs	r3, #10
10008520:	950d      	str	r5, [sp, #52]	; 0x34
10008522:	4467      	add	r7, ip
10008524:	465d      	mov	r5, fp
10008526:	9309      	str	r3, [sp, #36]	; 0x24
10008528:	46a3      	mov	fp, r4
1000852a:	4654      	mov	r4, sl
1000852c:	46b2      	mov	sl, r6
1000852e:	9e0c      	ldr	r6, [sp, #48]	; 0x30
10008530:	e008      	b.n	10008544 <_vsnprintf+0x9a8>
10008532:	3330      	adds	r3, #48	; 0x30
10008534:	b2db      	uxtb	r3, r3
10008536:	3501      	adds	r5, #1
10008538:	557b      	strb	r3, [r7, r5]
1000853a:	42b4      	cmp	r4, r6
1000853c:	d30e      	bcc.n	1000855c <_vsnprintf+0x9c0>
1000853e:	2d20      	cmp	r5, #32
10008540:	d00c      	beq.n	1000855c <_vsnprintf+0x9c0>
10008542:	0004      	movs	r4, r0
10008544:	0031      	movs	r1, r6
10008546:	0020      	movs	r0, r4
10008548:	f7fd ff58 	bl	100063fc <__wrap___aeabi_uidiv>
1000854c:	b2cb      	uxtb	r3, r1
1000854e:	2909      	cmp	r1, #9
10008550:	d9ef      	bls.n	10008532 <_vsnprintf+0x996>
10008552:	9a09      	ldr	r2, [sp, #36]	; 0x24
10008554:	4694      	mov	ip, r2
10008556:	4463      	add	r3, ip
10008558:	b2db      	uxtb	r3, r3
1000855a:	e7ec      	b.n	10008536 <_vsnprintf+0x99a>
1000855c:	4656      	mov	r6, sl
1000855e:	465c      	mov	r4, fp
10008560:	46ab      	mov	fp, r5
10008562:	9d0d      	ldr	r5, [sp, #52]	; 0x34
10008564:	9b0b      	ldr	r3, [sp, #44]	; 0x2c
10008566:	002a      	movs	r2, r5
10008568:	9306      	str	r3, [sp, #24]
1000856a:	9b0a      	ldr	r3, [sp, #40]	; 0x28
1000856c:	0021      	movs	r1, r4
1000856e:	9305      	str	r3, [sp, #20]
10008570:	4643      	mov	r3, r8
10008572:	9304      	str	r3, [sp, #16]
10008574:	9b0c      	ldr	r3, [sp, #48]	; 0x30
10008576:	9808      	ldr	r0, [sp, #32]
10008578:	9303      	str	r3, [sp, #12]
1000857a:	9b12      	ldr	r3, [sp, #72]	; 0x48
1000857c:	3601      	adds	r6, #1
1000857e:	9302      	str	r3, [sp, #8]
10008580:	465b      	mov	r3, fp
10008582:	9301      	str	r3, [sp, #4]
10008584:	ab16      	add	r3, sp, #88	; 0x58
10008586:	9300      	str	r3, [sp, #0]
10008588:	464b      	mov	r3, r9
1000858a:	f7fe fe1f 	bl	100071cc <_ntoa_format>
1000858e:	9b13      	ldr	r3, [sp, #76]	; 0x4c
10008590:	0005      	movs	r5, r0
10008592:	9309      	str	r3, [sp, #36]	; 0x24
10008594:	f7ff fb27 	bl	10007be6 <_vsnprintf+0x4a>
10008598:	2302      	movs	r3, #2
1000859a:	930c      	str	r3, [sp, #48]	; 0x30
1000859c:	e71a      	b.n	100083d4 <_vsnprintf+0x838>
1000859e:	9b09      	ldr	r3, [sp, #36]	; 0x24
100085a0:	cb04      	ldmia	r3!, {r2}
100085a2:	4692      	mov	sl, r2
100085a4:	9312      	str	r3, [sp, #72]	; 0x48
100085a6:	2a00      	cmp	r2, #0
100085a8:	d108      	bne.n	100085bc <_vsnprintf+0xa20>
100085aa:	2380      	movs	r3, #128	; 0x80
100085ac:	2210      	movs	r2, #16
100085ae:	990b      	ldr	r1, [sp, #44]	; 0x2c
100085b0:	00db      	lsls	r3, r3, #3
100085b2:	400b      	ands	r3, r1
100085b4:	4391      	bics	r1, r2
100085b6:	910b      	str	r1, [sp, #44]	; 0x2c
100085b8:	2b00      	cmp	r3, #0
100085ba:	d12b      	bne.n	10008614 <_vsnprintf+0xa78>
100085bc:	9a0b      	ldr	r2, [sp, #44]	; 0x2c
100085be:	2361      	movs	r3, #97	; 0x61
100085c0:	0692      	lsls	r2, r2, #26
100085c2:	d500      	bpl.n	100085c6 <_vsnprintf+0xa2a>
100085c4:	2341      	movs	r3, #65	; 0x41
100085c6:	aa0e      	add	r2, sp, #56	; 0x38
100085c8:	271f      	movs	r7, #31
100085ca:	4694      	mov	ip, r2
100085cc:	b2db      	uxtb	r3, r3
100085ce:	3b0a      	subs	r3, #10
100085d0:	950d      	str	r5, [sp, #52]	; 0x34
100085d2:	4467      	add	r7, ip
100085d4:	465d      	mov	r5, fp
100085d6:	9309      	str	r3, [sp, #36]	; 0x24
100085d8:	46a3      	mov	fp, r4
100085da:	4654      	mov	r4, sl
100085dc:	46b2      	mov	sl, r6
100085de:	9e0c      	ldr	r6, [sp, #48]	; 0x30
100085e0:	e008      	b.n	100085f4 <_vsnprintf+0xa58>
100085e2:	3330      	adds	r3, #48	; 0x30
100085e4:	b2db      	uxtb	r3, r3
100085e6:	3501      	adds	r5, #1
100085e8:	557b      	strb	r3, [r7, r5]
100085ea:	42b4      	cmp	r4, r6
100085ec:	d30e      	bcc.n	1000860c <_vsnprintf+0xa70>
100085ee:	2d20      	cmp	r5, #32
100085f0:	d00c      	beq.n	1000860c <_vsnprintf+0xa70>
100085f2:	0004      	movs	r4, r0
100085f4:	0031      	movs	r1, r6
100085f6:	0020      	movs	r0, r4
100085f8:	f7fd ff00 	bl	100063fc <__wrap___aeabi_uidiv>
100085fc:	b2cb      	uxtb	r3, r1
100085fe:	2909      	cmp	r1, #9
10008600:	d9ef      	bls.n	100085e2 <_vsnprintf+0xa46>
10008602:	9a09      	ldr	r2, [sp, #36]	; 0x24
10008604:	4694      	mov	ip, r2
10008606:	4463      	add	r3, ip
10008608:	b2db      	uxtb	r3, r3
1000860a:	e7ec      	b.n	100085e6 <_vsnprintf+0xa4a>
1000860c:	4656      	mov	r6, sl
1000860e:	465c      	mov	r4, fp
10008610:	46ab      	mov	fp, r5
10008612:	9d0d      	ldr	r5, [sp, #52]	; 0x34
10008614:	9b0b      	ldr	r3, [sp, #44]	; 0x2c
10008616:	002a      	movs	r2, r5
10008618:	9306      	str	r3, [sp, #24]
1000861a:	9b0a      	ldr	r3, [sp, #40]	; 0x28
1000861c:	0021      	movs	r1, r4
1000861e:	9305      	str	r3, [sp, #20]
10008620:	4643      	mov	r3, r8
10008622:	9304      	str	r3, [sp, #16]
10008624:	9b0c      	ldr	r3, [sp, #48]	; 0x30
10008626:	9808      	ldr	r0, [sp, #32]
10008628:	9303      	str	r3, [sp, #12]
1000862a:	2300      	movs	r3, #0
1000862c:	9302      	str	r3, [sp, #8]
1000862e:	465b      	mov	r3, fp
10008630:	9301      	str	r3, [sp, #4]
10008632:	ab16      	add	r3, sp, #88	; 0x58
10008634:	9300      	str	r3, [sp, #0]
10008636:	464b      	mov	r3, r9
10008638:	f7fe fdc8 	bl	100071cc <_ntoa_format>
1000863c:	9b12      	ldr	r3, [sp, #72]	; 0x48
1000863e:	0005      	movs	r5, r0
10008640:	9309      	str	r3, [sp, #36]	; 0x24
10008642:	3601      	adds	r6, #1
10008644:	f7ff facf 	bl	10007be6 <_vsnprintf+0x4a>
10008648:	42b4      	cmp	r4, r6
1000864a:	d800      	bhi.n	1000864e <_vsnprintf+0xab2>
1000864c:	e671      	b.n	10008332 <_vsnprintf+0x796>
1000864e:	9b14      	ldr	r3, [sp, #80]	; 0x50
10008650:	4654      	mov	r4, sl
10008652:	960e      	str	r6, [sp, #56]	; 0x38
10008654:	970f      	str	r7, [sp, #60]	; 0x3c
10008656:	46aa      	mov	sl, r5
10008658:	4698      	mov	r8, r3
1000865a:	9e15      	ldr	r6, [sp, #84]	; 0x54
1000865c:	9d13      	ldr	r5, [sp, #76]	; 0x4c
1000865e:	e68e      	b.n	1000837e <_vsnprintf+0x7e2>
10008660:	42a6      	cmp	r6, r4
10008662:	d800      	bhi.n	10008666 <_vsnprintf+0xaca>
10008664:	e6fb      	b.n	1000845e <_vsnprintf+0x8c2>
10008666:	9b13      	ldr	r3, [sp, #76]	; 0x4c
10008668:	4656      	mov	r6, sl
1000866a:	4698      	mov	r8, r3
1000866c:	46aa      	mov	sl, r5
1000866e:	465c      	mov	r4, fp
10008670:	9d12      	ldr	r5, [sp, #72]	; 0x48
10008672:	e576      	b.n	10008162 <_vsnprintf+0x5c6>
10008674:	c908      	ldmia	r1!, {r3}
10008676:	17d8      	asrs	r0, r3, #31
10008678:	181a      	adds	r2, r3, r0
1000867a:	4042      	eors	r2, r0
1000867c:	9109      	str	r1, [sp, #36]	; 0x24
1000867e:	f7ff fb8a 	bl	10007d96 <_vsnprintf+0x1fa>
10008682:	2300      	movs	r3, #0
10008684:	930b      	str	r3, [sp, #44]	; 0x2c
10008686:	e450      	b.n	10007f2a <_vsnprintf+0x38e>
10008688:	9b09      	ldr	r3, [sp, #36]	; 0x24
1000868a:	cb04      	ldmia	r3!, {r2}
1000868c:	4693      	mov	fp, r2
1000868e:	9309      	str	r3, [sp, #36]	; 0x24
10008690:	e559      	b.n	10008146 <_vsnprintf+0x5aa>
10008692:	002f      	movs	r7, r5
10008694:	e5bb      	b.n	1000820e <_vsnprintf+0x672>
10008696:	930b      	str	r3, [sp, #44]	; 0x2c
10008698:	e601      	b.n	1000829e <_vsnprintf+0x702>
1000869a:	3b06      	subs	r3, #6
1000869c:	930c      	str	r3, [sp, #48]	; 0x30
1000869e:	e69a      	b.n	100083d6 <_vsnprintf+0x83a>

100086a0 <vfctprintf>:
100086a0:	b500      	push	{lr}
100086a2:	b085      	sub	sp, #20
100086a4:	9103      	str	r1, [sp, #12]
100086a6:	2101      	movs	r1, #1
100086a8:	9002      	str	r0, [sp, #8]
100086aa:	9300      	str	r3, [sp, #0]
100086ac:	4803      	ldr	r0, [pc, #12]	; (100086bc <vfctprintf+0x1c>)
100086ae:	0013      	movs	r3, r2
100086b0:	424a      	negs	r2, r1
100086b2:	a902      	add	r1, sp, #8
100086b4:	f7ff fa72 	bl	10007b9c <_vsnprintf>
100086b8:	b005      	add	sp, #20
100086ba:	bd00      	pop	{pc}
100086bc:	100073a9 	.word	0x100073a9

100086c0 <weak_raw_vprintf>:
100086c0:	b510      	push	{r4, lr}
100086c2:	4a09      	ldr	r2, [pc, #36]	; (100086e8 <weak_raw_vprintf+0x28>)
100086c4:	0003      	movs	r3, r0
100086c6:	6814      	ldr	r4, [r2, #0]
100086c8:	b084      	sub	sp, #16
100086ca:	2c00      	cmp	r4, #0
100086cc:	d008      	beq.n	100086e0 <weak_raw_vprintf+0x20>
100086ce:	2201      	movs	r2, #1
100086d0:	9100      	str	r1, [sp, #0]
100086d2:	4806      	ldr	r0, [pc, #24]	; (100086ec <weak_raw_vprintf+0x2c>)
100086d4:	4252      	negs	r2, r2
100086d6:	a903      	add	r1, sp, #12
100086d8:	47a0      	blx	r4
100086da:	2001      	movs	r0, #1
100086dc:	b004      	add	sp, #16
100086de:	bd10      	pop	{r4, pc}
100086e0:	f000 f9a0 	bl	10008a24 <__wrap_puts>
100086e4:	2000      	movs	r0, #0
100086e6:	e7f9      	b.n	100086dc <weak_raw_vprintf+0x1c>
100086e8:	20000760 	.word	0x20000760
100086ec:	10007399 	.word	0x10007399

100086f0 <_exit>:
100086f0:	be00      	bkpt	0x0000
100086f2:	e7fd      	b.n	100086f0 <_exit>

100086f4 <exit>:
100086f4:	b510      	push	{r4, lr}
100086f6:	f7ff fffb 	bl	100086f0 <_exit>
100086fa:	46c0      	nop			; (mov r8, r8)

100086fc <runtime_init>:
100086fc:	b570      	push	{r4, r5, r6, lr}
100086fe:	f7fd fd69 	bl	100061d4 <runtime_run_initializers>
10008702:	4d07      	ldr	r5, [pc, #28]	; (10008720 <runtime_init+0x24>)
10008704:	4e07      	ldr	r6, [pc, #28]	; (10008724 <runtime_init+0x28>)
10008706:	42b5      	cmp	r5, r6
10008708:	d209      	bcs.n	1000871e <runtime_init+0x22>
1000870a:	2400      	movs	r4, #0
1000870c:	3e01      	subs	r6, #1
1000870e:	1b76      	subs	r6, r6, r5
10008710:	08b6      	lsrs	r6, r6, #2
10008712:	cd08      	ldmia	r5!, {r3}
10008714:	4798      	blx	r3
10008716:	0023      	movs	r3, r4
10008718:	3401      	adds	r4, #1
1000871a:	42b3      	cmp	r3, r6
1000871c:	d1f9      	bne.n	10008712 <runtime_init+0x16>
1000871e:	bd70      	pop	{r4, r5, r6, pc}
10008720:	10008f54 	.word	0x10008f54
10008724:	10008f5c 	.word	0x10008f5c

10008728 <stdio_out_chars_no_crlf>:
10008728:	0003      	movs	r3, r0
1000872a:	b510      	push	{r4, lr}
1000872c:	0008      	movs	r0, r1
1000872e:	0011      	movs	r1, r2
10008730:	681b      	ldr	r3, [r3, #0]
10008732:	4798      	blx	r3
10008734:	bd10      	pop	{r4, pc}
10008736:	46c0      	nop			; (mov r8, r8)

10008738 <stdio_out_chars_crlf>:
10008738:	b5f0      	push	{r4, r5, r6, r7, lr}
1000873a:	4646      	mov	r6, r8
1000873c:	464f      	mov	r7, r9
1000873e:	46d6      	mov	lr, sl
10008740:	b5c0      	push	{r6, r7, lr}
10008742:	7d43      	ldrb	r3, [r0, #21]
10008744:	4680      	mov	r8, r0
10008746:	000e      	movs	r6, r1
10008748:	0017      	movs	r7, r2
1000874a:	2b00      	cmp	r3, #0
1000874c:	d046      	beq.n	100087dc <stdio_out_chars_crlf+0xa4>
1000874e:	2a00      	cmp	r2, #0
10008750:	dd3f      	ble.n	100087d2 <stdio_out_chars_crlf+0x9a>
10008752:	1e4b      	subs	r3, r1, #1
10008754:	4699      	mov	r9, r3
10008756:	4b24      	ldr	r3, [pc, #144]	; (100087e8 <stdio_out_chars_crlf+0xb0>)
10008758:	2501      	movs	r5, #1
1000875a:	2400      	movs	r4, #0
1000875c:	2000      	movs	r0, #0
1000875e:	469a      	mov	sl, r3
10008760:	e00d      	b.n	1000877e <stdio_out_chars_crlf+0x46>
10008762:	464b      	mov	r3, r9
10008764:	5d1b      	ldrb	r3, [r3, r4]
10008766:	3b0d      	subs	r3, #13
10008768:	425a      	negs	r2, r3
1000876a:	4153      	adcs	r3, r2
1000876c:	5d32      	ldrb	r2, [r6, r4]
1000876e:	b2db      	uxtb	r3, r3
10008770:	2a0a      	cmp	r2, #10
10008772:	d00b      	beq.n	1000878c <stdio_out_chars_crlf+0x54>
10008774:	002b      	movs	r3, r5
10008776:	3401      	adds	r4, #1
10008778:	3501      	adds	r5, #1
1000877a:	429f      	cmp	r7, r3
1000877c:	dd1a      	ble.n	100087b4 <stdio_out_chars_crlf+0x7c>
1000877e:	2c00      	cmp	r4, #0
10008780:	d1ef      	bne.n	10008762 <stdio_out_chars_crlf+0x2a>
10008782:	4643      	mov	r3, r8
10008784:	5d32      	ldrb	r2, [r6, r4]
10008786:	7d1b      	ldrb	r3, [r3, #20]
10008788:	2a0a      	cmp	r2, #10
1000878a:	d1f3      	bne.n	10008774 <stdio_out_chars_crlf+0x3c>
1000878c:	2b00      	cmp	r3, #0
1000878e:	d1f1      	bne.n	10008774 <stdio_out_chars_crlf+0x3c>
10008790:	42a0      	cmp	r0, r4
10008792:	da04      	bge.n	1000879e <stdio_out_chars_crlf+0x66>
10008794:	4643      	mov	r3, r8
10008796:	1a21      	subs	r1, r4, r0
10008798:	681b      	ldr	r3, [r3, #0]
1000879a:	1830      	adds	r0, r6, r0
1000879c:	4798      	blx	r3
1000879e:	4643      	mov	r3, r8
100087a0:	4650      	mov	r0, sl
100087a2:	681b      	ldr	r3, [r3, #0]
100087a4:	2102      	movs	r1, #2
100087a6:	4798      	blx	r3
100087a8:	3401      	adds	r4, #1
100087aa:	0028      	movs	r0, r5
100087ac:	002b      	movs	r3, r5
100087ae:	3501      	adds	r5, #1
100087b0:	429f      	cmp	r7, r3
100087b2:	dce4      	bgt.n	1000877e <stdio_out_chars_crlf+0x46>
100087b4:	4287      	cmp	r7, r0
100087b6:	dd04      	ble.n	100087c2 <stdio_out_chars_crlf+0x8a>
100087b8:	4643      	mov	r3, r8
100087ba:	1a39      	subs	r1, r7, r0
100087bc:	681b      	ldr	r3, [r3, #0]
100087be:	1830      	adds	r0, r6, r0
100087c0:	4798      	blx	r3
100087c2:	19f6      	adds	r6, r6, r7
100087c4:	3e01      	subs	r6, #1
100087c6:	7833      	ldrb	r3, [r6, #0]
100087c8:	3b0d      	subs	r3, #13
100087ca:	425a      	negs	r2, r3
100087cc:	4153      	adcs	r3, r2
100087ce:	4642      	mov	r2, r8
100087d0:	7513      	strb	r3, [r2, #20]
100087d2:	bce0      	pop	{r5, r6, r7}
100087d4:	46ba      	mov	sl, r7
100087d6:	46b1      	mov	r9, r6
100087d8:	46a8      	mov	r8, r5
100087da:	bdf0      	pop	{r4, r5, r6, r7, pc}
100087dc:	6803      	ldr	r3, [r0, #0]
100087de:	0011      	movs	r1, r2
100087e0:	0030      	movs	r0, r6
100087e2:	4798      	blx	r3
100087e4:	e7f5      	b.n	100087d2 <stdio_out_chars_crlf+0x9a>
100087e6:	46c0      	nop			; (mov r8, r8)
100087e8:	10009488 	.word	0x10009488

100087ec <stdio_buffered_printer>:
100087ec:	b5f0      	push	{r4, r5, r6, r7, lr}
100087ee:	46c6      	mov	lr, r8
100087f0:	000c      	movs	r4, r1
100087f2:	6809      	ldr	r1, [r1, #0]
100087f4:	0006      	movs	r6, r0
100087f6:	b500      	push	{lr}
100087f8:	2980      	cmp	r1, #128	; 0x80
100087fa:	d006      	beq.n	1000880a <stdio_buffered_printer+0x1e>
100087fc:	1c4b      	adds	r3, r1, #1
100087fe:	6023      	str	r3, [r4, #0]
10008800:	1864      	adds	r4, r4, r1
10008802:	7126      	strb	r6, [r4, #4]
10008804:	bc80      	pop	{r7}
10008806:	46b8      	mov	r8, r7
10008808:	bdf0      	pop	{r4, r5, r6, r7, pc}
1000880a:	4b0f      	ldr	r3, [pc, #60]	; (10008848 <stdio_buffered_printer+0x5c>)
1000880c:	681d      	ldr	r5, [r3, #0]
1000880e:	2d00      	cmp	r5, #0
10008810:	d016      	beq.n	10008840 <stdio_buffered_printer+0x54>
10008812:	1d23      	adds	r3, r4, #4
10008814:	4698      	mov	r8, r3
10008816:	4f0d      	ldr	r7, [pc, #52]	; (1000884c <stdio_buffered_printer+0x60>)
10008818:	e002      	b.n	10008820 <stdio_buffered_printer+0x34>
1000881a:	692d      	ldr	r5, [r5, #16]
1000881c:	2d00      	cmp	r5, #0
1000881e:	d00f      	beq.n	10008840 <stdio_buffered_printer+0x54>
10008820:	682b      	ldr	r3, [r5, #0]
10008822:	2b00      	cmp	r3, #0
10008824:	d0f9      	beq.n	1000881a <stdio_buffered_printer+0x2e>
10008826:	683b      	ldr	r3, [r7, #0]
10008828:	2b00      	cmp	r3, #0
1000882a:	d001      	beq.n	10008830 <stdio_buffered_printer+0x44>
1000882c:	42ab      	cmp	r3, r5
1000882e:	d1f4      	bne.n	1000881a <stdio_buffered_printer+0x2e>
10008830:	0028      	movs	r0, r5
10008832:	4641      	mov	r1, r8
10008834:	6822      	ldr	r2, [r4, #0]
10008836:	f7ff ff7f 	bl	10008738 <stdio_out_chars_crlf>
1000883a:	692d      	ldr	r5, [r5, #16]
1000883c:	2d00      	cmp	r5, #0
1000883e:	d1ef      	bne.n	10008820 <stdio_buffered_printer+0x34>
10008840:	2301      	movs	r3, #1
10008842:	2100      	movs	r1, #0
10008844:	e7db      	b.n	100087fe <stdio_buffered_printer+0x12>
10008846:	46c0      	nop			; (mov r8, r8)
10008848:	20000758 	.word	0x20000758
1000884c:	2000075c 	.word	0x2000075c

10008850 <stdio_put_string>:
10008850:	b5f0      	push	{r4, r5, r6, r7, lr}
10008852:	46de      	mov	lr, fp
10008854:	4657      	mov	r7, sl
10008856:	464e      	mov	r6, r9
10008858:	4645      	mov	r5, r8
1000885a:	b5e0      	push	{r5, r6, r7, lr}
1000885c:	b085      	sub	sp, #20
1000885e:	0017      	movs	r7, r2
10008860:	001c      	movs	r4, r3
10008862:	0006      	movs	r6, r0
10008864:	000d      	movs	r5, r1
10008866:	f7fd fa75 	bl	10005d54 <time_us_64>
1000886a:	2300      	movs	r3, #0
1000886c:	4a31      	ldr	r2, [pc, #196]	; (10008934 <stdio_put_string+0xe4>)
1000886e:	1812      	adds	r2, r2, r0
10008870:	414b      	adcs	r3, r1
10008872:	2b00      	cmp	r3, #0
10008874:	db59      	blt.n	1000892a <stdio_put_string+0xda>
10008876:	4930      	ldr	r1, [pc, #192]	; (10008938 <stdio_put_string+0xe8>)
10008878:	0008      	movs	r0, r1
1000887a:	468a      	mov	sl, r1
1000887c:	f000 fb44 	bl	10008f08 <__mutex_try_enter_block_until_veneer>
10008880:	9001      	str	r0, [sp, #4]
10008882:	1c6b      	adds	r3, r5, #1
10008884:	d103      	bne.n	1000888e <stdio_put_string+0x3e>
10008886:	0030      	movs	r0, r6
10008888:	f000 faee 	bl	10008e68 <strlen>
1000888c:	0005      	movs	r5, r0
1000888e:	2c00      	cmp	r4, #0
10008890:	d126      	bne.n	100088e0 <stdio_put_string+0x90>
10008892:	4b2a      	ldr	r3, [pc, #168]	; (1000893c <stdio_put_string+0xec>)
10008894:	4698      	mov	r8, r3
10008896:	4b2a      	ldr	r3, [pc, #168]	; (10008940 <stdio_put_string+0xf0>)
10008898:	681c      	ldr	r4, [r3, #0]
1000889a:	2c00      	cmp	r4, #0
1000889c:	d015      	beq.n	100088ca <stdio_put_string+0x7a>
1000889e:	2f00      	cmp	r7, #0
100088a0:	d121      	bne.n	100088e6 <stdio_put_string+0x96>
100088a2:	4f28      	ldr	r7, [pc, #160]	; (10008944 <stdio_put_string+0xf4>)
100088a4:	e002      	b.n	100088ac <stdio_put_string+0x5c>
100088a6:	6924      	ldr	r4, [r4, #16]
100088a8:	2c00      	cmp	r4, #0
100088aa:	d00e      	beq.n	100088ca <stdio_put_string+0x7a>
100088ac:	6823      	ldr	r3, [r4, #0]
100088ae:	2b00      	cmp	r3, #0
100088b0:	d0f9      	beq.n	100088a6 <stdio_put_string+0x56>
100088b2:	683b      	ldr	r3, [r7, #0]
100088b4:	2b00      	cmp	r3, #0
100088b6:	d001      	beq.n	100088bc <stdio_put_string+0x6c>
100088b8:	42a3      	cmp	r3, r4
100088ba:	d1f4      	bne.n	100088a6 <stdio_put_string+0x56>
100088bc:	0020      	movs	r0, r4
100088be:	002a      	movs	r2, r5
100088c0:	0031      	movs	r1, r6
100088c2:	47c0      	blx	r8
100088c4:	6924      	ldr	r4, [r4, #16]
100088c6:	2c00      	cmp	r4, #0
100088c8:	d1f0      	bne.n	100088ac <stdio_put_string+0x5c>
100088ca:	9b01      	ldr	r3, [sp, #4]
100088cc:	2b00      	cmp	r3, #0
100088ce:	d128      	bne.n	10008922 <stdio_put_string+0xd2>
100088d0:	0028      	movs	r0, r5
100088d2:	b005      	add	sp, #20
100088d4:	bcf0      	pop	{r4, r5, r6, r7}
100088d6:	46bb      	mov	fp, r7
100088d8:	46b2      	mov	sl, r6
100088da:	46a9      	mov	r9, r5
100088dc:	46a0      	mov	r8, r4
100088de:	bdf0      	pop	{r4, r5, r6, r7, pc}
100088e0:	4b19      	ldr	r3, [pc, #100]	; (10008948 <stdio_put_string+0xf8>)
100088e2:	4698      	mov	r8, r3
100088e4:	e7d7      	b.n	10008896 <stdio_put_string+0x46>
100088e6:	4b17      	ldr	r3, [pc, #92]	; (10008944 <stdio_put_string+0xf4>)
100088e8:	4699      	mov	r9, r3
100088ea:	ab02      	add	r3, sp, #8
100088ec:	1ddf      	adds	r7, r3, #7
100088ee:	230a      	movs	r3, #10
100088f0:	469b      	mov	fp, r3
100088f2:	e002      	b.n	100088fa <stdio_put_string+0xaa>
100088f4:	6924      	ldr	r4, [r4, #16]
100088f6:	2c00      	cmp	r4, #0
100088f8:	d0e7      	beq.n	100088ca <stdio_put_string+0x7a>
100088fa:	6823      	ldr	r3, [r4, #0]
100088fc:	2b00      	cmp	r3, #0
100088fe:	d0f9      	beq.n	100088f4 <stdio_put_string+0xa4>
10008900:	464b      	mov	r3, r9
10008902:	681b      	ldr	r3, [r3, #0]
10008904:	2b00      	cmp	r3, #0
10008906:	d001      	beq.n	1000890c <stdio_put_string+0xbc>
10008908:	42a3      	cmp	r3, r4
1000890a:	d1f3      	bne.n	100088f4 <stdio_put_string+0xa4>
1000890c:	002a      	movs	r2, r5
1000890e:	0031      	movs	r1, r6
10008910:	0020      	movs	r0, r4
10008912:	47c0      	blx	r8
10008914:	465b      	mov	r3, fp
10008916:	2201      	movs	r2, #1
10008918:	0039      	movs	r1, r7
1000891a:	0020      	movs	r0, r4
1000891c:	703b      	strb	r3, [r7, #0]
1000891e:	47c0      	blx	r8
10008920:	e7e8      	b.n	100088f4 <stdio_put_string+0xa4>
10008922:	4650      	mov	r0, sl
10008924:	f000 fad0 	bl	10008ec8 <__mutex_exit_veneer>
10008928:	e7d2      	b.n	100088d0 <stdio_put_string+0x80>
1000892a:	2201      	movs	r2, #1
1000892c:	4b07      	ldr	r3, [pc, #28]	; (1000894c <stdio_put_string+0xfc>)
1000892e:	4252      	negs	r2, r2
10008930:	e7a1      	b.n	10008876 <stdio_put_string+0x26>
10008932:	46c0      	nop			; (mov r8, r8)
10008934:	000f4240 	.word	0x000f4240
10008938:	20000300 	.word	0x20000300
1000893c:	10008729 	.word	0x10008729
10008940:	20000758 	.word	0x20000758
10008944:	2000075c 	.word	0x2000075c
10008948:	10008739 	.word	0x10008739
1000894c:	7fffffff 	.word	0x7fffffff

10008950 <stdio_set_driver_enabled>:
10008950:	4a0a      	ldr	r2, [pc, #40]	; (1000897c <stdio_set_driver_enabled+0x2c>)
10008952:	6813      	ldr	r3, [r2, #0]
10008954:	2b00      	cmp	r3, #0
10008956:	d105      	bne.n	10008964 <stdio_set_driver_enabled+0x14>
10008958:	e00c      	b.n	10008974 <stdio_set_driver_enabled+0x24>
1000895a:	001a      	movs	r2, r3
1000895c:	691b      	ldr	r3, [r3, #16]
1000895e:	3210      	adds	r2, #16
10008960:	2b00      	cmp	r3, #0
10008962:	d007      	beq.n	10008974 <stdio_set_driver_enabled+0x24>
10008964:	4298      	cmp	r0, r3
10008966:	d1f8      	bne.n	1000895a <stdio_set_driver_enabled+0xa>
10008968:	2900      	cmp	r1, #0
1000896a:	d102      	bne.n	10008972 <stdio_set_driver_enabled+0x22>
1000896c:	6903      	ldr	r3, [r0, #16]
1000896e:	6013      	str	r3, [r2, #0]
10008970:	6101      	str	r1, [r0, #16]
10008972:	4770      	bx	lr
10008974:	2900      	cmp	r1, #0
10008976:	d0fc      	beq.n	10008972 <stdio_set_driver_enabled+0x22>
10008978:	6010      	str	r0, [r2, #0]
1000897a:	e7fa      	b.n	10008972 <stdio_set_driver_enabled+0x22>
1000897c:	20000758 	.word	0x20000758

10008980 <stdio_init_all>:
10008980:	b510      	push	{r4, lr}
10008982:	f000 f9af 	bl	10008ce4 <stdio_uart_init>
10008986:	2001      	movs	r0, #1
10008988:	bd10      	pop	{r4, pc}
1000898a:	46c0      	nop			; (mov r8, r8)

1000898c <__wrap_putchar>:
1000898c:	b5f0      	push	{r4, r5, r6, r7, lr}
1000898e:	46ce      	mov	lr, r9
10008990:	4647      	mov	r7, r8
10008992:	b580      	push	{r7, lr}
10008994:	b083      	sub	sp, #12
10008996:	466b      	mov	r3, sp
10008998:	0006      	movs	r6, r0
1000899a:	1ddd      	adds	r5, r3, #7
1000899c:	7028      	strb	r0, [r5, #0]
1000899e:	f7fd f9d9 	bl	10005d54 <time_us_64>
100089a2:	2300      	movs	r3, #0
100089a4:	4a1a      	ldr	r2, [pc, #104]	; (10008a10 <__wrap_putchar+0x84>)
100089a6:	1812      	adds	r2, r2, r0
100089a8:	414b      	adcs	r3, r1
100089aa:	2b00      	cmp	r3, #0
100089ac:	db2b      	blt.n	10008a06 <__wrap_putchar+0x7a>
100089ae:	4919      	ldr	r1, [pc, #100]	; (10008a14 <__wrap_putchar+0x88>)
100089b0:	0008      	movs	r0, r1
100089b2:	4688      	mov	r8, r1
100089b4:	f000 faa8 	bl	10008f08 <__mutex_try_enter_block_until_veneer>
100089b8:	4b17      	ldr	r3, [pc, #92]	; (10008a18 <__wrap_putchar+0x8c>)
100089ba:	4681      	mov	r9, r0
100089bc:	681c      	ldr	r4, [r3, #0]
100089be:	2c00      	cmp	r4, #0
100089c0:	d014      	beq.n	100089ec <__wrap_putchar+0x60>
100089c2:	4f16      	ldr	r7, [pc, #88]	; (10008a1c <__wrap_putchar+0x90>)
100089c4:	e002      	b.n	100089cc <__wrap_putchar+0x40>
100089c6:	6924      	ldr	r4, [r4, #16]
100089c8:	2c00      	cmp	r4, #0
100089ca:	d00f      	beq.n	100089ec <__wrap_putchar+0x60>
100089cc:	6823      	ldr	r3, [r4, #0]
100089ce:	2b00      	cmp	r3, #0
100089d0:	d0f9      	beq.n	100089c6 <__wrap_putchar+0x3a>
100089d2:	683b      	ldr	r3, [r7, #0]
100089d4:	2b00      	cmp	r3, #0
100089d6:	d001      	beq.n	100089dc <__wrap_putchar+0x50>
100089d8:	42a3      	cmp	r3, r4
100089da:	d1f4      	bne.n	100089c6 <__wrap_putchar+0x3a>
100089dc:	0020      	movs	r0, r4
100089de:	2201      	movs	r2, #1
100089e0:	0029      	movs	r1, r5
100089e2:	f7ff fea9 	bl	10008738 <stdio_out_chars_crlf>
100089e6:	6924      	ldr	r4, [r4, #16]
100089e8:	2c00      	cmp	r4, #0
100089ea:	d1ef      	bne.n	100089cc <__wrap_putchar+0x40>
100089ec:	464b      	mov	r3, r9
100089ee:	2b00      	cmp	r3, #0
100089f0:	d105      	bne.n	100089fe <__wrap_putchar+0x72>
100089f2:	0030      	movs	r0, r6
100089f4:	b003      	add	sp, #12
100089f6:	bcc0      	pop	{r6, r7}
100089f8:	46b9      	mov	r9, r7
100089fa:	46b0      	mov	r8, r6
100089fc:	bdf0      	pop	{r4, r5, r6, r7, pc}
100089fe:	4640      	mov	r0, r8
10008a00:	f000 fa62 	bl	10008ec8 <__mutex_exit_veneer>
10008a04:	e7f5      	b.n	100089f2 <__wrap_putchar+0x66>
10008a06:	2201      	movs	r2, #1
10008a08:	4b05      	ldr	r3, [pc, #20]	; (10008a20 <__wrap_putchar+0x94>)
10008a0a:	4252      	negs	r2, r2
10008a0c:	e7cf      	b.n	100089ae <__wrap_putchar+0x22>
10008a0e:	46c0      	nop			; (mov r8, r8)
10008a10:	000f4240 	.word	0x000f4240
10008a14:	20000300 	.word	0x20000300
10008a18:	20000758 	.word	0x20000758
10008a1c:	2000075c 	.word	0x2000075c
10008a20:	7fffffff 	.word	0x7fffffff

10008a24 <__wrap_puts>:
10008a24:	b570      	push	{r4, r5, r6, lr}
10008a26:	0004      	movs	r4, r0
10008a28:	f000 fa1e 	bl	10008e68 <strlen>
10008a2c:	2301      	movs	r3, #1
10008a2e:	0001      	movs	r1, r0
10008a30:	0005      	movs	r5, r0
10008a32:	2201      	movs	r2, #1
10008a34:	0020      	movs	r0, r4
10008a36:	f7ff ff0b 	bl	10008850 <stdio_put_string>
10008a3a:	4b08      	ldr	r3, [pc, #32]	; (10008a5c <__wrap_puts+0x38>)
10008a3c:	681c      	ldr	r4, [r3, #0]
10008a3e:	2c00      	cmp	r4, #0
10008a40:	d006      	beq.n	10008a50 <__wrap_puts+0x2c>
10008a42:	6863      	ldr	r3, [r4, #4]
10008a44:	2b00      	cmp	r3, #0
10008a46:	d005      	beq.n	10008a54 <__wrap_puts+0x30>
10008a48:	4798      	blx	r3
10008a4a:	6924      	ldr	r4, [r4, #16]
10008a4c:	2c00      	cmp	r4, #0
10008a4e:	d1f8      	bne.n	10008a42 <__wrap_puts+0x1e>
10008a50:	0028      	movs	r0, r5
10008a52:	bd70      	pop	{r4, r5, r6, pc}
10008a54:	6924      	ldr	r4, [r4, #16]
10008a56:	2c00      	cmp	r4, #0
10008a58:	d1f3      	bne.n	10008a42 <__wrap_puts+0x1e>
10008a5a:	e7f9      	b.n	10008a50 <__wrap_puts+0x2c>
10008a5c:	20000758 	.word	0x20000758

10008a60 <__wrap_vprintf>:
10008a60:	b5f0      	push	{r4, r5, r6, r7, lr}
10008a62:	46ce      	mov	lr, r9
10008a64:	4647      	mov	r7, r8
10008a66:	b580      	push	{r7, lr}
10008a68:	b0a5      	sub	sp, #148	; 0x94
10008a6a:	0004      	movs	r4, r0
10008a6c:	000d      	movs	r5, r1
10008a6e:	f7fd f971 	bl	10005d54 <time_us_64>
10008a72:	2300      	movs	r3, #0
10008a74:	4a2a      	ldr	r2, [pc, #168]	; (10008b20 <__wrap_vprintf+0xc0>)
10008a76:	1812      	adds	r2, r2, r0
10008a78:	414b      	adcs	r3, r1
10008a7a:	2b00      	cmp	r3, #0
10008a7c:	db49      	blt.n	10008b12 <__wrap_vprintf+0xb2>
10008a7e:	4e29      	ldr	r6, [pc, #164]	; (10008b24 <__wrap_vprintf+0xc4>)
10008a80:	0030      	movs	r0, r6
10008a82:	f000 fa41 	bl	10008f08 <__mutex_try_enter_block_until_veneer>
10008a86:	2300      	movs	r3, #0
10008a88:	0007      	movs	r7, r0
10008a8a:	9303      	str	r3, [sp, #12]
10008a8c:	0022      	movs	r2, r4
10008a8e:	002b      	movs	r3, r5
10008a90:	4825      	ldr	r0, [pc, #148]	; (10008b28 <__wrap_vprintf+0xc8>)
10008a92:	a903      	add	r1, sp, #12
10008a94:	f7ff fe04 	bl	100086a0 <vfctprintf>
10008a98:	9b03      	ldr	r3, [sp, #12]
10008a9a:	4680      	mov	r8, r0
10008a9c:	2b00      	cmp	r3, #0
10008a9e:	d114      	bne.n	10008aca <__wrap_vprintf+0x6a>
10008aa0:	4b22      	ldr	r3, [pc, #136]	; (10008b2c <__wrap_vprintf+0xcc>)
10008aa2:	681c      	ldr	r4, [r3, #0]
10008aa4:	2c00      	cmp	r4, #0
10008aa6:	d006      	beq.n	10008ab6 <__wrap_vprintf+0x56>
10008aa8:	6863      	ldr	r3, [r4, #4]
10008aaa:	2b00      	cmp	r3, #0
10008aac:	d00b      	beq.n	10008ac6 <__wrap_vprintf+0x66>
10008aae:	4798      	blx	r3
10008ab0:	6924      	ldr	r4, [r4, #16]
10008ab2:	2c00      	cmp	r4, #0
10008ab4:	d1f8      	bne.n	10008aa8 <__wrap_vprintf+0x48>
10008ab6:	2f00      	cmp	r7, #0
10008ab8:	d127      	bne.n	10008b0a <__wrap_vprintf+0xaa>
10008aba:	4640      	mov	r0, r8
10008abc:	b025      	add	sp, #148	; 0x94
10008abe:	bcc0      	pop	{r6, r7}
10008ac0:	46b9      	mov	r9, r7
10008ac2:	46b0      	mov	r8, r6
10008ac4:	bdf0      	pop	{r4, r5, r6, r7, pc}
10008ac6:	6924      	ldr	r4, [r4, #16]
10008ac8:	e7ec      	b.n	10008aa4 <__wrap_vprintf+0x44>
10008aca:	4b18      	ldr	r3, [pc, #96]	; (10008b2c <__wrap_vprintf+0xcc>)
10008acc:	681d      	ldr	r5, [r3, #0]
10008ace:	4699      	mov	r9, r3
10008ad0:	2d00      	cmp	r5, #0
10008ad2:	d022      	beq.n	10008b1a <__wrap_vprintf+0xba>
10008ad4:	4c16      	ldr	r4, [pc, #88]	; (10008b30 <__wrap_vprintf+0xd0>)
10008ad6:	e002      	b.n	10008ade <__wrap_vprintf+0x7e>
10008ad8:	692d      	ldr	r5, [r5, #16]
10008ada:	2d00      	cmp	r5, #0
10008adc:	d011      	beq.n	10008b02 <__wrap_vprintf+0xa2>
10008ade:	682b      	ldr	r3, [r5, #0]
10008ae0:	2b00      	cmp	r3, #0
10008ae2:	d0f9      	beq.n	10008ad8 <__wrap_vprintf+0x78>
10008ae4:	6823      	ldr	r3, [r4, #0]
10008ae6:	2b00      	cmp	r3, #0
10008ae8:	d001      	beq.n	10008aee <__wrap_vprintf+0x8e>
10008aea:	429d      	cmp	r5, r3
10008aec:	d1f4      	bne.n	10008ad8 <__wrap_vprintf+0x78>
10008aee:	9b03      	ldr	r3, [sp, #12]
10008af0:	0028      	movs	r0, r5
10008af2:	001a      	movs	r2, r3
10008af4:	a904      	add	r1, sp, #16
10008af6:	9301      	str	r3, [sp, #4]
10008af8:	f7ff fe1e 	bl	10008738 <stdio_out_chars_crlf>
10008afc:	692d      	ldr	r5, [r5, #16]
10008afe:	2d00      	cmp	r5, #0
10008b00:	d1ed      	bne.n	10008ade <__wrap_vprintf+0x7e>
10008b02:	464b      	mov	r3, r9
10008b04:	9503      	str	r5, [sp, #12]
10008b06:	681c      	ldr	r4, [r3, #0]
10008b08:	e7cc      	b.n	10008aa4 <__wrap_vprintf+0x44>
10008b0a:	0030      	movs	r0, r6
10008b0c:	f000 f9dc 	bl	10008ec8 <__mutex_exit_veneer>
10008b10:	e7d3      	b.n	10008aba <__wrap_vprintf+0x5a>
10008b12:	2201      	movs	r2, #1
10008b14:	4b07      	ldr	r3, [pc, #28]	; (10008b34 <__wrap_vprintf+0xd4>)
10008b16:	4252      	negs	r2, r2
10008b18:	e7b1      	b.n	10008a7e <__wrap_vprintf+0x1e>
10008b1a:	9503      	str	r5, [sp, #12]
10008b1c:	e7cb      	b.n	10008ab6 <__wrap_vprintf+0x56>
10008b1e:	46c0      	nop			; (mov r8, r8)
10008b20:	000f4240 	.word	0x000f4240
10008b24:	20000300 	.word	0x20000300
10008b28:	100087ed 	.word	0x100087ed
10008b2c:	20000758 	.word	0x20000758
10008b30:	2000075c 	.word	0x2000075c
10008b34:	7fffffff 	.word	0x7fffffff

10008b38 <__wrap_printf>:
10008b38:	b40f      	push	{r0, r1, r2, r3}
10008b3a:	b500      	push	{lr}
10008b3c:	b083      	sub	sp, #12
10008b3e:	a904      	add	r1, sp, #16
10008b40:	c901      	ldmia	r1!, {r0}
10008b42:	9101      	str	r1, [sp, #4]
10008b44:	f7ff ff8c 	bl	10008a60 <__wrap_vprintf>
10008b48:	b003      	add	sp, #12
10008b4a:	bc08      	pop	{r3}
10008b4c:	b004      	add	sp, #16
10008b4e:	4718      	bx	r3

10008b50 <stdio_uart_out_chars>:
10008b50:	b5f0      	push	{r4, r5, r6, r7, lr}
10008b52:	1e0d      	subs	r5, r1, #0
10008b54:	dd15      	ble.n	10008b82 <stdio_uart_out_chars+0x32>
10008b56:	4b0e      	ldr	r3, [pc, #56]	; (10008b90 <stdio_uart_out_chars+0x40>)
10008b58:	270d      	movs	r7, #13
10008b5a:	681a      	ldr	r2, [r3, #0]
10008b5c:	4b0d      	ldr	r3, [pc, #52]	; (10008b94 <stdio_uart_out_chars+0x44>)
10008b5e:	1945      	adds	r5, r0, r5
10008b60:	18d3      	adds	r3, r2, r3
10008b62:	4259      	negs	r1, r3
10008b64:	414b      	adcs	r3, r1
10008b66:	490c      	ldr	r1, [pc, #48]	; (10008b98 <stdio_uart_out_chars+0x48>)
10008b68:	005b      	lsls	r3, r3, #1
10008b6a:	5e5e      	ldrsh	r6, [r3, r1]
10008b6c:	2120      	movs	r1, #32
10008b6e:	7804      	ldrb	r4, [r0, #0]
10008b70:	42a6      	cmp	r6, r4
10008b72:	d007      	beq.n	10008b84 <stdio_uart_out_chars+0x34>
10008b74:	6993      	ldr	r3, [r2, #24]
10008b76:	4219      	tst	r1, r3
10008b78:	d1fc      	bne.n	10008b74 <stdio_uart_out_chars+0x24>
10008b7a:	3001      	adds	r0, #1
10008b7c:	6014      	str	r4, [r2, #0]
10008b7e:	42a8      	cmp	r0, r5
10008b80:	d1f5      	bne.n	10008b6e <stdio_uart_out_chars+0x1e>
10008b82:	bdf0      	pop	{r4, r5, r6, r7, pc}
10008b84:	6993      	ldr	r3, [r2, #24]
10008b86:	4219      	tst	r1, r3
10008b88:	d1fc      	bne.n	10008b84 <stdio_uart_out_chars+0x34>
10008b8a:	6017      	str	r7, [r2, #0]
10008b8c:	e7f2      	b.n	10008b74 <stdio_uart_out_chars+0x24>
10008b8e:	46c0      	nop			; (mov r8, r8)
10008b90:	20000a24 	.word	0x20000a24
10008b94:	bffc8000 	.word	0xbffc8000
10008b98:	20000a20 	.word	0x20000a20

10008b9c <stdio_uart_in_chars>:
10008b9c:	b530      	push	{r4, r5, lr}
10008b9e:	0004      	movs	r4, r0
10008ba0:	1e0d      	subs	r5, r1, #0
10008ba2:	dd24      	ble.n	10008bee <stdio_uart_in_chars+0x52>
10008ba4:	2000      	movs	r0, #0
10008ba6:	2110      	movs	r1, #16
10008ba8:	4b1a      	ldr	r3, [pc, #104]	; (10008c14 <stdio_uart_in_chars+0x78>)
10008baa:	3c01      	subs	r4, #1
10008bac:	681a      	ldr	r2, [r3, #0]
10008bae:	6993      	ldr	r3, [r2, #24]
10008bb0:	4219      	tst	r1, r3
10008bb2:	d117      	bne.n	10008be4 <stdio_uart_in_chars+0x48>
10008bb4:	3001      	adds	r0, #1
10008bb6:	6993      	ldr	r3, [r2, #24]
10008bb8:	4219      	tst	r1, r3
10008bba:	d1fc      	bne.n	10008bb6 <stdio_uart_in_chars+0x1a>
10008bbc:	6813      	ldr	r3, [r2, #0]
10008bbe:	5423      	strb	r3, [r4, r0]
10008bc0:	4285      	cmp	r5, r0
10008bc2:	d1f4      	bne.n	10008bae <stdio_uart_in_chars+0x12>
10008bc4:	4b14      	ldr	r3, [pc, #80]	; (10008c18 <stdio_uart_in_chars+0x7c>)
10008bc6:	681b      	ldr	r3, [r3, #0]
10008bc8:	2b00      	cmp	r3, #0
10008bca:	d00a      	beq.n	10008be2 <stdio_uart_in_chars+0x46>
10008bcc:	2350      	movs	r3, #80	; 0x50
10008bce:	6393      	str	r3, [r2, #56]	; 0x38
10008bd0:	6b51      	ldr	r1, [r2, #52]	; 0x34
10008bd2:	3b18      	subs	r3, #24
10008bd4:	400b      	ands	r3, r1
10008bd6:	4911      	ldr	r1, [pc, #68]	; (10008c1c <stdio_uart_in_chars+0x80>)
10008bd8:	468c      	mov	ip, r1
10008bda:	4462      	add	r2, ip
10008bdc:	6013      	str	r3, [r2, #0]
10008bde:	2800      	cmp	r0, #0
10008be0:	d014      	beq.n	10008c0c <stdio_uart_in_chars+0x70>
10008be2:	bd30      	pop	{r4, r5, pc}
10008be4:	4b0c      	ldr	r3, [pc, #48]	; (10008c18 <stdio_uart_in_chars+0x7c>)
10008be6:	681b      	ldr	r3, [r3, #0]
10008be8:	2b00      	cmp	r3, #0
10008bea:	d1ef      	bne.n	10008bcc <stdio_uart_in_chars+0x30>
10008bec:	e7f7      	b.n	10008bde <stdio_uart_in_chars+0x42>
10008bee:	4b0a      	ldr	r3, [pc, #40]	; (10008c18 <stdio_uart_in_chars+0x7c>)
10008bf0:	681b      	ldr	r3, [r3, #0]
10008bf2:	2b00      	cmp	r3, #0
10008bf4:	d00a      	beq.n	10008c0c <stdio_uart_in_chars+0x70>
10008bf6:	2250      	movs	r2, #80	; 0x50
10008bf8:	4b06      	ldr	r3, [pc, #24]	; (10008c14 <stdio_uart_in_chars+0x78>)
10008bfa:	681b      	ldr	r3, [r3, #0]
10008bfc:	639a      	str	r2, [r3, #56]	; 0x38
10008bfe:	6b59      	ldr	r1, [r3, #52]	; 0x34
10008c00:	3a18      	subs	r2, #24
10008c02:	400a      	ands	r2, r1
10008c04:	4905      	ldr	r1, [pc, #20]	; (10008c1c <stdio_uart_in_chars+0x80>)
10008c06:	468c      	mov	ip, r1
10008c08:	4463      	add	r3, ip
10008c0a:	601a      	str	r2, [r3, #0]
10008c0c:	2003      	movs	r0, #3
10008c0e:	4240      	negs	r0, r0
10008c10:	e7e7      	b.n	10008be2 <stdio_uart_in_chars+0x46>
10008c12:	46c0      	nop			; (mov r8, r8)
10008c14:	20000a24 	.word	0x20000a24
10008c18:	2000071c 	.word	0x2000071c
10008c1c:	00001034 	.word	0x00001034

10008c20 <on_uart_rx>:
10008c20:	4b06      	ldr	r3, [pc, #24]	; (10008c3c <on_uart_rx+0x1c>)
10008c22:	b510      	push	{r4, lr}
10008c24:	681b      	ldr	r3, [r3, #0]
10008c26:	2b00      	cmp	r3, #0
10008c28:	d006      	beq.n	10008c38 <on_uart_rx+0x18>
10008c2a:	2100      	movs	r1, #0
10008c2c:	4a04      	ldr	r2, [pc, #16]	; (10008c40 <on_uart_rx+0x20>)
10008c2e:	6812      	ldr	r2, [r2, #0]
10008c30:	6391      	str	r1, [r2, #56]	; 0x38
10008c32:	4a04      	ldr	r2, [pc, #16]	; (10008c44 <on_uart_rx+0x24>)
10008c34:	6810      	ldr	r0, [r2, #0]
10008c36:	4798      	blx	r3
10008c38:	bd10      	pop	{r4, pc}
10008c3a:	46c0      	nop			; (mov r8, r8)
10008c3c:	2000071c 	.word	0x2000071c
10008c40:	20000a24 	.word	0x20000a24
10008c44:	20000720 	.word	0x20000720

10008c48 <stdio_uart_out_flush>:
10008c48:	2208      	movs	r2, #8
10008c4a:	4b03      	ldr	r3, [pc, #12]	; (10008c58 <stdio_uart_out_flush+0x10>)
10008c4c:	6819      	ldr	r1, [r3, #0]
10008c4e:	698b      	ldr	r3, [r1, #24]
10008c50:	421a      	tst	r2, r3
10008c52:	d1fc      	bne.n	10008c4e <stdio_uart_out_flush+0x6>
10008c54:	4770      	bx	lr
10008c56:	46c0      	nop			; (mov r8, r8)
10008c58:	20000a24 	.word	0x20000a24

10008c5c <stdio_uart_set_chars_available_callback>:
10008c5c:	b570      	push	{r4, r5, r6, lr}
10008c5e:	4e1b      	ldr	r6, [pc, #108]	; (10008ccc <stdio_uart_set_chars_available_callback+0x70>)
10008c60:	4b1b      	ldr	r3, [pc, #108]	; (10008cd0 <stdio_uart_set_chars_available_callback+0x74>)
10008c62:	6832      	ldr	r2, [r6, #0]
10008c64:	0005      	movs	r5, r0
10008c66:	18d3      	adds	r3, r2, r3
10008c68:	4258      	negs	r0, r3
10008c6a:	4143      	adcs	r3, r0
10008c6c:	3314      	adds	r3, #20
10008c6e:	001c      	movs	r4, r3
10008c70:	2d00      	cmp	r5, #0
10008c72:	d004      	beq.n	10008c7e <stdio_uart_set_chars_available_callback+0x22>
10008c74:	4b17      	ldr	r3, [pc, #92]	; (10008cd4 <stdio_uart_set_chars_available_callback+0x78>)
10008c76:	681a      	ldr	r2, [r3, #0]
10008c78:	2a00      	cmp	r2, #0
10008c7a:	d011      	beq.n	10008ca0 <stdio_uart_set_chars_available_callback+0x44>
10008c7c:	bd70      	pop	{r4, r5, r6, pc}
10008c7e:	4e15      	ldr	r6, [pc, #84]	; (10008cd4 <stdio_uart_set_chars_available_callback+0x78>)
10008c80:	6833      	ldr	r3, [r6, #0]
10008c82:	2b00      	cmp	r3, #0
10008c84:	d0fa      	beq.n	10008c7c <stdio_uart_set_chars_available_callback+0x20>
10008c86:	2100      	movs	r1, #0
10008c88:	0020      	movs	r0, r4
10008c8a:	6395      	str	r5, [r2, #56]	; 0x38
10008c8c:	f7fc fb72 	bl	10005374 <irq_set_enabled>
10008c90:	0020      	movs	r0, r4
10008c92:	4911      	ldr	r1, [pc, #68]	; (10008cd8 <stdio_uart_set_chars_available_callback+0x7c>)
10008c94:	f7fc fbb6 	bl	10005404 <irq_remove_handler>
10008c98:	4b10      	ldr	r3, [pc, #64]	; (10008cdc <stdio_uart_set_chars_available_callback+0x80>)
10008c9a:	6035      	str	r5, [r6, #0]
10008c9c:	601d      	str	r5, [r3, #0]
10008c9e:	e7ed      	b.n	10008c7c <stdio_uart_set_chars_available_callback+0x20>
10008ca0:	601d      	str	r5, [r3, #0]
10008ca2:	4b0e      	ldr	r3, [pc, #56]	; (10008cdc <stdio_uart_set_chars_available_callback+0x80>)
10008ca4:	0020      	movs	r0, r4
10008ca6:	6019      	str	r1, [r3, #0]
10008ca8:	490b      	ldr	r1, [pc, #44]	; (10008cd8 <stdio_uart_set_chars_available_callback+0x7c>)
10008caa:	f7fc fb81 	bl	100053b0 <irq_set_exclusive_handler>
10008cae:	2101      	movs	r1, #1
10008cb0:	0020      	movs	r0, r4
10008cb2:	f7fc fb5f 	bl	10005374 <irq_set_enabled>
10008cb6:	2250      	movs	r2, #80	; 0x50
10008cb8:	6833      	ldr	r3, [r6, #0]
10008cba:	639a      	str	r2, [r3, #56]	; 0x38
10008cbc:	6b59      	ldr	r1, [r3, #52]	; 0x34
10008cbe:	3a18      	subs	r2, #24
10008cc0:	400a      	ands	r2, r1
10008cc2:	4907      	ldr	r1, [pc, #28]	; (10008ce0 <stdio_uart_set_chars_available_callback+0x84>)
10008cc4:	468c      	mov	ip, r1
10008cc6:	4463      	add	r3, ip
10008cc8:	601a      	str	r2, [r3, #0]
10008cca:	e7d7      	b.n	10008c7c <stdio_uart_set_chars_available_callback+0x20>
10008ccc:	20000a24 	.word	0x20000a24
10008cd0:	bffc8000 	.word	0xbffc8000
10008cd4:	2000071c 	.word	0x2000071c
10008cd8:	10008c21 	.word	0x10008c21
10008cdc:	20000720 	.word	0x20000720
10008ce0:	00001034 	.word	0x00001034

10008ce4 <stdio_uart_init>:
10008ce4:	4b0d      	ldr	r3, [pc, #52]	; (10008d1c <stdio_uart_init+0x38>)
10008ce6:	b510      	push	{r4, lr}
10008ce8:	781b      	ldrb	r3, [r3, #0]
10008cea:	4b0d      	ldr	r3, [pc, #52]	; (10008d20 <stdio_uart_init+0x3c>)
10008cec:	4c0d      	ldr	r4, [pc, #52]	; (10008d24 <stdio_uart_init+0x40>)
10008cee:	781b      	ldrb	r3, [r3, #0]
10008cf0:	4b0d      	ldr	r3, [pc, #52]	; (10008d28 <stdio_uart_init+0x44>)
10008cf2:	2102      	movs	r1, #2
10008cf4:	781b      	ldrb	r3, [r3, #0]
10008cf6:	4b0d      	ldr	r3, [pc, #52]	; (10008d2c <stdio_uart_init+0x48>)
10008cf8:	2000      	movs	r0, #0
10008cfa:	6023      	str	r3, [r4, #0]
10008cfc:	f7fc faee 	bl	100052dc <gpio_set_function>
10008d00:	2102      	movs	r1, #2
10008d02:	2001      	movs	r0, #1
10008d04:	f7fc faea 	bl	100052dc <gpio_set_function>
10008d08:	21e1      	movs	r1, #225	; 0xe1
10008d0a:	6820      	ldr	r0, [r4, #0]
10008d0c:	0249      	lsls	r1, r1, #9
10008d0e:	f7fd f9cb 	bl	100060a8 <uart_init>
10008d12:	2101      	movs	r1, #1
10008d14:	4806      	ldr	r0, [pc, #24]	; (10008d30 <stdio_uart_init+0x4c>)
10008d16:	f7ff fe1b 	bl	10008950 <stdio_set_driver_enabled>
10008d1a:	bd10      	pop	{r4, pc}
10008d1c:	100094f4 	.word	0x100094f4
10008d20:	100094f8 	.word	0x100094f8
10008d24:	20000a24 	.word	0x20000a24
10008d28:	100094fc 	.word	0x100094fc
10008d2c:	40034000 	.word	0x40034000
10008d30:	200002e0 	.word	0x200002e0

10008d34 <spi_init>:
10008d34:	b5f0      	push	{r4, r5, r6, r7, lr}
10008d36:	4657      	mov	r7, sl
10008d38:	4682      	mov	sl, r0
10008d3a:	4b45      	ldr	r3, [pc, #276]	; (10008e50 <spi_init+0x11c>)
10008d3c:	4645      	mov	r5, r8
10008d3e:	4453      	add	r3, sl
10008d40:	425a      	negs	r2, r3
10008d42:	4153      	adcs	r3, r2
10008d44:	2280      	movs	r2, #128	; 0x80
10008d46:	46de      	mov	lr, fp
10008d48:	464e      	mov	r6, r9
10008d4a:	0292      	lsls	r2, r2, #10
10008d4c:	4694      	mov	ip, r2
10008d4e:	425b      	negs	r3, r3
10008d50:	b5e0      	push	{r5, r6, r7, lr}
10008d52:	0c1b      	lsrs	r3, r3, #16
10008d54:	4a3f      	ldr	r2, [pc, #252]	; (10008e54 <spi_init+0x120>)
10008d56:	041b      	lsls	r3, r3, #16
10008d58:	4463      	add	r3, ip
10008d5a:	6013      	str	r3, [r2, #0]
10008d5c:	4a3e      	ldr	r2, [pc, #248]	; (10008e58 <spi_init+0x124>)
10008d5e:	000d      	movs	r5, r1
10008d60:	493e      	ldr	r1, [pc, #248]	; (10008e5c <spi_init+0x128>)
10008d62:	b085      	sub	sp, #20
10008d64:	6013      	str	r3, [r2, #0]
10008d66:	0018      	movs	r0, r3
10008d68:	680a      	ldr	r2, [r1, #0]
10008d6a:	4390      	bics	r0, r2
10008d6c:	d1fb      	bne.n	10008d66 <spi_init+0x32>
10008d6e:	4681      	mov	r9, r0
10008d70:	2006      	movs	r0, #6
10008d72:	f7fc fa65 	bl	10005240 <clock_get_hz>
10008d76:	4653      	mov	r3, sl
10008d78:	685a      	ldr	r2, [r3, #4]
10008d7a:	2302      	movs	r3, #2
10008d7c:	401a      	ands	r2, r3
10008d7e:	9201      	str	r2, [sp, #4]
10008d80:	4652      	mov	r2, sl
10008d82:	2180      	movs	r1, #128	; 0x80
10008d84:	3204      	adds	r2, #4
10008d86:	9202      	str	r2, [sp, #8]
10008d88:	4a35      	ldr	r2, [pc, #212]	; (10008e60 <spi_init+0x12c>)
10008d8a:	0def      	lsrs	r7, r5, #23
10008d8c:	4452      	add	r2, sl
10008d8e:	026e      	lsls	r6, r5, #9
10008d90:	6013      	str	r3, [r2, #0]
10008d92:	9203      	str	r2, [sp, #12]
10008d94:	003b      	movs	r3, r7
10008d96:	0032      	movs	r2, r6
10008d98:	2402      	movs	r4, #2
10008d9a:	0049      	lsls	r1, r1, #1
10008d9c:	e006      	b.n	10008dac <spi_init+0x78>
10008d9e:	4290      	cmp	r0, r2
10008da0:	d306      	bcc.n	10008db0 <spi_init+0x7c>
10008da2:	3402      	adds	r4, #2
10008da4:	1992      	adds	r2, r2, r6
10008da6:	417b      	adcs	r3, r7
10008da8:	428c      	cmp	r4, r1
10008daa:	d001      	beq.n	10008db0 <spi_init+0x7c>
10008dac:	2b00      	cmp	r3, #0
10008dae:	d0f6      	beq.n	10008d9e <spi_init+0x6a>
10008db0:	002b      	movs	r3, r5
10008db2:	2680      	movs	r6, #128	; 0x80
10008db4:	0227      	lsls	r7, r4, #8
10008db6:	46a0      	mov	r8, r4
10008db8:	1b3f      	subs	r7, r7, r4
10008dba:	0005      	movs	r5, r0
10008dbc:	001c      	movs	r4, r3
10008dbe:	0076      	lsls	r6, r6, #1
10008dc0:	e003      	b.n	10008dca <spi_init+0x96>
10008dc2:	4643      	mov	r3, r8
10008dc4:	1aff      	subs	r7, r7, r3
10008dc6:	2e01      	cmp	r6, #1
10008dc8:	d03d      	beq.n	10008e46 <spi_init+0x112>
10008dca:	0039      	movs	r1, r7
10008dcc:	0028      	movs	r0, r5
10008dce:	46b3      	mov	fp, r6
10008dd0:	3e01      	subs	r6, #1
10008dd2:	f7fd fb13 	bl	100063fc <__wrap___aeabi_uidiv>
10008dd6:	4284      	cmp	r4, r0
10008dd8:	d2f3      	bcs.n	10008dc2 <spi_init+0x8e>
10008dda:	4644      	mov	r4, r8
10008ddc:	4659      	mov	r1, fp
10008dde:	0233      	lsls	r3, r6, #8
10008de0:	46a8      	mov	r8, r5
10008de2:	4699      	mov	r9, r3
10008de4:	4361      	muls	r1, r4
10008de6:	4653      	mov	r3, sl
10008de8:	464a      	mov	r2, r9
10008dea:	611c      	str	r4, [r3, #16]
10008dec:	681b      	ldr	r3, [r3, #0]
10008dee:	2580      	movs	r5, #128	; 0x80
10008df0:	4053      	eors	r3, r2
10008df2:	22ff      	movs	r2, #255	; 0xff
10008df4:	0212      	lsls	r2, r2, #8
10008df6:	4013      	ands	r3, r2
10008df8:	2280      	movs	r2, #128	; 0x80
10008dfa:	0192      	lsls	r2, r2, #6
10008dfc:	4694      	mov	ip, r2
10008dfe:	016d      	lsls	r5, r5, #5
10008e00:	4455      	add	r5, sl
10008e02:	602b      	str	r3, [r5, #0]
10008e04:	9b02      	ldr	r3, [sp, #8]
10008e06:	9a01      	ldr	r2, [sp, #4]
10008e08:	4463      	add	r3, ip
10008e0a:	601a      	str	r2, [r3, #0]
10008e0c:	4652      	mov	r2, sl
10008e0e:	6850      	ldr	r0, [r2, #4]
10008e10:	2202      	movs	r2, #2
10008e12:	9c03      	ldr	r4, [sp, #12]
10008e14:	2607      	movs	r6, #7
10008e16:	6022      	str	r2, [r4, #0]
10008e18:	4654      	mov	r4, sl
10008e1a:	6824      	ldr	r4, [r4, #0]
10008e1c:	4010      	ands	r0, r2
10008e1e:	4066      	eors	r6, r4
10008e20:	24cf      	movs	r4, #207	; 0xcf
10008e22:	4034      	ands	r4, r6
10008e24:	602c      	str	r4, [r5, #0]
10008e26:	2403      	movs	r4, #3
10008e28:	6018      	str	r0, [r3, #0]
10008e2a:	480e      	ldr	r0, [pc, #56]	; (10008e64 <spi_init+0x130>)
10008e2c:	4450      	add	r0, sl
10008e2e:	6004      	str	r4, [r0, #0]
10008e30:	4640      	mov	r0, r8
10008e32:	601a      	str	r2, [r3, #0]
10008e34:	f7fd fae2 	bl	100063fc <__wrap___aeabi_uidiv>
10008e38:	b005      	add	sp, #20
10008e3a:	bcf0      	pop	{r4, r5, r6, r7}
10008e3c:	46bb      	mov	fp, r7
10008e3e:	46b2      	mov	sl, r6
10008e40:	46a9      	mov	r9, r5
10008e42:	46a0      	mov	r8, r4
10008e44:	bdf0      	pop	{r4, r5, r6, r7, pc}
10008e46:	4644      	mov	r4, r8
10008e48:	0019      	movs	r1, r3
10008e4a:	46a8      	mov	r8, r5
10008e4c:	e7cb      	b.n	10008de6 <spi_init+0xb2>
10008e4e:	46c0      	nop			; (mov r8, r8)
10008e50:	bffc4000 	.word	0xbffc4000
10008e54:	4000e000 	.word	0x4000e000
10008e58:	4000f000 	.word	0x4000f000
10008e5c:	4000c008 	.word	0x4000c008
10008e60:	00003004 	.word	0x00003004
10008e64:	00002024 	.word	0x00002024

10008e68 <strlen>:
10008e68:	b510      	push	{r4, lr}
10008e6a:	0783      	lsls	r3, r0, #30
10008e6c:	d00a      	beq.n	10008e84 <strlen+0x1c>
10008e6e:	0003      	movs	r3, r0
10008e70:	2103      	movs	r1, #3
10008e72:	e002      	b.n	10008e7a <strlen+0x12>
10008e74:	3301      	adds	r3, #1
10008e76:	420b      	tst	r3, r1
10008e78:	d005      	beq.n	10008e86 <strlen+0x1e>
10008e7a:	781a      	ldrb	r2, [r3, #0]
10008e7c:	2a00      	cmp	r2, #0
10008e7e:	d1f9      	bne.n	10008e74 <strlen+0xc>
10008e80:	1a18      	subs	r0, r3, r0
10008e82:	bd10      	pop	{r4, pc}
10008e84:	0003      	movs	r3, r0
10008e86:	6819      	ldr	r1, [r3, #0]
10008e88:	4a0c      	ldr	r2, [pc, #48]	; (10008ebc <strlen+0x54>)
10008e8a:	4c0d      	ldr	r4, [pc, #52]	; (10008ec0 <strlen+0x58>)
10008e8c:	188a      	adds	r2, r1, r2
10008e8e:	438a      	bics	r2, r1
10008e90:	4222      	tst	r2, r4
10008e92:	d10f      	bne.n	10008eb4 <strlen+0x4c>
10008e94:	6859      	ldr	r1, [r3, #4]
10008e96:	4a09      	ldr	r2, [pc, #36]	; (10008ebc <strlen+0x54>)
10008e98:	3304      	adds	r3, #4
10008e9a:	188a      	adds	r2, r1, r2
10008e9c:	438a      	bics	r2, r1
10008e9e:	4222      	tst	r2, r4
10008ea0:	d108      	bne.n	10008eb4 <strlen+0x4c>
10008ea2:	6859      	ldr	r1, [r3, #4]
10008ea4:	4a05      	ldr	r2, [pc, #20]	; (10008ebc <strlen+0x54>)
10008ea6:	3304      	adds	r3, #4
10008ea8:	188a      	adds	r2, r1, r2
10008eaa:	438a      	bics	r2, r1
10008eac:	4222      	tst	r2, r4
10008eae:	d0f1      	beq.n	10008e94 <strlen+0x2c>
10008eb0:	e000      	b.n	10008eb4 <strlen+0x4c>
10008eb2:	3301      	adds	r3, #1
10008eb4:	781a      	ldrb	r2, [r3, #0]
10008eb6:	2a00      	cmp	r2, #0
10008eb8:	d1fb      	bne.n	10008eb2 <strlen+0x4a>
10008eba:	e7e1      	b.n	10008e80 <strlen+0x18>
10008ebc:	fefefeff 	.word	0xfefefeff
10008ec0:	80808080 	.word	0x80808080

10008ec4 <_fini>:
10008ec4:	b5f8      	push	{r3, r4, r5, r6, r7, lr}
10008ec6:	46c0      	nop			; (mov r8, r8)

10008ec8 <__mutex_exit_veneer>:
10008ec8:	b401      	push	{r0}
10008eca:	4802      	ldr	r0, [pc, #8]	; (10008ed4 <__mutex_exit_veneer+0xc>)
10008ecc:	4684      	mov	ip, r0
10008ece:	bc01      	pop	{r0}
10008ed0:	4760      	bx	ip
10008ed2:	bf00      	nop
10008ed4:	2000015d 	.word	0x2000015d

10008ed8 <____aeabi_ldiv0_veneer>:
10008ed8:	b401      	push	{r0}
10008eda:	4802      	ldr	r0, [pc, #8]	; (10008ee4 <____aeabi_ldiv0_veneer+0xc>)
10008edc:	4684      	mov	ip, r0
10008ede:	bc01      	pop	{r0}
10008ee0:	4760      	bx	ip
10008ee2:	bf00      	nop
10008ee4:	200001f1 	.word	0x200001f1

10008ee8 <____aeabi_idiv0_veneer>:
10008ee8:	b401      	push	{r0}
10008eea:	4802      	ldr	r0, [pc, #8]	; (10008ef4 <____aeabi_idiv0_veneer+0xc>)
10008eec:	4684      	mov	ip, r0
10008eee:	bc01      	pop	{r0}
10008ef0:	4760      	bx	ip
10008ef2:	bf00      	nop
10008ef4:	200001f1 	.word	0x200001f1

10008ef8 <__spi_read16_blocking_veneer>:
10008ef8:	b401      	push	{r0}
10008efa:	4802      	ldr	r0, [pc, #8]	; (10008f04 <__spi_read16_blocking_veneer+0xc>)
10008efc:	4684      	mov	ip, r0
10008efe:	bc01      	pop	{r0}
10008f00:	4760      	bx	ip
10008f02:	bf00      	nop
10008f04:	2000017d 	.word	0x2000017d

10008f08 <__mutex_try_enter_block_until_veneer>:
10008f08:	b401      	push	{r0}
10008f0a:	4802      	ldr	r0, [pc, #8]	; (10008f14 <__mutex_try_enter_block_until_veneer+0xc>)
10008f0c:	4684      	mov	ip, r0
10008f0e:	bc01      	pop	{r0}
10008f10:	4760      	bx	ip
10008f12:	bf00      	nop
10008f14:	200000c1 	.word	0x200000c1

10008f18 <__pre_init_runtime_init_early_resets>:
10008f18:	10006225                                %b..

10008f1c <__pre_init_runtime_init_usb_power_down>:
10008f1c:	10006251 1000639d 10007105 10006a41     Qb...c...q..Aj..
10008f2c:	10007075                                up..

10008f30 <__pre_init_runtime_init_clocks>:
10008f30:	100062c5                                .b..

10008f34 <__pre_init_runtime_init_post_clock_resets>:
10008f34:	1000626d                                mb..

10008f38 <__pre_init_runtime_init_rp2040_gpio_ie_disable>:
10008f38:	1000628d                                .b..

10008f3c <__pre_init_runtime_init_spin_locks_reset>:
10008f3c:	100062a1                                .b..

10008f40 <__pre_init_runtime_init_mutex>:
10008f40:	100056b5                                .V..

10008f44 <__pre_init_runtime_init_install_ram_vector_table>:
10008f44:	100062a9                                .b..

10008f48 <__pre_init_runtime_init_default_alarm_pool>:
10008f48:	10005a49                                IZ..

10008f4c <__pre_init_first_per_core_initializer>:
10008f4c:	100061c5                                .a..

10008f50 <__pre_init_runtime_init_per_core_irq_priorities>:
10008f50:	10005351                                QS..

10008f54 <__frame_dummy_init_array_entry>:
10008f54:	100002fd 100015b1                       ........

Disassembly of section .data:

200000c0 <mutex_try_enter_block_until>:
200000c0:	b5f0      	push	{r4, r5, r6, r7, lr}
200000c2:	46c6      	mov	lr, r8
200000c4:	0015      	movs	r5, r2
200000c6:	b500      	push	{lr}
200000c8:	0004      	movs	r4, r0
200000ca:	001e      	movs	r6, r3
200000cc:	6802      	ldr	r2, [r0, #0]
200000ce:	f3ef 8810 	mrs	r8, PRIMASK
200000d2:	b672      	cpsid	i
200000d4:	6813      	ldr	r3, [r2, #0]
200000d6:	2b00      	cmp	r3, #0
200000d8:	d0fc      	beq.n	200000d4 <mutex_try_enter_block_until+0x14>
200000da:	f3bf 8f5f 	dmb	sy
200000de:	6867      	ldr	r7, [r4, #4]
200000e0:	1c7b      	adds	r3, r7, #1
200000e2:	d00e      	beq.n	20000102 <mutex_try_enter_block_until+0x42>
200000e4:	6823      	ldr	r3, [r4, #0]
200000e6:	f3bf 8f5f 	dmb	sy
200000ea:	2200      	movs	r2, #0
200000ec:	601a      	str	r2, [r3, #0]
200000ee:	f388 8810 	msr	PRIMASK, r8
200000f2:	f000 f881 	bl	200001f8 <__ulPortLockGetCurrentOwnerId_veneer>
200000f6:	42b8      	cmp	r0, r7
200000f8:	d10f      	bne.n	2000011a <mutex_try_enter_block_until+0x5a>
200000fa:	2000      	movs	r0, #0
200000fc:	bc80      	pop	{r7}
200000fe:	46b8      	mov	r8, r7
20000100:	bdf0      	pop	{r4, r5, r6, r7, pc}
20000102:	f000 f879 	bl	200001f8 <__ulPortLockGetCurrentOwnerId_veneer>
20000106:	6823      	ldr	r3, [r4, #0]
20000108:	6060      	str	r0, [r4, #4]
2000010a:	f3bf 8f5f 	dmb	sy
2000010e:	2200      	movs	r2, #0
20000110:	601a      	str	r2, [r3, #0]
20000112:	f388 8810 	msr	PRIMASK, r8
20000116:	2001      	movs	r0, #1
20000118:	e7f0      	b.n	200000fc <mutex_try_enter_block_until+0x3c>
2000011a:	f000 f86d 	bl	200001f8 <__ulPortLockGetCurrentOwnerId_veneer>
2000011e:	0007      	movs	r7, r0
20000120:	e006      	b.n	20000130 <mutex_try_enter_block_until+0x70>
20000122:	002a      	movs	r2, r5
20000124:	0033      	movs	r3, r6
20000126:	0020      	movs	r0, r4
20000128:	f000 f86e 	bl	20000208 <__xPortLockInternalSpinUnlockWithBestEffortWaitOrTimeout_veneer>
2000012c:	2800      	cmp	r0, #0
2000012e:	d1e4      	bne.n	200000fa <mutex_try_enter_block_until+0x3a>
20000130:	6822      	ldr	r2, [r4, #0]
20000132:	f3ef 8110 	mrs	r1, PRIMASK
20000136:	b672      	cpsid	i
20000138:	6813      	ldr	r3, [r2, #0]
2000013a:	2b00      	cmp	r3, #0
2000013c:	d0fc      	beq.n	20000138 <mutex_try_enter_block_until+0x78>
2000013e:	f3bf 8f5f 	dmb	sy
20000142:	6863      	ldr	r3, [r4, #4]
20000144:	3301      	adds	r3, #1
20000146:	d1ec      	bne.n	20000122 <mutex_try_enter_block_until+0x62>
20000148:	6823      	ldr	r3, [r4, #0]
2000014a:	6067      	str	r7, [r4, #4]
2000014c:	f3bf 8f5f 	dmb	sy
20000150:	2200      	movs	r2, #0
20000152:	601a      	str	r2, [r3, #0]
20000154:	f381 8810 	msr	PRIMASK, r1
20000158:	2001      	movs	r0, #1
2000015a:	e7cf      	b.n	200000fc <mutex_try_enter_block_until+0x3c>

2000015c <mutex_exit>:
2000015c:	b510      	push	{r4, lr}
2000015e:	6802      	ldr	r2, [r0, #0]
20000160:	f3ef 8110 	mrs	r1, PRIMASK
20000164:	b672      	cpsid	i
20000166:	6813      	ldr	r3, [r2, #0]
20000168:	2b00      	cmp	r3, #0
2000016a:	d0fc      	beq.n	20000166 <mutex_exit+0xa>
2000016c:	f3bf 8f5f 	dmb	sy
20000170:	2301      	movs	r3, #1
20000172:	425b      	negs	r3, r3
20000174:	6043      	str	r3, [r0, #4]
20000176:	f000 f84f 	bl	20000218 <__vPortLockInternalSpinUnlockWithNotify_veneer>
2000017a:	bd10      	pop	{r4, pc}

2000017c <spi_read16_blocking>:
2000017c:	b5f0      	push	{r4, r5, r6, r7, lr}
2000017e:	4647      	mov	r7, r8
20000180:	46ce      	mov	lr, r9
20000182:	0005      	movs	r5, r0
20000184:	4688      	mov	r8, r1
20000186:	0018      	movs	r0, r3
20000188:	b580      	push	{r7, lr}
2000018a:	2b00      	cmp	r3, #0
2000018c:	d017      	beq.n	200001be <spi_read16_blocking+0x42>
2000018e:	001e      	movs	r6, r3
20000190:	001c      	movs	r4, r3
20000192:	2302      	movs	r3, #2
20000194:	469c      	mov	ip, r3
20000196:	3302      	adds	r3, #2
20000198:	4699      	mov	r9, r3
2000019a:	2e00      	cmp	r6, #0
2000019c:	d013      	beq.n	200001c6 <spi_read16_blocking+0x4a>
2000019e:	0033      	movs	r3, r6
200001a0:	3308      	adds	r3, #8
200001a2:	4661      	mov	r1, ip
200001a4:	68ef      	ldr	r7, [r5, #12]
200001a6:	4239      	tst	r1, r7
200001a8:	d01a      	beq.n	200001e0 <spi_read16_blocking+0x64>
200001aa:	42a3      	cmp	r3, r4
200001ac:	d918      	bls.n	200001e0 <spi_read16_blocking+0x64>
200001ae:	4643      	mov	r3, r8
200001b0:	3e01      	subs	r6, #1
200001b2:	60ab      	str	r3, [r5, #8]
200001b4:	0033      	movs	r3, r6
200001b6:	2c00      	cmp	r4, #0
200001b8:	d114      	bne.n	200001e4 <spi_read16_blocking+0x68>
200001ba:	2b00      	cmp	r3, #0
200001bc:	d1ed      	bne.n	2000019a <spi_read16_blocking+0x1e>
200001be:	bcc0      	pop	{r6, r7}
200001c0:	46b9      	mov	r9, r7
200001c2:	46b0      	mov	r8, r6
200001c4:	bdf0      	pop	{r4, r5, r6, r7, pc}
200001c6:	2c00      	cmp	r4, #0
200001c8:	d0f9      	beq.n	200001be <spi_read16_blocking+0x42>
200001ca:	4649      	mov	r1, r9
200001cc:	68eb      	ldr	r3, [r5, #12]
200001ce:	4219      	tst	r1, r3
200001d0:	d0f9      	beq.n	200001c6 <spi_read16_blocking+0x4a>
200001d2:	68ab      	ldr	r3, [r5, #8]
200001d4:	3c01      	subs	r4, #1
200001d6:	8013      	strh	r3, [r2, #0]
200001d8:	0023      	movs	r3, r4
200001da:	3202      	adds	r2, #2
200001dc:	4333      	orrs	r3, r6
200001de:	e7ec      	b.n	200001ba <spi_read16_blocking+0x3e>
200001e0:	2c00      	cmp	r4, #0
200001e2:	d0de      	beq.n	200001a2 <spi_read16_blocking+0x26>
200001e4:	4649      	mov	r1, r9
200001e6:	68eb      	ldr	r3, [r5, #12]
200001e8:	4219      	tst	r1, r3
200001ea:	d0d6      	beq.n	2000019a <spi_read16_blocking+0x1e>
200001ec:	e7f1      	b.n	200001d2 <spi_read16_blocking+0x56>
200001ee:	46c0      	nop			; (mov r8, r8)

200001f0 <__aeabi_idiv0>:
200001f0:	4770      	bx	lr
200001f2:	46c0      	nop			; (mov r8, r8)
200001f4:	0000      	movs	r0, r0
	...

200001f8 <__ulPortLockGetCurrentOwnerId_veneer>:
200001f8:	b401      	push	{r0}
200001fa:	4802      	ldr	r0, [pc, #8]	; (20000204 <__ulPortLockGetCurrentOwnerId_veneer+0xc>)
200001fc:	4684      	mov	ip, r0
200001fe:	bc01      	pop	{r0}
20000200:	4760      	bx	ip
20000202:	bf00      	nop
20000204:	10001411 	.word	0x10001411

20000208 <__xPortLockInternalSpinUnlockWithBestEffortWaitOrTimeout_veneer>:
20000208:	b401      	push	{r0}
2000020a:	4802      	ldr	r0, [pc, #8]	; (20000214 <__xPortLockInternalSpinUnlockWithBestEffortWaitOrTimeout_veneer+0xc>)
2000020c:	4684      	mov	ip, r0
2000020e:	bc01      	pop	{r0}
20000210:	4760      	bx	ip
20000212:	bf00      	nop
20000214:	100014c5 	.word	0x100014c5

20000218 <__vPortLockInternalSpinUnlockWithNotify_veneer>:
20000218:	b401      	push	{r0}
2000021a:	4802      	ldr	r0, [pc, #8]	; (20000224 <__vPortLockInternalSpinUnlockWithNotify_veneer+0xc>)
2000021c:	4684      	mov	ip, r0
2000021e:	bc01      	pop	{r0}
20000220:	4760      	bx	ip
20000222:	bf00      	nop
20000224:	10001441 	.word	0x10001441

20000228 <last_core_id.0>:
20000228:	ffffffff                                ....

2000022c <last_core_id.1>:
2000022c:	ffffffff                                ....

20000230 <last_core_id.3>:
20000230:	ffffffff 00000000                       ........

20000238 <worker_timeout>:
20000238:	00000000 10000435 00000000 00000000     ....5...........
	...

20000250 <ucPrimaryCoreNum>:
20000250:	000000ff                                ....

20000254 <uxTopUsedPriority>:
20000254:	0000001f                                ....

20000258 <striped_spin_lock_num>:
20000258:	00000010                                ....

2000025c <irq_handler_chain_slots>:
2000025c:	00000000 	.word	0x00000000
20000260:	00010000 	.word	0x00010000
	...
2000026c:	00020000 	.word	0x00020000
	...
20000278:	00030000 	.word	0x00030000
	...
20000284:	00ff0000 	.word	0x00ff0000
20000288:	00000000 	.word	0x00000000

2000028c <irq_handler_chain_first_slot>:
2000028c:	b501      	push	{r0, lr}
2000028e:	6848      	ldr	r0, [r1, #4]
20000290:	3101      	adds	r1, #1
20000292:	468e      	mov	lr, r1
20000294:	4700      	bx	r0

20000296 <irq_handler_chain_remove_tail>:
20000296:	4670      	mov	r0, lr
20000298:	3809      	subs	r0, #9
2000029a:	4901      	ldr	r1, [pc, #4]	; (200002a0 <irq_handler_chain_remove_tail+0xa>)
2000029c:	4788      	blx	r1
2000029e:	bd01      	pop	{r0, pc}
200002a0:	100055f1 	.word	0x100055f1

200002a4 <default_alarm_pool>:
	...
200002b8:	20000340 00000000                       @.. ....

200002c0 <aeabi_bits_funcs>:
200002c0:	00003350 	.word	0x00003350
200002c4:	0000334c 	.word	0x0000334c
200002c8:	00003354 	.word	0x00003354
200002cc:	00003352 	.word	0x00003352

200002d0 <aeabi_bits_funcs_end>:
200002d0:	0000534d 	.word	0x0000534d
200002d4:	0000434d 	.word	0x0000434d
200002d8:	00003453 	.word	0x00003453
200002dc:	00003443 	.word	0x00003443

200002e0 <stdio_uart>:
200002e0:	10008b51 10008c49 10008b9d 10008c5d     Q...I.......]...
200002f0:	00000000 00000100                       ........

200002f8 <malloc_mutex>:
	...

20000300 <print_mutex>:
	...
