
/home/yasuno/dev/RP2040/srcs/ps_2_freertos/ps_2_freertos.elf:     file format elf32-littlearm

Sections:
Idx Name          Size      VMA       LMA       File off  Algn
  0 .boot2        00000100  10000000  10000000  00001000  2**0
                  CONTENTS, ALLOC, LOAD, READONLY, CODE
  1 .text         0000751c  10000100  10000100  00001100  2**4
                  CONTENTS, ALLOC, LOAD, READONLY, CODE
  2 .rodata       000004bc  10007620  10007620  00008620  2**3
                  CONTENTS, ALLOC, LOAD, READONLY, DATA
  3 .binary_info  0000002c  10007adc  10007adc  00008adc  2**2
                  CONTENTS, ALLOC, LOAD, READONLY, DATA
  4 .ram_vector_table 000000c0  20000000  20000000  0000a000  2**2
                  ALLOC
  5 .uninitialized_data 00000000  200000c0  200000c0  000092e8  2**0
                  CONTENTS
  6 .data         00000228  200000c0  10007b08  000090c0  2**4
                  CONTENTS, ALLOC, LOAD, READONLY, CODE
  7 .tdata        00000000  200002e8  200002e8  000092e8  2**0
                  CONTENTS, ALLOC, LOAD, DATA, THREAD_LOCAL
  8 .tbss         00000000  200002e8  200002e8  00000000  2**0
                  ALLOC, THREAD_LOCAL
  9 .bss          00020834  200002e8  10007d30  000092e8  2**3
                  ALLOC
 10 .heap         00000800  20020b1c  20020b1c  000092e8  2**2
                  CONTENTS, READONLY
 11 .scratch_x    00000000  20040000  20040000  00009ae8  2**0
                  CONTENTS
 12 .scratch_y    00000000  20041000  20041000  00009ae8  2**0
                  CONTENTS
 13 .stack1_dummy 00000800  20040000  20040000  0000a000  2**2
                  ALLOC
 14 .stack_dummy  00000800  20041000  20041000  00009b00  2**5
                  CONTENTS, READONLY
 15 .ARM.attributes 00000028  00000000  00000000  0000a300  2**0
                  CONTENTS, READONLY
 16 .comment      00000033  00000000  00000000  0000a328  2**0
                  CONTENTS, READONLY
 17 .debug_info   0003305e  00000000  00000000  0000a35b  2**0
                  CONTENTS, READONLY, DEBUGGING, OCTETS
 18 .debug_abbrev 00007509  00000000  00000000  0003d3b9  2**0
                  CONTENTS, READONLY, DEBUGGING, OCTETS
 19 .debug_loc    0002d5ca  00000000  00000000  000448c2  2**0
                  CONTENTS, READONLY, DEBUGGING, OCTETS
 20 .debug_aranges 000017a0  00000000  00000000  00071e90  2**3
                  CONTENTS, READONLY, DEBUGGING, OCTETS
 21 .debug_ranges 0000e628  00000000  00000000  00073630  2**3
                  CONTENTS, READONLY, DEBUGGING, OCTETS
 22 .debug_line   0002a62a  00000000  00000000  00081c58  2**0
                  CONTENTS, READONLY, DEBUGGING, OCTETS
 23 .debug_str    00008220  00000000  00000000  000ac282  2**0
                  CONTENTS, READONLY, DEBUGGING, OCTETS
 24 .debug_frame  0000357c  00000000  00000000  000b44a4  2**2
                  CONTENTS, READONLY, DEBUGGING, OCTETS

/home/yasuno/dev/RP2040/srcs/ps_2_freertos/ps_2_freertos.elf:     file format elf32-littlearm


Disassembly of section .boot2:

10000000 <__boot2_start__>:
10000000:	4b32b500 	.word	0x4b32b500
10000004:	60582021 	.word	0x60582021
10000008:	21026898 	.word	0x21026898
1000000c:	60984388 	.word	0x60984388
10000010:	611860d8 	.word	0x611860d8
10000014:	4b2e6158 	.word	0x4b2e6158
10000018:	60992100 	.word	0x60992100
1000001c:	61592102 	.word	0x61592102
10000020:	22f02101 	.word	0x22f02101
10000024:	492b5099 	.word	0x492b5099
10000028:	21016019 	.word	0x21016019
1000002c:	20356099 	.word	0x20356099
10000030:	f844f000 	.word	0xf844f000
10000034:	42902202 	.word	0x42902202
10000038:	2106d014 	.word	0x2106d014
1000003c:	f0006619 	.word	0xf0006619
10000040:	6e19f834 	.word	0x6e19f834
10000044:	66192101 	.word	0x66192101
10000048:	66182000 	.word	0x66182000
1000004c:	f000661a 	.word	0xf000661a
10000050:	6e19f82c 	.word	0x6e19f82c
10000054:	6e196e19 	.word	0x6e196e19
10000058:	f0002005 	.word	0xf0002005
1000005c:	2101f82f 	.word	0x2101f82f
10000060:	d1f94208 	.word	0xd1f94208
10000064:	60992100 	.word	0x60992100
10000068:	6019491b 	.word	0x6019491b
1000006c:	60592100 	.word	0x60592100
10000070:	481b491a 	.word	0x481b491a
10000074:	21016001 	.word	0x21016001
10000078:	21eb6099 	.word	0x21eb6099
1000007c:	21a06619 	.word	0x21a06619
10000080:	f0006619 	.word	0xf0006619
10000084:	2100f812 	.word	0x2100f812
10000088:	49166099 	.word	0x49166099
1000008c:	60014814 	.word	0x60014814
10000090:	60992101 	.word	0x60992101
10000094:	2800bc01 	.word	0x2800bc01
10000098:	4700d000 	.word	0x4700d000
1000009c:	49134812 	.word	0x49134812
100000a0:	c8036008 	.word	0xc8036008
100000a4:	8808f380 	.word	0x8808f380
100000a8:	b5034708 	.word	0xb5034708
100000ac:	20046a99 	.word	0x20046a99
100000b0:	d0fb4201 	.word	0xd0fb4201
100000b4:	42012001 	.word	0x42012001
100000b8:	bd03d1f8 	.word	0xbd03d1f8
100000bc:	6618b502 	.word	0x6618b502
100000c0:	f7ff6618 	.word	0xf7ff6618
100000c4:	6e18fff2 	.word	0x6e18fff2
100000c8:	bd026e18 	.word	0xbd026e18
100000cc:	40020000 	.word	0x40020000
100000d0:	18000000 	.word	0x18000000
100000d4:	00070000 	.word	0x00070000
100000d8:	005f0300 	.word	0x005f0300
100000dc:	00002221 	.word	0x00002221
100000e0:	180000f4 	.word	0x180000f4
100000e4:	a0002022 	.word	0xa0002022
100000e8:	10000100 	.word	0x10000100
100000ec:	e000ed08 	.word	0xe000ed08
	...
100000fc:	7a4eb274 	.word	0x7a4eb274

Disassembly of section .text:

10000100 <__VECTOR_TABLE>:
10000100:	20042000 	.word	0x20042000
10000104:	100001f7 	.word	0x100001f7
10000108:	100001c3 	.word	0x100001c3
1000010c:	100001c5 	.word	0x100001c5
10000110:	100001c1 	.word	0x100001c1
10000114:	100001c1 	.word	0x100001c1
10000118:	100001c1 	.word	0x100001c1
1000011c:	100001c1 	.word	0x100001c1
10000120:	100001c1 	.word	0x100001c1
10000124:	100001c1 	.word	0x100001c1
10000128:	100001c1 	.word	0x100001c1
1000012c:	100001c7 	.word	0x100001c7
10000130:	100001c1 	.word	0x100001c1
10000134:	100001c1 	.word	0x100001c1
10000138:	100001c9 	.word	0x100001c9
1000013c:	100001cb 	.word	0x100001cb
10000140:	100001cd 	.word	0x100001cd
10000144:	100001cd 	.word	0x100001cd
10000148:	100001cd 	.word	0x100001cd
1000014c:	100001cd 	.word	0x100001cd
10000150:	100001cd 	.word	0x100001cd
10000154:	100001cd 	.word	0x100001cd
10000158:	100001cd 	.word	0x100001cd
1000015c:	100001cd 	.word	0x100001cd
10000160:	100001cd 	.word	0x100001cd
10000164:	100001cd 	.word	0x100001cd
10000168:	100001cd 	.word	0x100001cd
1000016c:	100001cd 	.word	0x100001cd
10000170:	100001cd 	.word	0x100001cd
10000174:	100001cd 	.word	0x100001cd
10000178:	100001cd 	.word	0x100001cd
1000017c:	100001cd 	.word	0x100001cd
10000180:	100001cd 	.word	0x100001cd
10000184:	100001cd 	.word	0x100001cd
10000188:	100001cd 	.word	0x100001cd
1000018c:	100001cd 	.word	0x100001cd
10000190:	100001cd 	.word	0x100001cd
10000194:	100001cd 	.word	0x100001cd
10000198:	100001cd 	.word	0x100001cd
1000019c:	100001cd 	.word	0x100001cd
100001a0:	100001cd 	.word	0x100001cd
100001a4:	100001cd 	.word	0x100001cd
100001a8:	100001cd 	.word	0x100001cd
100001ac:	100001cd 	.word	0x100001cd
100001b0:	100001cd 	.word	0x100001cd
100001b4:	100001cd 	.word	0x100001cd
100001b8:	100001cd 	.word	0x100001cd
100001bc:	100001cd 	.word	0x100001cd

100001c0 <isr_invalid>:
100001c0:	be00      	bkpt	0x0000

100001c2 <isr_nmi>:
100001c2:	be00      	bkpt	0x0000

100001c4 <isr_hardfault>:
100001c4:	be00      	bkpt	0x0000

100001c6 <isr_svcall>:
100001c6:	be00      	bkpt	0x0000

100001c8 <isr_pendsv>:
100001c8:	be00      	bkpt	0x0000

100001ca <isr_systick>:
100001ca:	be00      	bkpt	0x0000

100001cc <__unhandled_user_irq>:
100001cc:	f3ef 8005 	mrs	r0, IPSR
100001d0:	3810      	subs	r0, #16

100001d2 <unhandled_user_irq_num_in_r0>:
100001d2:	be00      	bkpt	0x0000

100001d4 <binary_info_header>:
100001d4:	7188ebf2 	.word	0x7188ebf2
100001d8:	10007adc 	.word	0x10007adc
100001dc:	10007b08 	.word	0x10007b08
100001e0:	10000238 	.word	0x10000238
100001e4:	e71aa390 	.word	0xe71aa390

100001e8 <_entry_point>:
100001e8:	481e      	ldr	r0, [pc, #120]	; (10000264 <data_cpy_table+0x2c>)

100001ea <_enter_vtable_in_r0>:
100001ea:	491f      	ldr	r1, [pc, #124]	; (10000268 <data_cpy_table+0x30>)
100001ec:	6008      	str	r0, [r1, #0]
100001ee:	c806      	ldmia	r0!, {r1, r2}
100001f0:	f381 8808 	msr	MSP, r1
100001f4:	4710      	bx	r2

100001f6 <_reset_handler>:
100001f6:	481d      	ldr	r0, [pc, #116]	; (1000026c <data_cpy_table+0x34>)
100001f8:	6800      	ldr	r0, [r0, #0]
100001fa:	2800      	cmp	r0, #0
100001fc:	d001      	beq.n	10000202 <hold_non_core0_in_bootrom+0x4>

100001fe <hold_non_core0_in_bootrom>:
100001fe:	4819      	ldr	r0, [pc, #100]	; (10000264 <data_cpy_table+0x2c>)
10000200:	e7f3      	b.n	100001ea <_enter_vtable_in_r0>
10000202:	a40d      	add	r4, pc, #52	; (adr r4, 10000238 <data_cpy_table>)
10000204:	cc0e      	ldmia	r4!, {r1, r2, r3}
10000206:	2900      	cmp	r1, #0
10000208:	d002      	beq.n	10000210 <hold_non_core0_in_bootrom+0x12>
1000020a:	f000 f812 	bl	10000232 <data_cpy>
1000020e:	e7f9      	b.n	10000204 <hold_non_core0_in_bootrom+0x6>
10000210:	4917      	ldr	r1, [pc, #92]	; (10000270 <data_cpy_table+0x38>)
10000212:	4a18      	ldr	r2, [pc, #96]	; (10000274 <data_cpy_table+0x3c>)
10000214:	2000      	movs	r0, #0
10000216:	e000      	b.n	1000021a <bss_fill_test>

10000218 <bss_fill_loop>:
10000218:	c101      	stmia	r1!, {r0}

1000021a <bss_fill_test>:
1000021a:	4291      	cmp	r1, r2
1000021c:	d1fc      	bne.n	10000218 <bss_fill_loop>

1000021e <platform_entry>:
1000021e:	4916      	ldr	r1, [pc, #88]	; (10000278 <data_cpy_table+0x40>)
10000220:	4788      	blx	r1
10000222:	4916      	ldr	r1, [pc, #88]	; (1000027c <data_cpy_table+0x44>)
10000224:	4788      	blx	r1
10000226:	4916      	ldr	r1, [pc, #88]	; (10000280 <data_cpy_table+0x48>)
10000228:	4788      	blx	r1
1000022a:	be00      	bkpt	0x0000
1000022c:	e7fd      	b.n	1000022a <platform_entry+0xc>

1000022e <data_cpy_loop>:
1000022e:	c901      	ldmia	r1!, {r0}
10000230:	c201      	stmia	r2!, {r0}

10000232 <data_cpy>:
10000232:	429a      	cmp	r2, r3
10000234:	d3fb      	bcc.n	1000022e <data_cpy_loop>
10000236:	4770      	bx	lr

10000238 <data_cpy_table>:
10000238:	10007b08 	.word	0x10007b08
1000023c:	200000c0 	.word	0x200000c0
10000240:	200002e8 	.word	0x200002e8
10000244:	10007d30 	.word	0x10007d30
10000248:	20040000 	.word	0x20040000
1000024c:	20040000 	.word	0x20040000
10000250:	10007d30 	.word	0x10007d30
10000254:	20041000 	.word	0x20041000
10000258:	20041000 	.word	0x20041000
1000025c:	00000000 	.word	0x00000000
10000260:	4770      	bx	lr
10000262:	0000      	.short	0x0000
10000264:	00000000 	.word	0x00000000
10000268:	e000ed08 	.word	0xe000ed08
1000026c:	d0000000 	.word	0xd0000000
10000270:	200002e8 	.word	0x200002e8
10000274:	20020b1c 	.word	0x20020b1c
10000278:	10006dbd 	.word	0x10006dbd
1000027c:	10000451 	.word	0x10000451
10000280:	10006db5 	.word	0x10006db5

10000284 <_init>:
10000284:	b5f8      	push	{r3, r4, r5, r6, r7, lr}
10000286:	46c0      	nop			; (mov r8, r8)

10000288 <deregister_tm_clones>:
10000288:	4804      	ldr	r0, [pc, #16]	; (1000029c <deregister_tm_clones+0x14>)
1000028a:	4b05      	ldr	r3, [pc, #20]	; (100002a0 <deregister_tm_clones+0x18>)
1000028c:	b510      	push	{r4, lr}
1000028e:	4283      	cmp	r3, r0
10000290:	d003      	beq.n	1000029a <deregister_tm_clones+0x12>
10000292:	4b04      	ldr	r3, [pc, #16]	; (100002a4 <deregister_tm_clones+0x1c>)
10000294:	2b00      	cmp	r3, #0
10000296:	d000      	beq.n	1000029a <deregister_tm_clones+0x12>
10000298:	4798      	blx	r3
1000029a:	bd10      	pop	{r4, pc}
1000029c:	200002e8 	.word	0x200002e8
100002a0:	200002e8 	.word	0x200002e8
100002a4:	00000000 	.word	0x00000000

100002a8 <register_tm_clones>:
100002a8:	4806      	ldr	r0, [pc, #24]	; (100002c4 <register_tm_clones+0x1c>)
100002aa:	4907      	ldr	r1, [pc, #28]	; (100002c8 <register_tm_clones+0x20>)
100002ac:	1a09      	subs	r1, r1, r0
100002ae:	108b      	asrs	r3, r1, #2
100002b0:	0fc9      	lsrs	r1, r1, #31
100002b2:	18c9      	adds	r1, r1, r3
100002b4:	b510      	push	{r4, lr}
100002b6:	1049      	asrs	r1, r1, #1
100002b8:	d003      	beq.n	100002c2 <register_tm_clones+0x1a>
100002ba:	4b04      	ldr	r3, [pc, #16]	; (100002cc <register_tm_clones+0x24>)
100002bc:	2b00      	cmp	r3, #0
100002be:	d000      	beq.n	100002c2 <register_tm_clones+0x1a>
100002c0:	4798      	blx	r3
100002c2:	bd10      	pop	{r4, pc}
100002c4:	200002e8 	.word	0x200002e8
100002c8:	200002e8 	.word	0x200002e8
100002cc:	00000000 	.word	0x00000000

100002d0 <__do_global_dtors_aux>:
100002d0:	b510      	push	{r4, lr}
100002d2:	4c07      	ldr	r4, [pc, #28]	; (100002f0 <__do_global_dtors_aux+0x20>)
100002d4:	7823      	ldrb	r3, [r4, #0]
100002d6:	2b00      	cmp	r3, #0
100002d8:	d109      	bne.n	100002ee <__do_global_dtors_aux+0x1e>
100002da:	f7ff ffd5 	bl	10000288 <deregister_tm_clones>
100002de:	4b05      	ldr	r3, [pc, #20]	; (100002f4 <__do_global_dtors_aux+0x24>)
100002e0:	2b00      	cmp	r3, #0
100002e2:	d002      	beq.n	100002ea <__do_global_dtors_aux+0x1a>
100002e4:	4804      	ldr	r0, [pc, #16]	; (100002f8 <__do_global_dtors_aux+0x28>)
100002e6:	e000      	b.n	100002ea <__do_global_dtors_aux+0x1a>
100002e8:	bf00      	nop
100002ea:	2301      	movs	r3, #1
100002ec:	7023      	strb	r3, [r4, #0]
100002ee:	bd10      	pop	{r4, pc}
100002f0:	200006a8 	.word	0x200006a8
100002f4:	00000000 	.word	0x00000000
100002f8:	1000761c 	.word	0x1000761c

100002fc <frame_dummy>:
100002fc:	4b05      	ldr	r3, [pc, #20]	; (10000314 <frame_dummy+0x18>)
100002fe:	b510      	push	{r4, lr}
10000300:	2b00      	cmp	r3, #0
10000302:	d003      	beq.n	1000030c <frame_dummy+0x10>
10000304:	4904      	ldr	r1, [pc, #16]	; (10000318 <frame_dummy+0x1c>)
10000306:	4805      	ldr	r0, [pc, #20]	; (1000031c <frame_dummy+0x20>)
10000308:	e000      	b.n	1000030c <frame_dummy+0x10>
1000030a:	bf00      	nop
1000030c:	f7ff ffcc 	bl	100002a8 <register_tm_clones>
10000310:	bd10      	pop	{r4, pc}
10000312:	46c0      	nop			; (mov r8, r8)
10000314:	00000000 	.word	0x00000000
10000318:	200006ac 	.word	0x200006ac
1000031c:	1000761c 	.word	0x1000761c

10000320 <main_task>:
10000320:	b5f0      	push	{r4, r5, r6, r7, lr}
10000322:	46ce      	mov	lr, r9
10000324:	4647      	mov	r7, r8
10000326:	2401      	movs	r4, #1
10000328:	2500      	movs	r5, #0
1000032a:	2280      	movs	r2, #128	; 0x80
1000032c:	b580      	push	{r7, lr}
1000032e:	b083      	sub	sp, #12
10000330:	2300      	movs	r3, #0
10000332:	4915      	ldr	r1, [pc, #84]	; (10000388 <main_task+0x68>)
10000334:	9400      	str	r4, [sp, #0]
10000336:	0092      	lsls	r2, r2, #2
10000338:	4814      	ldr	r0, [pc, #80]	; (1000038c <main_task+0x6c>)
1000033a:	9501      	str	r5, [sp, #4]
1000033c:	f002 fbfc 	bl	10002b38 <xTaskCreate>
10000340:	2280      	movs	r2, #128	; 0x80
10000342:	2300      	movs	r3, #0
10000344:	9400      	str	r4, [sp, #0]
10000346:	4912      	ldr	r1, [pc, #72]	; (10000390 <main_task+0x70>)
10000348:	4812      	ldr	r0, [pc, #72]	; (10000394 <main_task+0x74>)
1000034a:	9501      	str	r5, [sp, #4]
1000034c:	0092      	lsls	r2, r2, #2
1000034e:	f002 fbf3 	bl	10002b38 <xTaskCreate>
10000352:	4b11      	ldr	r3, [pc, #68]	; (10000398 <main_task+0x78>)
10000354:	27d0      	movs	r7, #208	; 0xd0
10000356:	4699      	mov	r9, r3
10000358:	4b10      	ldr	r3, [pc, #64]	; (1000039c <main_task+0x7c>)
1000035a:	2400      	movs	r4, #0
1000035c:	4698      	mov	r8, r3
1000035e:	4e10      	ldr	r6, [pc, #64]	; (100003a0 <main_task+0x80>)
10000360:	063f      	lsls	r7, r7, #24
10000362:	6839      	ldr	r1, [r7, #0]
10000364:	6833      	ldr	r3, [r6, #0]
10000366:	428b      	cmp	r3, r1
10000368:	d003      	beq.n	10000372 <main_task+0x52>
1000036a:	4648      	mov	r0, r9
1000036c:	6031      	str	r1, [r6, #0]
1000036e:	f006 ff43 	bl	100071f8 <__wrap_printf>
10000372:	0021      	movs	r1, r4
10000374:	4640      	mov	r0, r8
10000376:	f006 ff3f 	bl	100071f8 <__wrap_printf>
1000037a:	1c65      	adds	r5, r4, #1
1000037c:	4809      	ldr	r0, [pc, #36]	; (100003a4 <main_task+0x84>)
1000037e:	f002 fed7 	bl	10003130 <vTaskDelay>
10000382:	002c      	movs	r4, r5
10000384:	e7ed      	b.n	10000362 <main_task+0x42>
10000386:	46c0      	nop			; (mov r8, r8)
10000388:	10007620 	.word	0x10007620
1000038c:	100003d5 	.word	0x100003d5
10000390:	10007630 	.word	0x10007630
10000394:	100003a9 	.word	0x100003a9
10000398:	10007640 	.word	0x10007640
1000039c:	10007650 	.word	0x10007650
100003a0:	20000230 	.word	0x20000230
100003a4:	00000bb8 	.word	0x00000bb8

100003a8 <hostside_task>:
100003a8:	b570      	push	{r4, r5, r6, lr}
100003aa:	25d0      	movs	r5, #208	; 0xd0
100003ac:	4c07      	ldr	r4, [pc, #28]	; (100003cc <hostside_task+0x24>)
100003ae:	4e08      	ldr	r6, [pc, #32]	; (100003d0 <hostside_task+0x28>)
100003b0:	062d      	lsls	r5, r5, #24
100003b2:	6829      	ldr	r1, [r5, #0]
100003b4:	6823      	ldr	r3, [r4, #0]
100003b6:	428b      	cmp	r3, r1
100003b8:	d003      	beq.n	100003c2 <hostside_task+0x1a>
100003ba:	0030      	movs	r0, r6
100003bc:	6021      	str	r1, [r4, #0]
100003be:	f006 ff1b 	bl	100071f8 <__wrap_printf>
100003c2:	200a      	movs	r0, #10
100003c4:	f002 feb4 	bl	10003130 <vTaskDelay>
100003c8:	e7f3      	b.n	100003b2 <hostside_task+0xa>
100003ca:	46c0      	nop			; (mov r8, r8)
100003cc:	20000228 	.word	0x20000228
100003d0:	10007668 	.word	0x10007668

100003d4 <buffer_task>:
100003d4:	b5f8      	push	{r3, r4, r5, r6, r7, lr}
100003d6:	26d0      	movs	r6, #208	; 0xd0
100003d8:	4c0d      	ldr	r4, [pc, #52]	; (10000410 <buffer_task+0x3c>)
100003da:	4f0e      	ldr	r7, [pc, #56]	; (10000414 <buffer_task+0x40>)
100003dc:	4d0e      	ldr	r5, [pc, #56]	; (10000418 <buffer_task+0x44>)
100003de:	0636      	lsls	r6, r6, #24
100003e0:	6831      	ldr	r1, [r6, #0]
100003e2:	6823      	ldr	r3, [r4, #0]
100003e4:	428b      	cmp	r3, r1
100003e6:	d003      	beq.n	100003f0 <buffer_task+0x1c>
100003e8:	0038      	movs	r0, r7
100003ea:	6021      	str	r1, [r4, #0]
100003ec:	f006 ff04 	bl	100071f8 <__wrap_printf>
100003f0:	f000 f916 	bl	10000620 <Buffer_Read1Byte>
100003f4:	2800      	cmp	r0, #0
100003f6:	db07      	blt.n	10000408 <buffer_task+0x34>
100003f8:	b2c1      	uxtb	r1, r0
100003fa:	0028      	movs	r0, r5
100003fc:	f006 fefc 	bl	100071f8 <__wrap_printf>
10000400:	f000 f90e 	bl	10000620 <Buffer_Read1Byte>
10000404:	2800      	cmp	r0, #0
10000406:	daf7      	bge.n	100003f8 <buffer_task+0x24>
10000408:	200a      	movs	r0, #10
1000040a:	f002 fe91 	bl	10003130 <vTaskDelay>
1000040e:	e7e7      	b.n	100003e0 <buffer_task+0xc>
10000410:	2000022c 	.word	0x2000022c
10000414:	10007688 	.word	0x10007688
10000418:	100076a4 	.word	0x100076a4

1000041c <vLaunch>:
1000041c:	b500      	push	{lr}
1000041e:	b085      	sub	sp, #20
10000420:	ab03      	add	r3, sp, #12
10000422:	9301      	str	r3, [sp, #4]
10000424:	2280      	movs	r2, #128	; 0x80
10000426:	2302      	movs	r3, #2
10000428:	0092      	lsls	r2, r2, #2
1000042a:	9300      	str	r3, [sp, #0]
1000042c:	4906      	ldr	r1, [pc, #24]	; (10000448 <vLaunch+0x2c>)
1000042e:	2300      	movs	r3, #0
10000430:	4806      	ldr	r0, [pc, #24]	; (1000044c <vLaunch+0x30>)
10000432:	f002 fb81 	bl	10002b38 <xTaskCreate>
10000436:	2101      	movs	r1, #1
10000438:	9803      	ldr	r0, [sp, #12]
1000043a:	f001 fba7 	bl	10001b8c <vTaskCoreAffinitySet>
1000043e:	f002 fd0f 	bl	10002e60 <vTaskStartScheduler>
10000442:	b005      	add	sp, #20
10000444:	bd00      	pop	{pc}
10000446:	46c0      	nop			; (mov r8, r8)
10000448:	100076b4 	.word	0x100076b4
1000044c:	10000321 	.word	0x10000321

10000450 <main>:
10000450:	b510      	push	{r4, lr}
10000452:	f006 fdf5 	bl	10007040 <stdio_init_all>
10000456:	f000 f8b7 	bl	100005c8 <Buffer_Init>
1000045a:	f000 f86d 	bl	10000538 <SPI_Init>
1000045e:	4904      	ldr	r1, [pc, #16]	; (10000470 <main+0x20>)
10000460:	4804      	ldr	r0, [pc, #16]	; (10000474 <main+0x24>)
10000462:	f006 fec9 	bl	100071f8 <__wrap_printf>
10000466:	f7ff ffd9 	bl	1000041c <vLaunch>
1000046a:	2000      	movs	r0, #0
1000046c:	bd10      	pop	{r4, pc}
1000046e:	46c0      	nop			; (mov r8, r8)
10000470:	100076c0 	.word	0x100076c0
10000474:	100076d0 	.word	0x100076d0

10000478 <on_spi_rx>:
10000478:	b510      	push	{r4, lr}
1000047a:	4c2a      	ldr	r4, [pc, #168]	; (10000524 <on_spi_rx+0xac>)
1000047c:	2301      	movs	r3, #1
1000047e:	0022      	movs	r2, r4
10000480:	b082      	sub	sp, #8
10000482:	2100      	movs	r1, #0
10000484:	4828      	ldr	r0, [pc, #160]	; (10000528 <on_spi_rx+0xb0>)
10000486:	f007 f897 	bl	100075b8 <__spi_read16_blocking_veneer>
1000048a:	466b      	mov	r3, sp
1000048c:	8822      	ldrh	r2, [r4, #0]
1000048e:	3307      	adds	r3, #7
10000490:	0892      	lsrs	r2, r2, #2
10000492:	b2d2      	uxtb	r2, r2
10000494:	701a      	strb	r2, [r3, #0]
10000496:	781a      	ldrb	r2, [r3, #0]
10000498:	b252      	sxtb	r2, r2
1000049a:	2a00      	cmp	r2, #0
1000049c:	db3c      	blt.n	10000518 <on_spi_rx+0xa0>
1000049e:	4a23      	ldr	r2, [pc, #140]	; (1000052c <on_spi_rx+0xb4>)
100004a0:	7819      	ldrb	r1, [r3, #0]
100004a2:	0649      	lsls	r1, r1, #25
100004a4:	d503      	bpl.n	100004ae <on_spi_rx+0x36>
100004a6:	2002      	movs	r0, #2
100004a8:	7811      	ldrb	r1, [r2, #0]
100004aa:	4301      	orrs	r1, r0
100004ac:	7011      	strb	r1, [r2, #0]
100004ae:	7819      	ldrb	r1, [r3, #0]
100004b0:	0689      	lsls	r1, r1, #26
100004b2:	d503      	bpl.n	100004bc <on_spi_rx+0x44>
100004b4:	2004      	movs	r0, #4
100004b6:	7811      	ldrb	r1, [r2, #0]
100004b8:	4301      	orrs	r1, r0
100004ba:	7011      	strb	r1, [r2, #0]
100004bc:	7819      	ldrb	r1, [r3, #0]
100004be:	06c9      	lsls	r1, r1, #27
100004c0:	d503      	bpl.n	100004ca <on_spi_rx+0x52>
100004c2:	2008      	movs	r0, #8
100004c4:	7811      	ldrb	r1, [r2, #0]
100004c6:	4301      	orrs	r1, r0
100004c8:	7011      	strb	r1, [r2, #0]
100004ca:	7819      	ldrb	r1, [r3, #0]
100004cc:	0709      	lsls	r1, r1, #28
100004ce:	d503      	bpl.n	100004d8 <on_spi_rx+0x60>
100004d0:	2010      	movs	r0, #16
100004d2:	7811      	ldrb	r1, [r2, #0]
100004d4:	4301      	orrs	r1, r0
100004d6:	7011      	strb	r1, [r2, #0]
100004d8:	7819      	ldrb	r1, [r3, #0]
100004da:	0749      	lsls	r1, r1, #29
100004dc:	d503      	bpl.n	100004e6 <on_spi_rx+0x6e>
100004de:	2020      	movs	r0, #32
100004e0:	7811      	ldrb	r1, [r2, #0]
100004e2:	4301      	orrs	r1, r0
100004e4:	7011      	strb	r1, [r2, #0]
100004e6:	7819      	ldrb	r1, [r3, #0]
100004e8:	0789      	lsls	r1, r1, #30
100004ea:	d503      	bpl.n	100004f4 <on_spi_rx+0x7c>
100004ec:	2040      	movs	r0, #64	; 0x40
100004ee:	7811      	ldrb	r1, [r2, #0]
100004f0:	4301      	orrs	r1, r0
100004f2:	7011      	strb	r1, [r2, #0]
100004f4:	781b      	ldrb	r3, [r3, #0]
100004f6:	07db      	lsls	r3, r3, #31
100004f8:	d503      	bpl.n	10000502 <on_spi_rx+0x8a>
100004fa:	2180      	movs	r1, #128	; 0x80
100004fc:	7813      	ldrb	r3, [r2, #0]
100004fe:	430b      	orrs	r3, r1
10000500:	7013      	strb	r3, [r2, #0]
10000502:	7810      	ldrb	r0, [r2, #0]
10000504:	b2c0      	uxtb	r0, r0
10000506:	f000 f86f 	bl	100005e8 <Buffer_Write1Byte>
1000050a:	2302      	movs	r3, #2
1000050c:	4a08      	ldr	r2, [pc, #32]	; (10000530 <on_spi_rx+0xb8>)
1000050e:	6013      	str	r3, [r2, #0]
10000510:	4a08      	ldr	r2, [pc, #32]	; (10000534 <on_spi_rx+0xbc>)
10000512:	6013      	str	r3, [r2, #0]
10000514:	b002      	add	sp, #8
10000516:	bd10      	pop	{r4, pc}
10000518:	2001      	movs	r0, #1
1000051a:	4a04      	ldr	r2, [pc, #16]	; (1000052c <on_spi_rx+0xb4>)
1000051c:	7811      	ldrb	r1, [r2, #0]
1000051e:	4301      	orrs	r1, r0
10000520:	7011      	strb	r1, [r2, #0]
10000522:	e7bd      	b.n	100004a0 <on_spi_rx+0x28>
10000524:	20000704 	.word	0x20000704
10000528:	4003c000 	.word	0x4003c000
1000052c:	20020b19 	.word	0x20020b19
10000530:	4003f004 	.word	0x4003f004
10000534:	4003e004 	.word	0x4003e004

10000538 <SPI_Init>:
10000538:	b570      	push	{r4, r5, r6, lr}
1000053a:	4c1e      	ldr	r4, [pc, #120]	; (100005b4 <SPI_Init+0x7c>)
1000053c:	481e      	ldr	r0, [pc, #120]	; (100005b8 <SPI_Init+0x80>)
1000053e:	f006 fdd1 	bl	100070e4 <__wrap_puts>
10000542:	0020      	movs	r0, r4
10000544:	491d      	ldr	r1, [pc, #116]	; (100005bc <SPI_Init+0x84>)
10000546:	f006 ff55 	bl	100073f4 <spi_init>
1000054a:	20c0      	movs	r0, #192	; 0xc0
1000054c:	2202      	movs	r2, #2
1000054e:	254a      	movs	r5, #74	; 0x4a
10000550:	4b1b      	ldr	r3, [pc, #108]	; (100005c0 <SPI_Init+0x88>)
10000552:	0180      	lsls	r0, r0, #6
10000554:	181e      	adds	r6, r3, r0
10000556:	6861      	ldr	r1, [r4, #4]
10000558:	6032      	str	r2, [r6, #0]
1000055a:	6820      	ldr	r0, [r4, #0]
1000055c:	4011      	ands	r1, r2
1000055e:	4045      	eors	r5, r0
10000560:	20cf      	movs	r0, #207	; 0xcf
10000562:	4028      	ands	r0, r5
10000564:	2580      	movs	r5, #128	; 0x80
10000566:	016d      	lsls	r5, r5, #5
10000568:	1965      	adds	r5, r4, r5
1000056a:	6028      	str	r0, [r5, #0]
1000056c:	2080      	movs	r0, #128	; 0x80
1000056e:	0180      	lsls	r0, r0, #6
10000570:	4684      	mov	ip, r0
10000572:	4463      	add	r3, ip
10000574:	6019      	str	r1, [r3, #0]
10000576:	6861      	ldr	r1, [r4, #4]
10000578:	6032      	str	r2, [r6, #0]
1000057a:	4011      	ands	r1, r2
1000057c:	3202      	adds	r2, #2
1000057e:	601a      	str	r2, [r3, #0]
10000580:	2010      	movs	r0, #16
10000582:	6019      	str	r1, [r3, #0]
10000584:	2101      	movs	r1, #1
10000586:	f003 fa87 	bl	10003a98 <gpio_set_function>
1000058a:	2101      	movs	r1, #1
1000058c:	2012      	movs	r0, #18
1000058e:	f003 fa83 	bl	10003a98 <gpio_set_function>
10000592:	2101      	movs	r1, #1
10000594:	2013      	movs	r0, #19
10000596:	f003 fa7f 	bl	10003a98 <gpio_set_function>
1000059a:	2012      	movs	r0, #18
1000059c:	4909      	ldr	r1, [pc, #36]	; (100005c4 <SPI_Init+0x8c>)
1000059e:	f003 fac5 	bl	10003b2c <irq_set_exclusive_handler>
100005a2:	2101      	movs	r1, #1
100005a4:	2012      	movs	r0, #18
100005a6:	f003 faa3 	bl	10003af0 <irq_set_enabled>
100005aa:	2306      	movs	r3, #6
100005ac:	2000      	movs	r0, #0
100005ae:	6163      	str	r3, [r4, #20]
100005b0:	bd70      	pop	{r4, r5, r6, pc}
100005b2:	46c0      	nop			; (mov r8, r8)
100005b4:	4003c000 	.word	0x4003c000
100005b8:	100076ec 	.word	0x100076ec
100005bc:	000c3500 	.word	0x000c3500
100005c0:	4003c004 	.word	0x4003c004
100005c4:	10000479 	.word	0x10000479

100005c8 <Buffer_Init>:
100005c8:	2300      	movs	r3, #0
100005ca:	4a04      	ldr	r2, [pc, #16]	; (100005dc <Buffer_Init+0x14>)
100005cc:	4904      	ldr	r1, [pc, #16]	; (100005e0 <Buffer_Init+0x18>)
100005ce:	7013      	strb	r3, [r2, #0]
100005d0:	800b      	strh	r3, [r1, #0]
100005d2:	4904      	ldr	r1, [pc, #16]	; (100005e4 <Buffer_Init+0x1c>)
100005d4:	800b      	strh	r3, [r1, #0]
100005d6:	3301      	adds	r3, #1
100005d8:	7013      	strb	r3, [r2, #0]
100005da:	4770      	bx	lr
100005dc:	20020b18 	.word	0x20020b18
100005e0:	20020b16 	.word	0x20020b16
100005e4:	20020b14 	.word	0x20020b14

100005e8 <Buffer_Write1Byte>:
100005e8:	b510      	push	{r4, lr}
100005ea:	4a0a      	ldr	r2, [pc, #40]	; (10000614 <Buffer_Write1Byte+0x2c>)
100005ec:	7813      	ldrb	r3, [r2, #0]
100005ee:	2b00      	cmp	r3, #0
100005f0:	d0fc      	beq.n	100005ec <Buffer_Write1Byte+0x4>
100005f2:	2300      	movs	r3, #0
100005f4:	7013      	strb	r3, [r2, #0]
100005f6:	4b08      	ldr	r3, [pc, #32]	; (10000618 <Buffer_Write1Byte+0x30>)
100005f8:	4c08      	ldr	r4, [pc, #32]	; (1000061c <Buffer_Write1Byte+0x34>)
100005fa:	8819      	ldrh	r1, [r3, #0]
100005fc:	5460      	strb	r0, [r4, r1]
100005fe:	8819      	ldrh	r1, [r3, #0]
10000600:	3101      	adds	r1, #1
10000602:	b289      	uxth	r1, r1
10000604:	8019      	strh	r1, [r3, #0]
10000606:	213f      	movs	r1, #63	; 0x3f
10000608:	8818      	ldrh	r0, [r3, #0]
1000060a:	4001      	ands	r1, r0
1000060c:	8019      	strh	r1, [r3, #0]
1000060e:	2301      	movs	r3, #1
10000610:	7013      	strb	r3, [r2, #0]
10000612:	bd10      	pop	{r4, pc}
10000614:	20020b18 	.word	0x20020b18
10000618:	20020b16 	.word	0x20020b16
1000061c:	200006c4 	.word	0x200006c4

10000620 <Buffer_Read1Byte>:
10000620:	4b0a      	ldr	r3, [pc, #40]	; (1000064c <Buffer_Read1Byte+0x2c>)
10000622:	8819      	ldrh	r1, [r3, #0]
10000624:	4b0a      	ldr	r3, [pc, #40]	; (10000650 <Buffer_Read1Byte+0x30>)
10000626:	881a      	ldrh	r2, [r3, #0]
10000628:	4291      	cmp	r1, r2
1000062a:	d00b      	beq.n	10000644 <Buffer_Read1Byte+0x24>
1000062c:	8819      	ldrh	r1, [r3, #0]
1000062e:	881a      	ldrh	r2, [r3, #0]
10000630:	3201      	adds	r2, #1
10000632:	b292      	uxth	r2, r2
10000634:	801a      	strh	r2, [r3, #0]
10000636:	223f      	movs	r2, #63	; 0x3f
10000638:	8818      	ldrh	r0, [r3, #0]
1000063a:	4002      	ands	r2, r0
1000063c:	801a      	strh	r2, [r3, #0]
1000063e:	4b05      	ldr	r3, [pc, #20]	; (10000654 <Buffer_Read1Byte+0x34>)
10000640:	5c58      	ldrb	r0, [r3, r1]
10000642:	4770      	bx	lr
10000644:	2001      	movs	r0, #1
10000646:	4240      	negs	r0, r0
10000648:	e7fb      	b.n	10000642 <Buffer_Read1Byte+0x22>
1000064a:	46c0      	nop			; (mov r8, r8)
1000064c:	20020b16 	.word	0x20020b16
10000650:	20020b14 	.word	0x20020b14
10000654:	200006c4 	.word	0x200006c4

10000658 <panic>:
10000658:	b40f      	push	{r0, r1, r2, r3}
1000065a:	b500      	push	{lr}
1000065c:	4808      	ldr	r0, [pc, #32]	; (10000680 <panic+0x28>)
1000065e:	b083      	sub	sp, #12
10000660:	f006 fd40 	bl	100070e4 <__wrap_puts>
10000664:	9b04      	ldr	r3, [sp, #16]
10000666:	2b00      	cmp	r3, #0
10000668:	d007      	beq.n	1000067a <panic+0x22>
1000066a:	a905      	add	r1, sp, #20
1000066c:	0018      	movs	r0, r3
1000066e:	9101      	str	r1, [sp, #4]
10000670:	f006 fb86 	bl	10006d80 <weak_raw_vprintf>
10000674:	4803      	ldr	r0, [pc, #12]	; (10000684 <panic+0x2c>)
10000676:	f006 fd35 	bl	100070e4 <__wrap_puts>
1000067a:	2001      	movs	r0, #1
1000067c:	f006 fb98 	bl	10006db0 <_exit>
10000680:	10007704 	.word	0x10007704
10000684:	1000764c 	.word	0x1000764c

10000688 <panic_unsupported>:
10000688:	b510      	push	{r4, lr}
1000068a:	4801      	ldr	r0, [pc, #4]	; (10000690 <panic_unsupported+0x8>)
1000068c:	f7ff ffe4 	bl	10000658 <panic>
10000690:	10007714 	.word	0x10007714

10000694 <pvPortMalloc>:
10000694:	b5f0      	push	{r4, r5, r6, r7, lr}
10000696:	46c6      	mov	lr, r8
10000698:	1e43      	subs	r3, r0, #1
1000069a:	b500      	push	{lr}
1000069c:	330a      	adds	r3, #10
1000069e:	d814      	bhi.n	100006ca <pvPortMalloc+0x36>
100006a0:	2307      	movs	r3, #7
100006a2:	001a      	movs	r2, r3
100006a4:	3008      	adds	r0, #8
100006a6:	0004      	movs	r4, r0
100006a8:	4002      	ands	r2, r0
100006aa:	4203      	tst	r3, r0
100006ac:	d005      	beq.n	100006ba <pvPortMalloc+0x26>
100006ae:	3301      	adds	r3, #1
100006b0:	1a9b      	subs	r3, r3, r2
100006b2:	43da      	mvns	r2, r3
100006b4:	4282      	cmp	r2, r0
100006b6:	d308      	bcc.n	100006ca <pvPortMalloc+0x36>
100006b8:	18c4      	adds	r4, r0, r3
100006ba:	f001 fb29 	bl	10001d10 <vTaskSuspendAll>
100006be:	4a34      	ldr	r2, [pc, #208]	; (10000790 <pvPortMalloc+0xfc>)
100006c0:	0027      	movs	r7, r4
100006c2:	6815      	ldr	r5, [r2, #0]
100006c4:	2d00      	cmp	r5, #0
100006c6:	d129      	bne.n	1000071c <pvPortMalloc+0x88>
100006c8:	e00e      	b.n	100006e8 <pvPortMalloc+0x54>
100006ca:	f001 fb21 	bl	10001d10 <vTaskSuspendAll>
100006ce:	4a30      	ldr	r2, [pc, #192]	; (10000790 <pvPortMalloc+0xfc>)
100006d0:	6813      	ldr	r3, [r2, #0]
100006d2:	2b00      	cmp	r3, #0
100006d4:	d006      	beq.n	100006e4 <pvPortMalloc+0x50>
100006d6:	2500      	movs	r5, #0
100006d8:	f002 fd1e 	bl	10003118 <xTaskResumeAll>
100006dc:	0028      	movs	r0, r5
100006de:	bc80      	pop	{r7}
100006e0:	46b8      	mov	r8, r7
100006e2:	bdf0      	pop	{r4, r5, r6, r7, pc}
100006e4:	2700      	movs	r7, #0
100006e6:	2400      	movs	r4, #0
100006e8:	2007      	movs	r0, #7
100006ea:	492a      	ldr	r1, [pc, #168]	; (10000794 <pvPortMalloc+0x100>)
100006ec:	4208      	tst	r0, r1
100006ee:	d148      	bne.n	10000782 <pvPortMalloc+0xee>
100006f0:	2380      	movs	r3, #128	; 0x80
100006f2:	029b      	lsls	r3, r3, #10
100006f4:	18cd      	adds	r5, r1, r3
100006f6:	0008      	movs	r0, r1
100006f8:	000b      	movs	r3, r1
100006fa:	2100      	movs	r1, #0
100006fc:	4e26      	ldr	r6, [pc, #152]	; (10000798 <pvPortMalloc+0x104>)
100006fe:	3d08      	subs	r5, #8
10000700:	6071      	str	r1, [r6, #4]
10000702:	6030      	str	r0, [r6, #0]
10000704:	2607      	movs	r6, #7
10000706:	43b5      	bics	r5, r6
10000708:	6015      	str	r5, [r2, #0]
1000070a:	4a24      	ldr	r2, [pc, #144]	; (1000079c <pvPortMalloc+0x108>)
1000070c:	1aeb      	subs	r3, r5, r3
1000070e:	6013      	str	r3, [r2, #0]
10000710:	4a23      	ldr	r2, [pc, #140]	; (100007a0 <pvPortMalloc+0x10c>)
10000712:	6069      	str	r1, [r5, #4]
10000714:	6029      	str	r1, [r5, #0]
10000716:	6013      	str	r3, [r2, #0]
10000718:	6043      	str	r3, [r0, #4]
1000071a:	6005      	str	r5, [r0, #0]
1000071c:	2f00      	cmp	r7, #0
1000071e:	ddda      	ble.n	100006d6 <pvPortMalloc+0x42>
10000720:	4f1f      	ldr	r7, [pc, #124]	; (100007a0 <pvPortMalloc+0x10c>)
10000722:	683e      	ldr	r6, [r7, #0]
10000724:	42a6      	cmp	r6, r4
10000726:	d3d6      	bcc.n	100006d6 <pvPortMalloc+0x42>
10000728:	481b      	ldr	r0, [pc, #108]	; (10000798 <pvPortMalloc+0x104>)
1000072a:	6803      	ldr	r3, [r0, #0]
1000072c:	e004      	b.n	10000738 <pvPortMalloc+0xa4>
1000072e:	681a      	ldr	r2, [r3, #0]
10000730:	2a00      	cmp	r2, #0
10000732:	d004      	beq.n	1000073e <pvPortMalloc+0xaa>
10000734:	0018      	movs	r0, r3
10000736:	0013      	movs	r3, r2
10000738:	6859      	ldr	r1, [r3, #4]
1000073a:	42a1      	cmp	r1, r4
1000073c:	d3f7      	bcc.n	1000072e <pvPortMalloc+0x9a>
1000073e:	42ab      	cmp	r3, r5
10000740:	d0c9      	beq.n	100006d6 <pvPortMalloc+0x42>
10000742:	001d      	movs	r5, r3
10000744:	681a      	ldr	r2, [r3, #0]
10000746:	3508      	adds	r5, #8
10000748:	4690      	mov	r8, r2
1000074a:	6002      	str	r2, [r0, #0]
1000074c:	1b0a      	subs	r2, r1, r4
1000074e:	2a10      	cmp	r2, #16
10000750:	d905      	bls.n	1000075e <pvPortMalloc+0xca>
10000752:	1919      	adds	r1, r3, r4
10000754:	604a      	str	r2, [r1, #4]
10000756:	4642      	mov	r2, r8
10000758:	600a      	str	r2, [r1, #0]
1000075a:	6001      	str	r1, [r0, #0]
1000075c:	0021      	movs	r1, r4
1000075e:	4a0f      	ldr	r2, [pc, #60]	; (1000079c <pvPortMalloc+0x108>)
10000760:	1a76      	subs	r6, r6, r1
10000762:	6810      	ldr	r0, [r2, #0]
10000764:	603e      	str	r6, [r7, #0]
10000766:	4286      	cmp	r6, r0
10000768:	d200      	bcs.n	1000076c <pvPortMalloc+0xd8>
1000076a:	6016      	str	r6, [r2, #0]
1000076c:	2280      	movs	r2, #128	; 0x80
1000076e:	0612      	lsls	r2, r2, #24
10000770:	4311      	orrs	r1, r2
10000772:	2200      	movs	r2, #0
10000774:	601a      	str	r2, [r3, #0]
10000776:	4a0b      	ldr	r2, [pc, #44]	; (100007a4 <pvPortMalloc+0x110>)
10000778:	6059      	str	r1, [r3, #4]
1000077a:	6813      	ldr	r3, [r2, #0]
1000077c:	3301      	adds	r3, #1
1000077e:	6013      	str	r3, [r2, #0]
10000780:	e7aa      	b.n	100006d8 <pvPortMalloc+0x44>
10000782:	1dcb      	adds	r3, r1, #7
10000784:	4383      	bics	r3, r0
10000786:	2080      	movs	r0, #128	; 0x80
10000788:	0280      	lsls	r0, r0, #10
1000078a:	180d      	adds	r5, r1, r0
1000078c:	0018      	movs	r0, r3
1000078e:	e7b4      	b.n	100006fa <pvPortMalloc+0x66>
10000790:	2000076c 	.word	0x2000076c
10000794:	20000a10 	.word	0x20000a10
10000798:	20020ad0 	.word	0x20020ad0
1000079c:	20020aa0 	.word	0x20020aa0
100007a0:	20020a90 	.word	0x20020a90
100007a4:	20020aac 	.word	0x20020aac

100007a8 <vPortFree>:
100007a8:	b570      	push	{r4, r5, r6, lr}
100007aa:	2800      	cmp	r0, #0
100007ac:	d007      	beq.n	100007be <vPortFree+0x16>
100007ae:	3808      	subs	r0, #8
100007b0:	6843      	ldr	r3, [r0, #4]
100007b2:	0004      	movs	r4, r0
100007b4:	2b00      	cmp	r3, #0
100007b6:	da02      	bge.n	100007be <vPortFree+0x16>
100007b8:	6802      	ldr	r2, [r0, #0]
100007ba:	2a00      	cmp	r2, #0
100007bc:	d000      	beq.n	100007c0 <vPortFree+0x18>
100007be:	bd70      	pop	{r4, r5, r6, pc}
100007c0:	005b      	lsls	r3, r3, #1
100007c2:	085b      	lsrs	r3, r3, #1
100007c4:	6043      	str	r3, [r0, #4]
100007c6:	0005      	movs	r5, r0
100007c8:	f001 faa2 	bl	10001d10 <vTaskSuspendAll>
100007cc:	4a15      	ldr	r2, [pc, #84]	; (10000824 <vPortFree+0x7c>)
100007ce:	6861      	ldr	r1, [r4, #4]
100007d0:	6813      	ldr	r3, [r2, #0]
100007d2:	185b      	adds	r3, r3, r1
100007d4:	6013      	str	r3, [r2, #0]
100007d6:	4b14      	ldr	r3, [pc, #80]	; (10000828 <vPortFree+0x80>)
100007d8:	001a      	movs	r2, r3
100007da:	681b      	ldr	r3, [r3, #0]
100007dc:	429c      	cmp	r4, r3
100007de:	d8fb      	bhi.n	100007d8 <vPortFree+0x30>
100007e0:	6850      	ldr	r0, [r2, #4]
100007e2:	1816      	adds	r6, r2, r0
100007e4:	42b4      	cmp	r4, r6
100007e6:	d018      	beq.n	1000081a <vPortFree+0x72>
100007e8:	1868      	adds	r0, r5, r1
100007ea:	4283      	cmp	r3, r0
100007ec:	d00a      	beq.n	10000804 <vPortFree+0x5c>
100007ee:	602b      	str	r3, [r5, #0]
100007f0:	42aa      	cmp	r2, r5
100007f2:	d000      	beq.n	100007f6 <vPortFree+0x4e>
100007f4:	6015      	str	r5, [r2, #0]
100007f6:	4a0d      	ldr	r2, [pc, #52]	; (1000082c <vPortFree+0x84>)
100007f8:	6813      	ldr	r3, [r2, #0]
100007fa:	3301      	adds	r3, #1
100007fc:	6013      	str	r3, [r2, #0]
100007fe:	f002 fc8b 	bl	10003118 <xTaskResumeAll>
10000802:	e7dc      	b.n	100007be <vPortFree+0x16>
10000804:	480a      	ldr	r0, [pc, #40]	; (10000830 <vPortFree+0x88>)
10000806:	6800      	ldr	r0, [r0, #0]
10000808:	4283      	cmp	r3, r0
1000080a:	d0f0      	beq.n	100007ee <vPortFree+0x46>
1000080c:	6858      	ldr	r0, [r3, #4]
1000080e:	681b      	ldr	r3, [r3, #0]
10000810:	4684      	mov	ip, r0
10000812:	4461      	add	r1, ip
10000814:	6069      	str	r1, [r5, #4]
10000816:	602b      	str	r3, [r5, #0]
10000818:	e7ea      	b.n	100007f0 <vPortFree+0x48>
1000081a:	1809      	adds	r1, r1, r0
1000081c:	0015      	movs	r5, r2
1000081e:	6051      	str	r1, [r2, #4]
10000820:	e7e2      	b.n	100007e8 <vPortFree+0x40>
10000822:	46c0      	nop			; (mov r8, r8)
10000824:	20020a90 	.word	0x20020a90
10000828:	20020ad0 	.word	0x20020ad0
1000082c:	20020ab0 	.word	0x20020ab0
10000830:	2000076c 	.word	0x2000076c

10000834 <vPortSVCHandler>:
10000834:	4770      	bx	lr
10000836:	46c0      	nop			; (mov r8, r8)
	...

10000840 <vPortStartFirstTask>:
10000840:	a10b      	add	r1, pc, #44	; (adr r1, 10000870 <ulAsmLocals>)
10000842:	c90c      	ldmia	r1!, {r2, r3}
10000844:	6812      	ldr	r2, [r2, #0]
10000846:	0092      	lsls	r2, r2, #2
10000848:	589b      	ldr	r3, [r3, r2]
1000084a:	6818      	ldr	r0, [r3, #0]
1000084c:	3020      	adds	r0, #32
1000084e:	f380 8809 	msr	PSP, r0
10000852:	2002      	movs	r0, #2
10000854:	f380 8814 	msr	CONTROL, r0
10000858:	f3bf 8f6f 	isb	sy
1000085c:	bc3f      	pop	{r0, r1, r2, r3, r4, r5}
1000085e:	46ae      	mov	lr, r5
10000860:	bc08      	pop	{r3}
10000862:	bc04      	pop	{r2}
10000864:	b662      	cpsie	i
10000866:	4718      	bx	r3
10000868:	46c0      	nop			; (mov r8, r8)
1000086a:	46c0      	nop			; (mov r8, r8)
1000086c:	46c0      	nop			; (mov r8, r8)
1000086e:	46c0      	nop			; (mov r8, r8)

10000870 <ulAsmLocals>:
10000870:	d0000000 	.word	0xd0000000
10000874:	2000075c 	.word	0x2000075c

10000878 <prvFIFOInterruptHandler>:
10000878:	23d0      	movs	r3, #208	; 0xd0
1000087a:	061b      	lsls	r3, r3, #24
1000087c:	6d1a      	ldr	r2, [r3, #80]	; 0x50
1000087e:	07d2      	lsls	r2, r2, #31
10000880:	d504      	bpl.n	1000088c <prvFIFOInterruptHandler+0x14>
10000882:	2101      	movs	r1, #1
10000884:	6d9a      	ldr	r2, [r3, #88]	; 0x58
10000886:	6d1a      	ldr	r2, [r3, #80]	; 0x50
10000888:	4211      	tst	r1, r2
1000088a:	d1fb      	bne.n	10000884 <prvFIFOInterruptHandler+0xc>
1000088c:	23d0      	movs	r3, #208	; 0xd0
1000088e:	22ff      	movs	r2, #255	; 0xff
10000890:	061b      	lsls	r3, r3, #24
10000892:	651a      	str	r2, [r3, #80]	; 0x50
10000894:	2280      	movs	r2, #128	; 0x80
10000896:	4b02      	ldr	r3, [pc, #8]	; (100008a0 <prvFIFOInterruptHandler+0x28>)
10000898:	0552      	lsls	r2, r2, #21
1000089a:	601a      	str	r2, [r3, #0]
1000089c:	4770      	bx	lr
1000089e:	46c0      	nop			; (mov r8, r8)
100008a0:	e000ed04 	.word	0xe000ed04
	...

100008b0 <xPortPendSVHandler>:
100008b0:	f3ef 8109 	mrs	r1, PSP
100008b4:	a01a      	add	r0, pc, #104	; (adr r0, 10000920 <ulAsmLocals2>)
100008b6:	c80c      	ldmia	r0!, {r2, r3}
100008b8:	6810      	ldr	r0, [r2, #0]
100008ba:	0080      	lsls	r0, r0, #2
100008bc:	181b      	adds	r3, r3, r0
100008be:	6818      	ldr	r0, [r3, #0]
100008c0:	3920      	subs	r1, #32
100008c2:	6001      	str	r1, [r0, #0]
100008c4:	c1f0      	stmia	r1!, {r4, r5, r6, r7}
100008c6:	4644      	mov	r4, r8
100008c8:	464d      	mov	r5, r9
100008ca:	4656      	mov	r6, sl
100008cc:	465f      	mov	r7, fp
100008ce:	c1f0      	stmia	r1!, {r4, r5, r6, r7}
100008d0:	6e14      	ldr	r4, [r2, #96]	; 0x60
100008d2:	6e55      	ldr	r5, [r2, #100]	; 0x64
100008d4:	6f56      	ldr	r6, [r2, #116]	; 0x74
100008d6:	6f17      	ldr	r7, [r2, #112]	; 0x70
100008d8:	3930      	subs	r1, #48	; 0x30
100008da:	c1f0      	stmia	r1!, {r4, r5, r6, r7}
100008dc:	6810      	ldr	r0, [r2, #0]
100008de:	b508      	push	{r3, lr}
100008e0:	b672      	cpsid	i
100008e2:	f001 fbbf 	bl	10002064 <vTaskSwitchContext>
100008e6:	b662      	cpsie	i
100008e8:	bc0c      	pop	{r2, r3}
100008ea:	6811      	ldr	r1, [r2, #0]
100008ec:	6808      	ldr	r0, [r1, #0]
100008ee:	3010      	adds	r0, #16
100008f0:	c8f0      	ldmia	r0!, {r4, r5, r6, r7}
100008f2:	46a0      	mov	r8, r4
100008f4:	46a9      	mov	r9, r5
100008f6:	46b2      	mov	sl, r6
100008f8:	46bb      	mov	fp, r7
100008fa:	f380 8809 	msr	PSP, r0
100008fe:	220d      	movs	r2, #13
10000900:	0712      	lsls	r2, r2, #28
10000902:	3830      	subs	r0, #48	; 0x30
10000904:	c8f0      	ldmia	r0!, {r4, r5, r6, r7}
10000906:	6614      	str	r4, [r2, #96]	; 0x60
10000908:	6655      	str	r5, [r2, #100]	; 0x64
1000090a:	6756      	str	r6, [r2, #116]	; 0x74
1000090c:	6717      	str	r7, [r2, #112]	; 0x70
1000090e:	c8f0      	ldmia	r0!, {r4, r5, r6, r7}
10000910:	4718      	bx	r3
10000912:	46c0      	nop			; (mov r8, r8)
10000914:	46c0      	nop			; (mov r8, r8)
10000916:	46c0      	nop			; (mov r8, r8)
10000918:	46c0      	nop			; (mov r8, r8)
1000091a:	46c0      	nop			; (mov r8, r8)
1000091c:	46c0      	nop			; (mov r8, r8)
1000091e:	46c0      	nop			; (mov r8, r8)

10000920 <ulAsmLocals2>:
10000920:	d0000000 	.word	0xd0000000
10000924:	2000075c 	.word	0x2000075c

10000928 <xPortSysTickHandler>:
10000928:	b510      	push	{r4, lr}
1000092a:	f002 fc81 	bl	10003230 <vTaskEnterCriticalFromISR>
1000092e:	0004      	movs	r4, r0
10000930:	f001 fa68 	bl	10001e04 <xTaskIncrementTick>
10000934:	2800      	cmp	r0, #0
10000936:	d003      	beq.n	10000940 <xPortSysTickHandler+0x18>
10000938:	2280      	movs	r2, #128	; 0x80
1000093a:	4b03      	ldr	r3, [pc, #12]	; (10000948 <xPortSysTickHandler+0x20>)
1000093c:	0552      	lsls	r2, r2, #21
1000093e:	601a      	str	r2, [r3, #0]
10000940:	0020      	movs	r0, r4
10000942:	f002 fd07 	bl	10003354 <vTaskExitCriticalFromISR>
10000946:	bd10      	pop	{r4, pc}
10000948:	e000ed04 	.word	0xe000ed04

1000094c <prvTaskExitError>:
1000094c:	b510      	push	{r4, lr}
1000094e:	f7ff fe9b 	bl	10000688 <panic_unsupported>
10000952:	46c0      	nop			; (mov r8, r8)

10000954 <pxPortInitialiseStack>:
10000954:	b510      	push	{r4, lr}
10000956:	2480      	movs	r4, #128	; 0x80
10000958:	1f03      	subs	r3, r0, #4
1000095a:	0464      	lsls	r4, r4, #17
1000095c:	601c      	str	r4, [r3, #0]
1000095e:	3b04      	subs	r3, #4
10000960:	6019      	str	r1, [r3, #0]
10000962:	4903      	ldr	r1, [pc, #12]	; (10000970 <pxPortInitialiseStack+0x1c>)
10000964:	3b04      	subs	r3, #4
10000966:	6019      	str	r1, [r3, #0]
10000968:	3b14      	subs	r3, #20
1000096a:	3840      	subs	r0, #64	; 0x40
1000096c:	601a      	str	r2, [r3, #0]
1000096e:	bd10      	pop	{r4, pc}
10000970:	1000094d 	.word	0x1000094d

10000974 <vPortYield>:
10000974:	2280      	movs	r2, #128	; 0x80
10000976:	4b04      	ldr	r3, [pc, #16]	; (10000988 <vPortYield+0x14>)
10000978:	0552      	lsls	r2, r2, #21
1000097a:	601a      	str	r2, [r3, #0]
1000097c:	f3bf 8f4f 	dsb	sy
10000980:	f3bf 8f6f 	isb	sy
10000984:	4770      	bx	lr
10000986:	46c0      	nop			; (mov r8, r8)
10000988:	e000ed04 	.word	0xe000ed04

1000098c <vPortEnableInterrupts>:
1000098c:	23d0      	movs	r3, #208	; 0xd0
1000098e:	061b      	lsls	r3, r3, #24
10000990:	681b      	ldr	r3, [r3, #0]
10000992:	4908      	ldr	r1, [pc, #32]	; (100009b4 <vPortEnableInterrupts+0x28>)
10000994:	009b      	lsls	r3, r3, #2
10000996:	585a      	ldr	r2, [r3, r1]
10000998:	2a00      	cmp	r2, #0
1000099a:	d008      	beq.n	100009ae <vPortEnableInterrupts+0x22>
1000099c:	2000      	movs	r0, #0
1000099e:	5058      	str	r0, [r3, r1]
100009a0:	4905      	ldr	r1, [pc, #20]	; (100009b8 <vPortEnableInterrupts+0x2c>)
100009a2:	585b      	ldr	r3, [r3, r1]
100009a4:	f3bf 8f5f 	dmb	sy
100009a8:	6010      	str	r0, [r2, #0]
100009aa:	f383 8810 	msr	PRIMASK, r3
100009ae:	b662      	cpsie	i
100009b0:	4770      	bx	lr
100009b2:	46c0      	nop			; (mov r8, r8)
100009b4:	200009f8 	.word	0x200009f8
100009b8:	20020a18 	.word	0x20020a18

100009bc <ulSetInterruptMaskFromISR>:
100009bc:	f3ef 8010 	mrs	r0, PRIMASK
100009c0:	b672      	cpsid	i
100009c2:	4770      	bx	lr

100009c4 <vClearInterruptMaskFromISR>:
100009c4:	f380 8810 	msr	PRIMASK, r0
100009c8:	4770      	bx	lr
100009ca:	46c0      	nop			; (mov r8, r8)

100009cc <vYieldCore>:
100009cc:	23d0      	movs	r3, #208	; 0xd0
100009ce:	2200      	movs	r2, #0
100009d0:	061b      	lsls	r3, r3, #24
100009d2:	655a      	str	r2, [r3, #84]	; 0x54
100009d4:	4770      	bx	lr
100009d6:	46c0      	nop			; (mov r8, r8)

100009d8 <vPortSetupTimerInterrupt>:
100009d8:	2300      	movs	r3, #0
100009da:	b510      	push	{r4, lr}
100009dc:	4a08      	ldr	r2, [pc, #32]	; (10000a00 <vPortSetupTimerInterrupt+0x28>)
100009de:	4c09      	ldr	r4, [pc, #36]	; (10000a04 <vPortSetupTimerInterrupt+0x2c>)
100009e0:	2005      	movs	r0, #5
100009e2:	6023      	str	r3, [r4, #0]
100009e4:	6013      	str	r3, [r2, #0]
100009e6:	f003 f809 	bl	100039fc <clock_get_hz>
100009ea:	21fa      	movs	r1, #250	; 0xfa
100009ec:	0089      	lsls	r1, r1, #2
100009ee:	f004 f87f 	bl	10004af0 <__wrap___aeabi_uidiv>
100009f2:	4b05      	ldr	r3, [pc, #20]	; (10000a08 <vPortSetupTimerInterrupt+0x30>)
100009f4:	3801      	subs	r0, #1
100009f6:	6018      	str	r0, [r3, #0]
100009f8:	2307      	movs	r3, #7
100009fa:	6023      	str	r3, [r4, #0]
100009fc:	bd10      	pop	{r4, pc}
100009fe:	46c0      	nop			; (mov r8, r8)
10000a00:	e000e018 	.word	0xe000e018
10000a04:	e000e010 	.word	0xe000e010
10000a08:	e000e014 	.word	0xe000e014

10000a0c <xPortStartSchedulerOnCore.isra.0>:
10000a0c:	b570      	push	{r4, r5, r6, lr}
10000a0e:	4b22      	ldr	r3, [pc, #136]	; (10000a98 <xPortStartSchedulerOnCore.isra.0+0x8c>)
10000a10:	781a      	ldrb	r2, [r3, #0]
10000a12:	23d0      	movs	r3, #208	; 0xd0
10000a14:	061b      	lsls	r3, r3, #24
10000a16:	681b      	ldr	r3, [r3, #0]
10000a18:	429a      	cmp	r2, r3
10000a1a:	d030      	beq.n	10000a7e <xPortStartSchedulerOnCore.isra.0+0x72>
10000a1c:	23ff      	movs	r3, #255	; 0xff
10000a1e:	4a1f      	ldr	r2, [pc, #124]	; (10000a9c <xPortStartSchedulerOnCore.isra.0+0x90>)
10000a20:	041b      	lsls	r3, r3, #16
10000a22:	6811      	ldr	r1, [r2, #0]
10000a24:	200e      	movs	r0, #14
10000a26:	430b      	orrs	r3, r1
10000a28:	6013      	str	r3, [r2, #0]
10000a2a:	491d      	ldr	r1, [pc, #116]	; (10000aa0 <xPortStartSchedulerOnCore.isra.0+0x94>)
10000a2c:	f003 fe22 	bl	10004674 <exception_set_exclusive_handler>
10000a30:	200b      	movs	r0, #11
10000a32:	491c      	ldr	r1, [pc, #112]	; (10000aa4 <xPortStartSchedulerOnCore.isra.0+0x98>)
10000a34:	f003 fe1e 	bl	10004674 <exception_set_exclusive_handler>
10000a38:	23d0      	movs	r3, #208	; 0xd0
10000a3a:	22ff      	movs	r2, #255	; 0xff
10000a3c:	061b      	lsls	r3, r3, #24
10000a3e:	651a      	str	r2, [r3, #80]	; 0x50
10000a40:	6d1a      	ldr	r2, [r3, #80]	; 0x50
10000a42:	07d2      	lsls	r2, r2, #31
10000a44:	d504      	bpl.n	10000a50 <xPortStartSchedulerOnCore.isra.0+0x44>
10000a46:	2101      	movs	r1, #1
10000a48:	6d9a      	ldr	r2, [r3, #88]	; 0x58
10000a4a:	6d1a      	ldr	r2, [r3, #80]	; 0x50
10000a4c:	4211      	tst	r1, r2
10000a4e:	d1fb      	bne.n	10000a48 <xPortStartSchedulerOnCore.isra.0+0x3c>
10000a50:	25d0      	movs	r5, #208	; 0xd0
10000a52:	062d      	lsls	r5, r5, #24
10000a54:	682c      	ldr	r4, [r5, #0]
10000a56:	21ff      	movs	r1, #255	; 0xff
10000a58:	340f      	adds	r4, #15
10000a5a:	0020      	movs	r0, r4
10000a5c:	f003 f972 	bl	10003d44 <irq_set_priority>
10000a60:	0020      	movs	r0, r4
10000a62:	4911      	ldr	r1, [pc, #68]	; (10000aa8 <xPortStartSchedulerOnCore.isra.0+0x9c>)
10000a64:	f003 f862 	bl	10003b2c <irq_set_exclusive_handler>
10000a68:	2101      	movs	r1, #1
10000a6a:	0020      	movs	r0, r4
10000a6c:	f003 f840 	bl	10003af0 <irq_set_enabled>
10000a70:	f7ff fee6 	bl	10000840 <vPortStartFirstTask>
10000a74:	6828      	ldr	r0, [r5, #0]
10000a76:	f001 faf5 	bl	10002064 <vTaskSwitchContext>
10000a7a:	f7ff fe05 	bl	10000688 <panic_unsupported>
10000a7e:	f7ff ffab 	bl	100009d8 <vPortSetupTimerInterrupt>
10000a82:	23ff      	movs	r3, #255	; 0xff
10000a84:	4a05      	ldr	r2, [pc, #20]	; (10000a9c <xPortStartSchedulerOnCore.isra.0+0x90>)
10000a86:	061b      	lsls	r3, r3, #24
10000a88:	6811      	ldr	r1, [r2, #0]
10000a8a:	200f      	movs	r0, #15
10000a8c:	430b      	orrs	r3, r1
10000a8e:	6013      	str	r3, [r2, #0]
10000a90:	4906      	ldr	r1, [pc, #24]	; (10000aac <xPortStartSchedulerOnCore.isra.0+0xa0>)
10000a92:	f003 fdef 	bl	10004674 <exception_set_exclusive_handler>
10000a96:	e7c1      	b.n	10000a1c <xPortStartSchedulerOnCore.isra.0+0x10>
10000a98:	20000234 	.word	0x20000234
10000a9c:	e000ed20 	.word	0xe000ed20
10000aa0:	100008b1 	.word	0x100008b1
10000aa4:	10000835 	.word	0x10000835
10000aa8:	10000879 	.word	0x10000879
10000aac:	10000929 	.word	0x10000929

10000ab0 <prvDisableInterruptsAndPortStartSchedulerOnCore>:
10000ab0:	b510      	push	{r4, lr}
10000ab2:	b672      	cpsid	i
10000ab4:	f7ff ffaa 	bl	10000a0c <xPortStartSchedulerOnCore.isra.0>

10000ab8 <xPortStartScheduler>:
10000ab8:	b510      	push	{r4, lr}
10000aba:	200e      	movs	r0, #14
10000abc:	f002 ffd2 	bl	10003a64 <spin_lock_claim>
10000ac0:	200f      	movs	r0, #15
10000ac2:	f002 ffcf 	bl	10003a64 <spin_lock_claim>
10000ac6:	2200      	movs	r2, #0
10000ac8:	4b03      	ldr	r3, [pc, #12]	; (10000ad8 <xPortStartScheduler+0x20>)
10000aca:	4804      	ldr	r0, [pc, #16]	; (10000adc <xPortStartScheduler+0x24>)
10000acc:	701a      	strb	r2, [r3, #0]
10000ace:	f003 fe3f 	bl	10004750 <multicore_launch_core1>
10000ad2:	f7ff ff9b 	bl	10000a0c <xPortStartSchedulerOnCore.isra.0>
10000ad6:	46c0      	nop			; (mov r8, r8)
10000ad8:	20000234 	.word	0x20000234
10000adc:	10000ab1 	.word	0x10000ab1

10000ae0 <ulPortLockGetCurrentOwnerId>:
10000ae0:	b510      	push	{r4, lr}
10000ae2:	4b0a      	ldr	r3, [pc, #40]	; (10000b0c <ulPortLockGetCurrentOwnerId+0x2c>)
10000ae4:	781b      	ldrb	r3, [r3, #0]
10000ae6:	2bff      	cmp	r3, #255	; 0xff
10000ae8:	d00c      	beq.n	10000b04 <ulPortLockGetCurrentOwnerId+0x24>
10000aea:	f3ef 8005 	mrs	r0, IPSR
10000aee:	2800      	cmp	r0, #0
10000af0:	d005      	beq.n	10000afe <ulPortLockGetCurrentOwnerId+0x1e>
10000af2:	23d0      	movs	r3, #208	; 0xd0
10000af4:	061b      	lsls	r3, r3, #24
10000af6:	681b      	ldr	r3, [r3, #0]
10000af8:	0040      	lsls	r0, r0, #1
10000afa:	18c0      	adds	r0, r0, r3
10000afc:	bd10      	pop	{r4, pc}
10000afe:	f001 feb9 	bl	10002874 <xTaskGetCurrentTaskHandle>
10000b02:	e7fb      	b.n	10000afc <ulPortLockGetCurrentOwnerId+0x1c>
10000b04:	23d0      	movs	r3, #208	; 0xd0
10000b06:	061b      	lsls	r3, r3, #24
10000b08:	6818      	ldr	r0, [r3, #0]
10000b0a:	e7f7      	b.n	10000afc <ulPortLockGetCurrentOwnerId+0x1c>
10000b0c:	20000234 	.word	0x20000234

10000b10 <vPortLockInternalSpinUnlockWithNotify>:
10000b10:	b500      	push	{lr}
10000b12:	4a1c      	ldr	r2, [pc, #112]	; (10000b84 <vPortLockInternalSpinUnlockWithNotify+0x74>)
10000b14:	000b      	movs	r3, r1
10000b16:	7812      	ldrb	r2, [r2, #0]
10000b18:	b083      	sub	sp, #12
10000b1a:	2aff      	cmp	r2, #255	; 0xff
10000b1c:	d029      	beq.n	10000b72 <vPortLockInternalSpinUnlockWithNotify+0x62>
10000b1e:	491a      	ldr	r1, [pc, #104]	; (10000b88 <vPortLockInternalSpinUnlockWithNotify+0x78>)
10000b20:	6802      	ldr	r2, [r0, #0]
10000b22:	468c      	mov	ip, r1
10000b24:	2102      	movs	r1, #2
10000b26:	4462      	add	r2, ip
10000b28:	1092      	asrs	r2, r2, #2
10000b2a:	31ff      	adds	r1, #255	; 0xff
10000b2c:	4091      	lsls	r1, r2
10000b2e:	0a09      	lsrs	r1, r1, #8
10000b30:	bf40      	sev
10000b32:	6800      	ldr	r0, [r0, #0]
10000b34:	f3bf 8f5f 	dmb	sy
10000b38:	2200      	movs	r2, #0
10000b3a:	6002      	str	r2, [r0, #0]
10000b3c:	f383 8810 	msr	PRIMASK, r3
10000b40:	f3ef 8305 	mrs	r3, IPSR
10000b44:	b2db      	uxtb	r3, r3
10000b46:	2b00      	cmp	r3, #0
10000b48:	d105      	bne.n	10000b56 <vPortLockInternalSpinUnlockWithNotify+0x46>
10000b4a:	4b10      	ldr	r3, [pc, #64]	; (10000b8c <vPortLockInternalSpinUnlockWithNotify+0x7c>)
10000b4c:	6818      	ldr	r0, [r3, #0]
10000b4e:	f000 f94d 	bl	10000dec <xEventGroupSetBits>
10000b52:	b003      	add	sp, #12
10000b54:	bd00      	pop	{pc}
10000b56:	4b0d      	ldr	r3, [pc, #52]	; (10000b8c <vPortLockInternalSpinUnlockWithNotify+0x7c>)
10000b58:	9201      	str	r2, [sp, #4]
10000b5a:	6818      	ldr	r0, [r3, #0]
10000b5c:	aa01      	add	r2, sp, #4
10000b5e:	f000 f98d 	bl	10000e7c <xEventGroupSetBitsFromISR>
10000b62:	9b01      	ldr	r3, [sp, #4]
10000b64:	2b00      	cmp	r3, #0
10000b66:	d0f4      	beq.n	10000b52 <vPortLockInternalSpinUnlockWithNotify+0x42>
10000b68:	2280      	movs	r2, #128	; 0x80
10000b6a:	4b09      	ldr	r3, [pc, #36]	; (10000b90 <vPortLockInternalSpinUnlockWithNotify+0x80>)
10000b6c:	0552      	lsls	r2, r2, #21
10000b6e:	601a      	str	r2, [r3, #0]
10000b70:	e7ef      	b.n	10000b52 <vPortLockInternalSpinUnlockWithNotify+0x42>
10000b72:	bf40      	sev
10000b74:	6802      	ldr	r2, [r0, #0]
10000b76:	f3bf 8f5f 	dmb	sy
10000b7a:	2100      	movs	r1, #0
10000b7c:	6011      	str	r1, [r2, #0]
10000b7e:	f383 8810 	msr	PRIMASK, r3
10000b82:	e7e6      	b.n	10000b52 <vPortLockInternalSpinUnlockWithNotify+0x42>
10000b84:	20000234 	.word	0x20000234
10000b88:	2fffff00 	.word	0x2fffff00
10000b8c:	20020a8c 	.word	0x20020a8c
10000b90:	e000ed04 	.word	0xe000ed04

10000b94 <xPortLockInternalSpinUnlockWithBestEffortWaitOrTimeout>:
10000b94:	b5f0      	push	{r4, r5, r6, r7, lr}
10000b96:	001d      	movs	r5, r3
10000b98:	4b31      	ldr	r3, [pc, #196]	; (10000c60 <xPortLockInternalSpinUnlockWithBestEffortWaitOrTimeout+0xcc>)
10000b9a:	0007      	movs	r7, r0
10000b9c:	781b      	ldrb	r3, [r3, #0]
10000b9e:	000e      	movs	r6, r1
10000ba0:	0014      	movs	r4, r2
10000ba2:	b083      	sub	sp, #12
10000ba4:	2bff      	cmp	r3, #255	; 0xff
10000ba6:	d04e      	beq.n	10000c46 <xPortLockInternalSpinUnlockWithBestEffortWaitOrTimeout+0xb2>
10000ba8:	f003 fc92 	bl	100044d0 <time_us_64>
10000bac:	0022      	movs	r2, r4
10000bae:	002b      	movs	r3, r5
10000bb0:	1a12      	subs	r2, r2, r0
10000bb2:	418b      	sbcs	r3, r1
10000bb4:	2101      	movs	r1, #1
10000bb6:	482b      	ldr	r0, [pc, #172]	; (10000c64 <xPortLockInternalSpinUnlockWithBestEffortWaitOrTimeout+0xd0>)
10000bb8:	4249      	negs	r1, r1
10000bba:	1880      	adds	r0, r0, r2
10000bbc:	4159      	adcs	r1, r3
10000bbe:	2900      	cmp	r1, #0
10000bc0:	dc21      	bgt.n	10000c06 <xPortLockInternalSpinUnlockWithBestEffortWaitOrTimeout+0x72>
10000bc2:	d01c      	beq.n	10000bfe <xPortLockInternalSpinUnlockWithBestEffortWaitOrTimeout+0x6a>
10000bc4:	683b      	ldr	r3, [r7, #0]
10000bc6:	f3bf 8f5f 	dmb	sy
10000bca:	2200      	movs	r2, #0
10000bcc:	601a      	str	r2, [r3, #0]
10000bce:	f386 8810 	msr	PRIMASK, r6
10000bd2:	4b25      	ldr	r3, [pc, #148]	; (10000c68 <xPortLockInternalSpinUnlockWithBestEffortWaitOrTimeout+0xd4>)
10000bd4:	6a5a      	ldr	r2, [r3, #36]	; 0x24
10000bd6:	4295      	cmp	r5, r2
10000bd8:	d90a      	bls.n	10000bf0 <xPortLockInternalSpinUnlockWithBestEffortWaitOrTimeout+0x5c>
10000bda:	2280      	movs	r2, #128	; 0x80
10000bdc:	4b23      	ldr	r3, [pc, #140]	; (10000c6c <xPortLockInternalSpinUnlockWithBestEffortWaitOrTimeout+0xd8>)
10000bde:	0552      	lsls	r2, r2, #21
10000be0:	601a      	str	r2, [r3, #0]
10000be2:	f3bf 8f4f 	dsb	sy
10000be6:	f3bf 8f6f 	isb	sy
10000bea:	2000      	movs	r0, #0
10000bec:	b003      	add	sp, #12
10000bee:	bdf0      	pop	{r4, r5, r6, r7, pc}
10000bf0:	6a9b      	ldr	r3, [r3, #40]	; 0x28
10000bf2:	2001      	movs	r0, #1
10000bf4:	42a3      	cmp	r3, r4
10000bf6:	d2f9      	bcs.n	10000bec <xPortLockInternalSpinUnlockWithBestEffortWaitOrTimeout+0x58>
10000bf8:	4295      	cmp	r5, r2
10000bfa:	d1f7      	bne.n	10000bec <xPortLockInternalSpinUnlockWithBestEffortWaitOrTimeout+0x58>
10000bfc:	e7ed      	b.n	10000bda <xPortLockInternalSpinUnlockWithBestEffortWaitOrTimeout+0x46>
10000bfe:	23fa      	movs	r3, #250	; 0xfa
10000c00:	009b      	lsls	r3, r3, #2
10000c02:	4298      	cmp	r0, r3
10000c04:	d3de      	bcc.n	10000bc4 <xPortLockInternalSpinUnlockWithBestEffortWaitOrTimeout+0x30>
10000c06:	22fa      	movs	r2, #250	; 0xfa
10000c08:	2300      	movs	r3, #0
10000c0a:	0092      	lsls	r2, r2, #2
10000c0c:	f003 ff96 	bl	10004b3c <__wrap___aeabi_ldivmod>
10000c10:	1e03      	subs	r3, r0, #0
10000c12:	d0d7      	beq.n	10000bc4 <xPortLockInternalSpinUnlockWithBestEffortWaitOrTimeout+0x30>
10000c14:	22d0      	movs	r2, #208	; 0xd0
10000c16:	0612      	lsls	r2, r2, #24
10000c18:	6811      	ldr	r1, [r2, #0]
10000c1a:	4815      	ldr	r0, [pc, #84]	; (10000c70 <xPortLockInternalSpinUnlockWithBestEffortWaitOrTimeout+0xdc>)
10000c1c:	683a      	ldr	r2, [r7, #0]
10000c1e:	0089      	lsls	r1, r1, #2
10000c20:	500a      	str	r2, [r1, r0]
10000c22:	4814      	ldr	r0, [pc, #80]	; (10000c74 <xPortLockInternalSpinUnlockWithBestEffortWaitOrTimeout+0xe0>)
10000c24:	500e      	str	r6, [r1, r0]
10000c26:	4914      	ldr	r1, [pc, #80]	; (10000c78 <xPortLockInternalSpinUnlockWithBestEffortWaitOrTimeout+0xe4>)
10000c28:	468c      	mov	ip, r1
10000c2a:	2102      	movs	r1, #2
10000c2c:	4462      	add	r2, ip
10000c2e:	1092      	asrs	r2, r2, #2
10000c30:	31ff      	adds	r1, #255	; 0xff
10000c32:	4091      	lsls	r1, r2
10000c34:	4a11      	ldr	r2, [pc, #68]	; (10000c7c <xPortLockInternalSpinUnlockWithBestEffortWaitOrTimeout+0xe8>)
10000c36:	0a09      	lsrs	r1, r1, #8
10000c38:	6810      	ldr	r0, [r2, #0]
10000c3a:	9300      	str	r3, [sp, #0]
10000c3c:	2201      	movs	r2, #1
10000c3e:	2300      	movs	r3, #0
10000c40:	f000 f878 	bl	10000d34 <xEventGroupWaitBits>
10000c44:	e7c5      	b.n	10000bd2 <xPortLockInternalSpinUnlockWithBestEffortWaitOrTimeout+0x3e>
10000c46:	6803      	ldr	r3, [r0, #0]
10000c48:	f3bf 8f5f 	dmb	sy
10000c4c:	2200      	movs	r2, #0
10000c4e:	601a      	str	r2, [r3, #0]
10000c50:	f381 8810 	msr	PRIMASK, r1
10000c54:	0020      	movs	r0, r4
10000c56:	0029      	movs	r1, r5
10000c58:	f003 fbb8 	bl	100043cc <best_effort_wfe_or_timeout>
10000c5c:	e7c6      	b.n	10000bec <xPortLockInternalSpinUnlockWithBestEffortWaitOrTimeout+0x58>
10000c5e:	46c0      	nop			; (mov r8, r8)
10000c60:	20000234 	.word	0x20000234
10000c64:	fffffc18 	.word	0xfffffc18
10000c68:	40054000 	.word	0x40054000
10000c6c:	e000ed04 	.word	0xe000ed04
10000c70:	200009f8 	.word	0x200009f8
10000c74:	20020a18 	.word	0x20020a18
10000c78:	2fffff00 	.word	0x2fffff00
10000c7c:	20020a8c 	.word	0x20020a8c

10000c80 <prvRuntimeInitializer>:
10000c80:	b510      	push	{r4, lr}
10000c82:	f000 f84b 	bl	10000d1c <xEventGroupCreate>
10000c86:	4b01      	ldr	r3, [pc, #4]	; (10000c8c <prvRuntimeInitializer+0xc>)
10000c88:	6018      	str	r0, [r3, #0]
10000c8a:	bd10      	pop	{r4, pc}
10000c8c:	20020a8c 	.word	0x20020a8c

10000c90 <vEventGroupSetBitsCallback>:
10000c90:	b5f8      	push	{r3, r4, r5, r6, r7, lr}
10000c92:	46de      	mov	lr, fp
10000c94:	4657      	mov	r7, sl
10000c96:	464e      	mov	r6, r9
10000c98:	4645      	mov	r5, r8
10000c9a:	b5e0      	push	{r5, r6, r7, lr}
10000c9c:	0005      	movs	r5, r0
10000c9e:	000f      	movs	r7, r1
10000ca0:	0006      	movs	r6, r0
10000ca2:	f001 f835 	bl	10001d10 <vTaskSuspendAll>
10000ca6:	6829      	ldr	r1, [r5, #0]
10000ca8:	692c      	ldr	r4, [r5, #16]
10000caa:	4339      	orrs	r1, r7
10000cac:	360c      	adds	r6, #12
10000cae:	6029      	str	r1, [r5, #0]
10000cb0:	42a6      	cmp	r6, r4
10000cb2:	d02a      	beq.n	10000d0a <vEventGroupSetBitsCallback+0x7a>
10000cb4:	2300      	movs	r3, #0
10000cb6:	4698      	mov	r8, r3
10000cb8:	2380      	movs	r3, #128	; 0x80
10000cba:	04db      	lsls	r3, r3, #19
10000cbc:	469b      	mov	fp, r3
10000cbe:	2380      	movs	r3, #128	; 0x80
10000cc0:	045b      	lsls	r3, r3, #17
10000cc2:	469a      	mov	sl, r3
10000cc4:	2380      	movs	r3, #128	; 0x80
10000cc6:	049b      	lsls	r3, r3, #18
10000cc8:	4699      	mov	r9, r3
10000cca:	e00e      	b.n	10000cea <vEventGroupSetBitsCallback+0x5a>
10000ccc:	420b      	tst	r3, r1
10000cce:	d00a      	beq.n	10000ce6 <vEventGroupSetBitsCallback+0x56>
10000cd0:	4657      	mov	r7, sl
10000cd2:	423a      	tst	r2, r7
10000cd4:	d002      	beq.n	10000cdc <vEventGroupSetBitsCallback+0x4c>
10000cd6:	4642      	mov	r2, r8
10000cd8:	431a      	orrs	r2, r3
10000cda:	4690      	mov	r8, r2
10000cdc:	464b      	mov	r3, r9
10000cde:	4319      	orrs	r1, r3
10000ce0:	f002 fa58 	bl	10003194 <vTaskRemoveFromUnorderedEventList>
10000ce4:	6829      	ldr	r1, [r5, #0]
10000ce6:	42a6      	cmp	r6, r4
10000ce8:	d00d      	beq.n	10000d06 <vEventGroupSetBitsCallback+0x76>
10000cea:	0020      	movs	r0, r4
10000cec:	465f      	mov	r7, fp
10000cee:	6802      	ldr	r2, [r0, #0]
10000cf0:	6864      	ldr	r4, [r4, #4]
10000cf2:	0213      	lsls	r3, r2, #8
10000cf4:	0a1b      	lsrs	r3, r3, #8
10000cf6:	423a      	tst	r2, r7
10000cf8:	d0e8      	beq.n	10000ccc <vEventGroupSetBitsCallback+0x3c>
10000cfa:	001f      	movs	r7, r3
10000cfc:	400f      	ands	r7, r1
10000cfe:	42bb      	cmp	r3, r7
10000d00:	d0e6      	beq.n	10000cd0 <vEventGroupSetBitsCallback+0x40>
10000d02:	42a6      	cmp	r6, r4
10000d04:	d1f1      	bne.n	10000cea <vEventGroupSetBitsCallback+0x5a>
10000d06:	4643      	mov	r3, r8
10000d08:	4399      	bics	r1, r3
10000d0a:	6029      	str	r1, [r5, #0]
10000d0c:	f002 fa04 	bl	10003118 <xTaskResumeAll>
10000d10:	bcf0      	pop	{r4, r5, r6, r7}
10000d12:	46bb      	mov	fp, r7
10000d14:	46b2      	mov	sl, r6
10000d16:	46a9      	mov	r9, r5
10000d18:	46a0      	mov	r8, r4
10000d1a:	bdf8      	pop	{r3, r4, r5, r6, r7, pc}

10000d1c <xEventGroupCreate>:
10000d1c:	b510      	push	{r4, lr}
10000d1e:	201c      	movs	r0, #28
10000d20:	f7ff fcb8 	bl	10000694 <pvPortMalloc>
10000d24:	1e04      	subs	r4, r0, #0
10000d26:	d003      	beq.n	10000d30 <xEventGroupCreate+0x14>
10000d28:	2300      	movs	r3, #0
10000d2a:	c008      	stmia	r0!, {r3}
10000d2c:	f000 f8b0 	bl	10000e90 <vListInitialise>
10000d30:	0020      	movs	r0, r4
10000d32:	bd10      	pop	{r4, pc}

10000d34 <xEventGroupWaitBits>:
10000d34:	b5f0      	push	{r4, r5, r6, r7, lr}
10000d36:	46c6      	mov	lr, r8
10000d38:	0006      	movs	r6, r0
10000d3a:	b500      	push	{lr}
10000d3c:	000d      	movs	r5, r1
10000d3e:	4690      	mov	r8, r2
10000d40:	001f      	movs	r7, r3
10000d42:	f000 ffe5 	bl	10001d10 <vTaskSuspendAll>
10000d46:	6834      	ldr	r4, [r6, #0]
10000d48:	2f00      	cmp	r7, #0
10000d4a:	d10a      	bne.n	10000d62 <xEventGroupWaitBits+0x2e>
10000d4c:	4225      	tst	r5, r4
10000d4e:	d00c      	beq.n	10000d6a <xEventGroupWaitBits+0x36>
10000d50:	4643      	mov	r3, r8
10000d52:	2b00      	cmp	r3, #0
10000d54:	d00c      	beq.n	10000d70 <xEventGroupWaitBits+0x3c>
10000d56:	0023      	movs	r3, r4
10000d58:	43ab      	bics	r3, r5
10000d5a:	6033      	str	r3, [r6, #0]
10000d5c:	f002 f9dc 	bl	10003118 <xTaskResumeAll>
10000d60:	e008      	b.n	10000d74 <xEventGroupWaitBits+0x40>
10000d62:	002b      	movs	r3, r5
10000d64:	4023      	ands	r3, r4
10000d66:	429d      	cmp	r5, r3
10000d68:	d0f2      	beq.n	10000d50 <xEventGroupWaitBits+0x1c>
10000d6a:	9b06      	ldr	r3, [sp, #24]
10000d6c:	2b00      	cmp	r3, #0
10000d6e:	d105      	bne.n	10000d7c <xEventGroupWaitBits+0x48>
10000d70:	f002 f9d2 	bl	10003118 <xTaskResumeAll>
10000d74:	0020      	movs	r0, r4
10000d76:	bc80      	pop	{r7}
10000d78:	46b8      	mov	r8, r7
10000d7a:	bdf0      	pop	{r4, r5, r6, r7, pc}
10000d7c:	4643      	mov	r3, r8
10000d7e:	2b00      	cmp	r3, #0
10000d80:	d116      	bne.n	10000db0 <xEventGroupWaitBits+0x7c>
10000d82:	2180      	movs	r1, #128	; 0x80
10000d84:	2300      	movs	r3, #0
10000d86:	04c9      	lsls	r1, r1, #19
10000d88:	2f00      	cmp	r7, #0
10000d8a:	d100      	bne.n	10000d8e <xEventGroupWaitBits+0x5a>
10000d8c:	0019      	movs	r1, r3
10000d8e:	9a06      	ldr	r2, [sp, #24]
10000d90:	4329      	orrs	r1, r5
10000d92:	1d30      	adds	r0, r6, #4
10000d94:	f001 fb90 	bl	100024b8 <vTaskPlaceOnUnorderedEventList>
10000d98:	f002 f9be 	bl	10003118 <xTaskResumeAll>
10000d9c:	2800      	cmp	r0, #0
10000d9e:	d01c      	beq.n	10000dda <xEventGroupWaitBits+0xa6>
10000da0:	f002 fb0a 	bl	100033b8 <uxTaskResetEventItemValue>
10000da4:	0004      	movs	r4, r0
10000da6:	0183      	lsls	r3, r0, #6
10000da8:	d507      	bpl.n	10000dba <xEventGroupWaitBits+0x86>
10000daa:	0224      	lsls	r4, r4, #8
10000dac:	0a24      	lsrs	r4, r4, #8
10000dae:	e7e1      	b.n	10000d74 <xEventGroupWaitBits+0x40>
10000db0:	21a0      	movs	r1, #160	; 0xa0
10000db2:	2380      	movs	r3, #128	; 0x80
10000db4:	04c9      	lsls	r1, r1, #19
10000db6:	045b      	lsls	r3, r3, #17
10000db8:	e7e6      	b.n	10000d88 <xEventGroupWaitBits+0x54>
10000dba:	f001 fdd7 	bl	1000296c <vTaskEnterCritical>
10000dbe:	6834      	ldr	r4, [r6, #0]
10000dc0:	2f00      	cmp	r7, #0
10000dc2:	d10d      	bne.n	10000de0 <xEventGroupWaitBits+0xac>
10000dc4:	422c      	tst	r4, r5
10000dc6:	d005      	beq.n	10000dd4 <xEventGroupWaitBits+0xa0>
10000dc8:	4643      	mov	r3, r8
10000dca:	2b00      	cmp	r3, #0
10000dcc:	d002      	beq.n	10000dd4 <xEventGroupWaitBits+0xa0>
10000dce:	0023      	movs	r3, r4
10000dd0:	43ab      	bics	r3, r5
10000dd2:	6033      	str	r3, [r6, #0]
10000dd4:	f002 fa6e 	bl	100032b4 <vTaskExitCritical>
10000dd8:	e7e7      	b.n	10000daa <xEventGroupWaitBits+0x76>
10000dda:	f001 fdb3 	bl	10002944 <vTaskYieldWithinAPI>
10000dde:	e7df      	b.n	10000da0 <xEventGroupWaitBits+0x6c>
10000de0:	0023      	movs	r3, r4
10000de2:	402b      	ands	r3, r5
10000de4:	429d      	cmp	r5, r3
10000de6:	d1f5      	bne.n	10000dd4 <xEventGroupWaitBits+0xa0>
10000de8:	e7ee      	b.n	10000dc8 <xEventGroupWaitBits+0x94>
10000dea:	46c0      	nop			; (mov r8, r8)

10000dec <xEventGroupSetBits>:
10000dec:	b5f8      	push	{r3, r4, r5, r6, r7, lr}
10000dee:	46de      	mov	lr, fp
10000df0:	4657      	mov	r7, sl
10000df2:	464e      	mov	r6, r9
10000df4:	4645      	mov	r5, r8
10000df6:	b5e0      	push	{r5, r6, r7, lr}
10000df8:	0005      	movs	r5, r0
10000dfa:	000f      	movs	r7, r1
10000dfc:	0006      	movs	r6, r0
10000dfe:	f000 ff87 	bl	10001d10 <vTaskSuspendAll>
10000e02:	6829      	ldr	r1, [r5, #0]
10000e04:	692c      	ldr	r4, [r5, #16]
10000e06:	4339      	orrs	r1, r7
10000e08:	360c      	adds	r6, #12
10000e0a:	6029      	str	r1, [r5, #0]
10000e0c:	42a6      	cmp	r6, r4
10000e0e:	d02a      	beq.n	10000e66 <xEventGroupSetBits+0x7a>
10000e10:	2300      	movs	r3, #0
10000e12:	4698      	mov	r8, r3
10000e14:	2380      	movs	r3, #128	; 0x80
10000e16:	04db      	lsls	r3, r3, #19
10000e18:	469b      	mov	fp, r3
10000e1a:	2380      	movs	r3, #128	; 0x80
10000e1c:	045b      	lsls	r3, r3, #17
10000e1e:	469a      	mov	sl, r3
10000e20:	2380      	movs	r3, #128	; 0x80
10000e22:	049b      	lsls	r3, r3, #18
10000e24:	4699      	mov	r9, r3
10000e26:	e00e      	b.n	10000e46 <xEventGroupSetBits+0x5a>
10000e28:	4219      	tst	r1, r3
10000e2a:	d00a      	beq.n	10000e42 <xEventGroupSetBits+0x56>
10000e2c:	4657      	mov	r7, sl
10000e2e:	423a      	tst	r2, r7
10000e30:	d002      	beq.n	10000e38 <xEventGroupSetBits+0x4c>
10000e32:	4642      	mov	r2, r8
10000e34:	431a      	orrs	r2, r3
10000e36:	4690      	mov	r8, r2
10000e38:	464b      	mov	r3, r9
10000e3a:	4319      	orrs	r1, r3
10000e3c:	f002 f9aa 	bl	10003194 <vTaskRemoveFromUnorderedEventList>
10000e40:	6829      	ldr	r1, [r5, #0]
10000e42:	42a6      	cmp	r6, r4
10000e44:	d00d      	beq.n	10000e62 <xEventGroupSetBits+0x76>
10000e46:	0020      	movs	r0, r4
10000e48:	465f      	mov	r7, fp
10000e4a:	6802      	ldr	r2, [r0, #0]
10000e4c:	6864      	ldr	r4, [r4, #4]
10000e4e:	0213      	lsls	r3, r2, #8
10000e50:	0a1b      	lsrs	r3, r3, #8
10000e52:	423a      	tst	r2, r7
10000e54:	d0e8      	beq.n	10000e28 <xEventGroupSetBits+0x3c>
10000e56:	000f      	movs	r7, r1
10000e58:	401f      	ands	r7, r3
10000e5a:	429f      	cmp	r7, r3
10000e5c:	d0e6      	beq.n	10000e2c <xEventGroupSetBits+0x40>
10000e5e:	42a6      	cmp	r6, r4
10000e60:	d1f1      	bne.n	10000e46 <xEventGroupSetBits+0x5a>
10000e62:	4643      	mov	r3, r8
10000e64:	4399      	bics	r1, r3
10000e66:	6029      	str	r1, [r5, #0]
10000e68:	f002 f956 	bl	10003118 <xTaskResumeAll>
10000e6c:	6828      	ldr	r0, [r5, #0]
10000e6e:	bcf0      	pop	{r4, r5, r6, r7}
10000e70:	46bb      	mov	fp, r7
10000e72:	46b2      	mov	sl, r6
10000e74:	46a9      	mov	r9, r5
10000e76:	46a0      	mov	r8, r4
10000e78:	bdf8      	pop	{r3, r4, r5, r6, r7, pc}
10000e7a:	46c0      	nop			; (mov r8, r8)

10000e7c <xEventGroupSetBitsFromISR>:
10000e7c:	b510      	push	{r4, lr}
10000e7e:	0013      	movs	r3, r2
10000e80:	000a      	movs	r2, r1
10000e82:	0001      	movs	r1, r0
10000e84:	4801      	ldr	r0, [pc, #4]	; (10000e8c <xEventGroupSetBitsFromISR+0x10>)
10000e86:	f002 fcb7 	bl	100037f8 <xTimerPendFunctionCallFromISR>
10000e8a:	bd10      	pop	{r4, pc}
10000e8c:	10000c91 	.word	0x10000c91

10000e90 <vListInitialise>:
10000e90:	0003      	movs	r3, r0
10000e92:	3308      	adds	r3, #8
10000e94:	2201      	movs	r2, #1
10000e96:	6043      	str	r3, [r0, #4]
10000e98:	60c3      	str	r3, [r0, #12]
10000e9a:	6103      	str	r3, [r0, #16]
10000e9c:	2300      	movs	r3, #0
10000e9e:	4252      	negs	r2, r2
10000ea0:	6082      	str	r2, [r0, #8]
10000ea2:	6003      	str	r3, [r0, #0]
10000ea4:	4770      	bx	lr
10000ea6:	46c0      	nop			; (mov r8, r8)

10000ea8 <vListInitialiseItem>:
10000ea8:	2300      	movs	r3, #0
10000eaa:	6103      	str	r3, [r0, #16]
10000eac:	4770      	bx	lr
10000eae:	46c0      	nop			; (mov r8, r8)

10000eb0 <vListInsertEnd>:
10000eb0:	6843      	ldr	r3, [r0, #4]
10000eb2:	689a      	ldr	r2, [r3, #8]
10000eb4:	604b      	str	r3, [r1, #4]
10000eb6:	608a      	str	r2, [r1, #8]
10000eb8:	689a      	ldr	r2, [r3, #8]
10000eba:	6051      	str	r1, [r2, #4]
10000ebc:	6099      	str	r1, [r3, #8]
10000ebe:	6803      	ldr	r3, [r0, #0]
10000ec0:	6108      	str	r0, [r1, #16]
10000ec2:	3301      	adds	r3, #1
10000ec4:	6003      	str	r3, [r0, #0]
10000ec6:	4770      	bx	lr

10000ec8 <vListInsert>:
10000ec8:	0003      	movs	r3, r0
10000eca:	b530      	push	{r4, r5, lr}
10000ecc:	680c      	ldr	r4, [r1, #0]
10000ece:	3308      	adds	r3, #8
10000ed0:	1c62      	adds	r2, r4, #1
10000ed2:	d00d      	beq.n	10000ef0 <vListInsert+0x28>
10000ed4:	001a      	movs	r2, r3
10000ed6:	685b      	ldr	r3, [r3, #4]
10000ed8:	681d      	ldr	r5, [r3, #0]
10000eda:	42a5      	cmp	r5, r4
10000edc:	d9fa      	bls.n	10000ed4 <vListInsert+0xc>
10000ede:	604b      	str	r3, [r1, #4]
10000ee0:	6099      	str	r1, [r3, #8]
10000ee2:	6803      	ldr	r3, [r0, #0]
10000ee4:	608a      	str	r2, [r1, #8]
10000ee6:	3301      	adds	r3, #1
10000ee8:	6051      	str	r1, [r2, #4]
10000eea:	6108      	str	r0, [r1, #16]
10000eec:	6003      	str	r3, [r0, #0]
10000eee:	bd30      	pop	{r4, r5, pc}
10000ef0:	6902      	ldr	r2, [r0, #16]
10000ef2:	6853      	ldr	r3, [r2, #4]
10000ef4:	e7f3      	b.n	10000ede <vListInsert+0x16>
10000ef6:	46c0      	nop			; (mov r8, r8)

10000ef8 <uxListRemove>:
10000ef8:	6903      	ldr	r3, [r0, #16]
10000efa:	6841      	ldr	r1, [r0, #4]
10000efc:	6882      	ldr	r2, [r0, #8]
10000efe:	608a      	str	r2, [r1, #8]
10000f00:	6051      	str	r1, [r2, #4]
10000f02:	6859      	ldr	r1, [r3, #4]
10000f04:	4281      	cmp	r1, r0
10000f06:	d005      	beq.n	10000f14 <uxListRemove+0x1c>
10000f08:	2200      	movs	r2, #0
10000f0a:	6102      	str	r2, [r0, #16]
10000f0c:	681a      	ldr	r2, [r3, #0]
10000f0e:	1e50      	subs	r0, r2, #1
10000f10:	6018      	str	r0, [r3, #0]
10000f12:	4770      	bx	lr
10000f14:	605a      	str	r2, [r3, #4]
10000f16:	e7f7      	b.n	10000f08 <uxListRemove+0x10>

10000f18 <prvUnlockQueue>:
10000f18:	b5f0      	push	{r4, r5, r6, r7, lr}
10000f1a:	46de      	mov	lr, fp
10000f1c:	464e      	mov	r6, r9
10000f1e:	4657      	mov	r7, sl
10000f20:	4645      	mov	r5, r8
10000f22:	b5e0      	push	{r5, r6, r7, lr}
10000f24:	b085      	sub	sp, #20
10000f26:	0006      	movs	r6, r0
10000f28:	f001 fd20 	bl	1000296c <vTaskEnterCritical>
10000f2c:	2345      	movs	r3, #69	; 0x45
10000f2e:	5cf4      	ldrb	r4, [r6, r3]
10000f30:	b264      	sxtb	r4, r4
10000f32:	2c00      	cmp	r4, #0
10000f34:	dd21      	ble.n	10000f7a <prvUnlockQueue+0x62>
10000f36:	3b21      	subs	r3, #33	; 0x21
10000f38:	4699      	mov	r9, r3
10000f3a:	3321      	adds	r3, #33	; 0x21
10000f3c:	469b      	mov	fp, r3
10000f3e:	44b1      	add	r9, r6
10000f40:	e009      	b.n	10000f56 <prvUnlockQueue+0x3e>
10000f42:	6bab      	ldr	r3, [r5, #56]	; 0x38
10000f44:	6bea      	ldr	r2, [r5, #60]	; 0x3c
10000f46:	9603      	str	r6, [sp, #12]
10000f48:	4293      	cmp	r3, r2
10000f4a:	d345      	bcc.n	10000fd8 <prvUnlockQueue+0xc0>
10000f4c:	3c01      	subs	r4, #1
10000f4e:	b2e3      	uxtb	r3, r4
10000f50:	b264      	sxtb	r4, r4
10000f52:	2b00      	cmp	r3, #0
10000f54:	d011      	beq.n	10000f7a <prvUnlockQueue+0x62>
10000f56:	6cb5      	ldr	r5, [r6, #72]	; 0x48
10000f58:	2d00      	cmp	r5, #0
10000f5a:	d1f2      	bne.n	10000f42 <prvUnlockQueue+0x2a>
10000f5c:	6a73      	ldr	r3, [r6, #36]	; 0x24
10000f5e:	2b00      	cmp	r3, #0
10000f60:	d00b      	beq.n	10000f7a <prvUnlockQueue+0x62>
10000f62:	4648      	mov	r0, r9
10000f64:	f001 fb3c 	bl	100025e0 <xTaskRemoveFromEventList>
10000f68:	2800      	cmp	r0, #0
10000f6a:	d0ef      	beq.n	10000f4c <prvUnlockQueue+0x34>
10000f6c:	f001 fc78 	bl	10002860 <vTaskMissedYield>
10000f70:	3c01      	subs	r4, #1
10000f72:	b2e3      	uxtb	r3, r4
10000f74:	b264      	sxtb	r4, r4
10000f76:	2b00      	cmp	r3, #0
10000f78:	d1ed      	bne.n	10000f56 <prvUnlockQueue+0x3e>
10000f7a:	2345      	movs	r3, #69	; 0x45
10000f7c:	22ff      	movs	r2, #255	; 0xff
10000f7e:	54f2      	strb	r2, [r6, r3]
10000f80:	f002 f998 	bl	100032b4 <vTaskExitCritical>
10000f84:	f001 fcf2 	bl	1000296c <vTaskEnterCritical>
10000f88:	2344      	movs	r3, #68	; 0x44
10000f8a:	5cf4      	ldrb	r4, [r6, r3]
10000f8c:	b264      	sxtb	r4, r4
10000f8e:	2c00      	cmp	r4, #0
10000f90:	dd16      	ble.n	10000fc0 <prvUnlockQueue+0xa8>
10000f92:	0035      	movs	r5, r6
10000f94:	3510      	adds	r5, #16
10000f96:	e004      	b.n	10000fa2 <prvUnlockQueue+0x8a>
10000f98:	3c01      	subs	r4, #1
10000f9a:	b2e2      	uxtb	r2, r4
10000f9c:	b264      	sxtb	r4, r4
10000f9e:	2a00      	cmp	r2, #0
10000fa0:	d00e      	beq.n	10000fc0 <prvUnlockQueue+0xa8>
10000fa2:	6933      	ldr	r3, [r6, #16]
10000fa4:	2b00      	cmp	r3, #0
10000fa6:	d00b      	beq.n	10000fc0 <prvUnlockQueue+0xa8>
10000fa8:	0028      	movs	r0, r5
10000faa:	f001 fb19 	bl	100025e0 <xTaskRemoveFromEventList>
10000fae:	2800      	cmp	r0, #0
10000fb0:	d0f2      	beq.n	10000f98 <prvUnlockQueue+0x80>
10000fb2:	3c01      	subs	r4, #1
10000fb4:	f001 fc54 	bl	10002860 <vTaskMissedYield>
10000fb8:	b2e2      	uxtb	r2, r4
10000fba:	b264      	sxtb	r4, r4
10000fbc:	2a00      	cmp	r2, #0
10000fbe:	d1f0      	bne.n	10000fa2 <prvUnlockQueue+0x8a>
10000fc0:	2344      	movs	r3, #68	; 0x44
10000fc2:	22ff      	movs	r2, #255	; 0xff
10000fc4:	54f2      	strb	r2, [r6, r3]
10000fc6:	f002 f975 	bl	100032b4 <vTaskExitCritical>
10000fca:	b005      	add	sp, #20
10000fcc:	bcf0      	pop	{r4, r5, r6, r7}
10000fce:	46bb      	mov	fp, r7
10000fd0:	46b2      	mov	sl, r6
10000fd2:	46a9      	mov	r9, r5
10000fd4:	46a0      	mov	r8, r4
10000fd6:	bdf0      	pop	{r4, r5, r6, r7, pc}
10000fd8:	465b      	mov	r3, fp
10000fda:	6c2a      	ldr	r2, [r5, #64]	; 0x40
10000fdc:	5cef      	ldrb	r7, [r5, r3]
10000fde:	6bab      	ldr	r3, [r5, #56]	; 0x38
10000fe0:	b27f      	sxtb	r7, r7
10000fe2:	4698      	mov	r8, r3
10000fe4:	2a00      	cmp	r2, #0
10000fe6:	d113      	bne.n	10001010 <prvUnlockQueue+0xf8>
10000fe8:	682b      	ldr	r3, [r5, #0]
10000fea:	9301      	str	r3, [sp, #4]
10000fec:	2b00      	cmp	r3, #0
10000fee:	d030      	beq.n	10001052 <prvUnlockQueue+0x13a>
10000ff0:	2300      	movs	r3, #0
10000ff2:	469a      	mov	sl, r3
10000ff4:	4643      	mov	r3, r8
10000ff6:	3301      	adds	r3, #1
10000ff8:	63ab      	str	r3, [r5, #56]	; 0x38
10000ffa:	1c7b      	adds	r3, r7, #1
10000ffc:	d117      	bne.n	1000102e <prvUnlockQueue+0x116>
10000ffe:	6a6b      	ldr	r3, [r5, #36]	; 0x24
10001000:	2b00      	cmp	r3, #0
10001002:	d11d      	bne.n	10001040 <prvUnlockQueue+0x128>
10001004:	4653      	mov	r3, sl
10001006:	2b00      	cmp	r3, #0
10001008:	d0a0      	beq.n	10000f4c <prvUnlockQueue+0x34>
1000100a:	f001 fc29 	bl	10002860 <vTaskMissedYield>
1000100e:	e7af      	b.n	10000f70 <prvUnlockQueue+0x58>
10001010:	6868      	ldr	r0, [r5, #4]
10001012:	a903      	add	r1, sp, #12
10001014:	f004 fbe4 	bl	100057e0 <__wrap___aeabi_memcpy>
10001018:	6c2a      	ldr	r2, [r5, #64]	; 0x40
1000101a:	686b      	ldr	r3, [r5, #4]
1000101c:	4694      	mov	ip, r2
1000101e:	68aa      	ldr	r2, [r5, #8]
10001020:	4463      	add	r3, ip
10001022:	606b      	str	r3, [r5, #4]
10001024:	4293      	cmp	r3, r2
10001026:	d3e3      	bcc.n	10000ff0 <prvUnlockQueue+0xd8>
10001028:	682b      	ldr	r3, [r5, #0]
1000102a:	606b      	str	r3, [r5, #4]
1000102c:	e7e0      	b.n	10000ff0 <prvUnlockQueue+0xd8>
1000102e:	f000 fee3 	bl	10001df8 <uxTaskGetNumberOfTasks>
10001032:	42b8      	cmp	r0, r7
10001034:	d9e6      	bls.n	10001004 <prvUnlockQueue+0xec>
10001036:	465b      	mov	r3, fp
10001038:	3701      	adds	r7, #1
1000103a:	b27f      	sxtb	r7, r7
1000103c:	54ef      	strb	r7, [r5, r3]
1000103e:	e7e1      	b.n	10001004 <prvUnlockQueue+0xec>
10001040:	0028      	movs	r0, r5
10001042:	3024      	adds	r0, #36	; 0x24
10001044:	f001 facc 	bl	100025e0 <xTaskRemoveFromEventList>
10001048:	2800      	cmp	r0, #0
1000104a:	d0db      	beq.n	10001004 <prvUnlockQueue+0xec>
1000104c:	f001 fc08 	bl	10002860 <vTaskMissedYield>
10001050:	e78e      	b.n	10000f70 <prvUnlockQueue+0x58>
10001052:	68a8      	ldr	r0, [r5, #8]
10001054:	f001 fc1c 	bl	10002890 <xTaskPriorityDisinherit>
10001058:	9b01      	ldr	r3, [sp, #4]
1000105a:	4682      	mov	sl, r0
1000105c:	60ab      	str	r3, [r5, #8]
1000105e:	e7c9      	b.n	10000ff4 <prvUnlockQueue+0xdc>

10001060 <prvNotifyQueueSetContainer>:
10001060:	b5f0      	push	{r4, r5, r6, r7, lr}
10001062:	46c6      	mov	lr, r8
10001064:	b500      	push	{lr}
10001066:	6c84      	ldr	r4, [r0, #72]	; 0x48
10001068:	b082      	sub	sp, #8
1000106a:	6ba3      	ldr	r3, [r4, #56]	; 0x38
1000106c:	6be2      	ldr	r2, [r4, #60]	; 0x3c
1000106e:	2500      	movs	r5, #0
10001070:	9001      	str	r0, [sp, #4]
10001072:	4293      	cmp	r3, r2
10001074:	d304      	bcc.n	10001080 <prvNotifyQueueSetContainer+0x20>
10001076:	0028      	movs	r0, r5
10001078:	b002      	add	sp, #8
1000107a:	bc80      	pop	{r7}
1000107c:	46b8      	mov	r8, r7
1000107e:	bdf0      	pop	{r4, r5, r6, r7, pc}
10001080:	2345      	movs	r3, #69	; 0x45
10001082:	6c22      	ldr	r2, [r4, #64]	; 0x40
10001084:	5ce6      	ldrb	r6, [r4, r3]
10001086:	6ba7      	ldr	r7, [r4, #56]	; 0x38
10001088:	b276      	sxtb	r6, r6
1000108a:	2a00      	cmp	r2, #0
1000108c:	d01c      	beq.n	100010c8 <prvNotifyQueueSetContainer+0x68>
1000108e:	6860      	ldr	r0, [r4, #4]
10001090:	a901      	add	r1, sp, #4
10001092:	f004 fba5 	bl	100057e0 <__wrap___aeabi_memcpy>
10001096:	6c22      	ldr	r2, [r4, #64]	; 0x40
10001098:	6863      	ldr	r3, [r4, #4]
1000109a:	4694      	mov	ip, r2
1000109c:	68a2      	ldr	r2, [r4, #8]
1000109e:	4463      	add	r3, ip
100010a0:	6063      	str	r3, [r4, #4]
100010a2:	4293      	cmp	r3, r2
100010a4:	d314      	bcc.n	100010d0 <prvNotifyQueueSetContainer+0x70>
100010a6:	6823      	ldr	r3, [r4, #0]
100010a8:	6063      	str	r3, [r4, #4]
100010aa:	3701      	adds	r7, #1
100010ac:	63a7      	str	r7, [r4, #56]	; 0x38
100010ae:	1c73      	adds	r3, r6, #1
100010b0:	d113      	bne.n	100010da <prvNotifyQueueSetContainer+0x7a>
100010b2:	6a63      	ldr	r3, [r4, #36]	; 0x24
100010b4:	2b00      	cmp	r3, #0
100010b6:	d0de      	beq.n	10001076 <prvNotifyQueueSetContainer+0x16>
100010b8:	0020      	movs	r0, r4
100010ba:	3024      	adds	r0, #36	; 0x24
100010bc:	f001 fa90 	bl	100025e0 <xTaskRemoveFromEventList>
100010c0:	2800      	cmp	r0, #0
100010c2:	d0d8      	beq.n	10001076 <prvNotifyQueueSetContainer+0x16>
100010c4:	2501      	movs	r5, #1
100010c6:	e7d6      	b.n	10001076 <prvNotifyQueueSetContainer+0x16>
100010c8:	6823      	ldr	r3, [r4, #0]
100010ca:	4698      	mov	r8, r3
100010cc:	2b00      	cmp	r3, #0
100010ce:	d00d      	beq.n	100010ec <prvNotifyQueueSetContainer+0x8c>
100010d0:	3701      	adds	r7, #1
100010d2:	2500      	movs	r5, #0
100010d4:	63a7      	str	r7, [r4, #56]	; 0x38
100010d6:	1c73      	adds	r3, r6, #1
100010d8:	d0eb      	beq.n	100010b2 <prvNotifyQueueSetContainer+0x52>
100010da:	f000 fe8d 	bl	10001df8 <uxTaskGetNumberOfTasks>
100010de:	4286      	cmp	r6, r0
100010e0:	d2c9      	bcs.n	10001076 <prvNotifyQueueSetContainer+0x16>
100010e2:	2345      	movs	r3, #69	; 0x45
100010e4:	3601      	adds	r6, #1
100010e6:	b276      	sxtb	r6, r6
100010e8:	54e6      	strb	r6, [r4, r3]
100010ea:	e7c4      	b.n	10001076 <prvNotifyQueueSetContainer+0x16>
100010ec:	68a0      	ldr	r0, [r4, #8]
100010ee:	f001 fbcf 	bl	10002890 <xTaskPriorityDisinherit>
100010f2:	4643      	mov	r3, r8
100010f4:	0005      	movs	r5, r0
100010f6:	60a3      	str	r3, [r4, #8]
100010f8:	e7d7      	b.n	100010aa <prvNotifyQueueSetContainer+0x4a>
100010fa:	46c0      	nop			; (mov r8, r8)

100010fc <xQueueGenericCreate>:
100010fc:	b5f8      	push	{r3, r4, r5, r6, r7, lr}
100010fe:	0005      	movs	r5, r0
10001100:	000e      	movs	r6, r1
10001102:	0017      	movs	r7, r2
10001104:	2800      	cmp	r0, #0
10001106:	d046      	beq.n	10001196 <xQueueGenericCreate+0x9a>
10001108:	0c0b      	lsrs	r3, r1, #16
1000110a:	0c02      	lsrs	r2, r0, #16
1000110c:	2b00      	cmp	r3, #0
1000110e:	d134      	bne.n	1000117a <xQueueGenericCreate+0x7e>
10001110:	1c33      	adds	r3, r6, #0
10001112:	2a00      	cmp	r2, #0
10001114:	d135      	bne.n	10001182 <xQueueGenericCreate+0x86>
10001116:	0030      	movs	r0, r6
10001118:	4368      	muls	r0, r5
1000111a:	0003      	movs	r3, r0
1000111c:	3355      	adds	r3, #85	; 0x55
1000111e:	d83a      	bhi.n	10001196 <xQueueGenericCreate+0x9a>
10001120:	3054      	adds	r0, #84	; 0x54
10001122:	f7ff fab7 	bl	10000694 <pvPortMalloc>
10001126:	1e04      	subs	r4, r0, #0
10001128:	d035      	beq.n	10001196 <xQueueGenericCreate+0x9a>
1000112a:	0003      	movs	r3, r0
1000112c:	2e00      	cmp	r6, #0
1000112e:	d000      	beq.n	10001132 <xQueueGenericCreate+0x36>
10001130:	3354      	adds	r3, #84	; 0x54
10001132:	6023      	str	r3, [r4, #0]
10001134:	63e5      	str	r5, [r4, #60]	; 0x3c
10001136:	6426      	str	r6, [r4, #64]	; 0x40
10001138:	f001 fc18 	bl	1000296c <vTaskEnterCritical>
1000113c:	6c21      	ldr	r1, [r4, #64]	; 0x40
1000113e:	6be3      	ldr	r3, [r4, #60]	; 0x3c
10001140:	6822      	ldr	r2, [r4, #0]
10001142:	434b      	muls	r3, r1
10001144:	18d0      	adds	r0, r2, r3
10001146:	1a5b      	subs	r3, r3, r1
10001148:	18d3      	adds	r3, r2, r3
1000114a:	6062      	str	r2, [r4, #4]
1000114c:	60e3      	str	r3, [r4, #12]
1000114e:	2500      	movs	r5, #0
10001150:	23ff      	movs	r3, #255	; 0xff
10001152:	2244      	movs	r2, #68	; 0x44
10001154:	60a0      	str	r0, [r4, #8]
10001156:	0020      	movs	r0, r4
10001158:	63a5      	str	r5, [r4, #56]	; 0x38
1000115a:	54a3      	strb	r3, [r4, r2]
1000115c:	3201      	adds	r2, #1
1000115e:	54a3      	strb	r3, [r4, r2]
10001160:	3010      	adds	r0, #16
10001162:	f7ff fe95 	bl	10000e90 <vListInitialise>
10001166:	0020      	movs	r0, r4
10001168:	3024      	adds	r0, #36	; 0x24
1000116a:	f7ff fe91 	bl	10000e90 <vListInitialise>
1000116e:	f002 f8a1 	bl	100032b4 <vTaskExitCritical>
10001172:	2350      	movs	r3, #80	; 0x50
10001174:	54e7      	strb	r7, [r4, r3]
10001176:	64a5      	str	r5, [r4, #72]	; 0x48
10001178:	e00e      	b.n	10001198 <xQueueGenericCreate+0x9c>
1000117a:	2a00      	cmp	r2, #0
1000117c:	d10b      	bne.n	10001196 <xQueueGenericCreate+0x9a>
1000117e:	1c1a      	adds	r2, r3, #0
10001180:	1c03      	adds	r3, r0, #0
10001182:	b2b0      	uxth	r0, r6
10001184:	b2a9      	uxth	r1, r5
10001186:	4341      	muls	r1, r0
10001188:	b298      	uxth	r0, r3
1000118a:	b293      	uxth	r3, r2
1000118c:	4343      	muls	r3, r0
1000118e:	0c09      	lsrs	r1, r1, #16
10001190:	185b      	adds	r3, r3, r1
10001192:	0c1b      	lsrs	r3, r3, #16
10001194:	d0bf      	beq.n	10001116 <xQueueGenericCreate+0x1a>
10001196:	2400      	movs	r4, #0
10001198:	0020      	movs	r0, r4
1000119a:	bdf8      	pop	{r3, r4, r5, r6, r7, pc}

1000119c <xQueueGenericSendFromISR>:
1000119c:	b5f8      	push	{r3, r4, r5, r6, r7, lr}
1000119e:	464e      	mov	r6, r9
100011a0:	46de      	mov	lr, fp
100011a2:	4657      	mov	r7, sl
100011a4:	4645      	mov	r5, r8
100011a6:	0004      	movs	r4, r0
100011a8:	b5e0      	push	{r5, r6, r7, lr}
100011aa:	4691      	mov	r9, r2
100011ac:	001d      	movs	r5, r3
100011ae:	000f      	movs	r7, r1
100011b0:	f002 f83e 	bl	10003230 <vTaskEnterCriticalFromISR>
100011b4:	6ba3      	ldr	r3, [r4, #56]	; 0x38
100011b6:	6be2      	ldr	r2, [r4, #60]	; 0x3c
100011b8:	0006      	movs	r6, r0
100011ba:	4293      	cmp	r3, r2
100011bc:	d33a      	bcc.n	10001234 <xQueueGenericSendFromISR+0x98>
100011be:	2d02      	cmp	r5, #2
100011c0:	d00a      	beq.n	100011d8 <xQueueGenericSendFromISR+0x3c>
100011c2:	2400      	movs	r4, #0
100011c4:	0030      	movs	r0, r6
100011c6:	f002 f8c5 	bl	10003354 <vTaskExitCriticalFromISR>
100011ca:	0020      	movs	r0, r4
100011cc:	bcf0      	pop	{r4, r5, r6, r7}
100011ce:	46bb      	mov	fp, r7
100011d0:	46b2      	mov	sl, r6
100011d2:	46a9      	mov	r9, r5
100011d4:	46a0      	mov	r8, r4
100011d6:	bdf8      	pop	{r3, r4, r5, r6, r7, pc}
100011d8:	2345      	movs	r3, #69	; 0x45
100011da:	5ce3      	ldrb	r3, [r4, r3]
100011dc:	6c22      	ldr	r2, [r4, #64]	; 0x40
100011de:	b25b      	sxtb	r3, r3
100011e0:	4698      	mov	r8, r3
100011e2:	6ba3      	ldr	r3, [r4, #56]	; 0x38
100011e4:	469b      	mov	fp, r3
100011e6:	6ba3      	ldr	r3, [r4, #56]	; 0x38
100011e8:	469a      	mov	sl, r3
100011ea:	2a00      	cmp	r2, #0
100011ec:	d02d      	beq.n	1000124a <xQueueGenericSendFromISR+0xae>
100011ee:	0039      	movs	r1, r7
100011f0:	68e0      	ldr	r0, [r4, #12]
100011f2:	f004 faf5 	bl	100057e0 <__wrap___aeabi_memcpy>
100011f6:	68e1      	ldr	r1, [r4, #12]
100011f8:	6c23      	ldr	r3, [r4, #64]	; 0x40
100011fa:	425a      	negs	r2, r3
100011fc:	1acb      	subs	r3, r1, r3
100011fe:	6821      	ldr	r1, [r4, #0]
10001200:	60e3      	str	r3, [r4, #12]
10001202:	428b      	cmp	r3, r1
10001204:	d203      	bcs.n	1000120e <xQueueGenericSendFromISR+0x72>
10001206:	68a3      	ldr	r3, [r4, #8]
10001208:	469c      	mov	ip, r3
1000120a:	4462      	add	r2, ip
1000120c:	60e2      	str	r2, [r4, #12]
1000120e:	4653      	mov	r3, sl
10001210:	2d02      	cmp	r5, #2
10001212:	d054      	beq.n	100012be <xQueueGenericSendFromISR+0x122>
10001214:	3301      	adds	r3, #1
10001216:	63a3      	str	r3, [r4, #56]	; 0x38
10001218:	4643      	mov	r3, r8
1000121a:	3301      	adds	r3, #1
1000121c:	d01e      	beq.n	1000125c <xQueueGenericSendFromISR+0xc0>
1000121e:	f000 fdeb 	bl	10001df8 <uxTaskGetNumberOfTasks>
10001222:	4580      	cmp	r8, r0
10001224:	d22d      	bcs.n	10001282 <xQueueGenericSendFromISR+0xe6>
10001226:	4643      	mov	r3, r8
10001228:	2245      	movs	r2, #69	; 0x45
1000122a:	3301      	adds	r3, #1
1000122c:	b25b      	sxtb	r3, r3
1000122e:	54a3      	strb	r3, [r4, r2]
10001230:	2401      	movs	r4, #1
10001232:	e7c7      	b.n	100011c4 <xQueueGenericSendFromISR+0x28>
10001234:	2345      	movs	r3, #69	; 0x45
10001236:	5ce3      	ldrb	r3, [r4, r3]
10001238:	6c22      	ldr	r2, [r4, #64]	; 0x40
1000123a:	b25b      	sxtb	r3, r3
1000123c:	4698      	mov	r8, r3
1000123e:	6ba3      	ldr	r3, [r4, #56]	; 0x38
10001240:	469b      	mov	fp, r3
10001242:	6ba3      	ldr	r3, [r4, #56]	; 0x38
10001244:	469a      	mov	sl, r3
10001246:	2a00      	cmp	r2, #0
10001248:	d11d      	bne.n	10001286 <xQueueGenericSendFromISR+0xea>
1000124a:	6827      	ldr	r7, [r4, #0]
1000124c:	2f00      	cmp	r7, #0
1000124e:	d03a      	beq.n	100012c6 <xQueueGenericSendFromISR+0x12a>
10001250:	4653      	mov	r3, sl
10001252:	3301      	adds	r3, #1
10001254:	63a3      	str	r3, [r4, #56]	; 0x38
10001256:	4643      	mov	r3, r8
10001258:	3301      	adds	r3, #1
1000125a:	d1e0      	bne.n	1000121e <xQueueGenericSendFromISR+0x82>
1000125c:	6ca3      	ldr	r3, [r4, #72]	; 0x48
1000125e:	2b00      	cmp	r3, #0
10001260:	d022      	beq.n	100012a8 <xQueueGenericSendFromISR+0x10c>
10001262:	2d02      	cmp	r5, #2
10001264:	d102      	bne.n	1000126c <xQueueGenericSendFromISR+0xd0>
10001266:	465b      	mov	r3, fp
10001268:	2b00      	cmp	r3, #0
1000126a:	d10a      	bne.n	10001282 <xQueueGenericSendFromISR+0xe6>
1000126c:	0020      	movs	r0, r4
1000126e:	f7ff fef7 	bl	10001060 <prvNotifyQueueSetContainer>
10001272:	2800      	cmp	r0, #0
10001274:	d005      	beq.n	10001282 <xQueueGenericSendFromISR+0xe6>
10001276:	464b      	mov	r3, r9
10001278:	2b00      	cmp	r3, #0
1000127a:	d002      	beq.n	10001282 <xQueueGenericSendFromISR+0xe6>
1000127c:	2301      	movs	r3, #1
1000127e:	464a      	mov	r2, r9
10001280:	6013      	str	r3, [r2, #0]
10001282:	2401      	movs	r4, #1
10001284:	e79e      	b.n	100011c4 <xQueueGenericSendFromISR+0x28>
10001286:	2d00      	cmp	r5, #0
10001288:	d1b1      	bne.n	100011ee <xQueueGenericSendFromISR+0x52>
1000128a:	0039      	movs	r1, r7
1000128c:	6860      	ldr	r0, [r4, #4]
1000128e:	f004 faa7 	bl	100057e0 <__wrap___aeabi_memcpy>
10001292:	6c22      	ldr	r2, [r4, #64]	; 0x40
10001294:	6863      	ldr	r3, [r4, #4]
10001296:	4694      	mov	ip, r2
10001298:	68a2      	ldr	r2, [r4, #8]
1000129a:	4463      	add	r3, ip
1000129c:	6063      	str	r3, [r4, #4]
1000129e:	4293      	cmp	r3, r2
100012a0:	d3d6      	bcc.n	10001250 <xQueueGenericSendFromISR+0xb4>
100012a2:	6823      	ldr	r3, [r4, #0]
100012a4:	6063      	str	r3, [r4, #4]
100012a6:	e7d3      	b.n	10001250 <xQueueGenericSendFromISR+0xb4>
100012a8:	6a63      	ldr	r3, [r4, #36]	; 0x24
100012aa:	2b00      	cmp	r3, #0
100012ac:	d0e9      	beq.n	10001282 <xQueueGenericSendFromISR+0xe6>
100012ae:	0020      	movs	r0, r4
100012b0:	3024      	adds	r0, #36	; 0x24
100012b2:	f001 f995 	bl	100025e0 <xTaskRemoveFromEventList>
100012b6:	2800      	cmp	r0, #0
100012b8:	d1dd      	bne.n	10001276 <xQueueGenericSendFromISR+0xda>
100012ba:	2401      	movs	r4, #1
100012bc:	e782      	b.n	100011c4 <xQueueGenericSendFromISR+0x28>
100012be:	2b00      	cmp	r3, #0
100012c0:	d1c8      	bne.n	10001254 <xQueueGenericSendFromISR+0xb8>
100012c2:	3301      	adds	r3, #1
100012c4:	e7a7      	b.n	10001216 <xQueueGenericSendFromISR+0x7a>
100012c6:	68a0      	ldr	r0, [r4, #8]
100012c8:	f001 fae2 	bl	10002890 <xTaskPriorityDisinherit>
100012cc:	4653      	mov	r3, sl
100012ce:	60a7      	str	r7, [r4, #8]
100012d0:	3301      	adds	r3, #1
100012d2:	e7bf      	b.n	10001254 <xQueueGenericSendFromISR+0xb8>

100012d4 <xQueueReceive>:
100012d4:	b5f0      	push	{r4, r5, r6, r7, lr}
100012d6:	4647      	mov	r7, r8
100012d8:	46ce      	mov	lr, r9
100012da:	0004      	movs	r4, r0
100012dc:	b580      	push	{r7, lr}
100012de:	b085      	sub	sp, #20
100012e0:	4688      	mov	r8, r1
100012e2:	9201      	str	r2, [sp, #4]
100012e4:	f001 fb42 	bl	1000296c <vTaskEnterCritical>
100012e8:	6ba7      	ldr	r7, [r4, #56]	; 0x38
100012ea:	2f00      	cmp	r7, #0
100012ec:	d15e      	bne.n	100013ac <xQueueReceive+0xd8>
100012ee:	9b01      	ldr	r3, [sp, #4]
100012f0:	2b00      	cmp	r3, #0
100012f2:	d03b      	beq.n	1000136c <xQueueReceive+0x98>
100012f4:	a802      	add	r0, sp, #8
100012f6:	f001 f9dd 	bl	100026b4 <vTaskInternalSetTimeOutState>
100012fa:	2300      	movs	r3, #0
100012fc:	2644      	movs	r6, #68	; 0x44
100012fe:	4699      	mov	r9, r3
10001300:	2545      	movs	r5, #69	; 0x45
10001302:	f001 ffd7 	bl	100032b4 <vTaskExitCritical>
10001306:	f000 fd03 	bl	10001d10 <vTaskSuspendAll>
1000130a:	f001 fb2f 	bl	1000296c <vTaskEnterCritical>
1000130e:	5da3      	ldrb	r3, [r4, r6]
10001310:	b25b      	sxtb	r3, r3
10001312:	3301      	adds	r3, #1
10001314:	d101      	bne.n	1000131a <xQueueReceive+0x46>
10001316:	464b      	mov	r3, r9
10001318:	55a3      	strb	r3, [r4, r6]
1000131a:	5d63      	ldrb	r3, [r4, r5]
1000131c:	b25b      	sxtb	r3, r3
1000131e:	3301      	adds	r3, #1
10001320:	d101      	bne.n	10001326 <xQueueReceive+0x52>
10001322:	464b      	mov	r3, r9
10001324:	5563      	strb	r3, [r4, r5]
10001326:	f001 ffc5 	bl	100032b4 <vTaskExitCritical>
1000132a:	a901      	add	r1, sp, #4
1000132c:	a802      	add	r0, sp, #8
1000132e:	f001 f9cd 	bl	100026cc <xTaskCheckForTimeOut>
10001332:	2800      	cmp	r0, #0
10001334:	d122      	bne.n	1000137c <xQueueReceive+0xa8>
10001336:	f001 fb19 	bl	1000296c <vTaskEnterCritical>
1000133a:	6ba3      	ldr	r3, [r4, #56]	; 0x38
1000133c:	2b00      	cmp	r3, #0
1000133e:	d12a      	bne.n	10001396 <xQueueReceive+0xc2>
10001340:	f001 ffb8 	bl	100032b4 <vTaskExitCritical>
10001344:	0020      	movs	r0, r4
10001346:	9901      	ldr	r1, [sp, #4]
10001348:	3024      	adds	r0, #36	; 0x24
1000134a:	f001 f811 	bl	10002370 <vTaskPlaceOnEventList>
1000134e:	0020      	movs	r0, r4
10001350:	f7ff fde2 	bl	10000f18 <prvUnlockQueue>
10001354:	f001 fee0 	bl	10003118 <xTaskResumeAll>
10001358:	2800      	cmp	r0, #0
1000135a:	d024      	beq.n	100013a6 <xQueueReceive+0xd2>
1000135c:	f001 fb06 	bl	1000296c <vTaskEnterCritical>
10001360:	6ba7      	ldr	r7, [r4, #56]	; 0x38
10001362:	2f00      	cmp	r7, #0
10001364:	d122      	bne.n	100013ac <xQueueReceive+0xd8>
10001366:	9b01      	ldr	r3, [sp, #4]
10001368:	2b00      	cmp	r3, #0
1000136a:	d1ca      	bne.n	10001302 <xQueueReceive+0x2e>
1000136c:	f001 ffa2 	bl	100032b4 <vTaskExitCritical>
10001370:	2000      	movs	r0, #0
10001372:	b005      	add	sp, #20
10001374:	bcc0      	pop	{r6, r7}
10001376:	46b9      	mov	r9, r7
10001378:	46b0      	mov	r8, r6
1000137a:	bdf0      	pop	{r4, r5, r6, r7, pc}
1000137c:	0020      	movs	r0, r4
1000137e:	f7ff fdcb 	bl	10000f18 <prvUnlockQueue>
10001382:	f001 fec9 	bl	10003118 <xTaskResumeAll>
10001386:	f001 faf1 	bl	1000296c <vTaskEnterCritical>
1000138a:	6ba3      	ldr	r3, [r4, #56]	; 0x38
1000138c:	2b00      	cmp	r3, #0
1000138e:	d0ed      	beq.n	1000136c <xQueueReceive+0x98>
10001390:	f001 ff90 	bl	100032b4 <vTaskExitCritical>
10001394:	e7e2      	b.n	1000135c <xQueueReceive+0x88>
10001396:	f001 ff8d 	bl	100032b4 <vTaskExitCritical>
1000139a:	0020      	movs	r0, r4
1000139c:	f7ff fdbc 	bl	10000f18 <prvUnlockQueue>
100013a0:	f001 feba 	bl	10003118 <xTaskResumeAll>
100013a4:	e7da      	b.n	1000135c <xQueueReceive+0x88>
100013a6:	f001 facd 	bl	10002944 <vTaskYieldWithinAPI>
100013aa:	e7d7      	b.n	1000135c <xQueueReceive+0x88>
100013ac:	6c22      	ldr	r2, [r4, #64]	; 0x40
100013ae:	2a00      	cmp	r2, #0
100013b0:	d008      	beq.n	100013c4 <xQueueReceive+0xf0>
100013b2:	68e3      	ldr	r3, [r4, #12]
100013b4:	1899      	adds	r1, r3, r2
100013b6:	68a3      	ldr	r3, [r4, #8]
100013b8:	60e1      	str	r1, [r4, #12]
100013ba:	4299      	cmp	r1, r3
100013bc:	d20b      	bcs.n	100013d6 <xQueueReceive+0x102>
100013be:	4640      	mov	r0, r8
100013c0:	f004 fa0e 	bl	100057e0 <__wrap___aeabi_memcpy>
100013c4:	6923      	ldr	r3, [r4, #16]
100013c6:	3f01      	subs	r7, #1
100013c8:	63a7      	str	r7, [r4, #56]	; 0x38
100013ca:	2b00      	cmp	r3, #0
100013cc:	d106      	bne.n	100013dc <xQueueReceive+0x108>
100013ce:	f001 ff71 	bl	100032b4 <vTaskExitCritical>
100013d2:	2001      	movs	r0, #1
100013d4:	e7cd      	b.n	10001372 <xQueueReceive+0x9e>
100013d6:	6821      	ldr	r1, [r4, #0]
100013d8:	60e1      	str	r1, [r4, #12]
100013da:	e7f0      	b.n	100013be <xQueueReceive+0xea>
100013dc:	0020      	movs	r0, r4
100013de:	3010      	adds	r0, #16
100013e0:	f001 f8fe 	bl	100025e0 <xTaskRemoveFromEventList>
100013e4:	2800      	cmp	r0, #0
100013e6:	d0f2      	beq.n	100013ce <xQueueReceive+0xfa>
100013e8:	f001 faac 	bl	10002944 <vTaskYieldWithinAPI>
100013ec:	e7ef      	b.n	100013ce <xQueueReceive+0xfa>
100013ee:	46c0      	nop			; (mov r8, r8)

100013f0 <vQueueAddToRegistry>:
100013f0:	b570      	push	{r4, r5, r6, lr}
100013f2:	2900      	cmp	r1, #0
100013f4:	d00e      	beq.n	10001414 <vQueueAddToRegistry+0x24>
100013f6:	2600      	movs	r6, #0
100013f8:	2300      	movs	r3, #0
100013fa:	4d37      	ldr	r5, [pc, #220]	; (100014d8 <vQueueAddToRegistry+0xe8>)
100013fc:	00da      	lsls	r2, r3, #3
100013fe:	18ac      	adds	r4, r5, r2
10001400:	6864      	ldr	r4, [r4, #4]
10001402:	4284      	cmp	r4, r0
10001404:	d059      	beq.n	100014ba <vQueueAddToRegistry+0xca>
10001406:	2e00      	cmp	r6, #0
10001408:	d005      	beq.n	10001416 <vQueueAddToRegistry+0x26>
1000140a:	3301      	adds	r3, #1
1000140c:	2b08      	cmp	r3, #8
1000140e:	d1f5      	bne.n	100013fc <vQueueAddToRegistry+0xc>
10001410:	6031      	str	r1, [r6, #0]
10001412:	6070      	str	r0, [r6, #4]
10001414:	bd70      	pop	{r4, r5, r6, pc}
10001416:	58ac      	ldr	r4, [r5, r2]
10001418:	2c00      	cmp	r4, #0
1000141a:	d04b      	beq.n	100014b4 <vQueueAddToRegistry+0xc4>
1000141c:	1c5c      	adds	r4, r3, #1
1000141e:	2b07      	cmp	r3, #7
10001420:	d0f8      	beq.n	10001414 <vQueueAddToRegistry+0x24>
10001422:	00e2      	lsls	r2, r4, #3
10001424:	18ae      	adds	r6, r5, r2
10001426:	6876      	ldr	r6, [r6, #4]
10001428:	42b0      	cmp	r0, r6
1000142a:	d046      	beq.n	100014ba <vQueueAddToRegistry+0xca>
1000142c:	58ae      	ldr	r6, [r5, r2]
1000142e:	2e00      	cmp	r6, #0
10001430:	d047      	beq.n	100014c2 <vQueueAddToRegistry+0xd2>
10001432:	1c9c      	adds	r4, r3, #2
10001434:	2b06      	cmp	r3, #6
10001436:	d0ed      	beq.n	10001414 <vQueueAddToRegistry+0x24>
10001438:	00e2      	lsls	r2, r4, #3
1000143a:	18ae      	adds	r6, r5, r2
1000143c:	6876      	ldr	r6, [r6, #4]
1000143e:	42b0      	cmp	r0, r6
10001440:	d03b      	beq.n	100014ba <vQueueAddToRegistry+0xca>
10001442:	58ae      	ldr	r6, [r5, r2]
10001444:	2e00      	cmp	r6, #0
10001446:	d03c      	beq.n	100014c2 <vQueueAddToRegistry+0xd2>
10001448:	1cdc      	adds	r4, r3, #3
1000144a:	2b05      	cmp	r3, #5
1000144c:	d0e2      	beq.n	10001414 <vQueueAddToRegistry+0x24>
1000144e:	00e2      	lsls	r2, r4, #3
10001450:	18ae      	adds	r6, r5, r2
10001452:	6876      	ldr	r6, [r6, #4]
10001454:	4286      	cmp	r6, r0
10001456:	d030      	beq.n	100014ba <vQueueAddToRegistry+0xca>
10001458:	58ae      	ldr	r6, [r5, r2]
1000145a:	2e00      	cmp	r6, #0
1000145c:	d031      	beq.n	100014c2 <vQueueAddToRegistry+0xd2>
1000145e:	1d1c      	adds	r4, r3, #4
10001460:	2b04      	cmp	r3, #4
10001462:	d0d7      	beq.n	10001414 <vQueueAddToRegistry+0x24>
10001464:	00e2      	lsls	r2, r4, #3
10001466:	18ae      	adds	r6, r5, r2
10001468:	6876      	ldr	r6, [r6, #4]
1000146a:	42b0      	cmp	r0, r6
1000146c:	d025      	beq.n	100014ba <vQueueAddToRegistry+0xca>
1000146e:	58ae      	ldr	r6, [r5, r2]
10001470:	2e00      	cmp	r6, #0
10001472:	d026      	beq.n	100014c2 <vQueueAddToRegistry+0xd2>
10001474:	1d5c      	adds	r4, r3, #5
10001476:	2b03      	cmp	r3, #3
10001478:	d0cc      	beq.n	10001414 <vQueueAddToRegistry+0x24>
1000147a:	00e2      	lsls	r2, r4, #3
1000147c:	18ae      	adds	r6, r5, r2
1000147e:	6876      	ldr	r6, [r6, #4]
10001480:	42b0      	cmp	r0, r6
10001482:	d01a      	beq.n	100014ba <vQueueAddToRegistry+0xca>
10001484:	58ae      	ldr	r6, [r5, r2]
10001486:	2e00      	cmp	r6, #0
10001488:	d01b      	beq.n	100014c2 <vQueueAddToRegistry+0xd2>
1000148a:	1d9a      	adds	r2, r3, #6
1000148c:	2b02      	cmp	r3, #2
1000148e:	d0c1      	beq.n	10001414 <vQueueAddToRegistry+0x24>
10001490:	00d4      	lsls	r4, r2, #3
10001492:	192e      	adds	r6, r5, r4
10001494:	6876      	ldr	r6, [r6, #4]
10001496:	42b0      	cmp	r0, r6
10001498:	d00e      	beq.n	100014b8 <vQueueAddToRegistry+0xc8>
1000149a:	592c      	ldr	r4, [r5, r4]
1000149c:	2c00      	cmp	r4, #0
1000149e:	d013      	beq.n	100014c8 <vQueueAddToRegistry+0xd8>
100014a0:	2b01      	cmp	r3, #1
100014a2:	d0b7      	beq.n	10001414 <vQueueAddToRegistry+0x24>
100014a4:	6beb      	ldr	r3, [r5, #60]	; 0x3c
100014a6:	4298      	cmp	r0, r3
100014a8:	d012      	beq.n	100014d0 <vQueueAddToRegistry+0xe0>
100014aa:	6bab      	ldr	r3, [r5, #56]	; 0x38
100014ac:	2b00      	cmp	r3, #0
100014ae:	d1b1      	bne.n	10001414 <vQueueAddToRegistry+0x24>
100014b0:	2307      	movs	r3, #7
100014b2:	2238      	movs	r2, #56	; 0x38
100014b4:	18ae      	adds	r6, r5, r2
100014b6:	e7a8      	b.n	1000140a <vQueueAddToRegistry+0x1a>
100014b8:	00d2      	lsls	r2, r2, #3
100014ba:	18ae      	adds	r6, r5, r2
100014bc:	6031      	str	r1, [r6, #0]
100014be:	6070      	str	r0, [r6, #4]
100014c0:	e7a8      	b.n	10001414 <vQueueAddToRegistry+0x24>
100014c2:	0023      	movs	r3, r4
100014c4:	18ae      	adds	r6, r5, r2
100014c6:	e7a0      	b.n	1000140a <vQueueAddToRegistry+0x1a>
100014c8:	0013      	movs	r3, r2
100014ca:	00d2      	lsls	r2, r2, #3
100014cc:	18ae      	adds	r6, r5, r2
100014ce:	e79c      	b.n	1000140a <vQueueAddToRegistry+0x1a>
100014d0:	2238      	movs	r2, #56	; 0x38
100014d2:	18ae      	adds	r6, r5, r2
100014d4:	e7f2      	b.n	100014bc <vQueueAddToRegistry+0xcc>
100014d6:	46c0      	nop			; (mov r8, r8)
100014d8:	20000668 	.word	0x20000668

100014dc <vQueueWaitForMessageRestricted>:
100014dc:	b570      	push	{r4, r5, r6, lr}
100014de:	0004      	movs	r4, r0
100014e0:	0016      	movs	r6, r2
100014e2:	000d      	movs	r5, r1
100014e4:	f001 fa42 	bl	1000296c <vTaskEnterCritical>
100014e8:	2244      	movs	r2, #68	; 0x44
100014ea:	5ca3      	ldrb	r3, [r4, r2]
100014ec:	b25b      	sxtb	r3, r3
100014ee:	3301      	adds	r3, #1
100014f0:	d101      	bne.n	100014f6 <vQueueWaitForMessageRestricted+0x1a>
100014f2:	2300      	movs	r3, #0
100014f4:	54a3      	strb	r3, [r4, r2]
100014f6:	2245      	movs	r2, #69	; 0x45
100014f8:	5ca3      	ldrb	r3, [r4, r2]
100014fa:	b25b      	sxtb	r3, r3
100014fc:	3301      	adds	r3, #1
100014fe:	d101      	bne.n	10001504 <vQueueWaitForMessageRestricted+0x28>
10001500:	2300      	movs	r3, #0
10001502:	54a3      	strb	r3, [r4, r2]
10001504:	f001 fed6 	bl	100032b4 <vTaskExitCritical>
10001508:	6ba3      	ldr	r3, [r4, #56]	; 0x38
1000150a:	2b00      	cmp	r3, #0
1000150c:	d003      	beq.n	10001516 <vQueueWaitForMessageRestricted+0x3a>
1000150e:	0020      	movs	r0, r4
10001510:	f7ff fd02 	bl	10000f18 <prvUnlockQueue>
10001514:	bd70      	pop	{r4, r5, r6, pc}
10001516:	0020      	movs	r0, r4
10001518:	0032      	movs	r2, r6
1000151a:	0029      	movs	r1, r5
1000151c:	3024      	adds	r0, #36	; 0x24
1000151e:	f001 f819 	bl	10002554 <vTaskPlaceOnEventListRestricted>
10001522:	e7f4      	b.n	1000150e <vQueueWaitForMessageRestricted+0x32>

10001524 <prvPassiveIdleTask>:
10001524:	b510      	push	{r4, lr}
10001526:	f7ff fa25 	bl	10000974 <vPortYield>
1000152a:	4c05      	ldr	r4, [pc, #20]	; (10001540 <prvPassiveIdleTask+0x1c>)
1000152c:	6823      	ldr	r3, [r4, #0]
1000152e:	2b02      	cmp	r3, #2
10001530:	d800      	bhi.n	10001534 <prvPassiveIdleTask+0x10>
10001532:	e7fe      	b.n	10001532 <prvPassiveIdleTask+0xe>
10001534:	f7ff fa1e 	bl	10000974 <vPortYield>
10001538:	6823      	ldr	r3, [r4, #0]
1000153a:	2b02      	cmp	r3, #2
1000153c:	d8fa      	bhi.n	10001534 <prvPassiveIdleTask+0x10>
1000153e:	e7f8      	b.n	10001532 <prvPassiveIdleTask+0xe>
10001540:	20000778 	.word	0x20000778

10001544 <prvYieldForTask>:
10001544:	6b83      	ldr	r3, [r0, #56]	; 0x38
10001546:	b570      	push	{r4, r5, r6, lr}
10001548:	2b00      	cmp	r3, #0
1000154a:	db02      	blt.n	10001552 <prvYieldForTask+0xe>
1000154c:	6b83      	ldr	r3, [r0, #56]	; 0x38
1000154e:	2b01      	cmp	r3, #1
10001550:	dd2f      	ble.n	100015b2 <prvYieldForTask+0x6e>
10001552:	2601      	movs	r6, #1
10001554:	4c29      	ldr	r4, [pc, #164]	; (100015fc <prvYieldForTask+0xb8>)
10001556:	6b03      	ldr	r3, [r0, #48]	; 0x30
10001558:	1e5a      	subs	r2, r3, #1
1000155a:	6823      	ldr	r3, [r4, #0]
1000155c:	6b19      	ldr	r1, [r3, #48]	; 0x30
1000155e:	6823      	ldr	r3, [r4, #0]
10001560:	6bdb      	ldr	r3, [r3, #60]	; 0x3c
10001562:	4033      	ands	r3, r6
10001564:	1ac9      	subs	r1, r1, r3
10001566:	6823      	ldr	r3, [r4, #0]
10001568:	6b9b      	ldr	r3, [r3, #56]	; 0x38
1000156a:	2b00      	cmp	r3, #0
1000156c:	db03      	blt.n	10001576 <prvYieldForTask+0x32>
1000156e:	6823      	ldr	r3, [r4, #0]
10001570:	6b9b      	ldr	r3, [r3, #56]	; 0x38
10001572:	2b01      	cmp	r3, #1
10001574:	dd1e      	ble.n	100015b4 <prvYieldForTask+0x70>
10001576:	2501      	movs	r5, #1
10001578:	426d      	negs	r5, r5
1000157a:	2601      	movs	r6, #1
1000157c:	6863      	ldr	r3, [r4, #4]
1000157e:	6b19      	ldr	r1, [r3, #48]	; 0x30
10001580:	6863      	ldr	r3, [r4, #4]
10001582:	6bdb      	ldr	r3, [r3, #60]	; 0x3c
10001584:	4033      	ands	r3, r6
10001586:	1ac9      	subs	r1, r1, r3
10001588:	6863      	ldr	r3, [r4, #4]
1000158a:	6b9b      	ldr	r3, [r3, #56]	; 0x38
1000158c:	2b00      	cmp	r3, #0
1000158e:	db03      	blt.n	10001598 <prvYieldForTask+0x54>
10001590:	6863      	ldr	r3, [r4, #4]
10001592:	6b9b      	ldr	r3, [r3, #56]	; 0x38
10001594:	2b01      	cmp	r3, #1
10001596:	dd18      	ble.n	100015ca <prvYieldForTask+0x86>
10001598:	2000      	movs	r0, #0
1000159a:	1c6b      	adds	r3, r5, #1
1000159c:	d009      	beq.n	100015b2 <prvYieldForTask+0x6e>
1000159e:	23d0      	movs	r3, #208	; 0xd0
100015a0:	061b      	lsls	r3, r3, #24
100015a2:	681b      	ldr	r3, [r3, #0]
100015a4:	4298      	cmp	r0, r3
100015a6:	d023      	beq.n	100015f0 <prvYieldForTask+0xac>
100015a8:	0085      	lsls	r5, r0, #2
100015aa:	5963      	ldr	r3, [r4, r5]
100015ac:	6b9b      	ldr	r3, [r3, #56]	; 0x38
100015ae:	3302      	adds	r3, #2
100015b0:	d117      	bne.n	100015e2 <prvYieldForTask+0x9e>
100015b2:	bd70      	pop	{r4, r5, r6, pc}
100015b4:	4b12      	ldr	r3, [pc, #72]	; (10001600 <prvYieldForTask+0xbc>)
100015b6:	681d      	ldr	r5, [r3, #0]
100015b8:	2d00      	cmp	r5, #0
100015ba:	d1dc      	bne.n	10001576 <prvYieldForTask+0x32>
100015bc:	428a      	cmp	r2, r1
100015be:	dbda      	blt.n	10001576 <prvYieldForTask+0x32>
100015c0:	6843      	ldr	r3, [r0, #4]
100015c2:	4233      	tst	r3, r6
100015c4:	d0d7      	beq.n	10001576 <prvYieldForTask+0x32>
100015c6:	000a      	movs	r2, r1
100015c8:	e7d7      	b.n	1000157a <prvYieldForTask+0x36>
100015ca:	4b0d      	ldr	r3, [pc, #52]	; (10001600 <prvYieldForTask+0xbc>)
100015cc:	685b      	ldr	r3, [r3, #4]
100015ce:	2b00      	cmp	r3, #0
100015d0:	d1e2      	bne.n	10001598 <prvYieldForTask+0x54>
100015d2:	4291      	cmp	r1, r2
100015d4:	dce0      	bgt.n	10001598 <prvYieldForTask+0x54>
100015d6:	6843      	ldr	r3, [r0, #4]
100015d8:	085b      	lsrs	r3, r3, #1
100015da:	421e      	tst	r6, r3
100015dc:	d0dc      	beq.n	10001598 <prvYieldForTask+0x54>
100015de:	2001      	movs	r0, #1
100015e0:	e7dd      	b.n	1000159e <prvYieldForTask+0x5a>
100015e2:	f7ff f9f3 	bl	100009cc <vYieldCore>
100015e6:	2202      	movs	r2, #2
100015e8:	5963      	ldr	r3, [r4, r5]
100015ea:	4252      	negs	r2, r2
100015ec:	639a      	str	r2, [r3, #56]	; 0x38
100015ee:	e7e0      	b.n	100015b2 <prvYieldForTask+0x6e>
100015f0:	2201      	movs	r2, #1
100015f2:	4b03      	ldr	r3, [pc, #12]	; (10001600 <prvYieldForTask+0xbc>)
100015f4:	0080      	lsls	r0, r0, #2
100015f6:	50c2      	str	r2, [r0, r3]
100015f8:	e7db      	b.n	100015b2 <prvYieldForTask+0x6e>
100015fa:	46c0      	nop			; (mov r8, r8)
100015fc:	2000075c 	.word	0x2000075c
10001600:	20020b0c 	.word	0x20020b0c

10001604 <prvAddCurrentTaskToDelayedList>:
10001604:	b5f0      	push	{r4, r5, r6, r7, lr}
10001606:	46d6      	mov	lr, sl
10001608:	464f      	mov	r7, r9
1000160a:	4646      	mov	r6, r8
1000160c:	4b48      	ldr	r3, [pc, #288]	; (10001730 <prvAddCurrentTaskToDelayedList+0x12c>)
1000160e:	b5c0      	push	{r6, r7, lr}
10001610:	681b      	ldr	r3, [r3, #0]
10001612:	0004      	movs	r4, r0
10001614:	4698      	mov	r8, r3
10001616:	4b47      	ldr	r3, [pc, #284]	; (10001734 <prvAddCurrentTaskToDelayedList+0x130>)
10001618:	000f      	movs	r7, r1
1000161a:	681b      	ldr	r3, [r3, #0]
1000161c:	4699      	mov	r9, r3
1000161e:	4b46      	ldr	r3, [pc, #280]	; (10001738 <prvAddCurrentTaskToDelayedList+0x134>)
10001620:	681b      	ldr	r3, [r3, #0]
10001622:	469a      	mov	sl, r3
10001624:	f3ef 8110 	mrs	r1, PRIMASK
10001628:	b672      	cpsid	i
1000162a:	26d0      	movs	r6, #208	; 0xd0
1000162c:	0636      	lsls	r6, r6, #24
1000162e:	6833      	ldr	r3, [r6, #0]
10001630:	4d42      	ldr	r5, [pc, #264]	; (1000173c <prvAddCurrentTaskToDelayedList+0x138>)
10001632:	009b      	lsls	r3, r3, #2
10001634:	58ea      	ldr	r2, [r5, r3]
10001636:	f381 8810 	msr	PRIMASK, r1
1000163a:	2379      	movs	r3, #121	; 0x79
1000163c:	2100      	movs	r1, #0
1000163e:	54d1      	strb	r1, [r2, r3]
10001640:	f3ef 8210 	mrs	r2, PRIMASK
10001644:	b672      	cpsid	i
10001646:	6833      	ldr	r3, [r6, #0]
10001648:	009b      	lsls	r3, r3, #2
1000164a:	58e8      	ldr	r0, [r5, r3]
1000164c:	f382 8810 	msr	PRIMASK, r2
10001650:	3008      	adds	r0, #8
10001652:	f7ff fc51 	bl	10000ef8 <uxListRemove>
10001656:	1c63      	adds	r3, r4, #1
10001658:	d030      	beq.n	100016bc <prvAddCurrentTaskToDelayedList+0xb8>
1000165a:	4444      	add	r4, r8
1000165c:	f3ef 8110 	mrs	r1, PRIMASK
10001660:	b672      	cpsid	i
10001662:	22d0      	movs	r2, #208	; 0xd0
10001664:	0612      	lsls	r2, r2, #24
10001666:	6813      	ldr	r3, [r2, #0]
10001668:	009b      	lsls	r3, r3, #2
1000166a:	58eb      	ldr	r3, [r5, r3]
1000166c:	f381 8810 	msr	PRIMASK, r1
10001670:	609c      	str	r4, [r3, #8]
10001672:	45a0      	cmp	r8, r4
10001674:	d815      	bhi.n	100016a2 <prvAddCurrentTaskToDelayedList+0x9e>
10001676:	f3ef 8010 	mrs	r0, PRIMASK
1000167a:	b672      	cpsid	i
1000167c:	6813      	ldr	r3, [r2, #0]
1000167e:	009b      	lsls	r3, r3, #2
10001680:	58e9      	ldr	r1, [r5, r3]
10001682:	f380 8810 	msr	PRIMASK, r0
10001686:	4648      	mov	r0, r9
10001688:	3108      	adds	r1, #8
1000168a:	f7ff fc1d 	bl	10000ec8 <vListInsert>
1000168e:	4b2c      	ldr	r3, [pc, #176]	; (10001740 <prvAddCurrentTaskToDelayedList+0x13c>)
10001690:	681a      	ldr	r2, [r3, #0]
10001692:	42a2      	cmp	r2, r4
10001694:	d900      	bls.n	10001698 <prvAddCurrentTaskToDelayedList+0x94>
10001696:	601c      	str	r4, [r3, #0]
10001698:	bce0      	pop	{r5, r6, r7}
1000169a:	46ba      	mov	sl, r7
1000169c:	46b1      	mov	r9, r6
1000169e:	46a8      	mov	r8, r5
100016a0:	bdf0      	pop	{r4, r5, r6, r7, pc}
100016a2:	f3ef 8010 	mrs	r0, PRIMASK
100016a6:	b672      	cpsid	i
100016a8:	6813      	ldr	r3, [r2, #0]
100016aa:	009b      	lsls	r3, r3, #2
100016ac:	58e9      	ldr	r1, [r5, r3]
100016ae:	f380 8810 	msr	PRIMASK, r0
100016b2:	4650      	mov	r0, sl
100016b4:	3108      	adds	r1, #8
100016b6:	f7ff fc07 	bl	10000ec8 <vListInsert>
100016ba:	e7ed      	b.n	10001698 <prvAddCurrentTaskToDelayedList+0x94>
100016bc:	2f00      	cmp	r7, #0
100016be:	d0cc      	beq.n	1000165a <prvAddCurrentTaskToDelayedList+0x56>
100016c0:	4b20      	ldr	r3, [pc, #128]	; (10001744 <prvAddCurrentTaskToDelayedList+0x140>)
100016c2:	685a      	ldr	r2, [r3, #4]
100016c4:	f3ef 8010 	mrs	r0, PRIMASK
100016c8:	b672      	cpsid	i
100016ca:	6831      	ldr	r1, [r6, #0]
100016cc:	0089      	lsls	r1, r1, #2
100016ce:	5869      	ldr	r1, [r5, r1]
100016d0:	f380 8810 	msr	PRIMASK, r0
100016d4:	60ca      	str	r2, [r1, #12]
100016d6:	f3ef 8010 	mrs	r0, PRIMASK
100016da:	b672      	cpsid	i
100016dc:	6831      	ldr	r1, [r6, #0]
100016de:	0089      	lsls	r1, r1, #2
100016e0:	5869      	ldr	r1, [r5, r1]
100016e2:	f380 8810 	msr	PRIMASK, r0
100016e6:	6890      	ldr	r0, [r2, #8]
100016e8:	6108      	str	r0, [r1, #16]
100016ea:	f3ef 8010 	mrs	r0, PRIMASK
100016ee:	b672      	cpsid	i
100016f0:	6831      	ldr	r1, [r6, #0]
100016f2:	0089      	lsls	r1, r1, #2
100016f4:	5869      	ldr	r1, [r5, r1]
100016f6:	f380 8810 	msr	PRIMASK, r0
100016fa:	6890      	ldr	r0, [r2, #8]
100016fc:	3108      	adds	r1, #8
100016fe:	6041      	str	r1, [r0, #4]
10001700:	f3ef 8010 	mrs	r0, PRIMASK
10001704:	b672      	cpsid	i
10001706:	6831      	ldr	r1, [r6, #0]
10001708:	0089      	lsls	r1, r1, #2
1000170a:	5869      	ldr	r1, [r5, r1]
1000170c:	f380 8810 	msr	PRIMASK, r0
10001710:	3108      	adds	r1, #8
10001712:	6091      	str	r1, [r2, #8]
10001714:	f3ef 8110 	mrs	r1, PRIMASK
10001718:	b672      	cpsid	i
1000171a:	6832      	ldr	r2, [r6, #0]
1000171c:	0092      	lsls	r2, r2, #2
1000171e:	58aa      	ldr	r2, [r5, r2]
10001720:	f381 8810 	msr	PRIMASK, r1
10001724:	6193      	str	r3, [r2, #24]
10001726:	681a      	ldr	r2, [r3, #0]
10001728:	3201      	adds	r2, #1
1000172a:	601a      	str	r2, [r3, #0]
1000172c:	e7b4      	b.n	10001698 <prvAddCurrentTaskToDelayedList+0x94>
1000172e:	46c0      	nop			; (mov r8, r8)
10001730:	20020b00 	.word	0x20020b00
10001734:	20000768 	.word	0x20000768
10001738:	20000770 	.word	0x20000770
1000173c:	2000075c 	.word	0x2000075c
10001740:	20020aa4 	.word	0x20020aa4
10001744:	20020ad8 	.word	0x20020ad8

10001748 <vTaskExitCritical.part.0>:
10001748:	20d0      	movs	r0, #208	; 0xd0
1000174a:	0600      	lsls	r0, r0, #24
1000174c:	6803      	ldr	r3, [r0, #0]
1000174e:	491d      	ldr	r1, [pc, #116]	; (100017c4 <vTaskExitCritical.part.0+0x7c>)
10001750:	009b      	lsls	r3, r3, #2
10001752:	585a      	ldr	r2, [r3, r1]
10001754:	b570      	push	{r4, r5, r6, lr}
10001756:	2a00      	cmp	r2, #0
10001758:	d02f      	beq.n	100017ba <vTaskExitCritical.part.0+0x72>
1000175a:	3a01      	subs	r2, #1
1000175c:	505a      	str	r2, [r3, r1]
1000175e:	6800      	ldr	r0, [r0, #0]
10001760:	0083      	lsls	r3, r0, #2
10001762:	585a      	ldr	r2, [r3, r1]
10001764:	2a00      	cmp	r2, #0
10001766:	d128      	bne.n	100017ba <vTaskExitCritical.part.0+0x72>
10001768:	4a17      	ldr	r2, [pc, #92]	; (100017c8 <vTaskExitCritical.part.0+0x80>)
1000176a:	589c      	ldr	r4, [r3, r2]
1000176c:	4a17      	ldr	r2, [pc, #92]	; (100017cc <vTaskExitCritical.part.0+0x84>)
1000176e:	7813      	ldrb	r3, [r2, #0]
10001770:	3b01      	subs	r3, #1
10001772:	b2db      	uxtb	r3, r3
10001774:	7013      	strb	r3, [r2, #0]
10001776:	2b00      	cmp	r3, #0
10001778:	d108      	bne.n	1000178c <vTaskExitCritical.part.0+0x44>
1000177a:	2101      	movs	r1, #1
1000177c:	4d14      	ldr	r5, [pc, #80]	; (100017d0 <vTaskExitCritical.part.0+0x88>)
1000177e:	5c2b      	ldrb	r3, [r5, r0]
10001780:	438b      	bics	r3, r1
10001782:	542b      	strb	r3, [r5, r0]
10001784:	f3bf 8f5f 	dmb	sy
10001788:	4b12      	ldr	r3, [pc, #72]	; (100017d4 <vTaskExitCritical.part.0+0x8c>)
1000178a:	6019      	str	r1, [r3, #0]
1000178c:	23d0      	movs	r3, #208	; 0xd0
1000178e:	061b      	lsls	r3, r3, #24
10001790:	6819      	ldr	r1, [r3, #0]
10001792:	7853      	ldrb	r3, [r2, #1]
10001794:	3b01      	subs	r3, #1
10001796:	b2db      	uxtb	r3, r3
10001798:	7053      	strb	r3, [r2, #1]
1000179a:	2b00      	cmp	r3, #0
1000179c:	d109      	bne.n	100017b2 <vTaskExitCritical.part.0+0x6a>
1000179e:	2002      	movs	r0, #2
100017a0:	4a0b      	ldr	r2, [pc, #44]	; (100017d0 <vTaskExitCritical.part.0+0x88>)
100017a2:	5c53      	ldrb	r3, [r2, r1]
100017a4:	4383      	bics	r3, r0
100017a6:	5453      	strb	r3, [r2, r1]
100017a8:	f3bf 8f5f 	dmb	sy
100017ac:	2201      	movs	r2, #1
100017ae:	4b0a      	ldr	r3, [pc, #40]	; (100017d8 <vTaskExitCritical.part.0+0x90>)
100017b0:	601a      	str	r2, [r3, #0]
100017b2:	f7ff f8eb 	bl	1000098c <vPortEnableInterrupts>
100017b6:	2c00      	cmp	r4, #0
100017b8:	d100      	bne.n	100017bc <vTaskExitCritical.part.0+0x74>
100017ba:	bd70      	pop	{r4, r5, r6, pc}
100017bc:	f7ff f8da 	bl	10000974 <vPortYield>
100017c0:	e7fb      	b.n	100017ba <vTaskExitCritical.part.0+0x72>
100017c2:	46c0      	nop			; (mov r8, r8)
100017c4:	20020a20 	.word	0x20020a20
100017c8:	20020b0c 	.word	0x20020b0c
100017cc:	20020a14 	.word	0x20020a14
100017d0:	20020a10 	.word	0x20020a10
100017d4:	d0000138 	.word	0xd0000138
100017d8:	d000013c 	.word	0xd000013c

100017dc <prvCheckForRunStateChange>:
100017dc:	23d0      	movs	r3, #208	; 0xd0
100017de:	b5f0      	push	{r4, r5, r6, r7, lr}
100017e0:	464f      	mov	r7, r9
100017e2:	46d6      	mov	lr, sl
100017e4:	4646      	mov	r6, r8
100017e6:	061b      	lsls	r3, r3, #24
100017e8:	681b      	ldr	r3, [r3, #0]
100017ea:	4a4b      	ldr	r2, [pc, #300]	; (10001918 <prvCheckForRunStateChange+0x13c>)
100017ec:	009b      	lsls	r3, r3, #2
100017ee:	589b      	ldr	r3, [r3, r2]
100017f0:	b5c0      	push	{r6, r7, lr}
100017f2:	4699      	mov	r9, r3
100017f4:	4b49      	ldr	r3, [pc, #292]	; (1000191c <prvCheckForRunStateChange+0x140>)
100017f6:	4f4a      	ldr	r7, [pc, #296]	; (10001920 <prvCheckForRunStateChange+0x144>)
100017f8:	4698      	mov	r8, r3
100017fa:	4b4a      	ldr	r3, [pc, #296]	; (10001924 <prvCheckForRunStateChange+0x148>)
100017fc:	469a      	mov	sl, r3
100017fe:	e038      	b.n	10001872 <prvCheckForRunStateChange+0x96>
10001800:	4d46      	ldr	r5, [pc, #280]	; (1000191c <prvCheckForRunStateChange+0x140>)
10001802:	4c48      	ldr	r4, [pc, #288]	; (10001924 <prvCheckForRunStateChange+0x148>)
10001804:	786b      	ldrb	r3, [r5, #1]
10001806:	3b01      	subs	r3, #1
10001808:	b2db      	uxtb	r3, r3
1000180a:	706b      	strb	r3, [r5, #1]
1000180c:	2b00      	cmp	r3, #0
1000180e:	d108      	bne.n	10001822 <prvCheckForRunStateChange+0x46>
10001810:	2102      	movs	r1, #2
10001812:	5ca3      	ldrb	r3, [r4, r2]
10001814:	438b      	bics	r3, r1
10001816:	54a3      	strb	r3, [r4, r2]
10001818:	f3bf 8f5f 	dmb	sy
1000181c:	2201      	movs	r2, #1
1000181e:	4b42      	ldr	r3, [pc, #264]	; (10001928 <prvCheckForRunStateChange+0x14c>)
10001820:	601a      	str	r2, [r3, #0]
10001822:	f7ff f8b3 	bl	1000098c <vPortEnableInterrupts>
10001826:	b672      	cpsid	i
10001828:	23d0      	movs	r3, #208	; 0xd0
1000182a:	061b      	lsls	r3, r3, #24
1000182c:	681a      	ldr	r2, [r3, #0]
1000182e:	4b3e      	ldr	r3, [pc, #248]	; (10001928 <prvCheckForRunStateChange+0x14c>)
10001830:	6819      	ldr	r1, [r3, #0]
10001832:	2900      	cmp	r1, #0
10001834:	d047      	beq.n	100018c6 <prvCheckForRunStateChange+0xea>
10001836:	f3bf 8f5f 	dmb	sy
1000183a:	2301      	movs	r3, #1
1000183c:	2102      	movs	r1, #2
1000183e:	706b      	strb	r3, [r5, #1]
10001840:	5ca3      	ldrb	r3, [r4, r2]
10001842:	430b      	orrs	r3, r1
10001844:	54a3      	strb	r3, [r4, r2]
10001846:	21d0      	movs	r1, #208	; 0xd0
10001848:	4b38      	ldr	r3, [pc, #224]	; (1000192c <prvCheckForRunStateChange+0x150>)
1000184a:	0609      	lsls	r1, r1, #24
1000184c:	6818      	ldr	r0, [r3, #0]
1000184e:	680a      	ldr	r2, [r1, #0]
10001850:	2800      	cmp	r0, #0
10001852:	d031      	beq.n	100018b8 <prvCheckForRunStateChange+0xdc>
10001854:	f3bf 8f5f 	dmb	sy
10001858:	2301      	movs	r3, #1
1000185a:	2101      	movs	r1, #1
1000185c:	702b      	strb	r3, [r5, #0]
1000185e:	5ca3      	ldrb	r3, [r4, r2]
10001860:	430b      	orrs	r3, r1
10001862:	54a3      	strb	r3, [r4, r2]
10001864:	22d0      	movs	r2, #208	; 0xd0
10001866:	0612      	lsls	r2, r2, #24
10001868:	6813      	ldr	r3, [r2, #0]
1000186a:	009b      	lsls	r3, r3, #2
1000186c:	50fe      	str	r6, [r7, r3]
1000186e:	2e00      	cmp	r6, #0
10001870:	d046      	beq.n	10001900 <prvCheckForRunStateChange+0x124>
10001872:	464b      	mov	r3, r9
10001874:	6b9b      	ldr	r3, [r3, #56]	; 0x38
10001876:	3302      	adds	r3, #2
10001878:	d12c      	bne.n	100018d4 <prvCheckForRunStateChange+0xf8>
1000187a:	21d0      	movs	r1, #208	; 0xd0
1000187c:	0609      	lsls	r1, r1, #24
1000187e:	680a      	ldr	r2, [r1, #0]
10001880:	0093      	lsls	r3, r2, #2
10001882:	58fe      	ldr	r6, [r7, r3]
10001884:	2e00      	cmp	r6, #0
10001886:	d0bb      	beq.n	10001800 <prvCheckForRunStateChange+0x24>
10001888:	2200      	movs	r2, #0
1000188a:	4645      	mov	r5, r8
1000188c:	50fa      	str	r2, [r7, r3]
1000188e:	782b      	ldrb	r3, [r5, #0]
10001890:	680a      	ldr	r2, [r1, #0]
10001892:	3b01      	subs	r3, #1
10001894:	b2db      	uxtb	r3, r3
10001896:	702b      	strb	r3, [r5, #0]
10001898:	2b00      	cmp	r3, #0
1000189a:	d002      	beq.n	100018a2 <prvCheckForRunStateChange+0xc6>
1000189c:	4654      	mov	r4, sl
1000189e:	680a      	ldr	r2, [r1, #0]
100018a0:	e7b0      	b.n	10001804 <prvCheckForRunStateChange+0x28>
100018a2:	4654      	mov	r4, sl
100018a4:	2001      	movs	r0, #1
100018a6:	5ca3      	ldrb	r3, [r4, r2]
100018a8:	4383      	bics	r3, r0
100018aa:	54a3      	strb	r3, [r4, r2]
100018ac:	f3bf 8f5f 	dmb	sy
100018b0:	4b1e      	ldr	r3, [pc, #120]	; (1000192c <prvCheckForRunStateChange+0x150>)
100018b2:	6018      	str	r0, [r3, #0]
100018b4:	680a      	ldr	r2, [r1, #0]
100018b6:	e7a5      	b.n	10001804 <prvCheckForRunStateChange+0x28>
100018b8:	5ca0      	ldrb	r0, [r4, r2]
100018ba:	07c0      	lsls	r0, r0, #31
100018bc:	d40f      	bmi.n	100018de <prvCheckForRunStateChange+0x102>
100018be:	6819      	ldr	r1, [r3, #0]
100018c0:	2900      	cmp	r1, #0
100018c2:	d1c7      	bne.n	10001854 <prvCheckForRunStateChange+0x78>
100018c4:	e7fb      	b.n	100018be <prvCheckForRunStateChange+0xe2>
100018c6:	5ca1      	ldrb	r1, [r4, r2]
100018c8:	0789      	lsls	r1, r1, #30
100018ca:	d415      	bmi.n	100018f8 <prvCheckForRunStateChange+0x11c>
100018cc:	6819      	ldr	r1, [r3, #0]
100018ce:	2900      	cmp	r1, #0
100018d0:	d1b1      	bne.n	10001836 <prvCheckForRunStateChange+0x5a>
100018d2:	e7fb      	b.n	100018cc <prvCheckForRunStateChange+0xf0>
100018d4:	bce0      	pop	{r5, r6, r7}
100018d6:	46ba      	mov	sl, r7
100018d8:	46b1      	mov	r9, r6
100018da:	46a8      	mov	r8, r5
100018dc:	bdf0      	pop	{r4, r5, r6, r7, pc}
100018de:	782a      	ldrb	r2, [r5, #0]
100018e0:	1c53      	adds	r3, r2, #1
100018e2:	702b      	strb	r3, [r5, #0]
100018e4:	680b      	ldr	r3, [r1, #0]
100018e6:	009b      	lsls	r3, r3, #2
100018e8:	50fe      	str	r6, [r7, r3]
100018ea:	2e00      	cmp	r6, #0
100018ec:	d1c1      	bne.n	10001872 <prvCheckForRunStateChange+0x96>
100018ee:	680b      	ldr	r3, [r1, #0]
100018f0:	702a      	strb	r2, [r5, #0]
100018f2:	2a00      	cmp	r2, #0
100018f4:	d1bd      	bne.n	10001872 <prvCheckForRunStateChange+0x96>
100018f6:	e005      	b.n	10001904 <prvCheckForRunStateChange+0x128>
100018f8:	786b      	ldrb	r3, [r5, #1]
100018fa:	3301      	adds	r3, #1
100018fc:	706b      	strb	r3, [r5, #1]
100018fe:	e7a2      	b.n	10001846 <prvCheckForRunStateChange+0x6a>
10001900:	6813      	ldr	r3, [r2, #0]
10001902:	702e      	strb	r6, [r5, #0]
10001904:	2101      	movs	r1, #1
10001906:	5ce2      	ldrb	r2, [r4, r3]
10001908:	438a      	bics	r2, r1
1000190a:	54e2      	strb	r2, [r4, r3]
1000190c:	f3bf 8f5f 	dmb	sy
10001910:	4b06      	ldr	r3, [pc, #24]	; (1000192c <prvCheckForRunStateChange+0x150>)
10001912:	6019      	str	r1, [r3, #0]
10001914:	e7ad      	b.n	10001872 <prvCheckForRunStateChange+0x96>
10001916:	46c0      	nop			; (mov r8, r8)
10001918:	2000075c 	.word	0x2000075c
1000191c:	20020a14 	.word	0x20020a14
10001920:	20020a20 	.word	0x20020a20
10001924:	20020a10 	.word	0x20020a10
10001928:	d000013c 	.word	0xd000013c
1000192c:	d0000138 	.word	0xd0000138

10001930 <vTaskSuspendAll.part.0>:
10001930:	b5f8      	push	{r3, r4, r5, r6, r7, lr}
10001932:	f3ef 8710 	mrs	r7, PRIMASK
10001936:	b672      	cpsid	i
10001938:	23d0      	movs	r3, #208	; 0xd0
1000193a:	061b      	lsls	r3, r3, #24
1000193c:	681a      	ldr	r2, [r3, #0]
1000193e:	4b2d      	ldr	r3, [pc, #180]	; (100019f4 <vTaskSuspendAll.part.0+0xc4>)
10001940:	4c2d      	ldr	r4, [pc, #180]	; (100019f8 <vTaskSuspendAll.part.0+0xc8>)
10001942:	6819      	ldr	r1, [r3, #0]
10001944:	2900      	cmp	r1, #0
10001946:	d03e      	beq.n	100019c6 <vTaskSuspendAll.part.0+0x96>
10001948:	f3bf 8f5f 	dmb	sy
1000194c:	2301      	movs	r3, #1
1000194e:	2102      	movs	r1, #2
10001950:	4d2a      	ldr	r5, [pc, #168]	; (100019fc <vTaskSuspendAll.part.0+0xcc>)
10001952:	706b      	strb	r3, [r5, #1]
10001954:	5ca3      	ldrb	r3, [r4, r2]
10001956:	430b      	orrs	r3, r1
10001958:	54a3      	strb	r3, [r4, r2]
1000195a:	4e29      	ldr	r6, [pc, #164]	; (10001a00 <vTaskSuspendAll.part.0+0xd0>)
1000195c:	6833      	ldr	r3, [r6, #0]
1000195e:	2b00      	cmp	r3, #0
10001960:	d021      	beq.n	100019a6 <vTaskSuspendAll.part.0+0x76>
10001962:	21d0      	movs	r1, #208	; 0xd0
10001964:	4b27      	ldr	r3, [pc, #156]	; (10001a04 <vTaskSuspendAll.part.0+0xd4>)
10001966:	0609      	lsls	r1, r1, #24
10001968:	6818      	ldr	r0, [r3, #0]
1000196a:	680a      	ldr	r2, [r1, #0]
1000196c:	2800      	cmp	r0, #0
1000196e:	d023      	beq.n	100019b8 <vTaskSuspendAll.part.0+0x88>
10001970:	f3bf 8f5f 	dmb	sy
10001974:	2301      	movs	r3, #1
10001976:	2101      	movs	r1, #1
10001978:	702b      	strb	r3, [r5, #0]
1000197a:	5ca3      	ldrb	r3, [r4, r2]
1000197c:	430b      	orrs	r3, r1
1000197e:	54a3      	strb	r3, [r4, r2]
10001980:	6833      	ldr	r3, [r6, #0]
10001982:	2200      	movs	r2, #0
10001984:	3301      	adds	r3, #1
10001986:	6033      	str	r3, [r6, #0]
10001988:	23d0      	movs	r3, #208	; 0xd0
1000198a:	061b      	lsls	r3, r3, #24
1000198c:	681b      	ldr	r3, [r3, #0]
1000198e:	702a      	strb	r2, [r5, #0]
10001990:	2101      	movs	r1, #1
10001992:	5ce2      	ldrb	r2, [r4, r3]
10001994:	438a      	bics	r2, r1
10001996:	54e2      	strb	r2, [r4, r3]
10001998:	f3bf 8f5f 	dmb	sy
1000199c:	4b19      	ldr	r3, [pc, #100]	; (10001a04 <vTaskSuspendAll.part.0+0xd4>)
1000199e:	6019      	str	r1, [r3, #0]
100019a0:	f387 8810 	msr	PRIMASK, r7
100019a4:	bdf8      	pop	{r3, r4, r5, r6, r7, pc}
100019a6:	f7ff ff19 	bl	100017dc <prvCheckForRunStateChange>
100019aa:	21d0      	movs	r1, #208	; 0xd0
100019ac:	4b15      	ldr	r3, [pc, #84]	; (10001a04 <vTaskSuspendAll.part.0+0xd4>)
100019ae:	0609      	lsls	r1, r1, #24
100019b0:	6818      	ldr	r0, [r3, #0]
100019b2:	680a      	ldr	r2, [r1, #0]
100019b4:	2800      	cmp	r0, #0
100019b6:	d1db      	bne.n	10001970 <vTaskSuspendAll.part.0+0x40>
100019b8:	5ca0      	ldrb	r0, [r4, r2]
100019ba:	07c0      	lsls	r0, r0, #31
100019bc:	d40f      	bmi.n	100019de <vTaskSuspendAll.part.0+0xae>
100019be:	6819      	ldr	r1, [r3, #0]
100019c0:	2900      	cmp	r1, #0
100019c2:	d1d5      	bne.n	10001970 <vTaskSuspendAll.part.0+0x40>
100019c4:	e7fb      	b.n	100019be <vTaskSuspendAll.part.0+0x8e>
100019c6:	5ca1      	ldrb	r1, [r4, r2]
100019c8:	0789      	lsls	r1, r1, #30
100019ca:	d403      	bmi.n	100019d4 <vTaskSuspendAll.part.0+0xa4>
100019cc:	6819      	ldr	r1, [r3, #0]
100019ce:	2900      	cmp	r1, #0
100019d0:	d1ba      	bne.n	10001948 <vTaskSuspendAll.part.0+0x18>
100019d2:	e7fb      	b.n	100019cc <vTaskSuspendAll.part.0+0x9c>
100019d4:	4d09      	ldr	r5, [pc, #36]	; (100019fc <vTaskSuspendAll.part.0+0xcc>)
100019d6:	786b      	ldrb	r3, [r5, #1]
100019d8:	3301      	adds	r3, #1
100019da:	706b      	strb	r3, [r5, #1]
100019dc:	e7bd      	b.n	1000195a <vTaskSuspendAll.part.0+0x2a>
100019de:	782a      	ldrb	r2, [r5, #0]
100019e0:	1c53      	adds	r3, r2, #1
100019e2:	702b      	strb	r3, [r5, #0]
100019e4:	6833      	ldr	r3, [r6, #0]
100019e6:	3301      	adds	r3, #1
100019e8:	6033      	str	r3, [r6, #0]
100019ea:	680b      	ldr	r3, [r1, #0]
100019ec:	702a      	strb	r2, [r5, #0]
100019ee:	2a00      	cmp	r2, #0
100019f0:	d1d6      	bne.n	100019a0 <vTaskSuspendAll.part.0+0x70>
100019f2:	e7cd      	b.n	10001990 <vTaskSuspendAll.part.0+0x60>
100019f4:	d000013c 	.word	0xd000013c
100019f8:	20020a10 	.word	0x20020a10
100019fc:	20020a14 	.word	0x20020a14
10001a00:	20020a30 	.word	0x20020a30
10001a04:	d0000138 	.word	0xd0000138

10001a08 <prvCheckTasksWaitingTermination>:
10001a08:	4b4f      	ldr	r3, [pc, #316]	; (10001b48 <prvCheckTasksWaitingTermination+0x140>)
10001a0a:	b5f0      	push	{r4, r5, r6, r7, lr}
10001a0c:	4646      	mov	r6, r8
10001a0e:	46d6      	mov	lr, sl
10001a10:	464f      	mov	r7, r9
10001a12:	4698      	mov	r8, r3
10001a14:	4b4d      	ldr	r3, [pc, #308]	; (10001b4c <prvCheckTasksWaitingTermination+0x144>)
10001a16:	b5c0      	push	{r6, r7, lr}
10001a18:	469a      	mov	sl, r3
10001a1a:	4c4d      	ldr	r4, [pc, #308]	; (10001b50 <prvCheckTasksWaitingTermination+0x148>)
10001a1c:	4d4d      	ldr	r5, [pc, #308]	; (10001b54 <prvCheckTasksWaitingTermination+0x14c>)
10001a1e:	4e4e      	ldr	r6, [pc, #312]	; (10001b58 <prvCheckTasksWaitingTermination+0x150>)
10001a20:	6823      	ldr	r3, [r4, #0]
10001a22:	2b00      	cmp	r3, #0
10001a24:	d035      	beq.n	10001a92 <prvCheckTasksWaitingTermination+0x8a>
10001a26:	b672      	cpsid	i
10001a28:	682b      	ldr	r3, [r5, #0]
10001a2a:	2b00      	cmp	r3, #0
10001a2c:	d00f      	beq.n	10001a4e <prvCheckTasksWaitingTermination+0x46>
10001a2e:	23d0      	movs	r3, #208	; 0xd0
10001a30:	061b      	lsls	r3, r3, #24
10001a32:	6819      	ldr	r1, [r3, #0]
10001a34:	008a      	lsls	r2, r1, #2
10001a36:	58b3      	ldr	r3, [r6, r2]
10001a38:	2b00      	cmp	r3, #0
10001a3a:	d03f      	beq.n	10001abc <prvCheckTasksWaitingTermination+0xb4>
10001a3c:	3301      	adds	r3, #1
10001a3e:	50b3      	str	r3, [r6, r2]
10001a40:	23d0      	movs	r3, #208	; 0xd0
10001a42:	061b      	lsls	r3, r3, #24
10001a44:	681b      	ldr	r3, [r3, #0]
10001a46:	009b      	lsls	r3, r3, #2
10001a48:	58f3      	ldr	r3, [r6, r3]
10001a4a:	2b01      	cmp	r3, #1
10001a4c:	d02f      	beq.n	10001aae <prvCheckTasksWaitingTermination+0xa6>
10001a4e:	6823      	ldr	r3, [r4, #0]
10001a50:	2b00      	cmp	r3, #0
10001a52:	d023      	beq.n	10001a9c <prvCheckTasksWaitingTermination+0x94>
10001a54:	4b41      	ldr	r3, [pc, #260]	; (10001b5c <prvCheckTasksWaitingTermination+0x154>)
10001a56:	68db      	ldr	r3, [r3, #12]
10001a58:	68df      	ldr	r7, [r3, #12]
10001a5a:	6bbb      	ldr	r3, [r7, #56]	; 0x38
10001a5c:	3301      	adds	r3, #1
10001a5e:	d151      	bne.n	10001b04 <prvCheckTasksWaitingTermination+0xfc>
10001a60:	0038      	movs	r0, r7
10001a62:	3008      	adds	r0, #8
10001a64:	f7ff fa48 	bl	10000ef8 <uxListRemove>
10001a68:	4a3d      	ldr	r2, [pc, #244]	; (10001b60 <prvCheckTasksWaitingTermination+0x158>)
10001a6a:	6813      	ldr	r3, [r2, #0]
10001a6c:	3b01      	subs	r3, #1
10001a6e:	6013      	str	r3, [r2, #0]
10001a70:	6823      	ldr	r3, [r4, #0]
10001a72:	3b01      	subs	r3, #1
10001a74:	6023      	str	r3, [r4, #0]
10001a76:	682b      	ldr	r3, [r5, #0]
10001a78:	2b00      	cmp	r3, #0
10001a7a:	d001      	beq.n	10001a80 <prvCheckTasksWaitingTermination+0x78>
10001a7c:	f7ff fe64 	bl	10001748 <vTaskExitCritical.part.0>
10001a80:	6b78      	ldr	r0, [r7, #52]	; 0x34
10001a82:	f7fe fe91 	bl	100007a8 <vPortFree>
10001a86:	0038      	movs	r0, r7
10001a88:	f7fe fe8e 	bl	100007a8 <vPortFree>
10001a8c:	6823      	ldr	r3, [r4, #0]
10001a8e:	2b00      	cmp	r3, #0
10001a90:	d1c9      	bne.n	10001a26 <prvCheckTasksWaitingTermination+0x1e>
10001a92:	bce0      	pop	{r5, r6, r7}
10001a94:	46ba      	mov	sl, r7
10001a96:	46b1      	mov	r9, r6
10001a98:	46a8      	mov	r8, r5
10001a9a:	bdf0      	pop	{r4, r5, r6, r7, pc}
10001a9c:	682b      	ldr	r3, [r5, #0]
10001a9e:	2b00      	cmp	r3, #0
10001aa0:	d0be      	beq.n	10001a20 <prvCheckTasksWaitingTermination+0x18>
10001aa2:	f7ff fe51 	bl	10001748 <vTaskExitCritical.part.0>
10001aa6:	6823      	ldr	r3, [r4, #0]
10001aa8:	2b00      	cmp	r3, #0
10001aaa:	d1bc      	bne.n	10001a26 <prvCheckTasksWaitingTermination+0x1e>
10001aac:	e7f1      	b.n	10001a92 <prvCheckTasksWaitingTermination+0x8a>
10001aae:	4643      	mov	r3, r8
10001ab0:	681b      	ldr	r3, [r3, #0]
10001ab2:	2b00      	cmp	r3, #0
10001ab4:	d1cb      	bne.n	10001a4e <prvCheckTasksWaitingTermination+0x46>
10001ab6:	f7ff fe91 	bl	100017dc <prvCheckForRunStateChange>
10001aba:	e7c8      	b.n	10001a4e <prvCheckTasksWaitingTermination+0x46>
10001abc:	4a29      	ldr	r2, [pc, #164]	; (10001b64 <prvCheckTasksWaitingTermination+0x15c>)
10001abe:	6813      	ldr	r3, [r2, #0]
10001ac0:	2b00      	cmp	r3, #0
10001ac2:	d02c      	beq.n	10001b1e <prvCheckTasksWaitingTermination+0x116>
10001ac4:	4b28      	ldr	r3, [pc, #160]	; (10001b68 <prvCheckTasksWaitingTermination+0x160>)
10001ac6:	f3bf 8f5f 	dmb	sy
10001aca:	2201      	movs	r2, #1
10001acc:	4650      	mov	r0, sl
10001ace:	2702      	movs	r7, #2
10001ad0:	7042      	strb	r2, [r0, #1]
10001ad2:	5c5a      	ldrb	r2, [r3, r1]
10001ad4:	433a      	orrs	r2, r7
10001ad6:	545a      	strb	r2, [r3, r1]
10001ad8:	22d0      	movs	r2, #208	; 0xd0
10001ada:	0612      	lsls	r2, r2, #24
10001adc:	4694      	mov	ip, r2
10001ade:	6811      	ldr	r1, [r2, #0]
10001ae0:	4a22      	ldr	r2, [pc, #136]	; (10001b6c <prvCheckTasksWaitingTermination+0x164>)
10001ae2:	6817      	ldr	r7, [r2, #0]
10001ae4:	2f00      	cmp	r7, #0
10001ae6:	d013      	beq.n	10001b10 <prvCheckTasksWaitingTermination+0x108>
10001ae8:	f3bf 8f5f 	dmb	sy
10001aec:	2201      	movs	r2, #1
10001aee:	7002      	strb	r2, [r0, #0]
10001af0:	2001      	movs	r0, #1
10001af2:	5c5a      	ldrb	r2, [r3, r1]
10001af4:	4302      	orrs	r2, r0
10001af6:	545a      	strb	r2, [r3, r1]
10001af8:	23d0      	movs	r3, #208	; 0xd0
10001afa:	061b      	lsls	r3, r3, #24
10001afc:	6819      	ldr	r1, [r3, #0]
10001afe:	008a      	lsls	r2, r1, #2
10001b00:	58b3      	ldr	r3, [r6, r2]
10001b02:	e79b      	b.n	10001a3c <prvCheckTasksWaitingTermination+0x34>
10001b04:	682b      	ldr	r3, [r5, #0]
10001b06:	2b00      	cmp	r3, #0
10001b08:	d0c3      	beq.n	10001a92 <prvCheckTasksWaitingTermination+0x8a>
10001b0a:	f7ff fe1d 	bl	10001748 <vTaskExitCritical.part.0>
10001b0e:	e7c0      	b.n	10001a92 <prvCheckTasksWaitingTermination+0x8a>
10001b10:	5c5f      	ldrb	r7, [r3, r1]
10001b12:	07ff      	lsls	r7, r7, #31
10001b14:	d410      	bmi.n	10001b38 <prvCheckTasksWaitingTermination+0x130>
10001b16:	6817      	ldr	r7, [r2, #0]
10001b18:	2f00      	cmp	r7, #0
10001b1a:	d1e5      	bne.n	10001ae8 <prvCheckTasksWaitingTermination+0xe0>
10001b1c:	e7fb      	b.n	10001b16 <prvCheckTasksWaitingTermination+0x10e>
10001b1e:	4b12      	ldr	r3, [pc, #72]	; (10001b68 <prvCheckTasksWaitingTermination+0x160>)
10001b20:	5c58      	ldrb	r0, [r3, r1]
10001b22:	0780      	lsls	r0, r0, #30
10001b24:	d403      	bmi.n	10001b2e <prvCheckTasksWaitingTermination+0x126>
10001b26:	6810      	ldr	r0, [r2, #0]
10001b28:	2800      	cmp	r0, #0
10001b2a:	d1cc      	bne.n	10001ac6 <prvCheckTasksWaitingTermination+0xbe>
10001b2c:	e7fb      	b.n	10001b26 <prvCheckTasksWaitingTermination+0x11e>
10001b2e:	4807      	ldr	r0, [pc, #28]	; (10001b4c <prvCheckTasksWaitingTermination+0x144>)
10001b30:	7842      	ldrb	r2, [r0, #1]
10001b32:	3201      	adds	r2, #1
10001b34:	7042      	strb	r2, [r0, #1]
10001b36:	e7cf      	b.n	10001ad8 <prvCheckTasksWaitingTermination+0xd0>
10001b38:	7803      	ldrb	r3, [r0, #0]
10001b3a:	3301      	adds	r3, #1
10001b3c:	7003      	strb	r3, [r0, #0]
10001b3e:	4663      	mov	r3, ip
10001b40:	6819      	ldr	r1, [r3, #0]
10001b42:	008a      	lsls	r2, r1, #2
10001b44:	58b3      	ldr	r3, [r6, r2]
10001b46:	e779      	b.n	10001a3c <prvCheckTasksWaitingTermination+0x34>
10001b48:	20020a30 	.word	0x20020a30
10001b4c:	20020a14 	.word	0x20020a14
10001b50:	20020a2c 	.word	0x20020a2c
10001b54:	20020acc 	.word	0x20020acc
10001b58:	20020a20 	.word	0x20020a20
10001b5c:	20020aec 	.word	0x20020aec
10001b60:	20020a28 	.word	0x20020a28
10001b64:	d000013c 	.word	0xd000013c
10001b68:	20020a10 	.word	0x20020a10
10001b6c:	d0000138 	.word	0xd0000138

10001b70 <prvIdleTask>:
10001b70:	b510      	push	{r4, lr}
10001b72:	f7fe feff 	bl	10000974 <vPortYield>
10001b76:	4c04      	ldr	r4, [pc, #16]	; (10001b88 <prvIdleTask+0x18>)
10001b78:	f7ff ff46 	bl	10001a08 <prvCheckTasksWaitingTermination>
10001b7c:	6823      	ldr	r3, [r4, #0]
10001b7e:	2b02      	cmp	r3, #2
10001b80:	d9fa      	bls.n	10001b78 <prvIdleTask+0x8>
10001b82:	f7fe fef7 	bl	10000974 <vPortYield>
10001b86:	e7f7      	b.n	10001b78 <prvIdleTask+0x8>
10001b88:	20000778 	.word	0x20000778

10001b8c <vTaskCoreAffinitySet>:
10001b8c:	b5f8      	push	{r3, r4, r5, r6, r7, lr}
10001b8e:	46ce      	mov	lr, r9
10001b90:	4647      	mov	r7, r8
10001b92:	0004      	movs	r4, r0
10001b94:	000d      	movs	r5, r1
10001b96:	b580      	push	{r7, lr}
10001b98:	b672      	cpsid	i
10001b9a:	4e54      	ldr	r6, [pc, #336]	; (10001cec <vTaskCoreAffinitySet+0x160>)
10001b9c:	6833      	ldr	r3, [r6, #0]
10001b9e:	2b00      	cmp	r3, #0
10001ba0:	d010      	beq.n	10001bc4 <vTaskCoreAffinitySet+0x38>
10001ba2:	23d0      	movs	r3, #208	; 0xd0
10001ba4:	061b      	lsls	r3, r3, #24
10001ba6:	6818      	ldr	r0, [r3, #0]
10001ba8:	4a51      	ldr	r2, [pc, #324]	; (10001cf0 <vTaskCoreAffinitySet+0x164>)
10001baa:	0081      	lsls	r1, r0, #2
10001bac:	5853      	ldr	r3, [r2, r1]
10001bae:	2b00      	cmp	r3, #0
10001bb0:	d034      	beq.n	10001c1c <vTaskCoreAffinitySet+0x90>
10001bb2:	3301      	adds	r3, #1
10001bb4:	5053      	str	r3, [r2, r1]
10001bb6:	23d0      	movs	r3, #208	; 0xd0
10001bb8:	061b      	lsls	r3, r3, #24
10001bba:	681b      	ldr	r3, [r3, #0]
10001bbc:	009b      	lsls	r3, r3, #2
10001bbe:	58d3      	ldr	r3, [r2, r3]
10001bc0:	2b01      	cmp	r3, #1
10001bc2:	d024      	beq.n	10001c0e <vTaskCoreAffinitySet+0x82>
10001bc4:	2c00      	cmp	r4, #0
10001bc6:	d016      	beq.n	10001bf6 <vTaskCoreAffinitySet+0x6a>
10001bc8:	6833      	ldr	r3, [r6, #0]
10001bca:	6862      	ldr	r2, [r4, #4]
10001bcc:	6065      	str	r5, [r4, #4]
10001bce:	2b00      	cmp	r3, #0
10001bd0:	d008      	beq.n	10001be4 <vTaskCoreAffinitySet+0x58>
10001bd2:	6ba3      	ldr	r3, [r4, #56]	; 0x38
10001bd4:	2b00      	cmp	r3, #0
10001bd6:	db02      	blt.n	10001bde <vTaskCoreAffinitySet+0x52>
10001bd8:	6ba3      	ldr	r3, [r4, #56]	; 0x38
10001bda:	2b01      	cmp	r3, #1
10001bdc:	dd4b      	ble.n	10001c76 <vTaskCoreAffinitySet+0xea>
10001bde:	4395      	bics	r5, r2
10001be0:	07ab      	lsls	r3, r5, #30
10001be2:	d144      	bne.n	10001c6e <vTaskCoreAffinitySet+0xe2>
10001be4:	6833      	ldr	r3, [r6, #0]
10001be6:	2b00      	cmp	r3, #0
10001be8:	d001      	beq.n	10001bee <vTaskCoreAffinitySet+0x62>
10001bea:	f7ff fdad 	bl	10001748 <vTaskExitCritical.part.0>
10001bee:	bcc0      	pop	{r6, r7}
10001bf0:	46b9      	mov	r9, r7
10001bf2:	46b0      	mov	r8, r6
10001bf4:	bdf8      	pop	{r3, r4, r5, r6, r7, pc}
10001bf6:	f3ef 8210 	mrs	r2, PRIMASK
10001bfa:	b672      	cpsid	i
10001bfc:	23d0      	movs	r3, #208	; 0xd0
10001bfe:	061b      	lsls	r3, r3, #24
10001c00:	681b      	ldr	r3, [r3, #0]
10001c02:	493c      	ldr	r1, [pc, #240]	; (10001cf4 <vTaskCoreAffinitySet+0x168>)
10001c04:	009b      	lsls	r3, r3, #2
10001c06:	585c      	ldr	r4, [r3, r1]
10001c08:	f382 8810 	msr	PRIMASK, r2
10001c0c:	e7dc      	b.n	10001bc8 <vTaskCoreAffinitySet+0x3c>
10001c0e:	4b3a      	ldr	r3, [pc, #232]	; (10001cf8 <vTaskCoreAffinitySet+0x16c>)
10001c10:	681b      	ldr	r3, [r3, #0]
10001c12:	2b00      	cmp	r3, #0
10001c14:	d1d6      	bne.n	10001bc4 <vTaskCoreAffinitySet+0x38>
10001c16:	f7ff fde1 	bl	100017dc <prvCheckForRunStateChange>
10001c1a:	e7d3      	b.n	10001bc4 <vTaskCoreAffinitySet+0x38>
10001c1c:	4937      	ldr	r1, [pc, #220]	; (10001cfc <vTaskCoreAffinitySet+0x170>)
10001c1e:	680b      	ldr	r3, [r1, #0]
10001c20:	2b00      	cmp	r3, #0
10001c22:	d04a      	beq.n	10001cba <vTaskCoreAffinitySet+0x12e>
10001c24:	4b36      	ldr	r3, [pc, #216]	; (10001d00 <vTaskCoreAffinitySet+0x174>)
10001c26:	f3bf 8f5f 	dmb	sy
10001c2a:	4936      	ldr	r1, [pc, #216]	; (10001d04 <vTaskCoreAffinitySet+0x178>)
10001c2c:	4689      	mov	r9, r1
10001c2e:	2101      	movs	r1, #1
10001c30:	464f      	mov	r7, r9
10001c32:	7079      	strb	r1, [r7, #1]
10001c34:	2702      	movs	r7, #2
10001c36:	46bc      	mov	ip, r7
10001c38:	4667      	mov	r7, ip
10001c3a:	5c19      	ldrb	r1, [r3, r0]
10001c3c:	4339      	orrs	r1, r7
10001c3e:	5419      	strb	r1, [r3, r0]
10001c40:	21d0      	movs	r1, #208	; 0xd0
10001c42:	0609      	lsls	r1, r1, #24
10001c44:	468c      	mov	ip, r1
10001c46:	6808      	ldr	r0, [r1, #0]
10001c48:	492f      	ldr	r1, [pc, #188]	; (10001d08 <vTaskCoreAffinitySet+0x17c>)
10001c4a:	680f      	ldr	r7, [r1, #0]
10001c4c:	2f00      	cmp	r7, #0
10001c4e:	d02d      	beq.n	10001cac <vTaskCoreAffinitySet+0x120>
10001c50:	f3bf 8f5f 	dmb	sy
10001c54:	2101      	movs	r1, #1
10001c56:	464f      	mov	r7, r9
10001c58:	7039      	strb	r1, [r7, #0]
10001c5a:	2701      	movs	r7, #1
10001c5c:	5c19      	ldrb	r1, [r3, r0]
10001c5e:	4339      	orrs	r1, r7
10001c60:	5419      	strb	r1, [r3, r0]
10001c62:	23d0      	movs	r3, #208	; 0xd0
10001c64:	061b      	lsls	r3, r3, #24
10001c66:	6818      	ldr	r0, [r3, #0]
10001c68:	0081      	lsls	r1, r0, #2
10001c6a:	5853      	ldr	r3, [r2, r1]
10001c6c:	e7a1      	b.n	10001bb2 <vTaskCoreAffinitySet+0x26>
10001c6e:	0020      	movs	r0, r4
10001c70:	f7ff fc68 	bl	10001544 <prvYieldForTask>
10001c74:	e7b6      	b.n	10001be4 <vTaskCoreAffinitySet+0x58>
10001c76:	6ba0      	ldr	r0, [r4, #56]	; 0x38
10001c78:	2301      	movs	r3, #1
10001c7a:	40c5      	lsrs	r5, r0
10001c7c:	422b      	tst	r3, r5
10001c7e:	d1b1      	bne.n	10001be4 <vTaskCoreAffinitySet+0x58>
10001c80:	22d0      	movs	r2, #208	; 0xd0
10001c82:	0612      	lsls	r2, r2, #24
10001c84:	6812      	ldr	r2, [r2, #0]
10001c86:	4290      	cmp	r0, r2
10001c88:	d00c      	beq.n	10001ca4 <vTaskCoreAffinitySet+0x118>
10001c8a:	4c1a      	ldr	r4, [pc, #104]	; (10001cf4 <vTaskCoreAffinitySet+0x168>)
10001c8c:	0085      	lsls	r5, r0, #2
10001c8e:	592b      	ldr	r3, [r5, r4]
10001c90:	6b9b      	ldr	r3, [r3, #56]	; 0x38
10001c92:	3302      	adds	r3, #2
10001c94:	d0a6      	beq.n	10001be4 <vTaskCoreAffinitySet+0x58>
10001c96:	f7fe fe99 	bl	100009cc <vYieldCore>
10001c9a:	2202      	movs	r2, #2
10001c9c:	592b      	ldr	r3, [r5, r4]
10001c9e:	4252      	negs	r2, r2
10001ca0:	639a      	str	r2, [r3, #56]	; 0x38
10001ca2:	e79f      	b.n	10001be4 <vTaskCoreAffinitySet+0x58>
10001ca4:	4a19      	ldr	r2, [pc, #100]	; (10001d0c <vTaskCoreAffinitySet+0x180>)
10001ca6:	0080      	lsls	r0, r0, #2
10001ca8:	5083      	str	r3, [r0, r2]
10001caa:	e79b      	b.n	10001be4 <vTaskCoreAffinitySet+0x58>
10001cac:	5c1f      	ldrb	r7, [r3, r0]
10001cae:	07ff      	lsls	r7, r7, #31
10001cb0:	d40b      	bmi.n	10001cca <vTaskCoreAffinitySet+0x13e>
10001cb2:	680f      	ldr	r7, [r1, #0]
10001cb4:	2f00      	cmp	r7, #0
10001cb6:	d1cb      	bne.n	10001c50 <vTaskCoreAffinitySet+0xc4>
10001cb8:	e7fb      	b.n	10001cb2 <vTaskCoreAffinitySet+0x126>
10001cba:	4b11      	ldr	r3, [pc, #68]	; (10001d00 <vTaskCoreAffinitySet+0x174>)
10001cbc:	5c1f      	ldrb	r7, [r3, r0]
10001cbe:	07bf      	lsls	r7, r7, #30
10001cc0:	d40d      	bmi.n	10001cde <vTaskCoreAffinitySet+0x152>
10001cc2:	680f      	ldr	r7, [r1, #0]
10001cc4:	2f00      	cmp	r7, #0
10001cc6:	d1ae      	bne.n	10001c26 <vTaskCoreAffinitySet+0x9a>
10001cc8:	e7fb      	b.n	10001cc2 <vTaskCoreAffinitySet+0x136>
10001cca:	464b      	mov	r3, r9
10001ccc:	4649      	mov	r1, r9
10001cce:	781b      	ldrb	r3, [r3, #0]
10001cd0:	3301      	adds	r3, #1
10001cd2:	700b      	strb	r3, [r1, #0]
10001cd4:	4663      	mov	r3, ip
10001cd6:	6818      	ldr	r0, [r3, #0]
10001cd8:	0081      	lsls	r1, r0, #2
10001cda:	5853      	ldr	r3, [r2, r1]
10001cdc:	e769      	b.n	10001bb2 <vTaskCoreAffinitySet+0x26>
10001cde:	4909      	ldr	r1, [pc, #36]	; (10001d04 <vTaskCoreAffinitySet+0x178>)
10001ce0:	4689      	mov	r9, r1
10001ce2:	4648      	mov	r0, r9
10001ce4:	7849      	ldrb	r1, [r1, #1]
10001ce6:	3101      	adds	r1, #1
10001ce8:	7041      	strb	r1, [r0, #1]
10001cea:	e7a9      	b.n	10001c40 <vTaskCoreAffinitySet+0xb4>
10001cec:	20020acc 	.word	0x20020acc
10001cf0:	20020a20 	.word	0x20020a20
10001cf4:	2000075c 	.word	0x2000075c
10001cf8:	20020a30 	.word	0x20020a30
10001cfc:	d000013c 	.word	0xd000013c
10001d00:	20020a10 	.word	0x20020a10
10001d04:	20020a14 	.word	0x20020a14
10001d08:	d0000138 	.word	0xd0000138
10001d0c:	20020b0c 	.word	0x20020b0c

10001d10 <vTaskSuspendAll>:
10001d10:	b5f8      	push	{r3, r4, r5, r6, r7, lr}
10001d12:	4b30      	ldr	r3, [pc, #192]	; (10001dd4 <vTaskSuspendAll+0xc4>)
10001d14:	681b      	ldr	r3, [r3, #0]
10001d16:	2b00      	cmp	r3, #0
10001d18:	d100      	bne.n	10001d1c <vTaskSuspendAll+0xc>
10001d1a:	bdf8      	pop	{r3, r4, r5, r6, r7, pc}
10001d1c:	f3ef 8710 	mrs	r7, PRIMASK
10001d20:	b672      	cpsid	i
10001d22:	23d0      	movs	r3, #208	; 0xd0
10001d24:	061b      	lsls	r3, r3, #24
10001d26:	681a      	ldr	r2, [r3, #0]
10001d28:	4b2b      	ldr	r3, [pc, #172]	; (10001dd8 <vTaskSuspendAll+0xc8>)
10001d2a:	4c2c      	ldr	r4, [pc, #176]	; (10001ddc <vTaskSuspendAll+0xcc>)
10001d2c:	6819      	ldr	r1, [r3, #0]
10001d2e:	2900      	cmp	r1, #0
10001d30:	d031      	beq.n	10001d96 <vTaskSuspendAll+0x86>
10001d32:	f3bf 8f5f 	dmb	sy
10001d36:	2301      	movs	r3, #1
10001d38:	2102      	movs	r1, #2
10001d3a:	4d29      	ldr	r5, [pc, #164]	; (10001de0 <vTaskSuspendAll+0xd0>)
10001d3c:	706b      	strb	r3, [r5, #1]
10001d3e:	5ca3      	ldrb	r3, [r4, r2]
10001d40:	430b      	orrs	r3, r1
10001d42:	54a3      	strb	r3, [r4, r2]
10001d44:	4e27      	ldr	r6, [pc, #156]	; (10001de4 <vTaskSuspendAll+0xd4>)
10001d46:	6833      	ldr	r3, [r6, #0]
10001d48:	2b00      	cmp	r3, #0
10001d4a:	d021      	beq.n	10001d90 <vTaskSuspendAll+0x80>
10001d4c:	21d0      	movs	r1, #208	; 0xd0
10001d4e:	4b26      	ldr	r3, [pc, #152]	; (10001de8 <vTaskSuspendAll+0xd8>)
10001d50:	0609      	lsls	r1, r1, #24
10001d52:	6818      	ldr	r0, [r3, #0]
10001d54:	680a      	ldr	r2, [r1, #0]
10001d56:	2800      	cmp	r0, #0
10001d58:	d024      	beq.n	10001da4 <vTaskSuspendAll+0x94>
10001d5a:	f3bf 8f5f 	dmb	sy
10001d5e:	2301      	movs	r3, #1
10001d60:	2101      	movs	r1, #1
10001d62:	702b      	strb	r3, [r5, #0]
10001d64:	5ca3      	ldrb	r3, [r4, r2]
10001d66:	430b      	orrs	r3, r1
10001d68:	54a3      	strb	r3, [r4, r2]
10001d6a:	6833      	ldr	r3, [r6, #0]
10001d6c:	3301      	adds	r3, #1
10001d6e:	6033      	str	r3, [r6, #0]
10001d70:	23d0      	movs	r3, #208	; 0xd0
10001d72:	061b      	lsls	r3, r3, #24
10001d74:	681a      	ldr	r2, [r3, #0]
10001d76:	2300      	movs	r3, #0
10001d78:	702b      	strb	r3, [r5, #0]
10001d7a:	2101      	movs	r1, #1
10001d7c:	5ca3      	ldrb	r3, [r4, r2]
10001d7e:	438b      	bics	r3, r1
10001d80:	54a3      	strb	r3, [r4, r2]
10001d82:	f3bf 8f5f 	dmb	sy
10001d86:	4b18      	ldr	r3, [pc, #96]	; (10001de8 <vTaskSuspendAll+0xd8>)
10001d88:	6019      	str	r1, [r3, #0]
10001d8a:	f387 8810 	msr	PRIMASK, r7
10001d8e:	e7c4      	b.n	10001d1a <vTaskSuspendAll+0xa>
10001d90:	f7ff fd24 	bl	100017dc <prvCheckForRunStateChange>
10001d94:	e7da      	b.n	10001d4c <vTaskSuspendAll+0x3c>
10001d96:	5ca1      	ldrb	r1, [r4, r2]
10001d98:	0789      	lsls	r1, r1, #30
10001d9a:	d40a      	bmi.n	10001db2 <vTaskSuspendAll+0xa2>
10001d9c:	6819      	ldr	r1, [r3, #0]
10001d9e:	2900      	cmp	r1, #0
10001da0:	d1c7      	bne.n	10001d32 <vTaskSuspendAll+0x22>
10001da2:	e7fb      	b.n	10001d9c <vTaskSuspendAll+0x8c>
10001da4:	5ca0      	ldrb	r0, [r4, r2]
10001da6:	07c0      	lsls	r0, r0, #31
10001da8:	d408      	bmi.n	10001dbc <vTaskSuspendAll+0xac>
10001daa:	6819      	ldr	r1, [r3, #0]
10001dac:	2900      	cmp	r1, #0
10001dae:	d1d4      	bne.n	10001d5a <vTaskSuspendAll+0x4a>
10001db0:	e7fb      	b.n	10001daa <vTaskSuspendAll+0x9a>
10001db2:	4d0b      	ldr	r5, [pc, #44]	; (10001de0 <vTaskSuspendAll+0xd0>)
10001db4:	786b      	ldrb	r3, [r5, #1]
10001db6:	3301      	adds	r3, #1
10001db8:	706b      	strb	r3, [r5, #1]
10001dba:	e7c3      	b.n	10001d44 <vTaskSuspendAll+0x34>
10001dbc:	782b      	ldrb	r3, [r5, #0]
10001dbe:	1c5a      	adds	r2, r3, #1
10001dc0:	702a      	strb	r2, [r5, #0]
10001dc2:	6832      	ldr	r2, [r6, #0]
10001dc4:	3201      	adds	r2, #1
10001dc6:	6032      	str	r2, [r6, #0]
10001dc8:	680a      	ldr	r2, [r1, #0]
10001dca:	702b      	strb	r3, [r5, #0]
10001dcc:	2b00      	cmp	r3, #0
10001dce:	d1dc      	bne.n	10001d8a <vTaskSuspendAll+0x7a>
10001dd0:	e7d3      	b.n	10001d7a <vTaskSuspendAll+0x6a>
10001dd2:	46c0      	nop			; (mov r8, r8)
10001dd4:	20020acc 	.word	0x20020acc
10001dd8:	d000013c 	.word	0xd000013c
10001ddc:	20020a10 	.word	0x20020a10
10001de0:	20020a14 	.word	0x20020a14
10001de4:	20020a30 	.word	0x20020a30
10001de8:	d0000138 	.word	0xd0000138

10001dec <xTaskGetTickCount>:
10001dec:	4b01      	ldr	r3, [pc, #4]	; (10001df4 <xTaskGetTickCount+0x8>)
10001dee:	6818      	ldr	r0, [r3, #0]
10001df0:	4770      	bx	lr
10001df2:	46c0      	nop			; (mov r8, r8)
10001df4:	20020b00 	.word	0x20020b00

10001df8 <uxTaskGetNumberOfTasks>:
10001df8:	4b01      	ldr	r3, [pc, #4]	; (10001e00 <uxTaskGetNumberOfTasks+0x8>)
10001dfa:	6818      	ldr	r0, [r3, #0]
10001dfc:	4770      	bx	lr
10001dfe:	46c0      	nop			; (mov r8, r8)
10001e00:	20020a28 	.word	0x20020a28

10001e04 <xTaskIncrementTick>:
10001e04:	b5f8      	push	{r3, r4, r5, r6, r7, lr}
10001e06:	46de      	mov	lr, fp
10001e08:	4657      	mov	r7, sl
10001e0a:	464e      	mov	r6, r9
10001e0c:	4645      	mov	r5, r8
10001e0e:	4b8a      	ldr	r3, [pc, #552]	; (10002038 <xTaskIncrementTick+0x234>)
10001e10:	b5e0      	push	{r5, r6, r7, lr}
10001e12:	681b      	ldr	r3, [r3, #0]
10001e14:	2b00      	cmp	r3, #0
10001e16:	d14f      	bne.n	10001eb8 <xTaskIncrementTick+0xb4>
10001e18:	4b88      	ldr	r3, [pc, #544]	; (1000203c <xTaskIncrementTick+0x238>)
10001e1a:	681d      	ldr	r5, [r3, #0]
10001e1c:	1c6a      	adds	r2, r5, #1
10001e1e:	4693      	mov	fp, r2
10001e20:	601a      	str	r2, [r3, #0]
10001e22:	2a00      	cmp	r2, #0
10001e24:	d054      	beq.n	10001ed0 <xTaskIncrementTick+0xcc>
10001e26:	4b86      	ldr	r3, [pc, #536]	; (10002040 <xTaskIncrementTick+0x23c>)
10001e28:	4699      	mov	r9, r3
10001e2a:	464b      	mov	r3, r9
10001e2c:	681b      	ldr	r3, [r3, #0]
10001e2e:	455b      	cmp	r3, fp
10001e30:	d966      	bls.n	10001f00 <xTaskIncrementTick+0xfc>
10001e32:	4c84      	ldr	r4, [pc, #528]	; (10002044 <xTaskIncrementTick+0x240>)
10001e34:	4d84      	ldr	r5, [pc, #528]	; (10002048 <xTaskIncrementTick+0x244>)
10001e36:	682b      	ldr	r3, [r5, #0]
10001e38:	6b1a      	ldr	r2, [r3, #48]	; 0x30
10001e3a:	0093      	lsls	r3, r2, #2
10001e3c:	189b      	adds	r3, r3, r2
10001e3e:	009b      	lsls	r3, r3, #2
10001e40:	58e3      	ldr	r3, [r4, r3]
10001e42:	2b01      	cmp	r3, #1
10001e44:	d800      	bhi.n	10001e48 <xTaskIncrementTick+0x44>
10001e46:	e0ae      	b.n	10001fa6 <xTaskIncrementTick+0x1a2>
10001e48:	686b      	ldr	r3, [r5, #4]
10001e4a:	6b1a      	ldr	r2, [r3, #48]	; 0x30
10001e4c:	0093      	lsls	r3, r2, #2
10001e4e:	189b      	adds	r3, r3, r2
10001e50:	009b      	lsls	r3, r3, #2
10001e52:	58e3      	ldr	r3, [r4, r3]
10001e54:	2b01      	cmp	r3, #1
10001e56:	d800      	bhi.n	10001e5a <xTaskIncrementTick+0x56>
10001e58:	e0bf      	b.n	10001fda <xTaskIncrementTick+0x1d6>
10001e5a:	23d0      	movs	r3, #208	; 0xd0
10001e5c:	061b      	lsls	r3, r3, #24
10001e5e:	681a      	ldr	r2, [r3, #0]
10001e60:	2401      	movs	r4, #1
10001e62:	0016      	movs	r6, r2
10001e64:	2e00      	cmp	r6, #0
10001e66:	d100      	bne.n	10001e6a <xTaskIncrementTick+0x66>
10001e68:	e0e1      	b.n	1000202e <xTaskIncrementTick+0x22a>
10001e6a:	2a00      	cmp	r2, #0
10001e6c:	d100      	bne.n	10001e70 <xTaskIncrementTick+0x6c>
10001e6e:	e0ba      	b.n	10001fe6 <xTaskIncrementTick+0x1e2>
10001e70:	682b      	ldr	r3, [r5, #0]
10001e72:	6b9b      	ldr	r3, [r3, #56]	; 0x38
10001e74:	3302      	adds	r3, #2
10001e76:	d006      	beq.n	10001e86 <xTaskIncrementTick+0x82>
10001e78:	2000      	movs	r0, #0
10001e7a:	f7fe fda7 	bl	100009cc <vYieldCore>
10001e7e:	2202      	movs	r2, #2
10001e80:	682b      	ldr	r3, [r5, #0]
10001e82:	4252      	negs	r2, r2
10001e84:	639a      	str	r2, [r3, #56]	; 0x38
10001e86:	2c00      	cmp	r4, #0
10001e88:	d100      	bne.n	10001e8c <xTaskIncrementTick+0x88>
10001e8a:	e0b3      	b.n	10001ff4 <xTaskIncrementTick+0x1f0>
10001e8c:	2400      	movs	r4, #0
10001e8e:	2e01      	cmp	r6, #1
10001e90:	d100      	bne.n	10001e94 <xTaskIncrementTick+0x90>
10001e92:	e0ce      	b.n	10002032 <xTaskIncrementTick+0x22e>
10001e94:	23d0      	movs	r3, #208	; 0xd0
10001e96:	061b      	lsls	r3, r3, #24
10001e98:	681b      	ldr	r3, [r3, #0]
10001e9a:	2b01      	cmp	r3, #1
10001e9c:	d100      	bne.n	10001ea0 <xTaskIncrementTick+0x9c>
10001e9e:	e0c1      	b.n	10002024 <xTaskIncrementTick+0x220>
10001ea0:	686b      	ldr	r3, [r5, #4]
10001ea2:	6b9b      	ldr	r3, [r3, #56]	; 0x38
10001ea4:	3302      	adds	r3, #2
10001ea6:	d00c      	beq.n	10001ec2 <xTaskIncrementTick+0xbe>
10001ea8:	2001      	movs	r0, #1
10001eaa:	f7fe fd8f 	bl	100009cc <vYieldCore>
10001eae:	2202      	movs	r2, #2
10001eb0:	686b      	ldr	r3, [r5, #4]
10001eb2:	4252      	negs	r2, r2
10001eb4:	639a      	str	r2, [r3, #56]	; 0x38
10001eb6:	e004      	b.n	10001ec2 <xTaskIncrementTick+0xbe>
10001eb8:	2400      	movs	r4, #0
10001eba:	4a64      	ldr	r2, [pc, #400]	; (1000204c <xTaskIncrementTick+0x248>)
10001ebc:	6813      	ldr	r3, [r2, #0]
10001ebe:	3301      	adds	r3, #1
10001ec0:	6013      	str	r3, [r2, #0]
10001ec2:	0020      	movs	r0, r4
10001ec4:	bcf0      	pop	{r4, r5, r6, r7}
10001ec6:	46bb      	mov	fp, r7
10001ec8:	46b2      	mov	sl, r6
10001eca:	46a9      	mov	r9, r5
10001ecc:	46a0      	mov	r8, r4
10001ece:	bdf8      	pop	{r3, r4, r5, r6, r7, pc}
10001ed0:	4b5f      	ldr	r3, [pc, #380]	; (10002050 <xTaskIncrementTick+0x24c>)
10001ed2:	4a60      	ldr	r2, [pc, #384]	; (10002054 <xTaskIncrementTick+0x250>)
10001ed4:	6819      	ldr	r1, [r3, #0]
10001ed6:	6810      	ldr	r0, [r2, #0]
10001ed8:	6018      	str	r0, [r3, #0]
10001eda:	6011      	str	r1, [r2, #0]
10001edc:	495e      	ldr	r1, [pc, #376]	; (10002058 <xTaskIncrementTick+0x254>)
10001ede:	680a      	ldr	r2, [r1, #0]
10001ee0:	3201      	adds	r2, #1
10001ee2:	600a      	str	r2, [r1, #0]
10001ee4:	681a      	ldr	r2, [r3, #0]
10001ee6:	6812      	ldr	r2, [r2, #0]
10001ee8:	2a00      	cmp	r2, #0
10001eea:	d16f      	bne.n	10001fcc <xTaskIncrementTick+0x1c8>
10001eec:	4b54      	ldr	r3, [pc, #336]	; (10002040 <xTaskIncrementTick+0x23c>)
10001eee:	4699      	mov	r9, r3
10001ef0:	2301      	movs	r3, #1
10001ef2:	464a      	mov	r2, r9
10001ef4:	425b      	negs	r3, r3
10001ef6:	6013      	str	r3, [r2, #0]
10001ef8:	464b      	mov	r3, r9
10001efa:	681b      	ldr	r3, [r3, #0]
10001efc:	455b      	cmp	r3, fp
10001efe:	d898      	bhi.n	10001e32 <xTaskIncrementTick+0x2e>
10001f00:	4e53      	ldr	r6, [pc, #332]	; (10002050 <xTaskIncrementTick+0x24c>)
10001f02:	4c50      	ldr	r4, [pc, #320]	; (10002044 <xTaskIncrementTick+0x240>)
10001f04:	6833      	ldr	r3, [r6, #0]
10001f06:	681b      	ldr	r3, [r3, #0]
10001f08:	2b00      	cmp	r3, #0
10001f0a:	d100      	bne.n	10001f0e <xTaskIncrementTick+0x10a>
10001f0c:	e082      	b.n	10002014 <xTaskIncrementTick+0x210>
10001f0e:	2300      	movs	r3, #0
10001f10:	469a      	mov	sl, r3
10001f12:	4b52      	ldr	r3, [pc, #328]	; (1000205c <xTaskIncrementTick+0x258>)
10001f14:	4698      	mov	r8, r3
10001f16:	e032      	b.n	10001f7e <xTaskIncrementTick+0x17a>
10001f18:	4652      	mov	r2, sl
10001f1a:	6182      	str	r2, [r0, #24]
10001f1c:	681a      	ldr	r2, [r3, #0]
10001f1e:	3a01      	subs	r2, #1
10001f20:	601a      	str	r2, [r3, #0]
10001f22:	6ac3      	ldr	r3, [r0, #44]	; 0x2c
10001f24:	2b00      	cmp	r3, #0
10001f26:	d00e      	beq.n	10001f46 <xTaskIncrementTick+0x142>
10001f28:	6a02      	ldr	r2, [r0, #32]
10001f2a:	6a41      	ldr	r1, [r0, #36]	; 0x24
10001f2c:	685d      	ldr	r5, [r3, #4]
10001f2e:	6091      	str	r1, [r2, #8]
10001f30:	6a41      	ldr	r1, [r0, #36]	; 0x24
10001f32:	604a      	str	r2, [r1, #4]
10001f34:	0002      	movs	r2, r0
10001f36:	321c      	adds	r2, #28
10001f38:	4295      	cmp	r5, r2
10001f3a:	d032      	beq.n	10001fa2 <xTaskIncrementTick+0x19e>
10001f3c:	4652      	mov	r2, sl
10001f3e:	62c2      	str	r2, [r0, #44]	; 0x2c
10001f40:	681a      	ldr	r2, [r3, #0]
10001f42:	3a01      	subs	r2, #1
10001f44:	601a      	str	r2, [r3, #0]
10001f46:	4643      	mov	r3, r8
10001f48:	6b02      	ldr	r2, [r0, #48]	; 0x30
10001f4a:	681b      	ldr	r3, [r3, #0]
10001f4c:	429a      	cmp	r2, r3
10001f4e:	d901      	bls.n	10001f54 <xTaskIncrementTick+0x150>
10001f50:	4643      	mov	r3, r8
10001f52:	601a      	str	r2, [r3, #0]
10001f54:	0093      	lsls	r3, r2, #2
10001f56:	189b      	adds	r3, r3, r2
10001f58:	009b      	lsls	r3, r3, #2
10001f5a:	18e1      	adds	r1, r4, r3
10001f5c:	684a      	ldr	r2, [r1, #4]
10001f5e:	6895      	ldr	r5, [r2, #8]
10001f60:	60c2      	str	r2, [r0, #12]
10001f62:	6105      	str	r5, [r0, #16]
10001f64:	6895      	ldr	r5, [r2, #8]
10001f66:	606f      	str	r7, [r5, #4]
10001f68:	6097      	str	r7, [r2, #8]
10001f6a:	58e2      	ldr	r2, [r4, r3]
10001f6c:	6181      	str	r1, [r0, #24]
10001f6e:	3201      	adds	r2, #1
10001f70:	50e2      	str	r2, [r4, r3]
10001f72:	f7ff fae7 	bl	10001544 <prvYieldForTask>
10001f76:	6833      	ldr	r3, [r6, #0]
10001f78:	681b      	ldr	r3, [r3, #0]
10001f7a:	2b00      	cmp	r3, #0
10001f7c:	d04a      	beq.n	10002014 <xTaskIncrementTick+0x210>
10001f7e:	6833      	ldr	r3, [r6, #0]
10001f80:	68db      	ldr	r3, [r3, #12]
10001f82:	68d8      	ldr	r0, [r3, #12]
10001f84:	6883      	ldr	r3, [r0, #8]
10001f86:	459b      	cmp	fp, r3
10001f88:	d349      	bcc.n	1000201e <xTaskIncrementTick+0x21a>
10001f8a:	0007      	movs	r7, r0
10001f8c:	6983      	ldr	r3, [r0, #24]
10001f8e:	68c1      	ldr	r1, [r0, #12]
10001f90:	6902      	ldr	r2, [r0, #16]
10001f92:	3708      	adds	r7, #8
10001f94:	608a      	str	r2, [r1, #8]
10001f96:	6051      	str	r1, [r2, #4]
10001f98:	6859      	ldr	r1, [r3, #4]
10001f9a:	42b9      	cmp	r1, r7
10001f9c:	d1bc      	bne.n	10001f18 <xTaskIncrementTick+0x114>
10001f9e:	605a      	str	r2, [r3, #4]
10001fa0:	e7ba      	b.n	10001f18 <xTaskIncrementTick+0x114>
10001fa2:	6059      	str	r1, [r3, #4]
10001fa4:	e7ca      	b.n	10001f3c <xTaskIncrementTick+0x138>
10001fa6:	686b      	ldr	r3, [r5, #4]
10001fa8:	6b1a      	ldr	r2, [r3, #48]	; 0x30
10001faa:	0093      	lsls	r3, r2, #2
10001fac:	189b      	adds	r3, r3, r2
10001fae:	009b      	lsls	r3, r3, #2
10001fb0:	58e3      	ldr	r3, [r4, r3]
10001fb2:	2b01      	cmp	r3, #1
10001fb4:	d924      	bls.n	10002000 <xTaskIncrementTick+0x1fc>
10001fb6:	23d0      	movs	r3, #208	; 0xd0
10001fb8:	061b      	lsls	r3, r3, #24
10001fba:	681e      	ldr	r6, [r3, #0]
10001fbc:	4b28      	ldr	r3, [pc, #160]	; (10002060 <xTaskIncrementTick+0x25c>)
10001fbe:	0032      	movs	r2, r6
10001fc0:	681b      	ldr	r3, [r3, #0]
10001fc2:	2401      	movs	r4, #1
10001fc4:	2b00      	cmp	r3, #0
10001fc6:	d000      	beq.n	10001fca <xTaskIncrementTick+0x1c6>
10001fc8:	e74c      	b.n	10001e64 <xTaskIncrementTick+0x60>
10001fca:	e75f      	b.n	10001e8c <xTaskIncrementTick+0x88>
10001fcc:	681b      	ldr	r3, [r3, #0]
10001fce:	4a1c      	ldr	r2, [pc, #112]	; (10002040 <xTaskIncrementTick+0x23c>)
10001fd0:	68db      	ldr	r3, [r3, #12]
10001fd2:	4691      	mov	r9, r2
10001fd4:	681b      	ldr	r3, [r3, #0]
10001fd6:	6013      	str	r3, [r2, #0]
10001fd8:	e727      	b.n	10001e2a <xTaskIncrementTick+0x26>
10001fda:	23d0      	movs	r3, #208	; 0xd0
10001fdc:	061b      	lsls	r3, r3, #24
10001fde:	681a      	ldr	r2, [r3, #0]
10001fe0:	2400      	movs	r4, #0
10001fe2:	0016      	movs	r6, r2
10001fe4:	e73e      	b.n	10001e64 <xTaskIncrementTick+0x60>
10001fe6:	2201      	movs	r2, #1
10001fe8:	4b1d      	ldr	r3, [pc, #116]	; (10002060 <xTaskIncrementTick+0x25c>)
10001fea:	601a      	str	r2, [r3, #0]
10001fec:	2300      	movs	r3, #0
10001fee:	2c00      	cmp	r4, #0
10001ff0:	d11b      	bne.n	1000202a <xTaskIncrementTick+0x226>
10001ff2:	001c      	movs	r4, r3
10001ff4:	4b1a      	ldr	r3, [pc, #104]	; (10002060 <xTaskIncrementTick+0x25c>)
10001ff6:	685b      	ldr	r3, [r3, #4]
10001ff8:	2b00      	cmp	r3, #0
10001ffa:	d100      	bne.n	10001ffe <xTaskIncrementTick+0x1fa>
10001ffc:	e761      	b.n	10001ec2 <xTaskIncrementTick+0xbe>
10001ffe:	e746      	b.n	10001e8e <xTaskIncrementTick+0x8a>
10002000:	23d0      	movs	r3, #208	; 0xd0
10002002:	061b      	lsls	r3, r3, #24
10002004:	681a      	ldr	r2, [r3, #0]
10002006:	4b16      	ldr	r3, [pc, #88]	; (10002060 <xTaskIncrementTick+0x25c>)
10002008:	0016      	movs	r6, r2
1000200a:	681c      	ldr	r4, [r3, #0]
1000200c:	2c00      	cmp	r4, #0
1000200e:	d0f2      	beq.n	10001ff6 <xTaskIncrementTick+0x1f2>
10002010:	2400      	movs	r4, #0
10002012:	e727      	b.n	10001e64 <xTaskIncrementTick+0x60>
10002014:	2301      	movs	r3, #1
10002016:	464a      	mov	r2, r9
10002018:	425b      	negs	r3, r3
1000201a:	6013      	str	r3, [r2, #0]
1000201c:	e70a      	b.n	10001e34 <xTaskIncrementTick+0x30>
1000201e:	464a      	mov	r2, r9
10002020:	6013      	str	r3, [r2, #0]
10002022:	e707      	b.n	10001e34 <xTaskIncrementTick+0x30>
10002024:	4a0e      	ldr	r2, [pc, #56]	; (10002060 <xTaskIncrementTick+0x25c>)
10002026:	6053      	str	r3, [r2, #4]
10002028:	e74b      	b.n	10001ec2 <xTaskIncrementTick+0xbe>
1000202a:	001c      	movs	r4, r3
1000202c:	e732      	b.n	10001e94 <xTaskIncrementTick+0x90>
1000202e:	2301      	movs	r3, #1
10002030:	e7dd      	b.n	10001fee <xTaskIncrementTick+0x1ea>
10002032:	2401      	movs	r4, #1
10002034:	e745      	b.n	10001ec2 <xTaskIncrementTick+0xbe>
10002036:	46c0      	nop			; (mov r8, r8)
10002038:	20020a30 	.word	0x20020a30
1000203c:	20020b00 	.word	0x20020b00
10002040:	20020aa4 	.word	0x20020aa4
10002044:	20000778 	.word	0x20000778
10002048:	2000075c 	.word	0x2000075c
1000204c:	20020ab4 	.word	0x20020ab4
10002050:	20000768 	.word	0x20000768
10002054:	20000770 	.word	0x20000770
10002058:	20020aa8 	.word	0x20020aa8
1000205c:	20020a38 	.word	0x20020a38
10002060:	20020b0c 	.word	0x20020b0c

10002064 <vTaskSwitchContext>:
10002064:	b5f0      	push	{r4, r5, r6, r7, lr}
10002066:	23d0      	movs	r3, #208	; 0xd0
10002068:	4657      	mov	r7, sl
1000206a:	464e      	mov	r6, r9
1000206c:	46de      	mov	lr, fp
1000206e:	4645      	mov	r5, r8
10002070:	061b      	lsls	r3, r3, #24
10002072:	b5e0      	push	{r5, r6, r7, lr}
10002074:	681a      	ldr	r2, [r3, #0]
10002076:	4bb5      	ldr	r3, [pc, #724]	; (1000234c <vTaskSwitchContext+0x2e8>)
10002078:	4681      	mov	r9, r0
1000207a:	6819      	ldr	r1, [r3, #0]
1000207c:	4fb4      	ldr	r7, [pc, #720]	; (10002350 <vTaskSwitchContext+0x2ec>)
1000207e:	b083      	sub	sp, #12
10002080:	2900      	cmp	r1, #0
10002082:	d100      	bne.n	10002086 <vTaskSwitchContext+0x22>
10002084:	e0d6      	b.n	10002234 <vTaskSwitchContext+0x1d0>
10002086:	f3bf 8f5f 	dmb	sy
1000208a:	4bb2      	ldr	r3, [pc, #712]	; (10002354 <vTaskSwitchContext+0x2f0>)
1000208c:	4698      	mov	r8, r3
1000208e:	2301      	movs	r3, #1
10002090:	4641      	mov	r1, r8
10002092:	704b      	strb	r3, [r1, #1]
10002094:	2102      	movs	r1, #2
10002096:	5cbb      	ldrb	r3, [r7, r2]
10002098:	430b      	orrs	r3, r1
1000209a:	54bb      	strb	r3, [r7, r2]
1000209c:	23d0      	movs	r3, #208	; 0xd0
1000209e:	061b      	lsls	r3, r3, #24
100020a0:	681a      	ldr	r2, [r3, #0]
100020a2:	4bad      	ldr	r3, [pc, #692]	; (10002358 <vTaskSwitchContext+0x2f4>)
100020a4:	6819      	ldr	r1, [r3, #0]
100020a6:	2900      	cmp	r1, #0
100020a8:	d100      	bne.n	100020ac <vTaskSwitchContext+0x48>
100020aa:	e0bb      	b.n	10002224 <vTaskSwitchContext+0x1c0>
100020ac:	f3bf 8f5f 	dmb	sy
100020b0:	2301      	movs	r3, #1
100020b2:	4641      	mov	r1, r8
100020b4:	700b      	strb	r3, [r1, #0]
100020b6:	2101      	movs	r1, #1
100020b8:	5cbb      	ldrb	r3, [r7, r2]
100020ba:	430b      	orrs	r3, r1
100020bc:	54bb      	strb	r3, [r7, r2]
100020be:	4ba7      	ldr	r3, [pc, #668]	; (1000235c <vTaskSwitchContext+0x2f8>)
100020c0:	681b      	ldr	r3, [r3, #0]
100020c2:	2b00      	cmp	r3, #0
100020c4:	d032      	beq.n	1000212c <vTaskSwitchContext+0xc8>
100020c6:	464b      	mov	r3, r9
100020c8:	2201      	movs	r2, #1
100020ca:	0098      	lsls	r0, r3, #2
100020cc:	4ba4      	ldr	r3, [pc, #656]	; (10002360 <vTaskSwitchContext+0x2fc>)
100020ce:	50c2      	str	r2, [r0, r3]
100020d0:	23d0      	movs	r3, #208	; 0xd0
100020d2:	061b      	lsls	r3, r3, #24
100020d4:	681a      	ldr	r2, [r3, #0]
100020d6:	4643      	mov	r3, r8
100020d8:	4641      	mov	r1, r8
100020da:	781b      	ldrb	r3, [r3, #0]
100020dc:	3b01      	subs	r3, #1
100020de:	b2db      	uxtb	r3, r3
100020e0:	700b      	strb	r3, [r1, #0]
100020e2:	2b00      	cmp	r3, #0
100020e4:	d107      	bne.n	100020f6 <vTaskSwitchContext+0x92>
100020e6:	2101      	movs	r1, #1
100020e8:	5cbb      	ldrb	r3, [r7, r2]
100020ea:	438b      	bics	r3, r1
100020ec:	54bb      	strb	r3, [r7, r2]
100020ee:	f3bf 8f5f 	dmb	sy
100020f2:	4b99      	ldr	r3, [pc, #612]	; (10002358 <vTaskSwitchContext+0x2f4>)
100020f4:	6019      	str	r1, [r3, #0]
100020f6:	23d0      	movs	r3, #208	; 0xd0
100020f8:	061b      	lsls	r3, r3, #24
100020fa:	681a      	ldr	r2, [r3, #0]
100020fc:	4643      	mov	r3, r8
100020fe:	4641      	mov	r1, r8
10002100:	785b      	ldrb	r3, [r3, #1]
10002102:	3b01      	subs	r3, #1
10002104:	b2db      	uxtb	r3, r3
10002106:	704b      	strb	r3, [r1, #1]
10002108:	2b00      	cmp	r3, #0
1000210a:	d108      	bne.n	1000211e <vTaskSwitchContext+0xba>
1000210c:	2102      	movs	r1, #2
1000210e:	5cbb      	ldrb	r3, [r7, r2]
10002110:	438b      	bics	r3, r1
10002112:	54bb      	strb	r3, [r7, r2]
10002114:	f3bf 8f5f 	dmb	sy
10002118:	2201      	movs	r2, #1
1000211a:	4b8c      	ldr	r3, [pc, #560]	; (1000234c <vTaskSwitchContext+0x2e8>)
1000211c:	601a      	str	r2, [r3, #0]
1000211e:	b003      	add	sp, #12
10002120:	bcf0      	pop	{r4, r5, r6, r7}
10002122:	46bb      	mov	fp, r7
10002124:	46b2      	mov	sl, r6
10002126:	46a9      	mov	r9, r5
10002128:	46a0      	mov	r8, r4
1000212a:	bdf0      	pop	{r4, r5, r6, r7, pc}
1000212c:	464a      	mov	r2, r9
1000212e:	0095      	lsls	r5, r2, #2
10002130:	4a8b      	ldr	r2, [pc, #556]	; (10002360 <vTaskSwitchContext+0x2fc>)
10002132:	4c8c      	ldr	r4, [pc, #560]	; (10002364 <vTaskSwitchContext+0x300>)
10002134:	5153      	str	r3, [r2, r5]
10002136:	4b8c      	ldr	r3, [pc, #560]	; (10002368 <vTaskSwitchContext+0x304>)
10002138:	681e      	ldr	r6, [r3, #0]
1000213a:	469a      	mov	sl, r3
1000213c:	5962      	ldr	r2, [r4, r5]
1000213e:	5963      	ldr	r3, [r4, r5]
10002140:	6992      	ldr	r2, [r2, #24]
10002142:	6b19      	ldr	r1, [r3, #48]	; 0x30
10002144:	008b      	lsls	r3, r1, #2
10002146:	185b      	adds	r3, r3, r1
10002148:	4988      	ldr	r1, [pc, #544]	; (1000236c <vTaskSwitchContext+0x308>)
1000214a:	009b      	lsls	r3, r3, #2
1000214c:	468c      	mov	ip, r1
1000214e:	4463      	add	r3, ip
10002150:	429a      	cmp	r2, r3
10002152:	d077      	beq.n	10002244 <vTaskSwitchContext+0x1e0>
10002154:	464a      	mov	r2, r9
10002156:	2301      	movs	r3, #1
10002158:	4093      	lsls	r3, r2
1000215a:	0018      	movs	r0, r3
1000215c:	4b83      	ldr	r3, [pc, #524]	; (1000236c <vTaskSwitchContext+0x308>)
1000215e:	00b1      	lsls	r1, r6, #2
10002160:	469c      	mov	ip, r3
10002162:	469b      	mov	fp, r3
10002164:	0003      	movs	r3, r0
10002166:	4648      	mov	r0, r9
10002168:	9000      	str	r0, [sp, #0]
1000216a:	0038      	movs	r0, r7
1000216c:	1989      	adds	r1, r1, r6
1000216e:	0089      	lsls	r1, r1, #2
10002170:	448b      	add	fp, r1
10002172:	3108      	adds	r1, #8
10002174:	465f      	mov	r7, fp
10002176:	4461      	add	r1, ip
10002178:	2201      	movs	r2, #1
1000217a:	46b4      	mov	ip, r6
1000217c:	4683      	mov	fp, r0
1000217e:	001e      	movs	r6, r3
10002180:	e00f      	b.n	100021a2 <vTaskSwitchContext+0x13e>
10002182:	2a00      	cmp	r2, #0
10002184:	d004      	beq.n	10002190 <vTaskSwitchContext+0x12c>
10002186:	4653      	mov	r3, sl
10002188:	4650      	mov	r0, sl
1000218a:	681b      	ldr	r3, [r3, #0]
1000218c:	3b01      	subs	r3, #1
1000218e:	6003      	str	r3, [r0, #0]
10002190:	4663      	mov	r3, ip
10002192:	2b00      	cmp	r3, #0
10002194:	d044      	beq.n	10002220 <vTaskSwitchContext+0x1bc>
10002196:	2301      	movs	r3, #1
10002198:	425b      	negs	r3, r3
1000219a:	4699      	mov	r9, r3
1000219c:	3f14      	subs	r7, #20
1000219e:	44cc      	add	ip, r9
100021a0:	3914      	subs	r1, #20
100021a2:	683b      	ldr	r3, [r7, #0]
100021a4:	2b00      	cmp	r3, #0
100021a6:	d0ec      	beq.n	10002182 <vTaskSwitchContext+0x11e>
100021a8:	684b      	ldr	r3, [r1, #4]
100021aa:	4299      	cmp	r1, r3
100021ac:	d033      	beq.n	10002216 <vTaskSwitchContext+0x1b2>
100021ae:	9a00      	ldr	r2, [sp, #0]
100021b0:	9701      	str	r7, [sp, #4]
100021b2:	4691      	mov	r9, r2
100021b4:	e005      	b.n	100021c2 <vTaskSwitchContext+0x15e>
100021b6:	5960      	ldr	r0, [r4, r5]
100021b8:	4282      	cmp	r2, r0
100021ba:	d022      	beq.n	10002202 <vTaskSwitchContext+0x19e>
100021bc:	685b      	ldr	r3, [r3, #4]
100021be:	428b      	cmp	r3, r1
100021c0:	d026      	beq.n	10002210 <vTaskSwitchContext+0x1ac>
100021c2:	68da      	ldr	r2, [r3, #12]
100021c4:	6b90      	ldr	r0, [r2, #56]	; 0x38
100021c6:	1c47      	adds	r7, r0, #1
100021c8:	d1f5      	bne.n	100021b6 <vTaskSwitchContext+0x152>
100021ca:	6857      	ldr	r7, [r2, #4]
100021cc:	4237      	tst	r7, r6
100021ce:	d0f5      	beq.n	100021bc <vTaskSwitchContext+0x158>
100021d0:	5963      	ldr	r3, [r4, r5]
100021d2:	465f      	mov	r7, fp
100021d4:	6398      	str	r0, [r3, #56]	; 0x38
100021d6:	464b      	mov	r3, r9
100021d8:	5961      	ldr	r1, [r4, r5]
100021da:	6393      	str	r3, [r2, #56]	; 0x38
100021dc:	5162      	str	r2, [r4, r5]
100021de:	2900      	cmp	r1, #0
100021e0:	d009      	beq.n	100021f6 <vTaskSwitchContext+0x192>
100021e2:	4e62      	ldr	r6, [pc, #392]	; (1000236c <vTaskSwitchContext+0x308>)
100021e4:	6b0a      	ldr	r2, [r1, #48]	; 0x30
100021e6:	46b4      	mov	ip, r6
100021e8:	0093      	lsls	r3, r2, #2
100021ea:	189b      	adds	r3, r3, r2
100021ec:	009b      	lsls	r3, r3, #2
100021ee:	698e      	ldr	r6, [r1, #24]
100021f0:	4463      	add	r3, ip
100021f2:	429e      	cmp	r6, r3
100021f4:	d044      	beq.n	10002280 <vTaskSwitchContext+0x21c>
100021f6:	23d0      	movs	r3, #208	; 0xd0
100021f8:	061b      	lsls	r3, r3, #24
100021fa:	681a      	ldr	r2, [r3, #0]
100021fc:	0093      	lsls	r3, r2, #2
100021fe:	58e3      	ldr	r3, [r4, r3]
10002200:	e769      	b.n	100020d6 <vTaskSwitchContext+0x72>
10002202:	6850      	ldr	r0, [r2, #4]
10002204:	4230      	tst	r0, r6
10002206:	d0d9      	beq.n	100021bc <vTaskSwitchContext+0x158>
10002208:	464b      	mov	r3, r9
1000220a:	465f      	mov	r7, fp
1000220c:	6393      	str	r3, [r2, #56]	; 0x38
1000220e:	e7f2      	b.n	100021f6 <vTaskSwitchContext+0x192>
10002210:	464b      	mov	r3, r9
10002212:	9f01      	ldr	r7, [sp, #4]
10002214:	9300      	str	r3, [sp, #0]
10002216:	4663      	mov	r3, ip
10002218:	2b00      	cmp	r3, #0
1000221a:	d001      	beq.n	10002220 <vTaskSwitchContext+0x1bc>
1000221c:	2200      	movs	r2, #0
1000221e:	e7ba      	b.n	10002196 <vTaskSwitchContext+0x132>
10002220:	465f      	mov	r7, fp
10002222:	e7e8      	b.n	100021f6 <vTaskSwitchContext+0x192>
10002224:	5cb9      	ldrb	r1, [r7, r2]
10002226:	07c9      	lsls	r1, r1, #31
10002228:	d41d      	bmi.n	10002266 <vTaskSwitchContext+0x202>
1000222a:	6819      	ldr	r1, [r3, #0]
1000222c:	2900      	cmp	r1, #0
1000222e:	d000      	beq.n	10002232 <vTaskSwitchContext+0x1ce>
10002230:	e73c      	b.n	100020ac <vTaskSwitchContext+0x48>
10002232:	e7fa      	b.n	1000222a <vTaskSwitchContext+0x1c6>
10002234:	5cb9      	ldrb	r1, [r7, r2]
10002236:	0789      	lsls	r1, r1, #30
10002238:	d41b      	bmi.n	10002272 <vTaskSwitchContext+0x20e>
1000223a:	6819      	ldr	r1, [r3, #0]
1000223c:	2900      	cmp	r1, #0
1000223e:	d000      	beq.n	10002242 <vTaskSwitchContext+0x1de>
10002240:	e721      	b.n	10002086 <vTaskSwitchContext+0x22>
10002242:	e7fa      	b.n	1000223a <vTaskSwitchContext+0x1d6>
10002244:	5960      	ldr	r0, [r4, r5]
10002246:	3008      	adds	r0, #8
10002248:	f7fe fe56 	bl	10000ef8 <uxListRemove>
1000224c:	5963      	ldr	r3, [r4, r5]
1000224e:	5961      	ldr	r1, [r4, r5]
10002250:	6b1b      	ldr	r3, [r3, #48]	; 0x30
10002252:	3108      	adds	r1, #8
10002254:	0098      	lsls	r0, r3, #2
10002256:	18c0      	adds	r0, r0, r3
10002258:	4b44      	ldr	r3, [pc, #272]	; (1000236c <vTaskSwitchContext+0x308>)
1000225a:	0080      	lsls	r0, r0, #2
1000225c:	469c      	mov	ip, r3
1000225e:	4460      	add	r0, ip
10002260:	f7fe fe26 	bl	10000eb0 <vListInsertEnd>
10002264:	e776      	b.n	10002154 <vTaskSwitchContext+0xf0>
10002266:	4643      	mov	r3, r8
10002268:	4642      	mov	r2, r8
1000226a:	781b      	ldrb	r3, [r3, #0]
1000226c:	3301      	adds	r3, #1
1000226e:	7013      	strb	r3, [r2, #0]
10002270:	e725      	b.n	100020be <vTaskSwitchContext+0x5a>
10002272:	4b38      	ldr	r3, [pc, #224]	; (10002354 <vTaskSwitchContext+0x2f0>)
10002274:	4698      	mov	r8, r3
10002276:	4642      	mov	r2, r8
10002278:	785b      	ldrb	r3, [r3, #1]
1000227a:	3301      	adds	r3, #1
1000227c:	7053      	strb	r3, [r2, #1]
1000227e:	e70d      	b.n	1000209c <vTaskSwitchContext+0x38>
10002280:	2301      	movs	r3, #1
10002282:	469c      	mov	ip, r3
10002284:	684e      	ldr	r6, [r1, #4]
10002286:	6bcb      	ldr	r3, [r1, #60]	; 0x3c
10002288:	4661      	mov	r1, ip
1000228a:	400b      	ands	r3, r1
1000228c:	1ad2      	subs	r2, r2, r3
1000228e:	4649      	mov	r1, r9
10002290:	0033      	movs	r3, r6
10002292:	40cb      	lsrs	r3, r1
10002294:	4661      	mov	r1, ip
10002296:	4219      	tst	r1, r3
10002298:	d002      	beq.n	100022a0 <vTaskSwitchContext+0x23c>
1000229a:	5963      	ldr	r3, [r4, r5]
1000229c:	685b      	ldr	r3, [r3, #4]
1000229e:	439e      	bics	r6, r3
100022a0:	2303      	movs	r3, #3
100022a2:	4033      	ands	r3, r6
100022a4:	0859      	lsrs	r1, r3, #1
100022a6:	d011      	beq.n	100022cc <vTaskSwitchContext+0x268>
100022a8:	6863      	ldr	r3, [r4, #4]
100022aa:	6861      	ldr	r1, [r4, #4]
100022ac:	6b1d      	ldr	r5, [r3, #48]	; 0x30
100022ae:	2301      	movs	r3, #1
100022b0:	6bc9      	ldr	r1, [r1, #60]	; 0x3c
100022b2:	4019      	ands	r1, r3
100022b4:	1a6d      	subs	r5, r5, r1
100022b6:	4033      	ands	r3, r6
100022b8:	4295      	cmp	r5, r2
100022ba:	da07      	bge.n	100022cc <vTaskSwitchContext+0x268>
100022bc:	6861      	ldr	r1, [r4, #4]
100022be:	6b89      	ldr	r1, [r1, #56]	; 0x38
100022c0:	2900      	cmp	r1, #0
100022c2:	db03      	blt.n	100022cc <vTaskSwitchContext+0x268>
100022c4:	6861      	ldr	r1, [r4, #4]
100022c6:	6b89      	ldr	r1, [r1, #56]	; 0x38
100022c8:	2901      	cmp	r1, #1
100022ca:	dd2e      	ble.n	1000232a <vTaskSwitchContext+0x2c6>
100022cc:	07db      	lsls	r3, r3, #31
100022ce:	d592      	bpl.n	100021f6 <vTaskSwitchContext+0x192>
100022d0:	2501      	movs	r5, #1
100022d2:	6823      	ldr	r3, [r4, #0]
100022d4:	6821      	ldr	r1, [r4, #0]
100022d6:	6b1b      	ldr	r3, [r3, #48]	; 0x30
100022d8:	6bc9      	ldr	r1, [r1, #60]	; 0x3c
100022da:	4029      	ands	r1, r5
100022dc:	1a5b      	subs	r3, r3, r1
100022de:	429a      	cmp	r2, r3
100022e0:	dd07      	ble.n	100022f2 <vTaskSwitchContext+0x28e>
100022e2:	6823      	ldr	r3, [r4, #0]
100022e4:	6b9b      	ldr	r3, [r3, #56]	; 0x38
100022e6:	2b00      	cmp	r3, #0
100022e8:	db03      	blt.n	100022f2 <vTaskSwitchContext+0x28e>
100022ea:	6823      	ldr	r3, [r4, #0]
100022ec:	6b9b      	ldr	r3, [r3, #56]	; 0x38
100022ee:	2b01      	cmp	r3, #1
100022f0:	dd23      	ble.n	1000233a <vTaskSwitchContext+0x2d6>
100022f2:	1c43      	adds	r3, r0, #1
100022f4:	d100      	bne.n	100022f8 <vTaskSwitchContext+0x294>
100022f6:	e77e      	b.n	100021f6 <vTaskSwitchContext+0x192>
100022f8:	25d0      	movs	r5, #208	; 0xd0
100022fa:	062d      	lsls	r5, r5, #24
100022fc:	682a      	ldr	r2, [r5, #0]
100022fe:	4282      	cmp	r2, r0
10002300:	d00d      	beq.n	1000231e <vTaskSwitchContext+0x2ba>
10002302:	0086      	lsls	r6, r0, #2
10002304:	59a3      	ldr	r3, [r4, r6]
10002306:	6b9b      	ldr	r3, [r3, #56]	; 0x38
10002308:	3302      	adds	r3, #2
1000230a:	d100      	bne.n	1000230e <vTaskSwitchContext+0x2aa>
1000230c:	e776      	b.n	100021fc <vTaskSwitchContext+0x198>
1000230e:	f7fe fb5d 	bl	100009cc <vYieldCore>
10002312:	2202      	movs	r2, #2
10002314:	59a3      	ldr	r3, [r4, r6]
10002316:	4252      	negs	r2, r2
10002318:	639a      	str	r2, [r3, #56]	; 0x38
1000231a:	682a      	ldr	r2, [r5, #0]
1000231c:	e76e      	b.n	100021fc <vTaskSwitchContext+0x198>
1000231e:	2301      	movs	r3, #1
10002320:	4a0f      	ldr	r2, [pc, #60]	; (10002360 <vTaskSwitchContext+0x2fc>)
10002322:	0080      	lsls	r0, r0, #2
10002324:	5013      	str	r3, [r2, r0]
10002326:	682a      	ldr	r2, [r5, #0]
10002328:	e768      	b.n	100021fc <vTaskSwitchContext+0x198>
1000232a:	490d      	ldr	r1, [pc, #52]	; (10002360 <vTaskSwitchContext+0x2fc>)
1000232c:	6849      	ldr	r1, [r1, #4]
1000232e:	2900      	cmp	r1, #0
10002330:	d1cc      	bne.n	100022cc <vTaskSwitchContext+0x268>
10002332:	2b00      	cmp	r3, #0
10002334:	d107      	bne.n	10002346 <vTaskSwitchContext+0x2e2>
10002336:	2001      	movs	r0, #1
10002338:	e7de      	b.n	100022f8 <vTaskSwitchContext+0x294>
1000233a:	4b09      	ldr	r3, [pc, #36]	; (10002360 <vTaskSwitchContext+0x2fc>)
1000233c:	681b      	ldr	r3, [r3, #0]
1000233e:	2b00      	cmp	r3, #0
10002340:	d1d7      	bne.n	100022f2 <vTaskSwitchContext+0x28e>
10002342:	2000      	movs	r0, #0
10002344:	e7d8      	b.n	100022f8 <vTaskSwitchContext+0x294>
10002346:	002a      	movs	r2, r5
10002348:	2001      	movs	r0, #1
1000234a:	e7c1      	b.n	100022d0 <vTaskSwitchContext+0x26c>
1000234c:	d000013c 	.word	0xd000013c
10002350:	20020a10 	.word	0x20020a10
10002354:	20020a14 	.word	0x20020a14
10002358:	d0000138 	.word	0xd0000138
1000235c:	20020a30 	.word	0x20020a30
10002360:	20020b0c 	.word	0x20020b0c
10002364:	2000075c 	.word	0x2000075c
10002368:	20020a38 	.word	0x20020a38
1000236c:	20000778 	.word	0x20000778

10002370 <vTaskPlaceOnEventList>:
10002370:	b5f8      	push	{r3, r4, r5, r6, r7, lr}
10002372:	46ce      	mov	lr, r9
10002374:	4647      	mov	r7, r8
10002376:	000c      	movs	r4, r1
10002378:	b580      	push	{r7, lr}
1000237a:	f3ef 8210 	mrs	r2, PRIMASK
1000237e:	b672      	cpsid	i
10002380:	26d0      	movs	r6, #208	; 0xd0
10002382:	0636      	lsls	r6, r6, #24
10002384:	6833      	ldr	r3, [r6, #0]
10002386:	4d46      	ldr	r5, [pc, #280]	; (100024a0 <vTaskPlaceOnEventList+0x130>)
10002388:	009b      	lsls	r3, r3, #2
1000238a:	5959      	ldr	r1, [r3, r5]
1000238c:	f382 8810 	msr	PRIMASK, r2
10002390:	311c      	adds	r1, #28
10002392:	f7fe fd99 	bl	10000ec8 <vListInsert>
10002396:	4b43      	ldr	r3, [pc, #268]	; (100024a4 <vTaskPlaceOnEventList+0x134>)
10002398:	681f      	ldr	r7, [r3, #0]
1000239a:	4b43      	ldr	r3, [pc, #268]	; (100024a8 <vTaskPlaceOnEventList+0x138>)
1000239c:	681b      	ldr	r3, [r3, #0]
1000239e:	4698      	mov	r8, r3
100023a0:	4b42      	ldr	r3, [pc, #264]	; (100024ac <vTaskPlaceOnEventList+0x13c>)
100023a2:	681b      	ldr	r3, [r3, #0]
100023a4:	4699      	mov	r9, r3
100023a6:	f3ef 8110 	mrs	r1, PRIMASK
100023aa:	b672      	cpsid	i
100023ac:	6833      	ldr	r3, [r6, #0]
100023ae:	009b      	lsls	r3, r3, #2
100023b0:	595a      	ldr	r2, [r3, r5]
100023b2:	f381 8810 	msr	PRIMASK, r1
100023b6:	2379      	movs	r3, #121	; 0x79
100023b8:	2100      	movs	r1, #0
100023ba:	54d1      	strb	r1, [r2, r3]
100023bc:	f3ef 8210 	mrs	r2, PRIMASK
100023c0:	b672      	cpsid	i
100023c2:	6833      	ldr	r3, [r6, #0]
100023c4:	009b      	lsls	r3, r3, #2
100023c6:	5958      	ldr	r0, [r3, r5]
100023c8:	f382 8810 	msr	PRIMASK, r2
100023cc:	3008      	adds	r0, #8
100023ce:	f7fe fd93 	bl	10000ef8 <uxListRemove>
100023d2:	1c63      	adds	r3, r4, #1
100023d4:	d02d      	beq.n	10002432 <vTaskPlaceOnEventList+0xc2>
100023d6:	19e4      	adds	r4, r4, r7
100023d8:	f3ef 8210 	mrs	r2, PRIMASK
100023dc:	b672      	cpsid	i
100023de:	6833      	ldr	r3, [r6, #0]
100023e0:	009b      	lsls	r3, r3, #2
100023e2:	595b      	ldr	r3, [r3, r5]
100023e4:	f382 8810 	msr	PRIMASK, r2
100023e8:	609c      	str	r4, [r3, #8]
100023ea:	42a7      	cmp	r7, r4
100023ec:	d90f      	bls.n	1000240e <vTaskPlaceOnEventList+0x9e>
100023ee:	f3ef 8210 	mrs	r2, PRIMASK
100023f2:	b672      	cpsid	i
100023f4:	6833      	ldr	r3, [r6, #0]
100023f6:	009b      	lsls	r3, r3, #2
100023f8:	5959      	ldr	r1, [r3, r5]
100023fa:	f382 8810 	msr	PRIMASK, r2
100023fe:	4648      	mov	r0, r9
10002400:	3108      	adds	r1, #8
10002402:	f7fe fd61 	bl	10000ec8 <vListInsert>
10002406:	bcc0      	pop	{r6, r7}
10002408:	46b9      	mov	r9, r7
1000240a:	46b0      	mov	r8, r6
1000240c:	bdf8      	pop	{r3, r4, r5, r6, r7, pc}
1000240e:	f3ef 8210 	mrs	r2, PRIMASK
10002412:	b672      	cpsid	i
10002414:	6833      	ldr	r3, [r6, #0]
10002416:	009b      	lsls	r3, r3, #2
10002418:	5959      	ldr	r1, [r3, r5]
1000241a:	f382 8810 	msr	PRIMASK, r2
1000241e:	4640      	mov	r0, r8
10002420:	3108      	adds	r1, #8
10002422:	f7fe fd51 	bl	10000ec8 <vListInsert>
10002426:	4b22      	ldr	r3, [pc, #136]	; (100024b0 <vTaskPlaceOnEventList+0x140>)
10002428:	681a      	ldr	r2, [r3, #0]
1000242a:	4294      	cmp	r4, r2
1000242c:	d2eb      	bcs.n	10002406 <vTaskPlaceOnEventList+0x96>
1000242e:	601c      	str	r4, [r3, #0]
10002430:	e7e9      	b.n	10002406 <vTaskPlaceOnEventList+0x96>
10002432:	4b20      	ldr	r3, [pc, #128]	; (100024b4 <vTaskPlaceOnEventList+0x144>)
10002434:	685a      	ldr	r2, [r3, #4]
10002436:	f3ef 8010 	mrs	r0, PRIMASK
1000243a:	b672      	cpsid	i
1000243c:	6831      	ldr	r1, [r6, #0]
1000243e:	0089      	lsls	r1, r1, #2
10002440:	5949      	ldr	r1, [r1, r5]
10002442:	f380 8810 	msr	PRIMASK, r0
10002446:	60ca      	str	r2, [r1, #12]
10002448:	f3ef 8010 	mrs	r0, PRIMASK
1000244c:	b672      	cpsid	i
1000244e:	6831      	ldr	r1, [r6, #0]
10002450:	0089      	lsls	r1, r1, #2
10002452:	5949      	ldr	r1, [r1, r5]
10002454:	f380 8810 	msr	PRIMASK, r0
10002458:	6890      	ldr	r0, [r2, #8]
1000245a:	6108      	str	r0, [r1, #16]
1000245c:	f3ef 8010 	mrs	r0, PRIMASK
10002460:	b672      	cpsid	i
10002462:	6831      	ldr	r1, [r6, #0]
10002464:	0089      	lsls	r1, r1, #2
10002466:	5949      	ldr	r1, [r1, r5]
10002468:	f380 8810 	msr	PRIMASK, r0
1000246c:	6890      	ldr	r0, [r2, #8]
1000246e:	3108      	adds	r1, #8
10002470:	6041      	str	r1, [r0, #4]
10002472:	f3ef 8010 	mrs	r0, PRIMASK
10002476:	b672      	cpsid	i
10002478:	6831      	ldr	r1, [r6, #0]
1000247a:	0089      	lsls	r1, r1, #2
1000247c:	5949      	ldr	r1, [r1, r5]
1000247e:	f380 8810 	msr	PRIMASK, r0
10002482:	3108      	adds	r1, #8
10002484:	6091      	str	r1, [r2, #8]
10002486:	f3ef 8110 	mrs	r1, PRIMASK
1000248a:	b672      	cpsid	i
1000248c:	6832      	ldr	r2, [r6, #0]
1000248e:	0092      	lsls	r2, r2, #2
10002490:	5952      	ldr	r2, [r2, r5]
10002492:	f381 8810 	msr	PRIMASK, r1
10002496:	6193      	str	r3, [r2, #24]
10002498:	681a      	ldr	r2, [r3, #0]
1000249a:	3201      	adds	r2, #1
1000249c:	601a      	str	r2, [r3, #0]
1000249e:	e7b2      	b.n	10002406 <vTaskPlaceOnEventList+0x96>
100024a0:	2000075c 	.word	0x2000075c
100024a4:	20020b00 	.word	0x20020b00
100024a8:	20000768 	.word	0x20000768
100024ac:	20000770 	.word	0x20000770
100024b0:	20020aa4 	.word	0x20020aa4
100024b4:	20020ad8 	.word	0x20020ad8

100024b8 <vTaskPlaceOnUnorderedEventList>:
100024b8:	b570      	push	{r4, r5, r6, lr}
100024ba:	0003      	movs	r3, r0
100024bc:	000e      	movs	r6, r1
100024be:	0010      	movs	r0, r2
100024c0:	f3ef 8110 	mrs	r1, PRIMASK
100024c4:	b672      	cpsid	i
100024c6:	25d0      	movs	r5, #208	; 0xd0
100024c8:	062d      	lsls	r5, r5, #24
100024ca:	682a      	ldr	r2, [r5, #0]
100024cc:	4c20      	ldr	r4, [pc, #128]	; (10002550 <vTaskPlaceOnUnorderedEventList+0x98>)
100024ce:	0092      	lsls	r2, r2, #2
100024d0:	5912      	ldr	r2, [r2, r4]
100024d2:	f381 8810 	msr	PRIMASK, r1
100024d6:	2180      	movs	r1, #128	; 0x80
100024d8:	0609      	lsls	r1, r1, #24
100024da:	4331      	orrs	r1, r6
100024dc:	61d1      	str	r1, [r2, #28]
100024de:	6859      	ldr	r1, [r3, #4]
100024e0:	f3ef 8610 	mrs	r6, PRIMASK
100024e4:	b672      	cpsid	i
100024e6:	682a      	ldr	r2, [r5, #0]
100024e8:	0092      	lsls	r2, r2, #2
100024ea:	5912      	ldr	r2, [r2, r4]
100024ec:	f386 8810 	msr	PRIMASK, r6
100024f0:	6211      	str	r1, [r2, #32]
100024f2:	f3ef 8610 	mrs	r6, PRIMASK
100024f6:	b672      	cpsid	i
100024f8:	682a      	ldr	r2, [r5, #0]
100024fa:	0092      	lsls	r2, r2, #2
100024fc:	5912      	ldr	r2, [r2, r4]
100024fe:	f386 8810 	msr	PRIMASK, r6
10002502:	688e      	ldr	r6, [r1, #8]
10002504:	6256      	str	r6, [r2, #36]	; 0x24
10002506:	f3ef 8610 	mrs	r6, PRIMASK
1000250a:	b672      	cpsid	i
1000250c:	682a      	ldr	r2, [r5, #0]
1000250e:	0092      	lsls	r2, r2, #2
10002510:	5912      	ldr	r2, [r2, r4]
10002512:	f386 8810 	msr	PRIMASK, r6
10002516:	688e      	ldr	r6, [r1, #8]
10002518:	321c      	adds	r2, #28
1000251a:	6072      	str	r2, [r6, #4]
1000251c:	f3ef 8610 	mrs	r6, PRIMASK
10002520:	b672      	cpsid	i
10002522:	682a      	ldr	r2, [r5, #0]
10002524:	0092      	lsls	r2, r2, #2
10002526:	5912      	ldr	r2, [r2, r4]
10002528:	f386 8810 	msr	PRIMASK, r6
1000252c:	321c      	adds	r2, #28
1000252e:	608a      	str	r2, [r1, #8]
10002530:	f3ef 8110 	mrs	r1, PRIMASK
10002534:	b672      	cpsid	i
10002536:	682a      	ldr	r2, [r5, #0]
10002538:	0092      	lsls	r2, r2, #2
1000253a:	5912      	ldr	r2, [r2, r4]
1000253c:	f381 8810 	msr	PRIMASK, r1
10002540:	62d3      	str	r3, [r2, #44]	; 0x2c
10002542:	681a      	ldr	r2, [r3, #0]
10002544:	2101      	movs	r1, #1
10002546:	3201      	adds	r2, #1
10002548:	601a      	str	r2, [r3, #0]
1000254a:	f7ff f85b 	bl	10001604 <prvAddCurrentTaskToDelayedList>
1000254e:	bd70      	pop	{r4, r5, r6, pc}
10002550:	2000075c 	.word	0x2000075c

10002554 <vTaskPlaceOnEventListRestricted>:
10002554:	b5f8      	push	{r3, r4, r5, r6, r7, lr}
10002556:	0003      	movs	r3, r0
10002558:	0008      	movs	r0, r1
1000255a:	0011      	movs	r1, r2
1000255c:	685a      	ldr	r2, [r3, #4]
1000255e:	f3ef 8c10 	mrs	ip, PRIMASK
10002562:	b672      	cpsid	i
10002564:	25d0      	movs	r5, #208	; 0xd0
10002566:	062d      	lsls	r5, r5, #24
10002568:	682e      	ldr	r6, [r5, #0]
1000256a:	4c1c      	ldr	r4, [pc, #112]	; (100025dc <vTaskPlaceOnEventListRestricted+0x88>)
1000256c:	00b6      	lsls	r6, r6, #2
1000256e:	5936      	ldr	r6, [r6, r4]
10002570:	f38c 8810 	msr	PRIMASK, ip
10002574:	6232      	str	r2, [r6, #32]
10002576:	f3ef 8c10 	mrs	ip, PRIMASK
1000257a:	b672      	cpsid	i
1000257c:	682e      	ldr	r6, [r5, #0]
1000257e:	00b6      	lsls	r6, r6, #2
10002580:	5936      	ldr	r6, [r6, r4]
10002582:	f38c 8810 	msr	PRIMASK, ip
10002586:	6897      	ldr	r7, [r2, #8]
10002588:	6277      	str	r7, [r6, #36]	; 0x24
1000258a:	f3ef 8c10 	mrs	ip, PRIMASK
1000258e:	b672      	cpsid	i
10002590:	682e      	ldr	r6, [r5, #0]
10002592:	00b6      	lsls	r6, r6, #2
10002594:	5936      	ldr	r6, [r6, r4]
10002596:	f38c 8810 	msr	PRIMASK, ip
1000259a:	6897      	ldr	r7, [r2, #8]
1000259c:	361c      	adds	r6, #28
1000259e:	607e      	str	r6, [r7, #4]
100025a0:	f3ef 8c10 	mrs	ip, PRIMASK
100025a4:	b672      	cpsid	i
100025a6:	682e      	ldr	r6, [r5, #0]
100025a8:	00b6      	lsls	r6, r6, #2
100025aa:	5936      	ldr	r6, [r6, r4]
100025ac:	f38c 8810 	msr	PRIMASK, ip
100025b0:	361c      	adds	r6, #28
100025b2:	6096      	str	r6, [r2, #8]
100025b4:	f3ef 8610 	mrs	r6, PRIMASK
100025b8:	b672      	cpsid	i
100025ba:	682a      	ldr	r2, [r5, #0]
100025bc:	0092      	lsls	r2, r2, #2
100025be:	5912      	ldr	r2, [r2, r4]
100025c0:	f386 8810 	msr	PRIMASK, r6
100025c4:	62d3      	str	r3, [r2, #44]	; 0x2c
100025c6:	681a      	ldr	r2, [r3, #0]
100025c8:	3201      	adds	r2, #1
100025ca:	601a      	str	r2, [r3, #0]
100025cc:	2900      	cmp	r1, #0
100025ce:	d001      	beq.n	100025d4 <vTaskPlaceOnEventListRestricted+0x80>
100025d0:	2001      	movs	r0, #1
100025d2:	4240      	negs	r0, r0
100025d4:	f7ff f816 	bl	10001604 <prvAddCurrentTaskToDelayedList>
100025d8:	bdf8      	pop	{r3, r4, r5, r6, r7, pc}
100025da:	46c0      	nop			; (mov r8, r8)
100025dc:	2000075c 	.word	0x2000075c

100025e0 <xTaskRemoveFromEventList>:
100025e0:	68c3      	ldr	r3, [r0, #12]
100025e2:	b570      	push	{r4, r5, r6, lr}
100025e4:	68d8      	ldr	r0, [r3, #12]
100025e6:	6a01      	ldr	r1, [r0, #32]
100025e8:	6a42      	ldr	r2, [r0, #36]	; 0x24
100025ea:	6ac3      	ldr	r3, [r0, #44]	; 0x2c
100025ec:	608a      	str	r2, [r1, #8]
100025ee:	6051      	str	r1, [r2, #4]
100025f0:	0001      	movs	r1, r0
100025f2:	685c      	ldr	r4, [r3, #4]
100025f4:	311c      	adds	r1, #28
100025f6:	428c      	cmp	r4, r1
100025f8:	d045      	beq.n	10002686 <xTaskRemoveFromEventList+0xa6>
100025fa:	2200      	movs	r2, #0
100025fc:	62c2      	str	r2, [r0, #44]	; 0x2c
100025fe:	681a      	ldr	r2, [r3, #0]
10002600:	3a01      	subs	r2, #1
10002602:	601a      	str	r2, [r3, #0]
10002604:	4b26      	ldr	r3, [pc, #152]	; (100026a0 <xTaskRemoveFromEventList+0xc0>)
10002606:	681b      	ldr	r3, [r3, #0]
10002608:	2b00      	cmp	r3, #0
1000260a:	d12d      	bne.n	10002668 <xTaskRemoveFromEventList+0x88>
1000260c:	0004      	movs	r4, r0
1000260e:	68c2      	ldr	r2, [r0, #12]
10002610:	6901      	ldr	r1, [r0, #16]
10002612:	6983      	ldr	r3, [r0, #24]
10002614:	6091      	str	r1, [r2, #8]
10002616:	6901      	ldr	r1, [r0, #16]
10002618:	3408      	adds	r4, #8
1000261a:	604a      	str	r2, [r1, #4]
1000261c:	685a      	ldr	r2, [r3, #4]
1000261e:	42a2      	cmp	r2, r4
10002620:	d033      	beq.n	1000268a <xTaskRemoveFromEventList+0xaa>
10002622:	681a      	ldr	r2, [r3, #0]
10002624:	3a01      	subs	r2, #1
10002626:	601a      	str	r2, [r3, #0]
10002628:	4b1e      	ldr	r3, [pc, #120]	; (100026a4 <xTaskRemoveFromEventList+0xc4>)
1000262a:	6b02      	ldr	r2, [r0, #48]	; 0x30
1000262c:	6819      	ldr	r1, [r3, #0]
1000262e:	428a      	cmp	r2, r1
10002630:	d827      	bhi.n	10002682 <xTaskRemoveFromEventList+0xa2>
10002632:	0093      	lsls	r3, r2, #2
10002634:	491c      	ldr	r1, [pc, #112]	; (100026a8 <xTaskRemoveFromEventList+0xc8>)
10002636:	189b      	adds	r3, r3, r2
10002638:	009b      	lsls	r3, r3, #2
1000263a:	18cd      	adds	r5, r1, r3
1000263c:	686a      	ldr	r2, [r5, #4]
1000263e:	6896      	ldr	r6, [r2, #8]
10002640:	60c2      	str	r2, [r0, #12]
10002642:	6106      	str	r6, [r0, #16]
10002644:	6896      	ldr	r6, [r2, #8]
10002646:	6074      	str	r4, [r6, #4]
10002648:	6094      	str	r4, [r2, #8]
1000264a:	58ca      	ldr	r2, [r1, r3]
1000264c:	6185      	str	r5, [r0, #24]
1000264e:	3201      	adds	r2, #1
10002650:	50ca      	str	r2, [r1, r3]
10002652:	f7fe ff77 	bl	10001544 <prvYieldForTask>
10002656:	23d0      	movs	r3, #208	; 0xd0
10002658:	061b      	lsls	r3, r3, #24
1000265a:	681b      	ldr	r3, [r3, #0]
1000265c:	4a13      	ldr	r2, [pc, #76]	; (100026ac <xTaskRemoveFromEventList+0xcc>)
1000265e:	009b      	lsls	r3, r3, #2
10002660:	5898      	ldr	r0, [r3, r2]
10002662:	1e43      	subs	r3, r0, #1
10002664:	4198      	sbcs	r0, r3
10002666:	bd70      	pop	{r4, r5, r6, pc}
10002668:	4b11      	ldr	r3, [pc, #68]	; (100026b0 <xTaskRemoveFromEventList+0xd0>)
1000266a:	685a      	ldr	r2, [r3, #4]
1000266c:	6894      	ldr	r4, [r2, #8]
1000266e:	6202      	str	r2, [r0, #32]
10002670:	6244      	str	r4, [r0, #36]	; 0x24
10002672:	6894      	ldr	r4, [r2, #8]
10002674:	6061      	str	r1, [r4, #4]
10002676:	6091      	str	r1, [r2, #8]
10002678:	681a      	ldr	r2, [r3, #0]
1000267a:	62c3      	str	r3, [r0, #44]	; 0x2c
1000267c:	3201      	adds	r2, #1
1000267e:	601a      	str	r2, [r3, #0]
10002680:	e7e7      	b.n	10002652 <xTaskRemoveFromEventList+0x72>
10002682:	601a      	str	r2, [r3, #0]
10002684:	e7d5      	b.n	10002632 <xTaskRemoveFromEventList+0x52>
10002686:	605a      	str	r2, [r3, #4]
10002688:	e7b7      	b.n	100025fa <xTaskRemoveFromEventList+0x1a>
1000268a:	681a      	ldr	r2, [r3, #0]
1000268c:	6059      	str	r1, [r3, #4]
1000268e:	3a01      	subs	r2, #1
10002690:	601a      	str	r2, [r3, #0]
10002692:	4b04      	ldr	r3, [pc, #16]	; (100026a4 <xTaskRemoveFromEventList+0xc4>)
10002694:	6b02      	ldr	r2, [r0, #48]	; 0x30
10002696:	6819      	ldr	r1, [r3, #0]
10002698:	428a      	cmp	r2, r1
1000269a:	d9ca      	bls.n	10002632 <xTaskRemoveFromEventList+0x52>
1000269c:	e7f1      	b.n	10002682 <xTaskRemoveFromEventList+0xa2>
1000269e:	46c0      	nop			; (mov r8, r8)
100026a0:	20020a30 	.word	0x20020a30
100026a4:	20020a38 	.word	0x20020a38
100026a8:	20000778 	.word	0x20000778
100026ac:	20020b0c 	.word	0x20020b0c
100026b0:	20020ab8 	.word	0x20020ab8

100026b4 <vTaskInternalSetTimeOutState>:
100026b4:	4b03      	ldr	r3, [pc, #12]	; (100026c4 <vTaskInternalSetTimeOutState+0x10>)
100026b6:	681b      	ldr	r3, [r3, #0]
100026b8:	6003      	str	r3, [r0, #0]
100026ba:	4b03      	ldr	r3, [pc, #12]	; (100026c8 <vTaskInternalSetTimeOutState+0x14>)
100026bc:	681b      	ldr	r3, [r3, #0]
100026be:	6043      	str	r3, [r0, #4]
100026c0:	4770      	bx	lr
100026c2:	46c0      	nop			; (mov r8, r8)
100026c4:	20020aa8 	.word	0x20020aa8
100026c8:	20020b00 	.word	0x20020b00

100026cc <xTaskCheckForTimeOut>:
100026cc:	b5f8      	push	{r3, r4, r5, r6, r7, lr}
100026ce:	46ce      	mov	lr, r9
100026d0:	4647      	mov	r7, r8
100026d2:	0004      	movs	r4, r0
100026d4:	000d      	movs	r5, r1
100026d6:	b580      	push	{r7, lr}
100026d8:	b672      	cpsid	i
100026da:	4e57      	ldr	r6, [pc, #348]	; (10002838 <xTaskCheckForTimeOut+0x16c>)
100026dc:	6833      	ldr	r3, [r6, #0]
100026de:	2b00      	cmp	r3, #0
100026e0:	d010      	beq.n	10002704 <xTaskCheckForTimeOut+0x38>
100026e2:	23d0      	movs	r3, #208	; 0xd0
100026e4:	061b      	lsls	r3, r3, #24
100026e6:	6818      	ldr	r0, [r3, #0]
100026e8:	4a54      	ldr	r2, [pc, #336]	; (1000283c <xTaskCheckForTimeOut+0x170>)
100026ea:	0081      	lsls	r1, r0, #2
100026ec:	5853      	ldr	r3, [r2, r1]
100026ee:	2b00      	cmp	r3, #0
100026f0:	d058      	beq.n	100027a4 <xTaskCheckForTimeOut+0xd8>
100026f2:	3301      	adds	r3, #1
100026f4:	5053      	str	r3, [r2, r1]
100026f6:	23d0      	movs	r3, #208	; 0xd0
100026f8:	061b      	lsls	r3, r3, #24
100026fa:	681b      	ldr	r3, [r3, #0]
100026fc:	009b      	lsls	r3, r3, #2
100026fe:	58d3      	ldr	r3, [r2, r3]
10002700:	2b01      	cmp	r3, #1
10002702:	d048      	beq.n	10002796 <xTaskCheckForTimeOut+0xca>
10002704:	484e      	ldr	r0, [pc, #312]	; (10002840 <xTaskCheckForTimeOut+0x174>)
10002706:	6803      	ldr	r3, [r0, #0]
10002708:	4698      	mov	r8, r3
1000270a:	6863      	ldr	r3, [r4, #4]
1000270c:	4699      	mov	r9, r3
1000270e:	f3ef 8c10 	mrs	ip, PRIMASK
10002712:	b672      	cpsid	i
10002714:	21d0      	movs	r1, #208	; 0xd0
10002716:	0609      	lsls	r1, r1, #24
10002718:	680b      	ldr	r3, [r1, #0]
1000271a:	4a4a      	ldr	r2, [pc, #296]	; (10002844 <xTaskCheckForTimeOut+0x178>)
1000271c:	009b      	lsls	r3, r3, #2
1000271e:	589f      	ldr	r7, [r3, r2]
10002720:	f38c 8810 	msr	PRIMASK, ip
10002724:	2379      	movs	r3, #121	; 0x79
10002726:	5cff      	ldrb	r7, [r7, r3]
10002728:	2f00      	cmp	r7, #0
1000272a:	d014      	beq.n	10002756 <xTaskCheckForTimeOut+0x8a>
1000272c:	f3ef 8010 	mrs	r0, PRIMASK
10002730:	b672      	cpsid	i
10002732:	6809      	ldr	r1, [r1, #0]
10002734:	0089      	lsls	r1, r1, #2
10002736:	588a      	ldr	r2, [r1, r2]
10002738:	f380 8810 	msr	PRIMASK, r0
1000273c:	2100      	movs	r1, #0
1000273e:	2401      	movs	r4, #1
10002740:	54d1      	strb	r1, [r2, r3]
10002742:	6833      	ldr	r3, [r6, #0]
10002744:	2b00      	cmp	r3, #0
10002746:	d001      	beq.n	1000274c <xTaskCheckForTimeOut+0x80>
10002748:	f7fe fffe 	bl	10001748 <vTaskExitCritical.part.0>
1000274c:	0020      	movs	r0, r4
1000274e:	bcc0      	pop	{r6, r7}
10002750:	46b9      	mov	r9, r7
10002752:	46b0      	mov	r8, r6
10002754:	bdf8      	pop	{r3, r4, r5, r6, r7, pc}
10002756:	682b      	ldr	r3, [r5, #0]
10002758:	1c5a      	adds	r2, r3, #1
1000275a:	d01a      	beq.n	10002792 <xTaskCheckForTimeOut+0xc6>
1000275c:	4a3a      	ldr	r2, [pc, #232]	; (10002848 <xTaskCheckForTimeOut+0x17c>)
1000275e:	6827      	ldr	r7, [r4, #0]
10002760:	6811      	ldr	r1, [r2, #0]
10002762:	428f      	cmp	r7, r1
10002764:	d006      	beq.n	10002774 <xTaskCheckForTimeOut+0xa8>
10002766:	6861      	ldr	r1, [r4, #4]
10002768:	4541      	cmp	r1, r8
1000276a:	d803      	bhi.n	10002774 <xTaskCheckForTimeOut+0xa8>
1000276c:	2300      	movs	r3, #0
1000276e:	2401      	movs	r4, #1
10002770:	602b      	str	r3, [r5, #0]
10002772:	e7e6      	b.n	10002742 <xTaskCheckForTimeOut+0x76>
10002774:	4641      	mov	r1, r8
10002776:	464f      	mov	r7, r9
10002778:	1bc9      	subs	r1, r1, r7
1000277a:	428b      	cmp	r3, r1
1000277c:	d9f6      	bls.n	1000276c <xTaskCheckForTimeOut+0xa0>
1000277e:	4641      	mov	r1, r8
10002780:	1a5b      	subs	r3, r3, r1
10002782:	444b      	add	r3, r9
10002784:	602b      	str	r3, [r5, #0]
10002786:	6813      	ldr	r3, [r2, #0]
10002788:	6023      	str	r3, [r4, #0]
1000278a:	6803      	ldr	r3, [r0, #0]
1000278c:	6063      	str	r3, [r4, #4]
1000278e:	2400      	movs	r4, #0
10002790:	e7d7      	b.n	10002742 <xTaskCheckForTimeOut+0x76>
10002792:	2400      	movs	r4, #0
10002794:	e7d5      	b.n	10002742 <xTaskCheckForTimeOut+0x76>
10002796:	4b2d      	ldr	r3, [pc, #180]	; (1000284c <xTaskCheckForTimeOut+0x180>)
10002798:	681b      	ldr	r3, [r3, #0]
1000279a:	2b00      	cmp	r3, #0
1000279c:	d1b2      	bne.n	10002704 <xTaskCheckForTimeOut+0x38>
1000279e:	f7ff f81d 	bl	100017dc <prvCheckForRunStateChange>
100027a2:	e7af      	b.n	10002704 <xTaskCheckForTimeOut+0x38>
100027a4:	492a      	ldr	r1, [pc, #168]	; (10002850 <xTaskCheckForTimeOut+0x184>)
100027a6:	680b      	ldr	r3, [r1, #0]
100027a8:	2b00      	cmp	r3, #0
100027aa:	d024      	beq.n	100027f6 <xTaskCheckForTimeOut+0x12a>
100027ac:	4b29      	ldr	r3, [pc, #164]	; (10002854 <xTaskCheckForTimeOut+0x188>)
100027ae:	f3bf 8f5f 	dmb	sy
100027b2:	4929      	ldr	r1, [pc, #164]	; (10002858 <xTaskCheckForTimeOut+0x18c>)
100027b4:	4689      	mov	r9, r1
100027b6:	2101      	movs	r1, #1
100027b8:	464f      	mov	r7, r9
100027ba:	7079      	strb	r1, [r7, #1]
100027bc:	2702      	movs	r7, #2
100027be:	46bc      	mov	ip, r7
100027c0:	4667      	mov	r7, ip
100027c2:	5c19      	ldrb	r1, [r3, r0]
100027c4:	4339      	orrs	r1, r7
100027c6:	5419      	strb	r1, [r3, r0]
100027c8:	21d0      	movs	r1, #208	; 0xd0
100027ca:	0609      	lsls	r1, r1, #24
100027cc:	468c      	mov	ip, r1
100027ce:	6808      	ldr	r0, [r1, #0]
100027d0:	4922      	ldr	r1, [pc, #136]	; (1000285c <xTaskCheckForTimeOut+0x190>)
100027d2:	680f      	ldr	r7, [r1, #0]
100027d4:	2f00      	cmp	r7, #0
100027d6:	d016      	beq.n	10002806 <xTaskCheckForTimeOut+0x13a>
100027d8:	f3bf 8f5f 	dmb	sy
100027dc:	2101      	movs	r1, #1
100027de:	464f      	mov	r7, r9
100027e0:	7039      	strb	r1, [r7, #0]
100027e2:	2701      	movs	r7, #1
100027e4:	5c19      	ldrb	r1, [r3, r0]
100027e6:	4339      	orrs	r1, r7
100027e8:	5419      	strb	r1, [r3, r0]
100027ea:	23d0      	movs	r3, #208	; 0xd0
100027ec:	061b      	lsls	r3, r3, #24
100027ee:	6818      	ldr	r0, [r3, #0]
100027f0:	0081      	lsls	r1, r0, #2
100027f2:	5853      	ldr	r3, [r2, r1]
100027f4:	e77d      	b.n	100026f2 <xTaskCheckForTimeOut+0x26>
100027f6:	4b17      	ldr	r3, [pc, #92]	; (10002854 <xTaskCheckForTimeOut+0x188>)
100027f8:	5c1f      	ldrb	r7, [r3, r0]
100027fa:	07bf      	lsls	r7, r7, #30
100027fc:	d40a      	bmi.n	10002814 <xTaskCheckForTimeOut+0x148>
100027fe:	680f      	ldr	r7, [r1, #0]
10002800:	2f00      	cmp	r7, #0
10002802:	d1d4      	bne.n	100027ae <xTaskCheckForTimeOut+0xe2>
10002804:	e7fb      	b.n	100027fe <xTaskCheckForTimeOut+0x132>
10002806:	5c1f      	ldrb	r7, [r3, r0]
10002808:	07ff      	lsls	r7, r7, #31
1000280a:	d40a      	bmi.n	10002822 <xTaskCheckForTimeOut+0x156>
1000280c:	680f      	ldr	r7, [r1, #0]
1000280e:	2f00      	cmp	r7, #0
10002810:	d1e2      	bne.n	100027d8 <xTaskCheckForTimeOut+0x10c>
10002812:	e7fb      	b.n	1000280c <xTaskCheckForTimeOut+0x140>
10002814:	4910      	ldr	r1, [pc, #64]	; (10002858 <xTaskCheckForTimeOut+0x18c>)
10002816:	4689      	mov	r9, r1
10002818:	4648      	mov	r0, r9
1000281a:	7849      	ldrb	r1, [r1, #1]
1000281c:	3101      	adds	r1, #1
1000281e:	7041      	strb	r1, [r0, #1]
10002820:	e7d2      	b.n	100027c8 <xTaskCheckForTimeOut+0xfc>
10002822:	464b      	mov	r3, r9
10002824:	4649      	mov	r1, r9
10002826:	781b      	ldrb	r3, [r3, #0]
10002828:	3301      	adds	r3, #1
1000282a:	700b      	strb	r3, [r1, #0]
1000282c:	4663      	mov	r3, ip
1000282e:	6818      	ldr	r0, [r3, #0]
10002830:	0081      	lsls	r1, r0, #2
10002832:	5853      	ldr	r3, [r2, r1]
10002834:	e75d      	b.n	100026f2 <xTaskCheckForTimeOut+0x26>
10002836:	46c0      	nop			; (mov r8, r8)
10002838:	20020acc 	.word	0x20020acc
1000283c:	20020a20 	.word	0x20020a20
10002840:	20020b00 	.word	0x20020b00
10002844:	2000075c 	.word	0x2000075c
10002848:	20020aa8 	.word	0x20020aa8
1000284c:	20020a30 	.word	0x20020a30
10002850:	d000013c 	.word	0xd000013c
10002854:	20020a10 	.word	0x20020a10
10002858:	20020a14 	.word	0x20020a14
1000285c:	d0000138 	.word	0xd0000138

10002860 <vTaskMissedYield>:
10002860:	23d0      	movs	r3, #208	; 0xd0
10002862:	2101      	movs	r1, #1
10002864:	061b      	lsls	r3, r3, #24
10002866:	681b      	ldr	r3, [r3, #0]
10002868:	4a01      	ldr	r2, [pc, #4]	; (10002870 <vTaskMissedYield+0x10>)
1000286a:	009b      	lsls	r3, r3, #2
1000286c:	5099      	str	r1, [r3, r2]
1000286e:	4770      	bx	lr
10002870:	20020b0c 	.word	0x20020b0c

10002874 <xTaskGetCurrentTaskHandle>:
10002874:	f3ef 8210 	mrs	r2, PRIMASK
10002878:	b672      	cpsid	i
1000287a:	23d0      	movs	r3, #208	; 0xd0
1000287c:	061b      	lsls	r3, r3, #24
1000287e:	681b      	ldr	r3, [r3, #0]
10002880:	4902      	ldr	r1, [pc, #8]	; (1000288c <xTaskGetCurrentTaskHandle+0x18>)
10002882:	009b      	lsls	r3, r3, #2
10002884:	5858      	ldr	r0, [r3, r1]
10002886:	f382 8810 	msr	PRIMASK, r2
1000288a:	4770      	bx	lr
1000288c:	2000075c 	.word	0x2000075c

10002890 <xTaskPriorityDisinherit>:
10002890:	b570      	push	{r4, r5, r6, lr}
10002892:	1e04      	subs	r4, r0, #0
10002894:	d008      	beq.n	100028a8 <xTaskPriorityDisinherit+0x18>
10002896:	6dc3      	ldr	r3, [r0, #92]	; 0x5c
10002898:	6b02      	ldr	r2, [r0, #48]	; 0x30
1000289a:	6d81      	ldr	r1, [r0, #88]	; 0x58
1000289c:	3b01      	subs	r3, #1
1000289e:	65c3      	str	r3, [r0, #92]	; 0x5c
100028a0:	428a      	cmp	r2, r1
100028a2:	d001      	beq.n	100028a8 <xTaskPriorityDisinherit+0x18>
100028a4:	2b00      	cmp	r3, #0
100028a6:	d002      	beq.n	100028ae <xTaskPriorityDisinherit+0x1e>
100028a8:	2500      	movs	r5, #0
100028aa:	0028      	movs	r0, r5
100028ac:	bd70      	pop	{r4, r5, r6, pc}
100028ae:	0005      	movs	r5, r0
100028b0:	3508      	adds	r5, #8
100028b2:	0028      	movs	r0, r5
100028b4:	f7fe fb20 	bl	10000ef8 <uxListRemove>
100028b8:	2320      	movs	r3, #32
100028ba:	6da2      	ldr	r2, [r4, #88]	; 0x58
100028bc:	1a9b      	subs	r3, r3, r2
100028be:	61e3      	str	r3, [r4, #28]
100028c0:	4b1c      	ldr	r3, [pc, #112]	; (10002934 <xTaskPriorityDisinherit+0xa4>)
100028c2:	6322      	str	r2, [r4, #48]	; 0x30
100028c4:	6819      	ldr	r1, [r3, #0]
100028c6:	428a      	cmp	r2, r1
100028c8:	d900      	bls.n	100028cc <xTaskPriorityDisinherit+0x3c>
100028ca:	601a      	str	r2, [r3, #0]
100028cc:	0093      	lsls	r3, r2, #2
100028ce:	491a      	ldr	r1, [pc, #104]	; (10002938 <xTaskPriorityDisinherit+0xa8>)
100028d0:	189b      	adds	r3, r3, r2
100028d2:	009b      	lsls	r3, r3, #2
100028d4:	18c8      	adds	r0, r1, r3
100028d6:	6842      	ldr	r2, [r0, #4]
100028d8:	6896      	ldr	r6, [r2, #8]
100028da:	60e2      	str	r2, [r4, #12]
100028dc:	6126      	str	r6, [r4, #16]
100028de:	6896      	ldr	r6, [r2, #8]
100028e0:	6075      	str	r5, [r6, #4]
100028e2:	6095      	str	r5, [r2, #8]
100028e4:	58ca      	ldr	r2, [r1, r3]
100028e6:	61a0      	str	r0, [r4, #24]
100028e8:	3201      	adds	r2, #1
100028ea:	50ca      	str	r2, [r1, r3]
100028ec:	6ba3      	ldr	r3, [r4, #56]	; 0x38
100028ee:	2501      	movs	r5, #1
100028f0:	2b00      	cmp	r3, #0
100028f2:	dbda      	blt.n	100028aa <xTaskPriorityDisinherit+0x1a>
100028f4:	6ba3      	ldr	r3, [r4, #56]	; 0x38
100028f6:	2b01      	cmp	r3, #1
100028f8:	dcd7      	bgt.n	100028aa <xTaskPriorityDisinherit+0x1a>
100028fa:	23d0      	movs	r3, #208	; 0xd0
100028fc:	061b      	lsls	r3, r3, #24
100028fe:	6ba2      	ldr	r2, [r4, #56]	; 0x38
10002900:	681b      	ldr	r3, [r3, #0]
10002902:	429a      	cmp	r2, r3
10002904:	d010      	beq.n	10002928 <xTaskPriorityDisinherit+0x98>
10002906:	6ba3      	ldr	r3, [r4, #56]	; 0x38
10002908:	4e0c      	ldr	r6, [pc, #48]	; (1000293c <xTaskPriorityDisinherit+0xac>)
1000290a:	009b      	lsls	r3, r3, #2
1000290c:	599b      	ldr	r3, [r3, r6]
1000290e:	6b9b      	ldr	r3, [r3, #56]	; 0x38
10002910:	3302      	adds	r3, #2
10002912:	d0ca      	beq.n	100028aa <xTaskPriorityDisinherit+0x1a>
10002914:	6ba0      	ldr	r0, [r4, #56]	; 0x38
10002916:	f7fe f859 	bl	100009cc <vYieldCore>
1000291a:	2202      	movs	r2, #2
1000291c:	6ba3      	ldr	r3, [r4, #56]	; 0x38
1000291e:	4252      	negs	r2, r2
10002920:	009b      	lsls	r3, r3, #2
10002922:	599b      	ldr	r3, [r3, r6]
10002924:	639a      	str	r2, [r3, #56]	; 0x38
10002926:	e7c0      	b.n	100028aa <xTaskPriorityDisinherit+0x1a>
10002928:	6ba3      	ldr	r3, [r4, #56]	; 0x38
1000292a:	4a05      	ldr	r2, [pc, #20]	; (10002940 <xTaskPriorityDisinherit+0xb0>)
1000292c:	009b      	lsls	r3, r3, #2
1000292e:	509d      	str	r5, [r3, r2]
10002930:	e7bb      	b.n	100028aa <xTaskPriorityDisinherit+0x1a>
10002932:	46c0      	nop			; (mov r8, r8)
10002934:	20020a38 	.word	0x20020a38
10002938:	20000778 	.word	0x20000778
1000293c:	2000075c 	.word	0x2000075c
10002940:	20020b0c 	.word	0x20020b0c

10002944 <vTaskYieldWithinAPI>:
10002944:	23d0      	movs	r3, #208	; 0xd0
10002946:	061b      	lsls	r3, r3, #24
10002948:	681b      	ldr	r3, [r3, #0]
1000294a:	4a06      	ldr	r2, [pc, #24]	; (10002964 <vTaskYieldWithinAPI+0x20>)
1000294c:	009b      	lsls	r3, r3, #2
1000294e:	589a      	ldr	r2, [r3, r2]
10002950:	b510      	push	{r4, lr}
10002952:	2a00      	cmp	r2, #0
10002954:	d003      	beq.n	1000295e <vTaskYieldWithinAPI+0x1a>
10002956:	2101      	movs	r1, #1
10002958:	4a03      	ldr	r2, [pc, #12]	; (10002968 <vTaskYieldWithinAPI+0x24>)
1000295a:	5099      	str	r1, [r3, r2]
1000295c:	bd10      	pop	{r4, pc}
1000295e:	f7fe f809 	bl	10000974 <vPortYield>
10002962:	e7fb      	b.n	1000295c <vTaskYieldWithinAPI+0x18>
10002964:	20020a20 	.word	0x20020a20
10002968:	20020b0c 	.word	0x20020b0c

1000296c <vTaskEnterCritical>:
1000296c:	b570      	push	{r4, r5, r6, lr}
1000296e:	b672      	cpsid	i
10002970:	4b2d      	ldr	r3, [pc, #180]	; (10002a28 <vTaskEnterCritical+0xbc>)
10002972:	681b      	ldr	r3, [r3, #0]
10002974:	2b00      	cmp	r3, #0
10002976:	d010      	beq.n	1000299a <vTaskEnterCritical+0x2e>
10002978:	23d0      	movs	r3, #208	; 0xd0
1000297a:	061b      	lsls	r3, r3, #24
1000297c:	6818      	ldr	r0, [r3, #0]
1000297e:	4a2b      	ldr	r2, [pc, #172]	; (10002a2c <vTaskEnterCritical+0xc0>)
10002980:	0081      	lsls	r1, r0, #2
10002982:	5853      	ldr	r3, [r2, r1]
10002984:	2b00      	cmp	r3, #0
10002986:	d010      	beq.n	100029aa <vTaskEnterCritical+0x3e>
10002988:	3301      	adds	r3, #1
1000298a:	5053      	str	r3, [r2, r1]
1000298c:	23d0      	movs	r3, #208	; 0xd0
1000298e:	061b      	lsls	r3, r3, #24
10002990:	681b      	ldr	r3, [r3, #0]
10002992:	009b      	lsls	r3, r3, #2
10002994:	58d3      	ldr	r3, [r2, r3]
10002996:	2b01      	cmp	r3, #1
10002998:	d000      	beq.n	1000299c <vTaskEnterCritical+0x30>
1000299a:	bd70      	pop	{r4, r5, r6, pc}
1000299c:	4b24      	ldr	r3, [pc, #144]	; (10002a30 <vTaskEnterCritical+0xc4>)
1000299e:	681b      	ldr	r3, [r3, #0]
100029a0:	2b00      	cmp	r3, #0
100029a2:	d1fa      	bne.n	1000299a <vTaskEnterCritical+0x2e>
100029a4:	f7fe ff1a 	bl	100017dc <prvCheckForRunStateChange>
100029a8:	e7f7      	b.n	1000299a <vTaskEnterCritical+0x2e>
100029aa:	4922      	ldr	r1, [pc, #136]	; (10002a34 <vTaskEnterCritical+0xc8>)
100029ac:	680b      	ldr	r3, [r1, #0]
100029ae:	2b00      	cmp	r3, #0
100029b0:	d01e      	beq.n	100029f0 <vTaskEnterCritical+0x84>
100029b2:	4b21      	ldr	r3, [pc, #132]	; (10002a38 <vTaskEnterCritical+0xcc>)
100029b4:	f3bf 8f5f 	dmb	sy
100029b8:	2101      	movs	r1, #1
100029ba:	2502      	movs	r5, #2
100029bc:	4c1f      	ldr	r4, [pc, #124]	; (10002a3c <vTaskEnterCritical+0xd0>)
100029be:	7061      	strb	r1, [r4, #1]
100029c0:	5c19      	ldrb	r1, [r3, r0]
100029c2:	4329      	orrs	r1, r5
100029c4:	5419      	strb	r1, [r3, r0]
100029c6:	25d0      	movs	r5, #208	; 0xd0
100029c8:	491d      	ldr	r1, [pc, #116]	; (10002a40 <vTaskEnterCritical+0xd4>)
100029ca:	062d      	lsls	r5, r5, #24
100029cc:	680e      	ldr	r6, [r1, #0]
100029ce:	6828      	ldr	r0, [r5, #0]
100029d0:	2e00      	cmp	r6, #0
100029d2:	d015      	beq.n	10002a00 <vTaskEnterCritical+0x94>
100029d4:	f3bf 8f5f 	dmb	sy
100029d8:	2101      	movs	r1, #1
100029da:	7021      	strb	r1, [r4, #0]
100029dc:	2401      	movs	r4, #1
100029de:	5c19      	ldrb	r1, [r3, r0]
100029e0:	4321      	orrs	r1, r4
100029e2:	5419      	strb	r1, [r3, r0]
100029e4:	23d0      	movs	r3, #208	; 0xd0
100029e6:	061b      	lsls	r3, r3, #24
100029e8:	6818      	ldr	r0, [r3, #0]
100029ea:	0081      	lsls	r1, r0, #2
100029ec:	5853      	ldr	r3, [r2, r1]
100029ee:	e7cb      	b.n	10002988 <vTaskEnterCritical+0x1c>
100029f0:	4b11      	ldr	r3, [pc, #68]	; (10002a38 <vTaskEnterCritical+0xcc>)
100029f2:	5c1c      	ldrb	r4, [r3, r0]
100029f4:	07a4      	lsls	r4, r4, #30
100029f6:	d40a      	bmi.n	10002a0e <vTaskEnterCritical+0xa2>
100029f8:	680c      	ldr	r4, [r1, #0]
100029fa:	2c00      	cmp	r4, #0
100029fc:	d1da      	bne.n	100029b4 <vTaskEnterCritical+0x48>
100029fe:	e7fb      	b.n	100029f8 <vTaskEnterCritical+0x8c>
10002a00:	5c1e      	ldrb	r6, [r3, r0]
10002a02:	07f6      	lsls	r6, r6, #31
10002a04:	d408      	bmi.n	10002a18 <vTaskEnterCritical+0xac>
10002a06:	680d      	ldr	r5, [r1, #0]
10002a08:	2d00      	cmp	r5, #0
10002a0a:	d1e3      	bne.n	100029d4 <vTaskEnterCritical+0x68>
10002a0c:	e7fb      	b.n	10002a06 <vTaskEnterCritical+0x9a>
10002a0e:	4c0b      	ldr	r4, [pc, #44]	; (10002a3c <vTaskEnterCritical+0xd0>)
10002a10:	7861      	ldrb	r1, [r4, #1]
10002a12:	3101      	adds	r1, #1
10002a14:	7061      	strb	r1, [r4, #1]
10002a16:	e7d6      	b.n	100029c6 <vTaskEnterCritical+0x5a>
10002a18:	7823      	ldrb	r3, [r4, #0]
10002a1a:	3301      	adds	r3, #1
10002a1c:	7023      	strb	r3, [r4, #0]
10002a1e:	6828      	ldr	r0, [r5, #0]
10002a20:	0081      	lsls	r1, r0, #2
10002a22:	5853      	ldr	r3, [r2, r1]
10002a24:	e7b0      	b.n	10002988 <vTaskEnterCritical+0x1c>
10002a26:	46c0      	nop			; (mov r8, r8)
10002a28:	20020acc 	.word	0x20020acc
10002a2c:	20020a20 	.word	0x20020a20
10002a30:	20020a30 	.word	0x20020a30
10002a34:	d000013c 	.word	0xd000013c
10002a38:	20020a10 	.word	0x20020a10
10002a3c:	20020a14 	.word	0x20020a14
10002a40:	d0000138 	.word	0xd0000138

10002a44 <prvAddNewTaskToReadyList>:
10002a44:	b5f0      	push	{r4, r5, r6, r7, lr}
10002a46:	46c6      	mov	lr, r8
10002a48:	b500      	push	{lr}
10002a4a:	0005      	movs	r5, r0
10002a4c:	f7ff ff8e 	bl	1000296c <vTaskEnterCritical>
10002a50:	4a2d      	ldr	r2, [pc, #180]	; (10002b08 <prvAddNewTaskToReadyList+0xc4>)
10002a52:	4f2e      	ldr	r7, [pc, #184]	; (10002b0c <prvAddNewTaskToReadyList+0xc8>)
10002a54:	6813      	ldr	r3, [r2, #0]
10002a56:	3301      	adds	r3, #1
10002a58:	6013      	str	r3, [r2, #0]
10002a5a:	683b      	ldr	r3, [r7, #0]
10002a5c:	2b00      	cmp	r3, #0
10002a5e:	d027      	beq.n	10002ab0 <prvAddNewTaskToReadyList+0x6c>
10002a60:	4e2b      	ldr	r6, [pc, #172]	; (10002b10 <prvAddNewTaskToReadyList+0xcc>)
10002a62:	4a2c      	ldr	r2, [pc, #176]	; (10002b14 <prvAddNewTaskToReadyList+0xd0>)
10002a64:	6813      	ldr	r3, [r2, #0]
10002a66:	3301      	adds	r3, #1
10002a68:	6013      	str	r3, [r2, #0]
10002a6a:	652b      	str	r3, [r5, #80]	; 0x50
10002a6c:	4b2a      	ldr	r3, [pc, #168]	; (10002b18 <prvAddNewTaskToReadyList+0xd4>)
10002a6e:	6b2a      	ldr	r2, [r5, #48]	; 0x30
10002a70:	6819      	ldr	r1, [r3, #0]
10002a72:	428a      	cmp	r2, r1
10002a74:	d900      	bls.n	10002a78 <prvAddNewTaskToReadyList+0x34>
10002a76:	601a      	str	r2, [r3, #0]
10002a78:	0093      	lsls	r3, r2, #2
10002a7a:	189b      	adds	r3, r3, r2
10002a7c:	009b      	lsls	r3, r3, #2
10002a7e:	18f0      	adds	r0, r6, r3
10002a80:	6842      	ldr	r2, [r0, #4]
10002a82:	6891      	ldr	r1, [r2, #8]
10002a84:	60ea      	str	r2, [r5, #12]
10002a86:	6129      	str	r1, [r5, #16]
10002a88:	0029      	movs	r1, r5
10002a8a:	6894      	ldr	r4, [r2, #8]
10002a8c:	3108      	adds	r1, #8
10002a8e:	6061      	str	r1, [r4, #4]
10002a90:	6091      	str	r1, [r2, #8]
10002a92:	58f2      	ldr	r2, [r6, r3]
10002a94:	61a8      	str	r0, [r5, #24]
10002a96:	3201      	adds	r2, #1
10002a98:	50f2      	str	r2, [r6, r3]
10002a9a:	683b      	ldr	r3, [r7, #0]
10002a9c:	2b00      	cmp	r3, #0
10002a9e:	d12e      	bne.n	10002afe <prvAddNewTaskToReadyList+0xba>
10002aa0:	683b      	ldr	r3, [r7, #0]
10002aa2:	2b00      	cmp	r3, #0
10002aa4:	d001      	beq.n	10002aaa <prvAddNewTaskToReadyList+0x66>
10002aa6:	f7fe fe4f 	bl	10001748 <vTaskExitCritical.part.0>
10002aaa:	bc80      	pop	{r7}
10002aac:	46b8      	mov	r8, r7
10002aae:	bdf0      	pop	{r4, r5, r6, r7, pc}
10002ab0:	6813      	ldr	r3, [r2, #0]
10002ab2:	4e17      	ldr	r6, [pc, #92]	; (10002b10 <prvAddNewTaskToReadyList+0xcc>)
10002ab4:	2b01      	cmp	r3, #1
10002ab6:	d1d4      	bne.n	10002a62 <prvAddNewTaskToReadyList+0x1e>
10002ab8:	23a0      	movs	r3, #160	; 0xa0
10002aba:	009b      	lsls	r3, r3, #2
10002abc:	4698      	mov	r8, r3
10002abe:	0034      	movs	r4, r6
10002ac0:	44b0      	add	r8, r6
10002ac2:	0020      	movs	r0, r4
10002ac4:	3414      	adds	r4, #20
10002ac6:	f7fe f9e3 	bl	10000e90 <vListInitialise>
10002aca:	4544      	cmp	r4, r8
10002acc:	d1f9      	bne.n	10002ac2 <prvAddNewTaskToReadyList+0x7e>
10002ace:	4b13      	ldr	r3, [pc, #76]	; (10002b1c <prvAddNewTaskToReadyList+0xd8>)
10002ad0:	4698      	mov	r8, r3
10002ad2:	0018      	movs	r0, r3
10002ad4:	f7fe f9dc 	bl	10000e90 <vListInitialise>
10002ad8:	4c11      	ldr	r4, [pc, #68]	; (10002b20 <prvAddNewTaskToReadyList+0xdc>)
10002ada:	0020      	movs	r0, r4
10002adc:	f7fe f9d8 	bl	10000e90 <vListInitialise>
10002ae0:	4810      	ldr	r0, [pc, #64]	; (10002b24 <prvAddNewTaskToReadyList+0xe0>)
10002ae2:	f7fe f9d5 	bl	10000e90 <vListInitialise>
10002ae6:	4810      	ldr	r0, [pc, #64]	; (10002b28 <prvAddNewTaskToReadyList+0xe4>)
10002ae8:	f7fe f9d2 	bl	10000e90 <vListInitialise>
10002aec:	480f      	ldr	r0, [pc, #60]	; (10002b2c <prvAddNewTaskToReadyList+0xe8>)
10002aee:	f7fe f9cf 	bl	10000e90 <vListInitialise>
10002af2:	4642      	mov	r2, r8
10002af4:	4b0e      	ldr	r3, [pc, #56]	; (10002b30 <prvAddNewTaskToReadyList+0xec>)
10002af6:	601a      	str	r2, [r3, #0]
10002af8:	4b0e      	ldr	r3, [pc, #56]	; (10002b34 <prvAddNewTaskToReadyList+0xf0>)
10002afa:	601c      	str	r4, [r3, #0]
10002afc:	e7b1      	b.n	10002a62 <prvAddNewTaskToReadyList+0x1e>
10002afe:	0028      	movs	r0, r5
10002b00:	f7fe fd20 	bl	10001544 <prvYieldForTask>
10002b04:	e7cc      	b.n	10002aa0 <prvAddNewTaskToReadyList+0x5c>
10002b06:	46c0      	nop			; (mov r8, r8)
10002b08:	20020a28 	.word	0x20020a28
10002b0c:	20020acc 	.word	0x20020acc
10002b10:	20000778 	.word	0x20000778
10002b14:	20020a34 	.word	0x20020a34
10002b18:	20020a38 	.word	0x20020a38
10002b1c:	20020a64 	.word	0x20020a64
10002b20:	20020a78 	.word	0x20020a78
10002b24:	20020ab8 	.word	0x20020ab8
10002b28:	20020aec 	.word	0x20020aec
10002b2c:	20020ad8 	.word	0x20020ad8
10002b30:	20000768 	.word	0x20000768
10002b34:	20000770 	.word	0x20000770

10002b38 <xTaskCreate>:
10002b38:	b5f8      	push	{r3, r4, r5, r6, r7, lr}
10002b3a:	46ce      	mov	lr, r9
10002b3c:	4647      	mov	r7, r8
10002b3e:	0096      	lsls	r6, r2, #2
10002b40:	b580      	push	{r7, lr}
10002b42:	4680      	mov	r8, r0
10002b44:	0030      	movs	r0, r6
10002b46:	000d      	movs	r5, r1
10002b48:	4699      	mov	r9, r3
10002b4a:	f7fd fda3 	bl	10000694 <pvPortMalloc>
10002b4e:	1e07      	subs	r7, r0, #0
10002b50:	d100      	bne.n	10002b54 <xTaskCreate+0x1c>
10002b52:	e0ac      	b.n	10002cae <xTaskCreate+0x176>
10002b54:	207c      	movs	r0, #124	; 0x7c
10002b56:	f7fd fd9d 	bl	10000694 <pvPortMalloc>
10002b5a:	1e04      	subs	r4, r0, #0
10002b5c:	d100      	bne.n	10002b60 <xTaskCreate+0x28>
10002b5e:	e0a9      	b.n	10002cb4 <xTaskCreate+0x17c>
10002b60:	227c      	movs	r2, #124	; 0x7c
10002b62:	2100      	movs	r1, #0
10002b64:	f002 fe36 	bl	100057d4 <__wrap_memset>
10002b68:	0032      	movs	r2, r6
10002b6a:	21a5      	movs	r1, #165	; 0xa5
10002b6c:	0038      	movs	r0, r7
10002b6e:	6367      	str	r7, [r4, #52]	; 0x34
10002b70:	f002 fe30 	bl	100057d4 <__wrap_memset>
10002b74:	6b63      	ldr	r3, [r4, #52]	; 0x34
10002b76:	3e04      	subs	r6, #4
10002b78:	469c      	mov	ip, r3
10002b7a:	2307      	movs	r3, #7
10002b7c:	4466      	add	r6, ip
10002b7e:	439e      	bics	r6, r3
10002b80:	2d00      	cmp	r5, #0
10002b82:	d05f      	beq.n	10002c44 <xTaskCreate+0x10c>
10002b84:	2340      	movs	r3, #64	; 0x40
10002b86:	782a      	ldrb	r2, [r5, #0]
10002b88:	54e2      	strb	r2, [r4, r3]
10002b8a:	782b      	ldrb	r3, [r5, #0]
10002b8c:	2b00      	cmp	r3, #0
10002b8e:	d056      	beq.n	10002c3e <xTaskCreate+0x106>
10002b90:	2341      	movs	r3, #65	; 0x41
10002b92:	786a      	ldrb	r2, [r5, #1]
10002b94:	54e2      	strb	r2, [r4, r3]
10002b96:	786b      	ldrb	r3, [r5, #1]
10002b98:	2b00      	cmp	r3, #0
10002b9a:	d050      	beq.n	10002c3e <xTaskCreate+0x106>
10002b9c:	2342      	movs	r3, #66	; 0x42
10002b9e:	78aa      	ldrb	r2, [r5, #2]
10002ba0:	54e2      	strb	r2, [r4, r3]
10002ba2:	78ab      	ldrb	r3, [r5, #2]
10002ba4:	2b00      	cmp	r3, #0
10002ba6:	d04a      	beq.n	10002c3e <xTaskCreate+0x106>
10002ba8:	2343      	movs	r3, #67	; 0x43
10002baa:	78ea      	ldrb	r2, [r5, #3]
10002bac:	54e2      	strb	r2, [r4, r3]
10002bae:	78eb      	ldrb	r3, [r5, #3]
10002bb0:	2b00      	cmp	r3, #0
10002bb2:	d044      	beq.n	10002c3e <xTaskCreate+0x106>
10002bb4:	2344      	movs	r3, #68	; 0x44
10002bb6:	792a      	ldrb	r2, [r5, #4]
10002bb8:	54e2      	strb	r2, [r4, r3]
10002bba:	792b      	ldrb	r3, [r5, #4]
10002bbc:	2b00      	cmp	r3, #0
10002bbe:	d03e      	beq.n	10002c3e <xTaskCreate+0x106>
10002bc0:	2345      	movs	r3, #69	; 0x45
10002bc2:	796a      	ldrb	r2, [r5, #5]
10002bc4:	54e2      	strb	r2, [r4, r3]
10002bc6:	796b      	ldrb	r3, [r5, #5]
10002bc8:	2b00      	cmp	r3, #0
10002bca:	d038      	beq.n	10002c3e <xTaskCreate+0x106>
10002bcc:	2346      	movs	r3, #70	; 0x46
10002bce:	79aa      	ldrb	r2, [r5, #6]
10002bd0:	54e2      	strb	r2, [r4, r3]
10002bd2:	79ab      	ldrb	r3, [r5, #6]
10002bd4:	2b00      	cmp	r3, #0
10002bd6:	d032      	beq.n	10002c3e <xTaskCreate+0x106>
10002bd8:	2347      	movs	r3, #71	; 0x47
10002bda:	79ea      	ldrb	r2, [r5, #7]
10002bdc:	54e2      	strb	r2, [r4, r3]
10002bde:	79eb      	ldrb	r3, [r5, #7]
10002be0:	2b00      	cmp	r3, #0
10002be2:	d02c      	beq.n	10002c3e <xTaskCreate+0x106>
10002be4:	2348      	movs	r3, #72	; 0x48
10002be6:	7a2a      	ldrb	r2, [r5, #8]
10002be8:	54e2      	strb	r2, [r4, r3]
10002bea:	7a2b      	ldrb	r3, [r5, #8]
10002bec:	2b00      	cmp	r3, #0
10002bee:	d026      	beq.n	10002c3e <xTaskCreate+0x106>
10002bf0:	2349      	movs	r3, #73	; 0x49
10002bf2:	7a6a      	ldrb	r2, [r5, #9]
10002bf4:	54e2      	strb	r2, [r4, r3]
10002bf6:	7a6b      	ldrb	r3, [r5, #9]
10002bf8:	2b00      	cmp	r3, #0
10002bfa:	d020      	beq.n	10002c3e <xTaskCreate+0x106>
10002bfc:	234a      	movs	r3, #74	; 0x4a
10002bfe:	7aaa      	ldrb	r2, [r5, #10]
10002c00:	54e2      	strb	r2, [r4, r3]
10002c02:	7aab      	ldrb	r3, [r5, #10]
10002c04:	2b00      	cmp	r3, #0
10002c06:	d01a      	beq.n	10002c3e <xTaskCreate+0x106>
10002c08:	234b      	movs	r3, #75	; 0x4b
10002c0a:	7aea      	ldrb	r2, [r5, #11]
10002c0c:	54e2      	strb	r2, [r4, r3]
10002c0e:	7aeb      	ldrb	r3, [r5, #11]
10002c10:	2b00      	cmp	r3, #0
10002c12:	d014      	beq.n	10002c3e <xTaskCreate+0x106>
10002c14:	234c      	movs	r3, #76	; 0x4c
10002c16:	7b2a      	ldrb	r2, [r5, #12]
10002c18:	54e2      	strb	r2, [r4, r3]
10002c1a:	7b2b      	ldrb	r3, [r5, #12]
10002c1c:	2b00      	cmp	r3, #0
10002c1e:	d00e      	beq.n	10002c3e <xTaskCreate+0x106>
10002c20:	234d      	movs	r3, #77	; 0x4d
10002c22:	7b6a      	ldrb	r2, [r5, #13]
10002c24:	54e2      	strb	r2, [r4, r3]
10002c26:	7b6b      	ldrb	r3, [r5, #13]
10002c28:	2b00      	cmp	r3, #0
10002c2a:	d008      	beq.n	10002c3e <xTaskCreate+0x106>
10002c2c:	234e      	movs	r3, #78	; 0x4e
10002c2e:	7baa      	ldrb	r2, [r5, #14]
10002c30:	54e2      	strb	r2, [r4, r3]
10002c32:	7bab      	ldrb	r3, [r5, #14]
10002c34:	2b00      	cmp	r3, #0
10002c36:	d002      	beq.n	10002c3e <xTaskCreate+0x106>
10002c38:	234f      	movs	r3, #79	; 0x4f
10002c3a:	7bea      	ldrb	r2, [r5, #15]
10002c3c:	54e2      	strb	r2, [r4, r3]
10002c3e:	234f      	movs	r3, #79	; 0x4f
10002c40:	2200      	movs	r2, #0
10002c42:	54e2      	strb	r2, [r4, r3]
10002c44:	9d08      	ldr	r5, [sp, #32]
10002c46:	2d1f      	cmp	r5, #31
10002c48:	d83a      	bhi.n	10002cc0 <xTaskCreate+0x188>
10002c4a:	0020      	movs	r0, r4
10002c4c:	6325      	str	r5, [r4, #48]	; 0x30
10002c4e:	65a5      	str	r5, [r4, #88]	; 0x58
10002c50:	3008      	adds	r0, #8
10002c52:	f7fe f929 	bl	10000ea8 <vListInitialiseItem>
10002c56:	0020      	movs	r0, r4
10002c58:	301c      	adds	r0, #28
10002c5a:	f7fe f925 	bl	10000ea8 <vListInitialiseItem>
10002c5e:	2320      	movs	r3, #32
10002c60:	1b5d      	subs	r5, r3, r5
10002c62:	464a      	mov	r2, r9
10002c64:	4641      	mov	r1, r8
10002c66:	0030      	movs	r0, r6
10002c68:	6164      	str	r4, [r4, #20]
10002c6a:	61e5      	str	r5, [r4, #28]
10002c6c:	62a4      	str	r4, [r4, #40]	; 0x28
10002c6e:	f7fd fe71 	bl	10000954 <pxPortInitialiseStack>
10002c72:	2301      	movs	r3, #1
10002c74:	425b      	negs	r3, r3
10002c76:	63a3      	str	r3, [r4, #56]	; 0x38
10002c78:	4b12      	ldr	r3, [pc, #72]	; (10002cc4 <xTaskCreate+0x18c>)
10002c7a:	6020      	str	r0, [r4, #0]
10002c7c:	4598      	cmp	r8, r3
10002c7e:	d011      	beq.n	10002ca4 <xTaskCreate+0x16c>
10002c80:	4b11      	ldr	r3, [pc, #68]	; (10002cc8 <xTaskCreate+0x190>)
10002c82:	4598      	cmp	r8, r3
10002c84:	d00e      	beq.n	10002ca4 <xTaskCreate+0x16c>
10002c86:	9b09      	ldr	r3, [sp, #36]	; 0x24
10002c88:	2b00      	cmp	r3, #0
10002c8a:	d000      	beq.n	10002c8e <xTaskCreate+0x156>
10002c8c:	601c      	str	r4, [r3, #0]
10002c8e:	2301      	movs	r3, #1
10002c90:	425b      	negs	r3, r3
10002c92:	0020      	movs	r0, r4
10002c94:	6063      	str	r3, [r4, #4]
10002c96:	f7ff fed5 	bl	10002a44 <prvAddNewTaskToReadyList>
10002c9a:	2001      	movs	r0, #1
10002c9c:	bcc0      	pop	{r6, r7}
10002c9e:	46b9      	mov	r9, r7
10002ca0:	46b0      	mov	r8, r6
10002ca2:	bdf8      	pop	{r3, r4, r5, r6, r7, pc}
10002ca4:	2301      	movs	r3, #1
10002ca6:	6be2      	ldr	r2, [r4, #60]	; 0x3c
10002ca8:	4313      	orrs	r3, r2
10002caa:	63e3      	str	r3, [r4, #60]	; 0x3c
10002cac:	e7eb      	b.n	10002c86 <xTaskCreate+0x14e>
10002cae:	2001      	movs	r0, #1
10002cb0:	4240      	negs	r0, r0
10002cb2:	e7f3      	b.n	10002c9c <xTaskCreate+0x164>
10002cb4:	0038      	movs	r0, r7
10002cb6:	f7fd fd77 	bl	100007a8 <vPortFree>
10002cba:	2001      	movs	r0, #1
10002cbc:	4240      	negs	r0, r0
10002cbe:	e7ed      	b.n	10002c9c <xTaskCreate+0x164>
10002cc0:	251f      	movs	r5, #31
10002cc2:	e7c2      	b.n	10002c4a <xTaskCreate+0x112>
10002cc4:	10001b71 	.word	0x10001b71
10002cc8:	10001525 	.word	0x10001525

10002ccc <xTaskCreateAffinitySet>:
10002ccc:	b5f8      	push	{r3, r4, r5, r6, r7, lr}
10002cce:	46ce      	mov	lr, r9
10002cd0:	4647      	mov	r7, r8
10002cd2:	0096      	lsls	r6, r2, #2
10002cd4:	b580      	push	{r7, lr}
10002cd6:	4680      	mov	r8, r0
10002cd8:	0030      	movs	r0, r6
10002cda:	000d      	movs	r5, r1
10002cdc:	4699      	mov	r9, r3
10002cde:	f7fd fcd9 	bl	10000694 <pvPortMalloc>
10002ce2:	1e07      	subs	r7, r0, #0
10002ce4:	d100      	bne.n	10002ce8 <xTaskCreateAffinitySet+0x1c>
10002ce6:	e0ab      	b.n	10002e40 <xTaskCreateAffinitySet+0x174>
10002ce8:	207c      	movs	r0, #124	; 0x7c
10002cea:	f7fd fcd3 	bl	10000694 <pvPortMalloc>
10002cee:	1e04      	subs	r4, r0, #0
10002cf0:	d100      	bne.n	10002cf4 <xTaskCreateAffinitySet+0x28>
10002cf2:	e0a8      	b.n	10002e46 <xTaskCreateAffinitySet+0x17a>
10002cf4:	227c      	movs	r2, #124	; 0x7c
10002cf6:	2100      	movs	r1, #0
10002cf8:	f002 fd6c 	bl	100057d4 <__wrap_memset>
10002cfc:	0032      	movs	r2, r6
10002cfe:	21a5      	movs	r1, #165	; 0xa5
10002d00:	0038      	movs	r0, r7
10002d02:	6367      	str	r7, [r4, #52]	; 0x34
10002d04:	f002 fd66 	bl	100057d4 <__wrap_memset>
10002d08:	6b63      	ldr	r3, [r4, #52]	; 0x34
10002d0a:	3e04      	subs	r6, #4
10002d0c:	469c      	mov	ip, r3
10002d0e:	2307      	movs	r3, #7
10002d10:	4466      	add	r6, ip
10002d12:	439e      	bics	r6, r3
10002d14:	2d00      	cmp	r5, #0
10002d16:	d05f      	beq.n	10002dd8 <xTaskCreateAffinitySet+0x10c>
10002d18:	2340      	movs	r3, #64	; 0x40
10002d1a:	782a      	ldrb	r2, [r5, #0]
10002d1c:	54e2      	strb	r2, [r4, r3]
10002d1e:	782b      	ldrb	r3, [r5, #0]
10002d20:	2b00      	cmp	r3, #0
10002d22:	d056      	beq.n	10002dd2 <xTaskCreateAffinitySet+0x106>
10002d24:	2341      	movs	r3, #65	; 0x41
10002d26:	786a      	ldrb	r2, [r5, #1]
10002d28:	54e2      	strb	r2, [r4, r3]
10002d2a:	786b      	ldrb	r3, [r5, #1]
10002d2c:	2b00      	cmp	r3, #0
10002d2e:	d050      	beq.n	10002dd2 <xTaskCreateAffinitySet+0x106>
10002d30:	2342      	movs	r3, #66	; 0x42
10002d32:	78aa      	ldrb	r2, [r5, #2]
10002d34:	54e2      	strb	r2, [r4, r3]
10002d36:	78ab      	ldrb	r3, [r5, #2]
10002d38:	2b00      	cmp	r3, #0
10002d3a:	d04a      	beq.n	10002dd2 <xTaskCreateAffinitySet+0x106>
10002d3c:	2343      	movs	r3, #67	; 0x43
10002d3e:	78ea      	ldrb	r2, [r5, #3]
10002d40:	54e2      	strb	r2, [r4, r3]
10002d42:	78eb      	ldrb	r3, [r5, #3]
10002d44:	2b00      	cmp	r3, #0
10002d46:	d044      	beq.n	10002dd2 <xTaskCreateAffinitySet+0x106>
10002d48:	2344      	movs	r3, #68	; 0x44
10002d4a:	792a      	ldrb	r2, [r5, #4]
10002d4c:	54e2      	strb	r2, [r4, r3]
10002d4e:	792b      	ldrb	r3, [r5, #4]
10002d50:	2b00      	cmp	r3, #0
10002d52:	d03e      	beq.n	10002dd2 <xTaskCreateAffinitySet+0x106>
10002d54:	2345      	movs	r3, #69	; 0x45
10002d56:	796a      	ldrb	r2, [r5, #5]
10002d58:	54e2      	strb	r2, [r4, r3]
10002d5a:	796b      	ldrb	r3, [r5, #5]
10002d5c:	2b00      	cmp	r3, #0
10002d5e:	d038      	beq.n	10002dd2 <xTaskCreateAffinitySet+0x106>
10002d60:	2346      	movs	r3, #70	; 0x46
10002d62:	79aa      	ldrb	r2, [r5, #6]
10002d64:	54e2      	strb	r2, [r4, r3]
10002d66:	79ab      	ldrb	r3, [r5, #6]
10002d68:	2b00      	cmp	r3, #0
10002d6a:	d032      	beq.n	10002dd2 <xTaskCreateAffinitySet+0x106>
10002d6c:	2347      	movs	r3, #71	; 0x47
10002d6e:	79ea      	ldrb	r2, [r5, #7]
10002d70:	54e2      	strb	r2, [r4, r3]
10002d72:	79eb      	ldrb	r3, [r5, #7]
10002d74:	2b00      	cmp	r3, #0
10002d76:	d02c      	beq.n	10002dd2 <xTaskCreateAffinitySet+0x106>
10002d78:	2348      	movs	r3, #72	; 0x48
10002d7a:	7a2a      	ldrb	r2, [r5, #8]
10002d7c:	54e2      	strb	r2, [r4, r3]
10002d7e:	7a2b      	ldrb	r3, [r5, #8]
10002d80:	2b00      	cmp	r3, #0
10002d82:	d026      	beq.n	10002dd2 <xTaskCreateAffinitySet+0x106>
10002d84:	2349      	movs	r3, #73	; 0x49
10002d86:	7a6a      	ldrb	r2, [r5, #9]
10002d88:	54e2      	strb	r2, [r4, r3]
10002d8a:	7a6b      	ldrb	r3, [r5, #9]
10002d8c:	2b00      	cmp	r3, #0
10002d8e:	d020      	beq.n	10002dd2 <xTaskCreateAffinitySet+0x106>
10002d90:	234a      	movs	r3, #74	; 0x4a
10002d92:	7aaa      	ldrb	r2, [r5, #10]
10002d94:	54e2      	strb	r2, [r4, r3]
10002d96:	7aab      	ldrb	r3, [r5, #10]
10002d98:	2b00      	cmp	r3, #0
10002d9a:	d01a      	beq.n	10002dd2 <xTaskCreateAffinitySet+0x106>
10002d9c:	234b      	movs	r3, #75	; 0x4b
10002d9e:	7aea      	ldrb	r2, [r5, #11]
10002da0:	54e2      	strb	r2, [r4, r3]
10002da2:	7aeb      	ldrb	r3, [r5, #11]
10002da4:	2b00      	cmp	r3, #0
10002da6:	d014      	beq.n	10002dd2 <xTaskCreateAffinitySet+0x106>
10002da8:	234c      	movs	r3, #76	; 0x4c
10002daa:	7b2a      	ldrb	r2, [r5, #12]
10002dac:	54e2      	strb	r2, [r4, r3]
10002dae:	7b2b      	ldrb	r3, [r5, #12]
10002db0:	2b00      	cmp	r3, #0
10002db2:	d00e      	beq.n	10002dd2 <xTaskCreateAffinitySet+0x106>
10002db4:	234d      	movs	r3, #77	; 0x4d
10002db6:	7b6a      	ldrb	r2, [r5, #13]
10002db8:	54e2      	strb	r2, [r4, r3]
10002dba:	7b6b      	ldrb	r3, [r5, #13]
10002dbc:	2b00      	cmp	r3, #0
10002dbe:	d008      	beq.n	10002dd2 <xTaskCreateAffinitySet+0x106>
10002dc0:	234e      	movs	r3, #78	; 0x4e
10002dc2:	7baa      	ldrb	r2, [r5, #14]
10002dc4:	54e2      	strb	r2, [r4, r3]
10002dc6:	7bab      	ldrb	r3, [r5, #14]
10002dc8:	2b00      	cmp	r3, #0
10002dca:	d002      	beq.n	10002dd2 <xTaskCreateAffinitySet+0x106>
10002dcc:	234f      	movs	r3, #79	; 0x4f
10002dce:	7bea      	ldrb	r2, [r5, #15]
10002dd0:	54e2      	strb	r2, [r4, r3]
10002dd2:	234f      	movs	r3, #79	; 0x4f
10002dd4:	2200      	movs	r2, #0
10002dd6:	54e2      	strb	r2, [r4, r3]
10002dd8:	9d08      	ldr	r5, [sp, #32]
10002dda:	2d1f      	cmp	r5, #31
10002ddc:	d839      	bhi.n	10002e52 <xTaskCreateAffinitySet+0x186>
10002dde:	0020      	movs	r0, r4
10002de0:	6325      	str	r5, [r4, #48]	; 0x30
10002de2:	65a5      	str	r5, [r4, #88]	; 0x58
10002de4:	3008      	adds	r0, #8
10002de6:	f7fe f85f 	bl	10000ea8 <vListInitialiseItem>
10002dea:	0020      	movs	r0, r4
10002dec:	301c      	adds	r0, #28
10002dee:	f7fe f85b 	bl	10000ea8 <vListInitialiseItem>
10002df2:	2320      	movs	r3, #32
10002df4:	1b5d      	subs	r5, r3, r5
10002df6:	464a      	mov	r2, r9
10002df8:	4641      	mov	r1, r8
10002dfa:	0030      	movs	r0, r6
10002dfc:	6164      	str	r4, [r4, #20]
10002dfe:	61e5      	str	r5, [r4, #28]
10002e00:	62a4      	str	r4, [r4, #40]	; 0x28
10002e02:	f7fd fda7 	bl	10000954 <pxPortInitialiseStack>
10002e06:	2301      	movs	r3, #1
10002e08:	425b      	negs	r3, r3
10002e0a:	63a3      	str	r3, [r4, #56]	; 0x38
10002e0c:	4b12      	ldr	r3, [pc, #72]	; (10002e58 <xTaskCreateAffinitySet+0x18c>)
10002e0e:	6020      	str	r0, [r4, #0]
10002e10:	4598      	cmp	r8, r3
10002e12:	d010      	beq.n	10002e36 <xTaskCreateAffinitySet+0x16a>
10002e14:	4b11      	ldr	r3, [pc, #68]	; (10002e5c <xTaskCreateAffinitySet+0x190>)
10002e16:	4598      	cmp	r8, r3
10002e18:	d00d      	beq.n	10002e36 <xTaskCreateAffinitySet+0x16a>
10002e1a:	9b0a      	ldr	r3, [sp, #40]	; 0x28
10002e1c:	2b00      	cmp	r3, #0
10002e1e:	d000      	beq.n	10002e22 <xTaskCreateAffinitySet+0x156>
10002e20:	601c      	str	r4, [r3, #0]
10002e22:	9b09      	ldr	r3, [sp, #36]	; 0x24
10002e24:	0020      	movs	r0, r4
10002e26:	6063      	str	r3, [r4, #4]
10002e28:	f7ff fe0c 	bl	10002a44 <prvAddNewTaskToReadyList>
10002e2c:	2001      	movs	r0, #1
10002e2e:	bcc0      	pop	{r6, r7}
10002e30:	46b9      	mov	r9, r7
10002e32:	46b0      	mov	r8, r6
10002e34:	bdf8      	pop	{r3, r4, r5, r6, r7, pc}
10002e36:	2301      	movs	r3, #1
10002e38:	6be2      	ldr	r2, [r4, #60]	; 0x3c
10002e3a:	4313      	orrs	r3, r2
10002e3c:	63e3      	str	r3, [r4, #60]	; 0x3c
10002e3e:	e7ec      	b.n	10002e1a <xTaskCreateAffinitySet+0x14e>
10002e40:	2001      	movs	r0, #1
10002e42:	4240      	negs	r0, r0
10002e44:	e7f3      	b.n	10002e2e <xTaskCreateAffinitySet+0x162>
10002e46:	0038      	movs	r0, r7
10002e48:	f7fd fcae 	bl	100007a8 <vPortFree>
10002e4c:	2001      	movs	r0, #1
10002e4e:	4240      	negs	r0, r0
10002e50:	e7ed      	b.n	10002e2e <xTaskCreateAffinitySet+0x162>
10002e52:	251f      	movs	r5, #31
10002e54:	e7c3      	b.n	10002dde <xTaskCreateAffinitySet+0x112>
10002e56:	46c0      	nop			; (mov r8, r8)
10002e58:	10001b71 	.word	0x10001b71
10002e5c:	10001525 	.word	0x10001525

10002e60 <vTaskStartScheduler>:
10002e60:	4b48      	ldr	r3, [pc, #288]	; (10002f84 <vTaskStartScheduler+0x124>)
10002e62:	b5f0      	push	{r4, r5, r6, r7, lr}
10002e64:	4657      	mov	r7, sl
10002e66:	4645      	mov	r5, r8
10002e68:	469a      	mov	sl, r3
10002e6a:	4698      	mov	r8, r3
10002e6c:	4b46      	ldr	r3, [pc, #280]	; (10002f88 <vTaskStartScheduler+0x128>)
10002e6e:	464e      	mov	r6, r9
10002e70:	4699      	mov	r9, r3
10002e72:	2301      	movs	r3, #1
10002e74:	46de      	mov	lr, fp
10002e76:	425b      	negs	r3, r3
10002e78:	b5e0      	push	{r5, r6, r7, lr}
10002e7a:	469b      	mov	fp, r3
10002e7c:	2600      	movs	r6, #0
10002e7e:	4f43      	ldr	r7, [pc, #268]	; (10002f8c <vTaskStartScheduler+0x12c>)
10002e80:	b083      	sub	sp, #12
10002e82:	2330      	movs	r3, #48	; 0x30
10002e84:	469c      	mov	ip, r3
10002e86:	2080      	movs	r0, #128	; 0x80
10002e88:	44b4      	add	ip, r6
10002e8a:	4663      	mov	r3, ip
10002e8c:	0100      	lsls	r0, r0, #4
10002e8e:	9301      	str	r3, [sp, #4]
10002e90:	f7fd fc00 	bl	10000694 <pvPortMalloc>
10002e94:	1e05      	subs	r5, r0, #0
10002e96:	d05a      	beq.n	10002f4e <vTaskStartScheduler+0xee>
10002e98:	207c      	movs	r0, #124	; 0x7c
10002e9a:	f7fd fbfb 	bl	10000694 <pvPortMalloc>
10002e9e:	1e04      	subs	r4, r0, #0
10002ea0:	d058      	beq.n	10002f54 <vTaskStartScheduler+0xf4>
10002ea2:	227c      	movs	r2, #124	; 0x7c
10002ea4:	2100      	movs	r1, #0
10002ea6:	f002 fc95 	bl	100057d4 <__wrap_memset>
10002eaa:	2280      	movs	r2, #128	; 0x80
10002eac:	21a5      	movs	r1, #165	; 0xa5
10002eae:	0028      	movs	r0, r5
10002eb0:	6365      	str	r5, [r4, #52]	; 0x34
10002eb2:	0112      	lsls	r2, r2, #4
10002eb4:	f002 fc8e 	bl	100057d4 <__wrap_memset>
10002eb8:	4b35      	ldr	r3, [pc, #212]	; (10002f90 <vTaskStartScheduler+0x130>)
10002eba:	9a01      	ldr	r2, [sp, #4]
10002ebc:	6423      	str	r3, [r4, #64]	; 0x40
10002ebe:	2344      	movs	r3, #68	; 0x44
10002ec0:	4934      	ldr	r1, [pc, #208]	; (10002f94 <vTaskStartScheduler+0x134>)
10002ec2:	6b65      	ldr	r5, [r4, #52]	; 0x34
10002ec4:	54e2      	strb	r2, [r4, r3]
10002ec6:	2300      	movs	r3, #0
10002ec8:	2245      	movs	r2, #69	; 0x45
10002eca:	468c      	mov	ip, r1
10002ecc:	0020      	movs	r0, r4
10002ece:	2107      	movs	r1, #7
10002ed0:	54a3      	strb	r3, [r4, r2]
10002ed2:	320a      	adds	r2, #10
10002ed4:	54a3      	strb	r3, [r4, r2]
10002ed6:	4465      	add	r5, ip
10002ed8:	6323      	str	r3, [r4, #48]	; 0x30
10002eda:	65a3      	str	r3, [r4, #88]	; 0x58
10002edc:	3008      	adds	r0, #8
10002ede:	438d      	bics	r5, r1
10002ee0:	f7fd ffe2 	bl	10000ea8 <vListInitialiseItem>
10002ee4:	0020      	movs	r0, r4
10002ee6:	301c      	adds	r0, #28
10002ee8:	f7fd ffde 	bl	10000ea8 <vListInitialiseItem>
10002eec:	2320      	movs	r3, #32
10002eee:	2200      	movs	r2, #0
10002ef0:	61e3      	str	r3, [r4, #28]
10002ef2:	4641      	mov	r1, r8
10002ef4:	0028      	movs	r0, r5
10002ef6:	6164      	str	r4, [r4, #20]
10002ef8:	62a4      	str	r4, [r4, #40]	; 0x28
10002efa:	f7fd fd2b 	bl	10000954 <pxPortInitialiseStack>
10002efe:	465b      	mov	r3, fp
10002f00:	6020      	str	r0, [r4, #0]
10002f02:	63a3      	str	r3, [r4, #56]	; 0x38
10002f04:	45d0      	cmp	r8, sl
10002f06:	d01d      	beq.n	10002f44 <vTaskStartScheduler+0xe4>
10002f08:	45c8      	cmp	r8, r9
10002f0a:	d01b      	beq.n	10002f44 <vTaskStartScheduler+0xe4>
10002f0c:	465b      	mov	r3, fp
10002f0e:	603c      	str	r4, [r7, #0]
10002f10:	0020      	movs	r0, r4
10002f12:	6063      	str	r3, [r4, #4]
10002f14:	f7ff fd96 	bl	10002a44 <prvAddNewTaskToReadyList>
10002f18:	2101      	movs	r1, #1
10002f1a:	cf08      	ldmia	r7!, {r3}
10002f1c:	481e      	ldr	r0, [pc, #120]	; (10002f98 <vTaskStartScheduler+0x138>)
10002f1e:	00b2      	lsls	r2, r6, #2
10002f20:	639e      	str	r6, [r3, #56]	; 0x38
10002f22:	46c8      	mov	r8, r9
10002f24:	5083      	str	r3, [r0, r2]
10002f26:	2e01      	cmp	r6, #1
10002f28:	d10a      	bne.n	10002f40 <vTaskStartScheduler+0xe0>
10002f2a:	2901      	cmp	r1, #1
10002f2c:	d018      	beq.n	10002f60 <vTaskStartScheduler+0x100>
10002f2e:	4b1b      	ldr	r3, [pc, #108]	; (10002f9c <vTaskStartScheduler+0x13c>)
10002f30:	681b      	ldr	r3, [r3, #0]
10002f32:	b003      	add	sp, #12
10002f34:	bcf0      	pop	{r4, r5, r6, r7}
10002f36:	46bb      	mov	fp, r7
10002f38:	46b2      	mov	sl, r6
10002f3a:	46a9      	mov	r9, r5
10002f3c:	46a0      	mov	r8, r4
10002f3e:	bdf0      	pop	{r4, r5, r6, r7, pc}
10002f40:	2601      	movs	r6, #1
10002f42:	e79e      	b.n	10002e82 <vTaskStartScheduler+0x22>
10002f44:	2301      	movs	r3, #1
10002f46:	6be2      	ldr	r2, [r4, #60]	; 0x3c
10002f48:	4313      	orrs	r3, r2
10002f4a:	63e3      	str	r3, [r4, #60]	; 0x3c
10002f4c:	e7de      	b.n	10002f0c <vTaskStartScheduler+0xac>
10002f4e:	2101      	movs	r1, #1
10002f50:	4249      	negs	r1, r1
10002f52:	e7e2      	b.n	10002f1a <vTaskStartScheduler+0xba>
10002f54:	0028      	movs	r0, r5
10002f56:	f7fd fc27 	bl	100007a8 <vPortFree>
10002f5a:	2101      	movs	r1, #1
10002f5c:	4249      	negs	r1, r1
10002f5e:	e7dc      	b.n	10002f1a <vTaskStartScheduler+0xba>
10002f60:	f000 fc02 	bl	10003768 <xTimerCreateTimerTask>
10002f64:	2801      	cmp	r0, #1
10002f66:	d1e2      	bne.n	10002f2e <vTaskStartScheduler+0xce>
10002f68:	b672      	cpsid	i
10002f6a:	2201      	movs	r2, #1
10002f6c:	4b0c      	ldr	r3, [pc, #48]	; (10002fa0 <vTaskStartScheduler+0x140>)
10002f6e:	4252      	negs	r2, r2
10002f70:	601a      	str	r2, [r3, #0]
10002f72:	2200      	movs	r2, #0
10002f74:	4b0b      	ldr	r3, [pc, #44]	; (10002fa4 <vTaskStartScheduler+0x144>)
10002f76:	601e      	str	r6, [r3, #0]
10002f78:	4b0b      	ldr	r3, [pc, #44]	; (10002fa8 <vTaskStartScheduler+0x148>)
10002f7a:	601a      	str	r2, [r3, #0]
10002f7c:	f7fd fd9c 	bl	10000ab8 <xPortStartScheduler>
10002f80:	e7d5      	b.n	10002f2e <vTaskStartScheduler+0xce>
10002f82:	46c0      	nop			; (mov r8, r8)
10002f84:	10001b71 	.word	0x10001b71
10002f88:	10001525 	.word	0x10001525
10002f8c:	20020a94 	.word	0x20020a94
10002f90:	454c4449 	.word	0x454c4449
10002f94:	000007fc 	.word	0x000007fc
10002f98:	2000075c 	.word	0x2000075c
10002f9c:	20000238 	.word	0x20000238
10002fa0:	20020aa4 	.word	0x20020aa4
10002fa4:	20020acc 	.word	0x20020acc
10002fa8:	20020b00 	.word	0x20020b00

10002fac <xTaskResumeAll.part.0>:
10002fac:	b5f8      	push	{r3, r4, r5, r6, r7, lr}
10002fae:	46ce      	mov	lr, r9
10002fb0:	4647      	mov	r7, r8
10002fb2:	b580      	push	{r7, lr}
10002fb4:	f7ff fcda 	bl	1000296c <vTaskEnterCritical>
10002fb8:	21d0      	movs	r1, #208	; 0xd0
10002fba:	0609      	lsls	r1, r1, #24
10002fbc:	680b      	ldr	r3, [r1, #0]
10002fbe:	4a49      	ldr	r2, [pc, #292]	; (100030e4 <xTaskResumeAll.part.0+0x138>)
10002fc0:	4699      	mov	r9, r3
10002fc2:	6813      	ldr	r3, [r2, #0]
10002fc4:	3b01      	subs	r3, #1
10002fc6:	6013      	str	r3, [r2, #0]
10002fc8:	6808      	ldr	r0, [r1, #0]
10002fca:	4947      	ldr	r1, [pc, #284]	; (100030e8 <xTaskResumeAll.part.0+0x13c>)
10002fcc:	784b      	ldrb	r3, [r1, #1]
10002fce:	3b01      	subs	r3, #1
10002fd0:	b2db      	uxtb	r3, r3
10002fd2:	704b      	strb	r3, [r1, #1]
10002fd4:	2b00      	cmp	r3, #0
10002fd6:	d109      	bne.n	10002fec <xTaskResumeAll.part.0+0x40>
10002fd8:	2402      	movs	r4, #2
10002fda:	4944      	ldr	r1, [pc, #272]	; (100030ec <xTaskResumeAll.part.0+0x140>)
10002fdc:	5c0b      	ldrb	r3, [r1, r0]
10002fde:	43a3      	bics	r3, r4
10002fe0:	540b      	strb	r3, [r1, r0]
10002fe2:	f3bf 8f5f 	dmb	sy
10002fe6:	2101      	movs	r1, #1
10002fe8:	4b41      	ldr	r3, [pc, #260]	; (100030f0 <xTaskResumeAll.part.0+0x144>)
10002fea:	6019      	str	r1, [r3, #0]
10002fec:	6813      	ldr	r3, [r2, #0]
10002fee:	2400      	movs	r4, #0
10002ff0:	2b00      	cmp	r3, #0
10002ff2:	d166      	bne.n	100030c2 <xTaskResumeAll.part.0+0x116>
10002ff4:	4b3f      	ldr	r3, [pc, #252]	; (100030f4 <xTaskResumeAll.part.0+0x148>)
10002ff6:	681b      	ldr	r3, [r3, #0]
10002ff8:	2b00      	cmp	r3, #0
10002ffa:	d062      	beq.n	100030c2 <xTaskResumeAll.part.0+0x116>
10002ffc:	4d3e      	ldr	r5, [pc, #248]	; (100030f8 <xTaskResumeAll.part.0+0x14c>)
10002ffe:	682b      	ldr	r3, [r5, #0]
10003000:	2b00      	cmp	r3, #0
10003002:	d048      	beq.n	10003096 <xTaskResumeAll.part.0+0xea>
10003004:	4b3d      	ldr	r3, [pc, #244]	; (100030fc <xTaskResumeAll.part.0+0x150>)
10003006:	4c3e      	ldr	r4, [pc, #248]	; (10003100 <xTaskResumeAll.part.0+0x154>)
10003008:	4698      	mov	r8, r3
1000300a:	2300      	movs	r3, #0
1000300c:	469c      	mov	ip, r3
1000300e:	e02a      	b.n	10003066 <xTaskResumeAll.part.0+0xba>
10003010:	4661      	mov	r1, ip
10003012:	62d9      	str	r1, [r3, #44]	; 0x2c
10003014:	6811      	ldr	r1, [r2, #0]
10003016:	3901      	subs	r1, #1
10003018:	6011      	str	r1, [r2, #0]
1000301a:	68d8      	ldr	r0, [r3, #12]
1000301c:	6919      	ldr	r1, [r3, #16]
1000301e:	699a      	ldr	r2, [r3, #24]
10003020:	6081      	str	r1, [r0, #8]
10003022:	6048      	str	r0, [r1, #4]
10003024:	0018      	movs	r0, r3
10003026:	6857      	ldr	r7, [r2, #4]
10003028:	3008      	adds	r0, #8
1000302a:	4287      	cmp	r7, r0
1000302c:	d054      	beq.n	100030d8 <xTaskResumeAll.part.0+0x12c>
1000302e:	6811      	ldr	r1, [r2, #0]
10003030:	3901      	subs	r1, #1
10003032:	6011      	str	r1, [r2, #0]
10003034:	4642      	mov	r2, r8
10003036:	6b19      	ldr	r1, [r3, #48]	; 0x30
10003038:	6812      	ldr	r2, [r2, #0]
1000303a:	4291      	cmp	r1, r2
1000303c:	d901      	bls.n	10003042 <xTaskResumeAll.part.0+0x96>
1000303e:	4642      	mov	r2, r8
10003040:	6011      	str	r1, [r2, #0]
10003042:	008a      	lsls	r2, r1, #2
10003044:	1852      	adds	r2, r2, r1
10003046:	0092      	lsls	r2, r2, #2
10003048:	18a7      	adds	r7, r4, r2
1000304a:	6879      	ldr	r1, [r7, #4]
1000304c:	688e      	ldr	r6, [r1, #8]
1000304e:	60d9      	str	r1, [r3, #12]
10003050:	611e      	str	r6, [r3, #16]
10003052:	688e      	ldr	r6, [r1, #8]
10003054:	6070      	str	r0, [r6, #4]
10003056:	6088      	str	r0, [r1, #8]
10003058:	619f      	str	r7, [r3, #24]
1000305a:	58a3      	ldr	r3, [r4, r2]
1000305c:	3301      	adds	r3, #1
1000305e:	50a3      	str	r3, [r4, r2]
10003060:	682b      	ldr	r3, [r5, #0]
10003062:	2b00      	cmp	r3, #0
10003064:	d00d      	beq.n	10003082 <xTaskResumeAll.part.0+0xd6>
10003066:	68eb      	ldr	r3, [r5, #12]
10003068:	68db      	ldr	r3, [r3, #12]
1000306a:	6a18      	ldr	r0, [r3, #32]
1000306c:	6a59      	ldr	r1, [r3, #36]	; 0x24
1000306e:	6ada      	ldr	r2, [r3, #44]	; 0x2c
10003070:	6081      	str	r1, [r0, #8]
10003072:	6048      	str	r0, [r1, #4]
10003074:	0018      	movs	r0, r3
10003076:	6857      	ldr	r7, [r2, #4]
10003078:	301c      	adds	r0, #28
1000307a:	4287      	cmp	r7, r0
1000307c:	d1c8      	bne.n	10003010 <xTaskResumeAll.part.0+0x64>
1000307e:	6051      	str	r1, [r2, #4]
10003080:	e7c6      	b.n	10003010 <xTaskResumeAll.part.0+0x64>
10003082:	4b20      	ldr	r3, [pc, #128]	; (10003104 <xTaskResumeAll.part.0+0x158>)
10003084:	681a      	ldr	r2, [r3, #0]
10003086:	6812      	ldr	r2, [r2, #0]
10003088:	2a00      	cmp	r2, #0
1000308a:	d027      	beq.n	100030dc <xTaskResumeAll.part.0+0x130>
1000308c:	681b      	ldr	r3, [r3, #0]
1000308e:	68db      	ldr	r3, [r3, #12]
10003090:	681a      	ldr	r2, [r3, #0]
10003092:	4b1d      	ldr	r3, [pc, #116]	; (10003108 <xTaskResumeAll.part.0+0x15c>)
10003094:	601a      	str	r2, [r3, #0]
10003096:	4b1d      	ldr	r3, [pc, #116]	; (1000310c <xTaskResumeAll.part.0+0x160>)
10003098:	4d1d      	ldr	r5, [pc, #116]	; (10003110 <xTaskResumeAll.part.0+0x164>)
1000309a:	4698      	mov	r8, r3
1000309c:	681c      	ldr	r4, [r3, #0]
1000309e:	464b      	mov	r3, r9
100030a0:	009f      	lsls	r7, r3, #2
100030a2:	2c00      	cmp	r4, #0
100030a4:	d00a      	beq.n	100030bc <xTaskResumeAll.part.0+0x110>
100030a6:	2601      	movs	r6, #1
100030a8:	f7fe feac 	bl	10001e04 <xTaskIncrementTick>
100030ac:	2800      	cmp	r0, #0
100030ae:	d000      	beq.n	100030b2 <xTaskResumeAll.part.0+0x106>
100030b0:	51ee      	str	r6, [r5, r7]
100030b2:	3c01      	subs	r4, #1
100030b4:	2c00      	cmp	r4, #0
100030b6:	d1f7      	bne.n	100030a8 <xTaskResumeAll.part.0+0xfc>
100030b8:	4643      	mov	r3, r8
100030ba:	601c      	str	r4, [r3, #0]
100030bc:	59ec      	ldr	r4, [r5, r7]
100030be:	1e63      	subs	r3, r4, #1
100030c0:	419c      	sbcs	r4, r3
100030c2:	4b14      	ldr	r3, [pc, #80]	; (10003114 <xTaskResumeAll.part.0+0x168>)
100030c4:	681b      	ldr	r3, [r3, #0]
100030c6:	2b00      	cmp	r3, #0
100030c8:	d001      	beq.n	100030ce <xTaskResumeAll.part.0+0x122>
100030ca:	f7fe fb3d 	bl	10001748 <vTaskExitCritical.part.0>
100030ce:	0020      	movs	r0, r4
100030d0:	bcc0      	pop	{r6, r7}
100030d2:	46b9      	mov	r9, r7
100030d4:	46b0      	mov	r8, r6
100030d6:	bdf8      	pop	{r3, r4, r5, r6, r7, pc}
100030d8:	6051      	str	r1, [r2, #4]
100030da:	e7a8      	b.n	1000302e <xTaskResumeAll.part.0+0x82>
100030dc:	4b0a      	ldr	r3, [pc, #40]	; (10003108 <xTaskResumeAll.part.0+0x15c>)
100030de:	3a01      	subs	r2, #1
100030e0:	601a      	str	r2, [r3, #0]
100030e2:	e7d8      	b.n	10003096 <xTaskResumeAll.part.0+0xea>
100030e4:	20020a30 	.word	0x20020a30
100030e8:	20020a14 	.word	0x20020a14
100030ec:	20020a10 	.word	0x20020a10
100030f0:	d000013c 	.word	0xd000013c
100030f4:	20020a28 	.word	0x20020a28
100030f8:	20020ab8 	.word	0x20020ab8
100030fc:	20020a38 	.word	0x20020a38
10003100:	20000778 	.word	0x20000778
10003104:	20000768 	.word	0x20000768
10003108:	20020aa4 	.word	0x20020aa4
1000310c:	20020ab4 	.word	0x20020ab4
10003110:	20020b0c 	.word	0x20020b0c
10003114:	20020acc 	.word	0x20020acc

10003118 <xTaskResumeAll>:
10003118:	4b04      	ldr	r3, [pc, #16]	; (1000312c <xTaskResumeAll+0x14>)
1000311a:	b510      	push	{r4, lr}
1000311c:	6818      	ldr	r0, [r3, #0]
1000311e:	2800      	cmp	r0, #0
10003120:	d100      	bne.n	10003124 <xTaskResumeAll+0xc>
10003122:	bd10      	pop	{r4, pc}
10003124:	f7ff ff42 	bl	10002fac <xTaskResumeAll.part.0>
10003128:	e7fb      	b.n	10003122 <xTaskResumeAll+0xa>
1000312a:	46c0      	nop			; (mov r8, r8)
1000312c:	20020acc 	.word	0x20020acc

10003130 <vTaskDelay>:
10003130:	b570      	push	{r4, r5, r6, lr}
10003132:	1e04      	subs	r4, r0, #0
10003134:	d00a      	beq.n	1000314c <vTaskDelay+0x1c>
10003136:	4d14      	ldr	r5, [pc, #80]	; (10003188 <vTaskDelay+0x58>)
10003138:	682b      	ldr	r3, [r5, #0]
1000313a:	2b00      	cmp	r3, #0
1000313c:	d11a      	bne.n	10003174 <vTaskDelay+0x44>
1000313e:	2100      	movs	r1, #0
10003140:	0020      	movs	r0, r4
10003142:	f7fe fa5f 	bl	10001604 <prvAddCurrentTaskToDelayedList>
10003146:	682b      	ldr	r3, [r5, #0]
10003148:	2b00      	cmp	r3, #0
1000314a:	d10e      	bne.n	1000316a <vTaskDelay+0x3a>
1000314c:	23d0      	movs	r3, #208	; 0xd0
1000314e:	061b      	lsls	r3, r3, #24
10003150:	681b      	ldr	r3, [r3, #0]
10003152:	4a0e      	ldr	r2, [pc, #56]	; (1000318c <vTaskDelay+0x5c>)
10003154:	009b      	lsls	r3, r3, #2
10003156:	589a      	ldr	r2, [r3, r2]
10003158:	2a00      	cmp	r2, #0
1000315a:	d003      	beq.n	10003164 <vTaskDelay+0x34>
1000315c:	2101      	movs	r1, #1
1000315e:	4a0c      	ldr	r2, [pc, #48]	; (10003190 <vTaskDelay+0x60>)
10003160:	5099      	str	r1, [r3, r2]
10003162:	bd70      	pop	{r4, r5, r6, pc}
10003164:	f7fd fc06 	bl	10000974 <vPortYield>
10003168:	e7fb      	b.n	10003162 <vTaskDelay+0x32>
1000316a:	f7ff ff1f 	bl	10002fac <xTaskResumeAll.part.0>
1000316e:	2800      	cmp	r0, #0
10003170:	d0ec      	beq.n	1000314c <vTaskDelay+0x1c>
10003172:	e7f6      	b.n	10003162 <vTaskDelay+0x32>
10003174:	f7fe fbdc 	bl	10001930 <vTaskSuspendAll.part.0>
10003178:	2100      	movs	r1, #0
1000317a:	0020      	movs	r0, r4
1000317c:	f7fe fa42 	bl	10001604 <prvAddCurrentTaskToDelayedList>
10003180:	682b      	ldr	r3, [r5, #0]
10003182:	2b00      	cmp	r3, #0
10003184:	d0e2      	beq.n	1000314c <vTaskDelay+0x1c>
10003186:	e7f0      	b.n	1000316a <vTaskDelay+0x3a>
10003188:	20020acc 	.word	0x20020acc
1000318c:	20020a20 	.word	0x20020a20
10003190:	20020b0c 	.word	0x20020b0c

10003194 <vTaskRemoveFromUnorderedEventList>:
10003194:	2380      	movs	r3, #128	; 0x80
10003196:	061b      	lsls	r3, r3, #24
10003198:	6842      	ldr	r2, [r0, #4]
1000319a:	430b      	orrs	r3, r1
1000319c:	6881      	ldr	r1, [r0, #8]
1000319e:	b570      	push	{r4, r5, r6, lr}
100031a0:	6003      	str	r3, [r0, #0]
100031a2:	68c4      	ldr	r4, [r0, #12]
100031a4:	6903      	ldr	r3, [r0, #16]
100031a6:	6091      	str	r1, [r2, #8]
100031a8:	6881      	ldr	r1, [r0, #8]
100031aa:	604a      	str	r2, [r1, #4]
100031ac:	685a      	ldr	r2, [r3, #4]
100031ae:	4282      	cmp	r2, r0
100031b0:	d034      	beq.n	1000321c <vTaskRemoveFromUnorderedEventList+0x88>
100031b2:	2200      	movs	r2, #0
100031b4:	6102      	str	r2, [r0, #16]
100031b6:	0020      	movs	r0, r4
100031b8:	681a      	ldr	r2, [r3, #0]
100031ba:	6921      	ldr	r1, [r4, #16]
100031bc:	3a01      	subs	r2, #1
100031be:	601a      	str	r2, [r3, #0]
100031c0:	68e2      	ldr	r2, [r4, #12]
100031c2:	69a3      	ldr	r3, [r4, #24]
100031c4:	6091      	str	r1, [r2, #8]
100031c6:	6921      	ldr	r1, [r4, #16]
100031c8:	3008      	adds	r0, #8
100031ca:	604a      	str	r2, [r1, #4]
100031cc:	685a      	ldr	r2, [r3, #4]
100031ce:	4282      	cmp	r2, r0
100031d0:	d026      	beq.n	10003220 <vTaskRemoveFromUnorderedEventList+0x8c>
100031d2:	681a      	ldr	r2, [r3, #0]
100031d4:	3a01      	subs	r2, #1
100031d6:	601a      	str	r2, [r3, #0]
100031d8:	4b12      	ldr	r3, [pc, #72]	; (10003224 <vTaskRemoveFromUnorderedEventList+0x90>)
100031da:	6b22      	ldr	r2, [r4, #48]	; 0x30
100031dc:	6819      	ldr	r1, [r3, #0]
100031de:	428a      	cmp	r2, r1
100031e0:	d900      	bls.n	100031e4 <vTaskRemoveFromUnorderedEventList+0x50>
100031e2:	601a      	str	r2, [r3, #0]
100031e4:	0093      	lsls	r3, r2, #2
100031e6:	4910      	ldr	r1, [pc, #64]	; (10003228 <vTaskRemoveFromUnorderedEventList+0x94>)
100031e8:	189b      	adds	r3, r3, r2
100031ea:	009b      	lsls	r3, r3, #2
100031ec:	18cd      	adds	r5, r1, r3
100031ee:	686a      	ldr	r2, [r5, #4]
100031f0:	6896      	ldr	r6, [r2, #8]
100031f2:	60e2      	str	r2, [r4, #12]
100031f4:	6126      	str	r6, [r4, #16]
100031f6:	6896      	ldr	r6, [r2, #8]
100031f8:	6070      	str	r0, [r6, #4]
100031fa:	6090      	str	r0, [r2, #8]
100031fc:	58ca      	ldr	r2, [r1, r3]
100031fe:	61a5      	str	r5, [r4, #24]
10003200:	3201      	adds	r2, #1
10003202:	50ca      	str	r2, [r1, r3]
10003204:	f7ff fbb2 	bl	1000296c <vTaskEnterCritical>
10003208:	0020      	movs	r0, r4
1000320a:	f7fe f99b 	bl	10001544 <prvYieldForTask>
1000320e:	4b07      	ldr	r3, [pc, #28]	; (1000322c <vTaskRemoveFromUnorderedEventList+0x98>)
10003210:	681b      	ldr	r3, [r3, #0]
10003212:	2b00      	cmp	r3, #0
10003214:	d001      	beq.n	1000321a <vTaskRemoveFromUnorderedEventList+0x86>
10003216:	f7fe fa97 	bl	10001748 <vTaskExitCritical.part.0>
1000321a:	bd70      	pop	{r4, r5, r6, pc}
1000321c:	6059      	str	r1, [r3, #4]
1000321e:	e7c8      	b.n	100031b2 <vTaskRemoveFromUnorderedEventList+0x1e>
10003220:	6059      	str	r1, [r3, #4]
10003222:	e7d6      	b.n	100031d2 <vTaskRemoveFromUnorderedEventList+0x3e>
10003224:	20020a38 	.word	0x20020a38
10003228:	20000778 	.word	0x20000778
1000322c:	20020acc 	.word	0x20020acc

10003230 <vTaskEnterCriticalFromISR>:
10003230:	4b1b      	ldr	r3, [pc, #108]	; (100032a0 <vTaskEnterCriticalFromISR+0x70>)
10003232:	2000      	movs	r0, #0
10003234:	681b      	ldr	r3, [r3, #0]
10003236:	b570      	push	{r4, r5, r6, lr}
10003238:	2b00      	cmp	r3, #0
1000323a:	d100      	bne.n	1000323e <vTaskEnterCriticalFromISR+0xe>
1000323c:	bd70      	pop	{r4, r5, r6, pc}
1000323e:	25d0      	movs	r5, #208	; 0xd0
10003240:	062d      	lsls	r5, r5, #24
10003242:	f7fd fbbb 	bl	100009bc <ulSetInterruptMaskFromISR>
10003246:	682c      	ldr	r4, [r5, #0]
10003248:	4916      	ldr	r1, [pc, #88]	; (100032a4 <vTaskEnterCriticalFromISR+0x74>)
1000324a:	00a2      	lsls	r2, r4, #2
1000324c:	588b      	ldr	r3, [r1, r2]
1000324e:	2b00      	cmp	r3, #0
10003250:	d002      	beq.n	10003258 <vTaskEnterCriticalFromISR+0x28>
10003252:	3301      	adds	r3, #1
10003254:	508b      	str	r3, [r1, r2]
10003256:	e7f1      	b.n	1000323c <vTaskEnterCriticalFromISR+0xc>
10003258:	4b13      	ldr	r3, [pc, #76]	; (100032a8 <vTaskEnterCriticalFromISR+0x78>)
1000325a:	681a      	ldr	r2, [r3, #0]
1000325c:	2a00      	cmp	r2, #0
1000325e:	d00e      	beq.n	1000327e <vTaskEnterCriticalFromISR+0x4e>
10003260:	4a12      	ldr	r2, [pc, #72]	; (100032ac <vTaskEnterCriticalFromISR+0x7c>)
10003262:	f3bf 8f5f 	dmb	sy
10003266:	2501      	movs	r5, #1
10003268:	4b11      	ldr	r3, [pc, #68]	; (100032b0 <vTaskEnterCriticalFromISR+0x80>)
1000326a:	701d      	strb	r5, [r3, #0]
1000326c:	5d13      	ldrb	r3, [r2, r4]
1000326e:	432b      	orrs	r3, r5
10003270:	5513      	strb	r3, [r2, r4]
10003272:	23d0      	movs	r3, #208	; 0xd0
10003274:	061b      	lsls	r3, r3, #24
10003276:	681c      	ldr	r4, [r3, #0]
10003278:	00a2      	lsls	r2, r4, #2
1000327a:	588b      	ldr	r3, [r1, r2]
1000327c:	e7e9      	b.n	10003252 <vTaskEnterCriticalFromISR+0x22>
1000327e:	4a0b      	ldr	r2, [pc, #44]	; (100032ac <vTaskEnterCriticalFromISR+0x7c>)
10003280:	5d16      	ldrb	r6, [r2, r4]
10003282:	07f6      	lsls	r6, r6, #31
10003284:	d403      	bmi.n	1000328e <vTaskEnterCriticalFromISR+0x5e>
10003286:	681d      	ldr	r5, [r3, #0]
10003288:	2d00      	cmp	r5, #0
1000328a:	d1ea      	bne.n	10003262 <vTaskEnterCriticalFromISR+0x32>
1000328c:	e7fb      	b.n	10003286 <vTaskEnterCriticalFromISR+0x56>
1000328e:	4a08      	ldr	r2, [pc, #32]	; (100032b0 <vTaskEnterCriticalFromISR+0x80>)
10003290:	7813      	ldrb	r3, [r2, #0]
10003292:	3301      	adds	r3, #1
10003294:	7013      	strb	r3, [r2, #0]
10003296:	682c      	ldr	r4, [r5, #0]
10003298:	00a2      	lsls	r2, r4, #2
1000329a:	588b      	ldr	r3, [r1, r2]
1000329c:	e7d9      	b.n	10003252 <vTaskEnterCriticalFromISR+0x22>
1000329e:	46c0      	nop			; (mov r8, r8)
100032a0:	20020acc 	.word	0x20020acc
100032a4:	20020a20 	.word	0x20020a20
100032a8:	d0000138 	.word	0xd0000138
100032ac:	20020a10 	.word	0x20020a10
100032b0:	20020a14 	.word	0x20020a14

100032b4 <vTaskExitCritical>:
100032b4:	4b20      	ldr	r3, [pc, #128]	; (10003338 <vTaskExitCritical+0x84>)
100032b6:	b570      	push	{r4, r5, r6, lr}
100032b8:	681b      	ldr	r3, [r3, #0]
100032ba:	2b00      	cmp	r3, #0
100032bc:	d037      	beq.n	1000332e <vTaskExitCritical+0x7a>
100032be:	20d0      	movs	r0, #208	; 0xd0
100032c0:	0600      	lsls	r0, r0, #24
100032c2:	6803      	ldr	r3, [r0, #0]
100032c4:	491d      	ldr	r1, [pc, #116]	; (1000333c <vTaskExitCritical+0x88>)
100032c6:	009b      	lsls	r3, r3, #2
100032c8:	585a      	ldr	r2, [r3, r1]
100032ca:	2a00      	cmp	r2, #0
100032cc:	d02f      	beq.n	1000332e <vTaskExitCritical+0x7a>
100032ce:	3a01      	subs	r2, #1
100032d0:	505a      	str	r2, [r3, r1]
100032d2:	6800      	ldr	r0, [r0, #0]
100032d4:	0083      	lsls	r3, r0, #2
100032d6:	585a      	ldr	r2, [r3, r1]
100032d8:	2a00      	cmp	r2, #0
100032da:	d128      	bne.n	1000332e <vTaskExitCritical+0x7a>
100032dc:	4a18      	ldr	r2, [pc, #96]	; (10003340 <vTaskExitCritical+0x8c>)
100032de:	589c      	ldr	r4, [r3, r2]
100032e0:	4a18      	ldr	r2, [pc, #96]	; (10003344 <vTaskExitCritical+0x90>)
100032e2:	7813      	ldrb	r3, [r2, #0]
100032e4:	3b01      	subs	r3, #1
100032e6:	b2db      	uxtb	r3, r3
100032e8:	7013      	strb	r3, [r2, #0]
100032ea:	2b00      	cmp	r3, #0
100032ec:	d108      	bne.n	10003300 <vTaskExitCritical+0x4c>
100032ee:	2101      	movs	r1, #1
100032f0:	4d15      	ldr	r5, [pc, #84]	; (10003348 <vTaskExitCritical+0x94>)
100032f2:	5c2b      	ldrb	r3, [r5, r0]
100032f4:	438b      	bics	r3, r1
100032f6:	542b      	strb	r3, [r5, r0]
100032f8:	f3bf 8f5f 	dmb	sy
100032fc:	4b13      	ldr	r3, [pc, #76]	; (1000334c <vTaskExitCritical+0x98>)
100032fe:	6019      	str	r1, [r3, #0]
10003300:	23d0      	movs	r3, #208	; 0xd0
10003302:	061b      	lsls	r3, r3, #24
10003304:	6819      	ldr	r1, [r3, #0]
10003306:	7853      	ldrb	r3, [r2, #1]
10003308:	3b01      	subs	r3, #1
1000330a:	b2db      	uxtb	r3, r3
1000330c:	7053      	strb	r3, [r2, #1]
1000330e:	2b00      	cmp	r3, #0
10003310:	d109      	bne.n	10003326 <vTaskExitCritical+0x72>
10003312:	2002      	movs	r0, #2
10003314:	4a0c      	ldr	r2, [pc, #48]	; (10003348 <vTaskExitCritical+0x94>)
10003316:	5c53      	ldrb	r3, [r2, r1]
10003318:	4383      	bics	r3, r0
1000331a:	5453      	strb	r3, [r2, r1]
1000331c:	f3bf 8f5f 	dmb	sy
10003320:	2201      	movs	r2, #1
10003322:	4b0b      	ldr	r3, [pc, #44]	; (10003350 <vTaskExitCritical+0x9c>)
10003324:	601a      	str	r2, [r3, #0]
10003326:	f7fd fb31 	bl	1000098c <vPortEnableInterrupts>
1000332a:	2c00      	cmp	r4, #0
1000332c:	d100      	bne.n	10003330 <vTaskExitCritical+0x7c>
1000332e:	bd70      	pop	{r4, r5, r6, pc}
10003330:	f7fd fb20 	bl	10000974 <vPortYield>
10003334:	e7fb      	b.n	1000332e <vTaskExitCritical+0x7a>
10003336:	46c0      	nop			; (mov r8, r8)
10003338:	20020acc 	.word	0x20020acc
1000333c:	20020a20 	.word	0x20020a20
10003340:	20020b0c 	.word	0x20020b0c
10003344:	20020a14 	.word	0x20020a14
10003348:	20020a10 	.word	0x20020a10
1000334c:	d0000138 	.word	0xd0000138
10003350:	d000013c 	.word	0xd000013c

10003354 <vTaskExitCriticalFromISR>:
10003354:	4b13      	ldr	r3, [pc, #76]	; (100033a4 <vTaskExitCriticalFromISR+0x50>)
10003356:	b510      	push	{r4, lr}
10003358:	681b      	ldr	r3, [r3, #0]
1000335a:	2b00      	cmp	r3, #0
1000335c:	d020      	beq.n	100033a0 <vTaskExitCriticalFromISR+0x4c>
1000335e:	24d0      	movs	r4, #208	; 0xd0
10003360:	0624      	lsls	r4, r4, #24
10003362:	6823      	ldr	r3, [r4, #0]
10003364:	4910      	ldr	r1, [pc, #64]	; (100033a8 <vTaskExitCriticalFromISR+0x54>)
10003366:	009b      	lsls	r3, r3, #2
10003368:	585a      	ldr	r2, [r3, r1]
1000336a:	2a00      	cmp	r2, #0
1000336c:	d018      	beq.n	100033a0 <vTaskExitCriticalFromISR+0x4c>
1000336e:	3a01      	subs	r2, #1
10003370:	505a      	str	r2, [r3, r1]
10003372:	6822      	ldr	r2, [r4, #0]
10003374:	0093      	lsls	r3, r2, #2
10003376:	585b      	ldr	r3, [r3, r1]
10003378:	2b00      	cmp	r3, #0
1000337a:	d111      	bne.n	100033a0 <vTaskExitCriticalFromISR+0x4c>
1000337c:	490b      	ldr	r1, [pc, #44]	; (100033ac <vTaskExitCriticalFromISR+0x58>)
1000337e:	780b      	ldrb	r3, [r1, #0]
10003380:	3b01      	subs	r3, #1
10003382:	b2db      	uxtb	r3, r3
10003384:	700b      	strb	r3, [r1, #0]
10003386:	2b00      	cmp	r3, #0
10003388:	d108      	bne.n	1000339c <vTaskExitCriticalFromISR+0x48>
1000338a:	2101      	movs	r1, #1
1000338c:	4c08      	ldr	r4, [pc, #32]	; (100033b0 <vTaskExitCriticalFromISR+0x5c>)
1000338e:	5ca3      	ldrb	r3, [r4, r2]
10003390:	438b      	bics	r3, r1
10003392:	54a3      	strb	r3, [r4, r2]
10003394:	f3bf 8f5f 	dmb	sy
10003398:	4b06      	ldr	r3, [pc, #24]	; (100033b4 <vTaskExitCriticalFromISR+0x60>)
1000339a:	6019      	str	r1, [r3, #0]
1000339c:	f7fd fb12 	bl	100009c4 <vClearInterruptMaskFromISR>
100033a0:	bd10      	pop	{r4, pc}
100033a2:	46c0      	nop			; (mov r8, r8)
100033a4:	20020acc 	.word	0x20020acc
100033a8:	20020a20 	.word	0x20020a20
100033ac:	20020a14 	.word	0x20020a14
100033b0:	20020a10 	.word	0x20020a10
100033b4:	d0000138 	.word	0xd0000138

100033b8 <uxTaskResetEventItemValue>:
100033b8:	b510      	push	{r4, lr}
100033ba:	f3ef 8010 	mrs	r0, PRIMASK
100033be:	b672      	cpsid	i
100033c0:	21d0      	movs	r1, #208	; 0xd0
100033c2:	0609      	lsls	r1, r1, #24
100033c4:	680b      	ldr	r3, [r1, #0]
100033c6:	4a0d      	ldr	r2, [pc, #52]	; (100033fc <uxTaskResetEventItemValue+0x44>)
100033c8:	009b      	lsls	r3, r3, #2
100033ca:	589b      	ldr	r3, [r3, r2]
100033cc:	f380 8810 	msr	PRIMASK, r0
100033d0:	69d8      	ldr	r0, [r3, #28]
100033d2:	f3ef 8410 	mrs	r4, PRIMASK
100033d6:	b672      	cpsid	i
100033d8:	680b      	ldr	r3, [r1, #0]
100033da:	009b      	lsls	r3, r3, #2
100033dc:	589b      	ldr	r3, [r3, r2]
100033de:	f384 8810 	msr	PRIMASK, r4
100033e2:	6b1c      	ldr	r4, [r3, #48]	; 0x30
100033e4:	f3ef 8310 	mrs	r3, PRIMASK
100033e8:	b672      	cpsid	i
100033ea:	6809      	ldr	r1, [r1, #0]
100033ec:	0089      	lsls	r1, r1, #2
100033ee:	588a      	ldr	r2, [r1, r2]
100033f0:	f383 8810 	msr	PRIMASK, r3
100033f4:	2320      	movs	r3, #32
100033f6:	1b1b      	subs	r3, r3, r4
100033f8:	61d3      	str	r3, [r2, #28]
100033fa:	bd10      	pop	{r4, pc}
100033fc:	2000075c 	.word	0x2000075c

10003400 <prvTimerTask>:
10003400:	4bd4      	ldr	r3, [pc, #848]	; (10003754 <prvTimerTask+0x354>)
10003402:	b5f0      	push	{r4, r5, r6, r7, lr}
10003404:	46de      	mov	lr, fp
10003406:	4657      	mov	r7, sl
10003408:	464e      	mov	r6, r9
1000340a:	4645      	mov	r5, r8
1000340c:	4698      	mov	r8, r3
1000340e:	4bd2      	ldr	r3, [pc, #840]	; (10003758 <prvTimerTask+0x358>)
10003410:	b5e0      	push	{r5, r6, r7, lr}
10003412:	4699      	mov	r9, r3
10003414:	4bd1      	ldr	r3, [pc, #836]	; (1000375c <prvTimerTask+0x35c>)
10003416:	b089      	sub	sp, #36	; 0x24
10003418:	469a      	mov	sl, r3
1000341a:	4bd1      	ldr	r3, [pc, #836]	; (10003760 <prvTimerTask+0x360>)
1000341c:	469b      	mov	fp, r3
1000341e:	4643      	mov	r3, r8
10003420:	681b      	ldr	r3, [r3, #0]
10003422:	681c      	ldr	r4, [r3, #0]
10003424:	2c00      	cmp	r4, #0
10003426:	d100      	bne.n	1000342a <prvTimerTask+0x2a>
10003428:	e0c9      	b.n	100035be <prvTimerTask+0x1be>
1000342a:	68db      	ldr	r3, [r3, #12]
1000342c:	681c      	ldr	r4, [r3, #0]
1000342e:	f7fe fc6f 	bl	10001d10 <vTaskSuspendAll>
10003432:	f7fe fcdb 	bl	10001dec <xTaskGetTickCount>
10003436:	464b      	mov	r3, r9
10003438:	681b      	ldr	r3, [r3, #0]
1000343a:	9001      	str	r0, [sp, #4]
1000343c:	4283      	cmp	r3, r0
1000343e:	d842      	bhi.n	100034c6 <prvTimerTask+0xc6>
10003440:	464a      	mov	r2, r9
10003442:	6010      	str	r0, [r2, #0]
10003444:	4284      	cmp	r4, r0
10003446:	d800      	bhi.n	1000344a <prvTimerTask+0x4a>
10003448:	e12c      	b.n	100036a4 <prvTimerTask+0x2a4>
1000344a:	2200      	movs	r2, #0
1000344c:	9b01      	ldr	r3, [sp, #4]
1000344e:	1ae1      	subs	r1, r4, r3
10003450:	465b      	mov	r3, fp
10003452:	6818      	ldr	r0, [r3, #0]
10003454:	f7fe f842 	bl	100014dc <vQueueWaitForMessageRestricted>
10003458:	f7ff fe5e 	bl	10003118 <xTaskResumeAll>
1000345c:	2800      	cmp	r0, #0
1000345e:	d100      	bne.n	10003462 <prvTimerTask+0x62>
10003460:	e112      	b.n	10003688 <prvTimerTask+0x288>
10003462:	2210      	movs	r2, #16
10003464:	2100      	movs	r1, #0
10003466:	a804      	add	r0, sp, #16
10003468:	f002 f9b4 	bl	100057d4 <__wrap_memset>
1000346c:	465b      	mov	r3, fp
1000346e:	2200      	movs	r2, #0
10003470:	6818      	ldr	r0, [r3, #0]
10003472:	a904      	add	r1, sp, #16
10003474:	f7fd ff2e 	bl	100012d4 <xQueueReceive>
10003478:	2800      	cmp	r0, #0
1000347a:	d0d0      	beq.n	1000341e <prvTimerTask+0x1e>
1000347c:	9b04      	ldr	r3, [sp, #16]
1000347e:	9301      	str	r3, [sp, #4]
10003480:	2b00      	cmp	r3, #0
10003482:	da00      	bge.n	10003486 <prvTimerTask+0x86>
10003484:	e08c      	b.n	100035a0 <prvTimerTask+0x1a0>
10003486:	9f06      	ldr	r7, [sp, #24]
10003488:	697b      	ldr	r3, [r7, #20]
1000348a:	2b00      	cmp	r3, #0
1000348c:	d002      	beq.n	10003494 <prvTimerTask+0x94>
1000348e:	1d38      	adds	r0, r7, #4
10003490:	f7fd fd32 	bl	10000ef8 <uxListRemove>
10003494:	f7fe fcaa 	bl	10001dec <xTaskGetTickCount>
10003498:	464b      	mov	r3, r9
1000349a:	681b      	ldr	r3, [r3, #0]
1000349c:	9001      	str	r0, [sp, #4]
1000349e:	4298      	cmp	r0, r3
100034a0:	d200      	bcs.n	100034a4 <prvTimerTask+0xa4>
100034a2:	e0ab      	b.n	100035fc <prvTimerTask+0x1fc>
100034a4:	464b      	mov	r3, r9
100034a6:	9a01      	ldr	r2, [sp, #4]
100034a8:	601a      	str	r2, [r3, #0]
100034aa:	9b04      	ldr	r3, [sp, #16]
100034ac:	2b09      	cmp	r3, #9
100034ae:	d8dd      	bhi.n	1000346c <prvTimerTask+0x6c>
100034b0:	4aac      	ldr	r2, [pc, #688]	; (10003764 <prvTimerTask+0x364>)
100034b2:	009b      	lsls	r3, r3, #2
100034b4:	58d3      	ldr	r3, [r2, r3]
100034b6:	469f      	mov	pc, r3
100034b8:	2201      	movs	r2, #1
100034ba:	4393      	bics	r3, r2
100034bc:	3227      	adds	r2, #39	; 0x27
100034be:	54a3      	strb	r3, [r4, r2]
100034c0:	0020      	movs	r0, r4
100034c2:	6a23      	ldr	r3, [r4, #32]
100034c4:	4798      	blx	r3
100034c6:	4643      	mov	r3, r8
100034c8:	681b      	ldr	r3, [r3, #0]
100034ca:	681a      	ldr	r2, [r3, #0]
100034cc:	2a00      	cmp	r2, #0
100034ce:	d100      	bne.n	100034d2 <prvTimerTask+0xd2>
100034d0:	e088      	b.n	100035e4 <prvTimerTask+0x1e4>
100034d2:	68db      	ldr	r3, [r3, #12]
100034d4:	68dc      	ldr	r4, [r3, #12]
100034d6:	681e      	ldr	r6, [r3, #0]
100034d8:	1d27      	adds	r7, r4, #4
100034da:	0038      	movs	r0, r7
100034dc:	f7fd fd0c 	bl	10000ef8 <uxListRemove>
100034e0:	2328      	movs	r3, #40	; 0x28
100034e2:	2204      	movs	r2, #4
100034e4:	5ce3      	ldrb	r3, [r4, r3]
100034e6:	421a      	tst	r2, r3
100034e8:	d0e6      	beq.n	100034b8 <prvTimerTask+0xb8>
100034ea:	69a3      	ldr	r3, [r4, #24]
100034ec:	6124      	str	r4, [r4, #16]
100034ee:	18f5      	adds	r5, r6, r3
100034f0:	43f6      	mvns	r6, r6
100034f2:	6065      	str	r5, [r4, #4]
100034f4:	42b3      	cmp	r3, r6
100034f6:	d80a      	bhi.n	1000350e <prvTimerTask+0x10e>
100034f8:	002e      	movs	r6, r5
100034fa:	43f6      	mvns	r6, r6
100034fc:	6a23      	ldr	r3, [r4, #32]
100034fe:	0020      	movs	r0, r4
10003500:	4798      	blx	r3
10003502:	69a3      	ldr	r3, [r4, #24]
10003504:	6124      	str	r4, [r4, #16]
10003506:	18ed      	adds	r5, r5, r3
10003508:	6065      	str	r5, [r4, #4]
1000350a:	42b3      	cmp	r3, r6
1000350c:	d9f4      	bls.n	100034f8 <prvTimerTask+0xf8>
1000350e:	4653      	mov	r3, sl
10003510:	0039      	movs	r1, r7
10003512:	6818      	ldr	r0, [r3, #0]
10003514:	f7fd fcd8 	bl	10000ec8 <vListInsert>
10003518:	e7d2      	b.n	100034c0 <prvTimerTask+0xc0>
1000351a:	2228      	movs	r2, #40	; 0x28
1000351c:	2301      	movs	r3, #1
1000351e:	5cb8      	ldrb	r0, [r7, r2]
10003520:	9905      	ldr	r1, [sp, #20]
10003522:	4303      	orrs	r3, r0
10003524:	54bb      	strb	r3, [r7, r2]
10003526:	69ba      	ldr	r2, [r7, #24]
10003528:	9c01      	ldr	r4, [sp, #4]
1000352a:	188b      	adds	r3, r1, r2
1000352c:	607b      	str	r3, [r7, #4]
1000352e:	613f      	str	r7, [r7, #16]
10003530:	42a3      	cmp	r3, r4
10003532:	d900      	bls.n	10003536 <prvTimerTask+0x136>
10003534:	e0ab      	b.n	1000368e <prvTimerTask+0x28e>
10003536:	1a61      	subs	r1, r4, r1
10003538:	428a      	cmp	r2, r1
1000353a:	d81b      	bhi.n	10003574 <prvTimerTask+0x174>
1000353c:	0741      	lsls	r1, r0, #29
1000353e:	d500      	bpl.n	10003542 <prvTimerTask+0x142>
10003540:	e0e9      	b.n	10003716 <prvTimerTask+0x316>
10003542:	2301      	movs	r3, #1
10003544:	4398      	bics	r0, r3
10003546:	3327      	adds	r3, #39	; 0x27
10003548:	54f8      	strb	r0, [r7, r3]
1000354a:	0038      	movs	r0, r7
1000354c:	6a3b      	ldr	r3, [r7, #32]
1000354e:	4798      	blx	r3
10003550:	e78c      	b.n	1000346c <prvTimerTask+0x6c>
10003552:	2128      	movs	r1, #40	; 0x28
10003554:	2201      	movs	r2, #1
10003556:	5c7b      	ldrb	r3, [r7, r1]
10003558:	4313      	orrs	r3, r2
1000355a:	547b      	strb	r3, [r7, r1]
1000355c:	9b05      	ldr	r3, [sp, #20]
1000355e:	9901      	ldr	r1, [sp, #4]
10003560:	61bb      	str	r3, [r7, #24]
10003562:	185a      	adds	r2, r3, r1
10003564:	607a      	str	r2, [r7, #4]
10003566:	613f      	str	r7, [r7, #16]
10003568:	428a      	cmp	r2, r1
1000356a:	d900      	bls.n	1000356e <prvTimerTask+0x16e>
1000356c:	e094      	b.n	10003698 <prvTimerTask+0x298>
1000356e:	2b00      	cmp	r3, #0
10003570:	d100      	bne.n	10003574 <prvTimerTask+0x174>
10003572:	e77b      	b.n	1000346c <prvTimerTask+0x6c>
10003574:	4653      	mov	r3, sl
10003576:	1d39      	adds	r1, r7, #4
10003578:	6818      	ldr	r0, [r3, #0]
1000357a:	f7fd fca5 	bl	10000ec8 <vListInsert>
1000357e:	e775      	b.n	1000346c <prvTimerTask+0x6c>
10003580:	2228      	movs	r2, #40	; 0x28
10003582:	2101      	movs	r1, #1
10003584:	5cbb      	ldrb	r3, [r7, r2]
10003586:	438b      	bics	r3, r1
10003588:	54bb      	strb	r3, [r7, r2]
1000358a:	e76f      	b.n	1000346c <prvTimerTask+0x6c>
1000358c:	2328      	movs	r3, #40	; 0x28
1000358e:	5cfb      	ldrb	r3, [r7, r3]
10003590:	079a      	lsls	r2, r3, #30
10003592:	d400      	bmi.n	10003596 <prvTimerTask+0x196>
10003594:	e09b      	b.n	100036ce <prvTimerTask+0x2ce>
10003596:	2201      	movs	r2, #1
10003598:	4393      	bics	r3, r2
1000359a:	3227      	adds	r2, #39	; 0x27
1000359c:	54bb      	strb	r3, [r7, r2]
1000359e:	e765      	b.n	1000346c <prvTimerTask+0x6c>
100035a0:	9b07      	ldr	r3, [sp, #28]
100035a2:	9301      	str	r3, [sp, #4]
100035a4:	9b06      	ldr	r3, [sp, #24]
100035a6:	9901      	ldr	r1, [sp, #4]
100035a8:	9302      	str	r3, [sp, #8]
100035aa:	9b05      	ldr	r3, [sp, #20]
100035ac:	9802      	ldr	r0, [sp, #8]
100035ae:	9303      	str	r3, [sp, #12]
100035b0:	4798      	blx	r3
100035b2:	9b04      	ldr	r3, [sp, #16]
100035b4:	9301      	str	r3, [sp, #4]
100035b6:	2b00      	cmp	r3, #0
100035b8:	da00      	bge.n	100035bc <prvTimerTask+0x1bc>
100035ba:	e757      	b.n	1000346c <prvTimerTask+0x6c>
100035bc:	e763      	b.n	10003486 <prvTimerTask+0x86>
100035be:	f7fe fba7 	bl	10001d10 <vTaskSuspendAll>
100035c2:	f7fe fc13 	bl	10001dec <xTaskGetTickCount>
100035c6:	464b      	mov	r3, r9
100035c8:	681b      	ldr	r3, [r3, #0]
100035ca:	0002      	movs	r2, r0
100035cc:	9001      	str	r0, [sp, #4]
100035ce:	4298      	cmp	r0, r3
100035d0:	d200      	bcs.n	100035d4 <prvTimerTask+0x1d4>
100035d2:	e778      	b.n	100034c6 <prvTimerTask+0xc6>
100035d4:	464b      	mov	r3, r9
100035d6:	601a      	str	r2, [r3, #0]
100035d8:	4653      	mov	r3, sl
100035da:	681b      	ldr	r3, [r3, #0]
100035dc:	681a      	ldr	r2, [r3, #0]
100035de:	4253      	negs	r3, r2
100035e0:	415a      	adcs	r2, r3
100035e2:	e733      	b.n	1000344c <prvTimerTask+0x4c>
100035e4:	4651      	mov	r1, sl
100035e6:	4642      	mov	r2, r8
100035e8:	6809      	ldr	r1, [r1, #0]
100035ea:	6011      	str	r1, [r2, #0]
100035ec:	4652      	mov	r2, sl
100035ee:	6013      	str	r3, [r2, #0]
100035f0:	464b      	mov	r3, r9
100035f2:	9a01      	ldr	r2, [sp, #4]
100035f4:	601a      	str	r2, [r3, #0]
100035f6:	f7ff fd8f 	bl	10003118 <xTaskResumeAll>
100035fa:	e732      	b.n	10003462 <prvTimerTask+0x62>
100035fc:	4643      	mov	r3, r8
100035fe:	681b      	ldr	r3, [r3, #0]
10003600:	681a      	ldr	r2, [r3, #0]
10003602:	2a00      	cmp	r2, #0
10003604:	d039      	beq.n	1000367a <prvTimerTask+0x27a>
10003606:	9702      	str	r7, [sp, #8]
10003608:	e00b      	b.n	10003622 <prvTimerTask+0x222>
1000360a:	2201      	movs	r2, #1
1000360c:	4393      	bics	r3, r2
1000360e:	3227      	adds	r2, #39	; 0x27
10003610:	54a3      	strb	r3, [r4, r2]
10003612:	6a23      	ldr	r3, [r4, #32]
10003614:	0020      	movs	r0, r4
10003616:	4798      	blx	r3
10003618:	4643      	mov	r3, r8
1000361a:	681b      	ldr	r3, [r3, #0]
1000361c:	681a      	ldr	r2, [r3, #0]
1000361e:	2a00      	cmp	r2, #0
10003620:	d02a      	beq.n	10003678 <prvTimerTask+0x278>
10003622:	68db      	ldr	r3, [r3, #12]
10003624:	68dc      	ldr	r4, [r3, #12]
10003626:	681e      	ldr	r6, [r3, #0]
10003628:	1d27      	adds	r7, r4, #4
1000362a:	0038      	movs	r0, r7
1000362c:	f7fd fc64 	bl	10000ef8 <uxListRemove>
10003630:	2328      	movs	r3, #40	; 0x28
10003632:	2204      	movs	r2, #4
10003634:	5ce3      	ldrb	r3, [r4, r3]
10003636:	421a      	tst	r2, r3
10003638:	d0e7      	beq.n	1000360a <prvTimerTask+0x20a>
1000363a:	69a3      	ldr	r3, [r4, #24]
1000363c:	6124      	str	r4, [r4, #16]
1000363e:	18f5      	adds	r5, r6, r3
10003640:	43f6      	mvns	r6, r6
10003642:	6065      	str	r5, [r4, #4]
10003644:	42b3      	cmp	r3, r6
10003646:	d80a      	bhi.n	1000365e <prvTimerTask+0x25e>
10003648:	002e      	movs	r6, r5
1000364a:	43f6      	mvns	r6, r6
1000364c:	6a23      	ldr	r3, [r4, #32]
1000364e:	0020      	movs	r0, r4
10003650:	4798      	blx	r3
10003652:	69a3      	ldr	r3, [r4, #24]
10003654:	6124      	str	r4, [r4, #16]
10003656:	18ed      	adds	r5, r5, r3
10003658:	6065      	str	r5, [r4, #4]
1000365a:	42b3      	cmp	r3, r6
1000365c:	d9f4      	bls.n	10003648 <prvTimerTask+0x248>
1000365e:	4653      	mov	r3, sl
10003660:	0039      	movs	r1, r7
10003662:	6818      	ldr	r0, [r3, #0]
10003664:	f7fd fc30 	bl	10000ec8 <vListInsert>
10003668:	6a23      	ldr	r3, [r4, #32]
1000366a:	0020      	movs	r0, r4
1000366c:	4798      	blx	r3
1000366e:	4643      	mov	r3, r8
10003670:	681b      	ldr	r3, [r3, #0]
10003672:	681a      	ldr	r2, [r3, #0]
10003674:	2a00      	cmp	r2, #0
10003676:	d1d4      	bne.n	10003622 <prvTimerTask+0x222>
10003678:	9f02      	ldr	r7, [sp, #8]
1000367a:	4651      	mov	r1, sl
1000367c:	4642      	mov	r2, r8
1000367e:	6809      	ldr	r1, [r1, #0]
10003680:	6011      	str	r1, [r2, #0]
10003682:	4652      	mov	r2, sl
10003684:	6013      	str	r3, [r2, #0]
10003686:	e70d      	b.n	100034a4 <prvTimerTask+0xa4>
10003688:	f7ff f95c 	bl	10002944 <vTaskYieldWithinAPI>
1000368c:	e6e9      	b.n	10003462 <prvTimerTask+0x62>
1000368e:	42a1      	cmp	r1, r4
10003690:	d902      	bls.n	10003698 <prvTimerTask+0x298>
10003692:	4299      	cmp	r1, r3
10003694:	d800      	bhi.n	10003698 <prvTimerTask+0x298>
10003696:	e751      	b.n	1000353c <prvTimerTask+0x13c>
10003698:	4643      	mov	r3, r8
1000369a:	1d39      	adds	r1, r7, #4
1000369c:	6818      	ldr	r0, [r3, #0]
1000369e:	f7fd fc13 	bl	10000ec8 <vListInsert>
100036a2:	e6e3      	b.n	1000346c <prvTimerTask+0x6c>
100036a4:	f7ff fd38 	bl	10003118 <xTaskResumeAll>
100036a8:	4643      	mov	r3, r8
100036aa:	681b      	ldr	r3, [r3, #0]
100036ac:	68db      	ldr	r3, [r3, #12]
100036ae:	68dd      	ldr	r5, [r3, #12]
100036b0:	1d2f      	adds	r7, r5, #4
100036b2:	0038      	movs	r0, r7
100036b4:	f7fd fc20 	bl	10000ef8 <uxListRemove>
100036b8:	2228      	movs	r2, #40	; 0x28
100036ba:	5cab      	ldrb	r3, [r5, r2]
100036bc:	0759      	lsls	r1, r3, #29
100036be:	d40a      	bmi.n	100036d6 <prvTimerTask+0x2d6>
100036c0:	2101      	movs	r1, #1
100036c2:	438b      	bics	r3, r1
100036c4:	54ab      	strb	r3, [r5, r2]
100036c6:	0028      	movs	r0, r5
100036c8:	6a2b      	ldr	r3, [r5, #32]
100036ca:	4798      	blx	r3
100036cc:	e6c9      	b.n	10003462 <prvTimerTask+0x62>
100036ce:	0038      	movs	r0, r7
100036d0:	f7fd f86a 	bl	100007a8 <vPortFree>
100036d4:	e6ca      	b.n	1000346c <prvTimerTask+0x6c>
100036d6:	0023      	movs	r3, r4
100036d8:	9c01      	ldr	r4, [sp, #4]
100036da:	e006      	b.n	100036ea <prvTimerTask+0x2ea>
100036dc:	1ae3      	subs	r3, r4, r3
100036de:	429a      	cmp	r2, r3
100036e0:	d813      	bhi.n	1000370a <prvTimerTask+0x30a>
100036e2:	6a2b      	ldr	r3, [r5, #32]
100036e4:	0028      	movs	r0, r5
100036e6:	4798      	blx	r3
100036e8:	0033      	movs	r3, r6
100036ea:	69aa      	ldr	r2, [r5, #24]
100036ec:	612d      	str	r5, [r5, #16]
100036ee:	189e      	adds	r6, r3, r2
100036f0:	606e      	str	r6, [r5, #4]
100036f2:	42a6      	cmp	r6, r4
100036f4:	d9f2      	bls.n	100036dc <prvTimerTask+0x2dc>
100036f6:	42a3      	cmp	r3, r4
100036f8:	d901      	bls.n	100036fe <prvTimerTask+0x2fe>
100036fa:	42b3      	cmp	r3, r6
100036fc:	d9f1      	bls.n	100036e2 <prvTimerTask+0x2e2>
100036fe:	4643      	mov	r3, r8
10003700:	0039      	movs	r1, r7
10003702:	6818      	ldr	r0, [r3, #0]
10003704:	f7fd fbe0 	bl	10000ec8 <vListInsert>
10003708:	e7dd      	b.n	100036c6 <prvTimerTask+0x2c6>
1000370a:	4653      	mov	r3, sl
1000370c:	0039      	movs	r1, r7
1000370e:	6818      	ldr	r0, [r3, #0]
10003710:	f7fd fbda 	bl	10000ec8 <vListInsert>
10003714:	e7d7      	b.n	100036c6 <prvTimerTask+0x2c6>
10003716:	9d01      	ldr	r5, [sp, #4]
10003718:	e007      	b.n	1000372a <prvTimerTask+0x32a>
1000371a:	1aeb      	subs	r3, r5, r3
1000371c:	429a      	cmp	r2, r3
1000371e:	d813      	bhi.n	10003748 <prvTimerTask+0x348>
10003720:	6a3b      	ldr	r3, [r7, #32]
10003722:	0038      	movs	r0, r7
10003724:	4798      	blx	r3
10003726:	0023      	movs	r3, r4
10003728:	69ba      	ldr	r2, [r7, #24]
1000372a:	18d4      	adds	r4, r2, r3
1000372c:	607c      	str	r4, [r7, #4]
1000372e:	613f      	str	r7, [r7, #16]
10003730:	42a5      	cmp	r5, r4
10003732:	d2f2      	bcs.n	1000371a <prvTimerTask+0x31a>
10003734:	429d      	cmp	r5, r3
10003736:	d201      	bcs.n	1000373c <prvTimerTask+0x33c>
10003738:	42a3      	cmp	r3, r4
1000373a:	d9f1      	bls.n	10003720 <prvTimerTask+0x320>
1000373c:	4643      	mov	r3, r8
1000373e:	1d39      	adds	r1, r7, #4
10003740:	6818      	ldr	r0, [r3, #0]
10003742:	f7fd fbc1 	bl	10000ec8 <vListInsert>
10003746:	e700      	b.n	1000354a <prvTimerTask+0x14a>
10003748:	4653      	mov	r3, sl
1000374a:	1d39      	adds	r1, r7, #4
1000374c:	6818      	ldr	r0, [r3, #0]
1000374e:	f7fd fbbb 	bl	10000ec8 <vListInsert>
10003752:	e6fa      	b.n	1000354a <prvTimerTask+0x14a>
10003754:	20000764 	.word	0x20000764
10003758:	20020a9c 	.word	0x20020a9c
1000375c:	20000774 	.word	0x20000774
10003760:	20020b04 	.word	0x20020b04
10003764:	10007724 	.word	0x10007724

10003768 <xTimerCreateTimerTask>:
10003768:	b570      	push	{r4, r5, r6, lr}
1000376a:	b084      	sub	sp, #16
1000376c:	f7ff f8fe 	bl	1000296c <vTaskEnterCritical>
10003770:	4c18      	ldr	r4, [pc, #96]	; (100037d4 <xTimerCreateTimerTask+0x6c>)
10003772:	6823      	ldr	r3, [r4, #0]
10003774:	2b00      	cmp	r3, #0
10003776:	d015      	beq.n	100037a4 <xTimerCreateTimerTask+0x3c>
10003778:	f7ff fd9c 	bl	100032b4 <vTaskExitCritical>
1000377c:	6823      	ldr	r3, [r4, #0]
1000377e:	2000      	movs	r0, #0
10003780:	2b00      	cmp	r3, #0
10003782:	d00d      	beq.n	100037a0 <xTimerCreateTimerTask+0x38>
10003784:	4b14      	ldr	r3, [pc, #80]	; (100037d8 <xTimerCreateTimerTask+0x70>)
10003786:	2280      	movs	r2, #128	; 0x80
10003788:	9302      	str	r3, [sp, #8]
1000378a:	2301      	movs	r3, #1
1000378c:	425b      	negs	r3, r3
1000378e:	9301      	str	r3, [sp, #4]
10003790:	3320      	adds	r3, #32
10003792:	9300      	str	r3, [sp, #0]
10003794:	4911      	ldr	r1, [pc, #68]	; (100037dc <xTimerCreateTimerTask+0x74>)
10003796:	2300      	movs	r3, #0
10003798:	4811      	ldr	r0, [pc, #68]	; (100037e0 <xTimerCreateTimerTask+0x78>)
1000379a:	00d2      	lsls	r2, r2, #3
1000379c:	f7ff fa96 	bl	10002ccc <xTaskCreateAffinitySet>
100037a0:	b004      	add	sp, #16
100037a2:	bd70      	pop	{r4, r5, r6, pc}
100037a4:	4e0f      	ldr	r6, [pc, #60]	; (100037e4 <xTimerCreateTimerTask+0x7c>)
100037a6:	0030      	movs	r0, r6
100037a8:	f7fd fb72 	bl	10000e90 <vListInitialise>
100037ac:	4d0e      	ldr	r5, [pc, #56]	; (100037e8 <xTimerCreateTimerTask+0x80>)
100037ae:	0028      	movs	r0, r5
100037b0:	f7fd fb6e 	bl	10000e90 <vListInitialise>
100037b4:	4b0d      	ldr	r3, [pc, #52]	; (100037ec <xTimerCreateTimerTask+0x84>)
100037b6:	2200      	movs	r2, #0
100037b8:	601e      	str	r6, [r3, #0]
100037ba:	4b0d      	ldr	r3, [pc, #52]	; (100037f0 <xTimerCreateTimerTask+0x88>)
100037bc:	2110      	movs	r1, #16
100037be:	200a      	movs	r0, #10
100037c0:	601d      	str	r5, [r3, #0]
100037c2:	f7fd fc9b 	bl	100010fc <xQueueGenericCreate>
100037c6:	6020      	str	r0, [r4, #0]
100037c8:	2800      	cmp	r0, #0
100037ca:	d0d5      	beq.n	10003778 <xTimerCreateTimerTask+0x10>
100037cc:	4909      	ldr	r1, [pc, #36]	; (100037f4 <xTimerCreateTimerTask+0x8c>)
100037ce:	f7fd fe0f 	bl	100013f0 <vQueueAddToRegistry>
100037d2:	e7d1      	b.n	10003778 <xTimerCreateTimerTask+0x10>
100037d4:	20020b04 	.word	0x20020b04
100037d8:	20020b08 	.word	0x20020b08
100037dc:	10007754 	.word	0x10007754
100037e0:	10003401 	.word	0x10003401
100037e4:	20020a3c 	.word	0x20020a3c
100037e8:	20020a50 	.word	0x20020a50
100037ec:	20000764 	.word	0x20000764
100037f0:	20000774 	.word	0x20000774
100037f4:	1000774c 	.word	0x1000774c

100037f8 <xTimerPendFunctionCallFromISR>:
100037f8:	b510      	push	{r4, lr}
100037fa:	0014      	movs	r4, r2
100037fc:	001a      	movs	r2, r3
100037fe:	2302      	movs	r3, #2
10003800:	b084      	sub	sp, #16
10003802:	425b      	negs	r3, r3
10003804:	9300      	str	r3, [sp, #0]
10003806:	4b05      	ldr	r3, [pc, #20]	; (1000381c <xTimerPendFunctionCallFromISR+0x24>)
10003808:	9001      	str	r0, [sp, #4]
1000380a:	9102      	str	r1, [sp, #8]
1000380c:	6818      	ldr	r0, [r3, #0]
1000380e:	4669      	mov	r1, sp
10003810:	2300      	movs	r3, #0
10003812:	9403      	str	r4, [sp, #12]
10003814:	f7fd fcc2 	bl	1000119c <xQueueGenericSendFromISR>
10003818:	b004      	add	sp, #16
1000381a:	bd10      	pop	{r4, pc}
1000381c:	20020b04 	.word	0x20020b04

10003820 <clock_configure_int_divider>:
10003820:	b5f8      	push	{r3, r4, r5, r6, r7, lr}
10003822:	46de      	mov	lr, fp
10003824:	464e      	mov	r6, r9
10003826:	4657      	mov	r7, sl
10003828:	4645      	mov	r5, r8
1000382a:	b5e0      	push	{r5, r6, r7, lr}
1000382c:	468b      	mov	fp, r1
1000382e:	0005      	movs	r5, r0
10003830:	990a      	ldr	r1, [sp, #40]	; 0x28
10003832:	0018      	movs	r0, r3
10003834:	0016      	movs	r6, r2
10003836:	f001 f95b 	bl	10004af0 <__wrap___aeabi_uidiv>
1000383a:	9b0a      	ldr	r3, [sp, #40]	; 0x28
1000383c:	006c      	lsls	r4, r5, #1
1000383e:	021f      	lsls	r7, r3, #8
10003840:	4b32      	ldr	r3, [pc, #200]	; (1000390c <clock_configure_int_divider+0xec>)
10003842:	1964      	adds	r4, r4, r5
10003844:	469c      	mov	ip, r3
10003846:	00a4      	lsls	r4, r4, #2
10003848:	4464      	add	r4, ip
1000384a:	6863      	ldr	r3, [r4, #4]
1000384c:	4681      	mov	r9, r0
1000384e:	429f      	cmp	r7, r3
10003850:	d900      	bls.n	10003854 <clock_configure_int_divider+0x34>
10003852:	6067      	str	r7, [r4, #4]
10003854:	1f2b      	subs	r3, r5, #4
10003856:	b2db      	uxtb	r3, r3
10003858:	4698      	mov	r8, r3
1000385a:	2b01      	cmp	r3, #1
1000385c:	d930      	bls.n	100038c0 <clock_configure_int_divider+0xa0>
1000385e:	23c0      	movs	r3, #192	; 0xc0
10003860:	2280      	movs	r2, #128	; 0x80
10003862:	019b      	lsls	r3, r3, #6
10003864:	18e3      	adds	r3, r4, r3
10003866:	0112      	lsls	r2, r2, #4
10003868:	601a      	str	r2, [r3, #0]
1000386a:	4b29      	ldr	r3, [pc, #164]	; (10003910 <clock_configure_int_divider+0xf0>)
1000386c:	00ad      	lsls	r5, r5, #2
1000386e:	5959      	ldr	r1, [r3, r5]
10003870:	469a      	mov	sl, r3
10003872:	2900      	cmp	r1, #0
10003874:	d11b      	bne.n	100038ae <clock_configure_int_divider+0x8e>
10003876:	6822      	ldr	r2, [r4, #0]
10003878:	0176      	lsls	r6, r6, #5
1000387a:	4072      	eors	r2, r6
1000387c:	26e0      	movs	r6, #224	; 0xe0
1000387e:	2380      	movs	r3, #128	; 0x80
10003880:	4016      	ands	r6, r2
10003882:	4642      	mov	r2, r8
10003884:	015b      	lsls	r3, r3, #5
10003886:	18e3      	adds	r3, r4, r3
10003888:	601e      	str	r6, [r3, #0]
1000388a:	2a01      	cmp	r2, #1
1000388c:	d930      	bls.n	100038f0 <clock_configure_int_divider+0xd0>
1000388e:	2380      	movs	r3, #128	; 0x80
10003890:	2280      	movs	r2, #128	; 0x80
10003892:	019b      	lsls	r3, r3, #6
10003894:	18e3      	adds	r3, r4, r3
10003896:	0112      	lsls	r2, r2, #4
10003898:	601a      	str	r2, [r3, #0]
1000389a:	4653      	mov	r3, sl
1000389c:	464a      	mov	r2, r9
1000389e:	6067      	str	r7, [r4, #4]
100038a0:	515a      	str	r2, [r3, r5]
100038a2:	bcf0      	pop	{r4, r5, r6, r7}
100038a4:	46bb      	mov	fp, r7
100038a6:	46b2      	mov	sl, r6
100038a8:	46a9      	mov	r9, r5
100038aa:	46a0      	mov	r8, r4
100038ac:	bdf8      	pop	{r3, r4, r5, r6, r7, pc}
100038ae:	6958      	ldr	r0, [r3, #20]
100038b0:	f001 f91e 	bl	10004af0 <__wrap___aeabi_uidiv>
100038b4:	1c43      	adds	r3, r0, #1
100038b6:	0058      	lsls	r0, r3, #1
100038b8:	18c0      	adds	r0, r0, r3
100038ba:	3803      	subs	r0, #3
100038bc:	d2fd      	bcs.n	100038ba <clock_configure_int_divider+0x9a>
100038be:	e7da      	b.n	10003876 <clock_configure_int_divider+0x56>
100038c0:	465b      	mov	r3, fp
100038c2:	2b01      	cmp	r3, #1
100038c4:	d1cb      	bne.n	1000385e <clock_configure_int_divider+0x3e>
100038c6:	23c0      	movs	r3, #192	; 0xc0
100038c8:	2203      	movs	r2, #3
100038ca:	019b      	lsls	r3, r3, #6
100038cc:	18e3      	adds	r3, r4, r3
100038ce:	601a      	str	r2, [r3, #0]
100038d0:	3a02      	subs	r2, #2
100038d2:	68a3      	ldr	r3, [r4, #8]
100038d4:	421a      	tst	r2, r3
100038d6:	d0fc      	beq.n	100038d2 <clock_configure_int_divider+0xb2>
100038d8:	23e0      	movs	r3, #224	; 0xe0
100038da:	6822      	ldr	r2, [r4, #0]
100038dc:	0176      	lsls	r6, r6, #5
100038de:	4056      	eors	r6, r2
100038e0:	401e      	ands	r6, r3
100038e2:	2380      	movs	r3, #128	; 0x80
100038e4:	4a0a      	ldr	r2, [pc, #40]	; (10003910 <clock_configure_int_divider+0xf0>)
100038e6:	015b      	lsls	r3, r3, #5
100038e8:	4692      	mov	sl, r2
100038ea:	18e3      	adds	r3, r4, r3
100038ec:	601e      	str	r6, [r3, #0]
100038ee:	00ad      	lsls	r5, r5, #2
100038f0:	465a      	mov	r2, fp
100038f2:	6821      	ldr	r1, [r4, #0]
100038f4:	4051      	eors	r1, r2
100038f6:	2203      	movs	r2, #3
100038f8:	400a      	ands	r2, r1
100038fa:	601a      	str	r2, [r3, #0]
100038fc:	2201      	movs	r2, #1
100038fe:	465b      	mov	r3, fp
10003900:	409a      	lsls	r2, r3
10003902:	68a3      	ldr	r3, [r4, #8]
10003904:	421a      	tst	r2, r3
10003906:	d0fc      	beq.n	10003902 <clock_configure_int_divider+0xe2>
10003908:	e7c1      	b.n	1000388e <clock_configure_int_divider+0x6e>
1000390a:	46c0      	nop			; (mov r8, r8)
1000390c:	40008000 	.word	0x40008000
10003910:	20000718 	.word	0x20000718

10003914 <clock_configure_undivided>:
10003914:	b5f0      	push	{r4, r5, r6, r7, lr}
10003916:	4646      	mov	r6, r8
10003918:	464f      	mov	r7, r9
1000391a:	46d6      	mov	lr, sl
1000391c:	b5c0      	push	{r6, r7, lr}
1000391e:	001f      	movs	r7, r3
10003920:	4b34      	ldr	r3, [pc, #208]	; (100039f4 <clock_configure_undivided+0xe0>)
10003922:	0044      	lsls	r4, r0, #1
10003924:	469c      	mov	ip, r3
10003926:	1824      	adds	r4, r4, r0
10003928:	00a4      	lsls	r4, r4, #2
1000392a:	4464      	add	r4, ip
1000392c:	6863      	ldr	r3, [r4, #4]
1000392e:	4688      	mov	r8, r1
10003930:	0016      	movs	r6, r2
10003932:	2bff      	cmp	r3, #255	; 0xff
10003934:	d802      	bhi.n	1000393c <clock_configure_undivided+0x28>
10003936:	2380      	movs	r3, #128	; 0x80
10003938:	005b      	lsls	r3, r3, #1
1000393a:	6063      	str	r3, [r4, #4]
1000393c:	1f03      	subs	r3, r0, #4
1000393e:	b2db      	uxtb	r3, r3
10003940:	469a      	mov	sl, r3
10003942:	2b01      	cmp	r3, #1
10003944:	d930      	bls.n	100039a8 <clock_configure_undivided+0x94>
10003946:	23c0      	movs	r3, #192	; 0xc0
10003948:	2280      	movs	r2, #128	; 0x80
1000394a:	019b      	lsls	r3, r3, #6
1000394c:	18e3      	adds	r3, r4, r3
1000394e:	0112      	lsls	r2, r2, #4
10003950:	601a      	str	r2, [r3, #0]
10003952:	4b29      	ldr	r3, [pc, #164]	; (100039f8 <clock_configure_undivided+0xe4>)
10003954:	0085      	lsls	r5, r0, #2
10003956:	5959      	ldr	r1, [r3, r5]
10003958:	4699      	mov	r9, r3
1000395a:	2900      	cmp	r1, #0
1000395c:	d11b      	bne.n	10003996 <clock_configure_undivided+0x82>
1000395e:	6822      	ldr	r2, [r4, #0]
10003960:	0176      	lsls	r6, r6, #5
10003962:	4072      	eors	r2, r6
10003964:	26e0      	movs	r6, #224	; 0xe0
10003966:	2380      	movs	r3, #128	; 0x80
10003968:	4016      	ands	r6, r2
1000396a:	4652      	mov	r2, sl
1000396c:	015b      	lsls	r3, r3, #5
1000396e:	18e3      	adds	r3, r4, r3
10003970:	601e      	str	r6, [r3, #0]
10003972:	2a01      	cmp	r2, #1
10003974:	d930      	bls.n	100039d8 <clock_configure_undivided+0xc4>
10003976:	2380      	movs	r3, #128	; 0x80
10003978:	2280      	movs	r2, #128	; 0x80
1000397a:	019b      	lsls	r3, r3, #6
1000397c:	18e3      	adds	r3, r4, r3
1000397e:	0112      	lsls	r2, r2, #4
10003980:	601a      	str	r2, [r3, #0]
10003982:	2380      	movs	r3, #128	; 0x80
10003984:	005b      	lsls	r3, r3, #1
10003986:	6063      	str	r3, [r4, #4]
10003988:	464b      	mov	r3, r9
1000398a:	515f      	str	r7, [r3, r5]
1000398c:	bce0      	pop	{r5, r6, r7}
1000398e:	46ba      	mov	sl, r7
10003990:	46b1      	mov	r9, r6
10003992:	46a8      	mov	r8, r5
10003994:	bdf0      	pop	{r4, r5, r6, r7, pc}
10003996:	6958      	ldr	r0, [r3, #20]
10003998:	f001 f8aa 	bl	10004af0 <__wrap___aeabi_uidiv>
1000399c:	1c43      	adds	r3, r0, #1
1000399e:	0058      	lsls	r0, r3, #1
100039a0:	18c0      	adds	r0, r0, r3
100039a2:	3803      	subs	r0, #3
100039a4:	d2fd      	bcs.n	100039a2 <clock_configure_undivided+0x8e>
100039a6:	e7da      	b.n	1000395e <clock_configure_undivided+0x4a>
100039a8:	4643      	mov	r3, r8
100039aa:	2b01      	cmp	r3, #1
100039ac:	d1cb      	bne.n	10003946 <clock_configure_undivided+0x32>
100039ae:	23c0      	movs	r3, #192	; 0xc0
100039b0:	2203      	movs	r2, #3
100039b2:	019b      	lsls	r3, r3, #6
100039b4:	18e3      	adds	r3, r4, r3
100039b6:	601a      	str	r2, [r3, #0]
100039b8:	3a02      	subs	r2, #2
100039ba:	68a3      	ldr	r3, [r4, #8]
100039bc:	421a      	tst	r2, r3
100039be:	d0fc      	beq.n	100039ba <clock_configure_undivided+0xa6>
100039c0:	23e0      	movs	r3, #224	; 0xe0
100039c2:	6822      	ldr	r2, [r4, #0]
100039c4:	0176      	lsls	r6, r6, #5
100039c6:	4056      	eors	r6, r2
100039c8:	401e      	ands	r6, r3
100039ca:	2380      	movs	r3, #128	; 0x80
100039cc:	4a0a      	ldr	r2, [pc, #40]	; (100039f8 <clock_configure_undivided+0xe4>)
100039ce:	015b      	lsls	r3, r3, #5
100039d0:	4691      	mov	r9, r2
100039d2:	18e3      	adds	r3, r4, r3
100039d4:	601e      	str	r6, [r3, #0]
100039d6:	0085      	lsls	r5, r0, #2
100039d8:	4642      	mov	r2, r8
100039da:	6821      	ldr	r1, [r4, #0]
100039dc:	4051      	eors	r1, r2
100039de:	2203      	movs	r2, #3
100039e0:	400a      	ands	r2, r1
100039e2:	601a      	str	r2, [r3, #0]
100039e4:	2301      	movs	r3, #1
100039e6:	4642      	mov	r2, r8
100039e8:	4093      	lsls	r3, r2
100039ea:	68a2      	ldr	r2, [r4, #8]
100039ec:	4213      	tst	r3, r2
100039ee:	d0fc      	beq.n	100039ea <clock_configure_undivided+0xd6>
100039f0:	e7c1      	b.n	10003976 <clock_configure_undivided+0x62>
100039f2:	46c0      	nop			; (mov r8, r8)
100039f4:	40008000 	.word	0x40008000
100039f8:	20000718 	.word	0x20000718

100039fc <clock_get_hz>:
100039fc:	4b01      	ldr	r3, [pc, #4]	; (10003a04 <clock_get_hz+0x8>)
100039fe:	0080      	lsls	r0, r0, #2
10003a00:	58c0      	ldr	r0, [r0, r3]
10003a02:	4770      	bx	lr
10003a04:	20000718 	.word	0x20000718

10003a08 <hw_claim_or_assert>:
10003a08:	b570      	push	{r4, r5, r6, lr}
10003a0a:	f3ef 8c10 	mrs	ip, PRIMASK
10003a0e:	b672      	cpsid	i
10003a10:	4d0d      	ldr	r5, [pc, #52]	; (10003a48 <hw_claim_or_assert+0x40>)
10003a12:	682b      	ldr	r3, [r5, #0]
10003a14:	2b00      	cmp	r3, #0
10003a16:	d0fc      	beq.n	10003a12 <hw_claim_or_assert+0xa>
10003a18:	f3bf 8f5f 	dmb	sy
10003a1c:	2407      	movs	r4, #7
10003a1e:	08cb      	lsrs	r3, r1, #3
10003a20:	18c6      	adds	r6, r0, r3
10003a22:	5cc0      	ldrb	r0, [r0, r3]
10003a24:	2301      	movs	r3, #1
10003a26:	400c      	ands	r4, r1
10003a28:	40a3      	lsls	r3, r4
10003a2a:	001c      	movs	r4, r3
10003a2c:	4004      	ands	r4, r0
10003a2e:	4203      	tst	r3, r0
10003a30:	d107      	bne.n	10003a42 <hw_claim_or_assert+0x3a>
10003a32:	4303      	orrs	r3, r0
10003a34:	7033      	strb	r3, [r6, #0]
10003a36:	f3bf 8f5f 	dmb	sy
10003a3a:	602c      	str	r4, [r5, #0]
10003a3c:	f38c 8810 	msr	PRIMASK, ip
10003a40:	bd70      	pop	{r4, r5, r6, pc}
10003a42:	0010      	movs	r0, r2
10003a44:	f7fc fe08 	bl	10000658 <panic>
10003a48:	d000012c 	.word	0xd000012c

10003a4c <next_striped_spin_lock_num>:
10003a4c:	4a04      	ldr	r2, [pc, #16]	; (10003a60 <next_striped_spin_lock_num+0x14>)
10003a4e:	7810      	ldrb	r0, [r2, #0]
10003a50:	1c43      	adds	r3, r0, #1
10003a52:	b2db      	uxtb	r3, r3
10003a54:	2b17      	cmp	r3, #23
10003a56:	d900      	bls.n	10003a5a <next_striped_spin_lock_num+0xe>
10003a58:	2310      	movs	r3, #16
10003a5a:	7013      	strb	r3, [r2, #0]
10003a5c:	4770      	bx	lr
10003a5e:	46c0      	nop			; (mov r8, r8)
10003a60:	2000023c 	.word	0x2000023c

10003a64 <spin_lock_claim>:
10003a64:	b510      	push	{r4, lr}
10003a66:	0001      	movs	r1, r0
10003a68:	4a02      	ldr	r2, [pc, #8]	; (10003a74 <spin_lock_claim+0x10>)
10003a6a:	4803      	ldr	r0, [pc, #12]	; (10003a78 <spin_lock_claim+0x14>)
10003a6c:	f7ff ffcc 	bl	10003a08 <hw_claim_or_assert>
10003a70:	bd10      	pop	{r4, pc}
10003a72:	46c0      	nop			; (mov r8, r8)
10003a74:	1000775c 	.word	0x1000775c
10003a78:	20000710 	.word	0x20000710

10003a7c <spin_locks_reset>:
10003a7c:	2100      	movs	r1, #0
10003a7e:	4b04      	ldr	r3, [pc, #16]	; (10003a90 <spin_locks_reset+0x14>)
10003a80:	4a04      	ldr	r2, [pc, #16]	; (10003a94 <spin_locks_reset+0x18>)
10003a82:	f3bf 8f5f 	dmb	sy
10003a86:	c302      	stmia	r3!, {r1}
10003a88:	4293      	cmp	r3, r2
10003a8a:	d1fa      	bne.n	10003a82 <spin_locks_reset+0x6>
10003a8c:	4770      	bx	lr
10003a8e:	46c0      	nop			; (mov r8, r8)
10003a90:	d0000100 	.word	0xd0000100
10003a94:	d0000180 	.word	0xd0000180

10003a98 <gpio_set_function>:
10003a98:	b510      	push	{r4, lr}
10003a9a:	2440      	movs	r4, #64	; 0x40
10003a9c:	4a08      	ldr	r2, [pc, #32]	; (10003ac0 <gpio_set_function+0x28>)
10003a9e:	0083      	lsls	r3, r0, #2
10003aa0:	189a      	adds	r2, r3, r2
10003aa2:	6812      	ldr	r2, [r2, #0]
10003aa4:	00c0      	lsls	r0, r0, #3
10003aa6:	4054      	eors	r4, r2
10003aa8:	22c0      	movs	r2, #192	; 0xc0
10003aaa:	4022      	ands	r2, r4
10003aac:	4c05      	ldr	r4, [pc, #20]	; (10003ac4 <gpio_set_function+0x2c>)
10003aae:	46a4      	mov	ip, r4
10003ab0:	4463      	add	r3, ip
10003ab2:	601a      	str	r2, [r3, #0]
10003ab4:	4b04      	ldr	r3, [pc, #16]	; (10003ac8 <gpio_set_function+0x30>)
10003ab6:	469c      	mov	ip, r3
10003ab8:	4460      	add	r0, ip
10003aba:	6041      	str	r1, [r0, #4]
10003abc:	bd10      	pop	{r4, pc}
10003abe:	46c0      	nop			; (mov r8, r8)
10003ac0:	4001c004 	.word	0x4001c004
10003ac4:	4001d004 	.word	0x4001d004
10003ac8:	40014000 	.word	0x40014000

10003acc <runtime_init_per_core_irq_priorities>:
10003acc:	4b05      	ldr	r3, [pc, #20]	; (10003ae4 <runtime_init_per_core_irq_priorities+0x18>)
10003ace:	4a06      	ldr	r2, [pc, #24]	; (10003ae8 <runtime_init_per_core_irq_priorities+0x1c>)
10003ad0:	6013      	str	r3, [r2, #0]
10003ad2:	4a06      	ldr	r2, [pc, #24]	; (10003aec <runtime_init_per_core_irq_priorities+0x20>)
10003ad4:	6013      	str	r3, [r2, #0]
10003ad6:	6053      	str	r3, [r2, #4]
10003ad8:	6093      	str	r3, [r2, #8]
10003ada:	60d3      	str	r3, [r2, #12]
10003adc:	6113      	str	r3, [r2, #16]
10003ade:	6153      	str	r3, [r2, #20]
10003ae0:	6193      	str	r3, [r2, #24]
10003ae2:	4770      	bx	lr
10003ae4:	80808080 	.word	0x80808080
10003ae8:	e000e400 	.word	0xe000e400
10003aec:	e000e404 	.word	0xe000e404

10003af0 <irq_set_enabled>:
10003af0:	231f      	movs	r3, #31
10003af2:	4018      	ands	r0, r3
10003af4:	3b1e      	subs	r3, #30
10003af6:	4083      	lsls	r3, r0
10003af8:	2900      	cmp	r1, #0
10003afa:	d005      	beq.n	10003b08 <irq_set_enabled+0x18>
10003afc:	21c0      	movs	r1, #192	; 0xc0
10003afe:	4a04      	ldr	r2, [pc, #16]	; (10003b10 <irq_set_enabled+0x20>)
10003b00:	0049      	lsls	r1, r1, #1
10003b02:	5053      	str	r3, [r2, r1]
10003b04:	6013      	str	r3, [r2, #0]
10003b06:	4770      	bx	lr
10003b08:	2280      	movs	r2, #128	; 0x80
10003b0a:	4901      	ldr	r1, [pc, #4]	; (10003b10 <irq_set_enabled+0x20>)
10003b0c:	508b      	str	r3, [r1, r2]
10003b0e:	e7fa      	b.n	10003b06 <irq_set_enabled+0x16>
10003b10:	e000e100 	.word	0xe000e100

10003b14 <irq_is_enabled>:
10003b14:	2201      	movs	r2, #1
10003b16:	4082      	lsls	r2, r0
10003b18:	4b03      	ldr	r3, [pc, #12]	; (10003b28 <irq_is_enabled+0x14>)
10003b1a:	681b      	ldr	r3, [r3, #0]
10003b1c:	4013      	ands	r3, r2
10003b1e:	1e5a      	subs	r2, r3, #1
10003b20:	4193      	sbcs	r3, r2
10003b22:	b2d8      	uxtb	r0, r3
10003b24:	4770      	bx	lr
10003b26:	46c0      	nop			; (mov r8, r8)
10003b28:	e000e100 	.word	0xe000e100

10003b2c <irq_set_exclusive_handler>:
10003b2c:	b570      	push	{r4, r5, r6, lr}
10003b2e:	000d      	movs	r5, r1
10003b30:	f3ef 8610 	mrs	r6, PRIMASK
10003b34:	b672      	cpsid	i
10003b36:	4a0f      	ldr	r2, [pc, #60]	; (10003b74 <irq_set_exclusive_handler+0x48>)
10003b38:	6813      	ldr	r3, [r2, #0]
10003b3a:	2b00      	cmp	r3, #0
10003b3c:	d0fc      	beq.n	10003b38 <irq_set_exclusive_handler+0xc>
10003b3e:	f3bf 8f5f 	dmb	sy
10003b42:	4b0d      	ldr	r3, [pc, #52]	; (10003b78 <irq_set_exclusive_handler+0x4c>)
10003b44:	3010      	adds	r0, #16
10003b46:	689b      	ldr	r3, [r3, #8]
10003b48:	0084      	lsls	r4, r0, #2
10003b4a:	591b      	ldr	r3, [r3, r4]
10003b4c:	4a0b      	ldr	r2, [pc, #44]	; (10003b7c <irq_set_exclusive_handler+0x50>)
10003b4e:	4293      	cmp	r3, r2
10003b50:	d003      	beq.n	10003b5a <irq_set_exclusive_handler+0x2e>
10003b52:	429d      	cmp	r5, r3
10003b54:	d001      	beq.n	10003b5a <irq_set_exclusive_handler+0x2e>
10003b56:	f000 feb1 	bl	100048bc <hard_assertion_failure>
10003b5a:	4b07      	ldr	r3, [pc, #28]	; (10003b78 <irq_set_exclusive_handler+0x4c>)
10003b5c:	689b      	ldr	r3, [r3, #8]
10003b5e:	511d      	str	r5, [r3, r4]
10003b60:	f3bf 8f5f 	dmb	sy
10003b64:	f3bf 8f5f 	dmb	sy
10003b68:	2200      	movs	r2, #0
10003b6a:	4b02      	ldr	r3, [pc, #8]	; (10003b74 <irq_set_exclusive_handler+0x48>)
10003b6c:	601a      	str	r2, [r3, #0]
10003b6e:	f386 8810 	msr	PRIMASK, r6
10003b72:	bd70      	pop	{r4, r5, r6, pc}
10003b74:	d0000124 	.word	0xd0000124
10003b78:	e000ed00 	.word	0xe000ed00
10003b7c:	100001cd 	.word	0x100001cd

10003b80 <irq_remove_handler>:
10003b80:	b5f0      	push	{r4, r5, r6, r7, lr}
10003b82:	46de      	mov	lr, fp
10003b84:	4657      	mov	r7, sl
10003b86:	464e      	mov	r6, r9
10003b88:	4645      	mov	r5, r8
10003b8a:	b5e0      	push	{r5, r6, r7, lr}
10003b8c:	000c      	movs	r4, r1
10003b8e:	b083      	sub	sp, #12
10003b90:	f3ef 8910 	mrs	r9, PRIMASK
10003b94:	b672      	cpsid	i
10003b96:	4a5f      	ldr	r2, [pc, #380]	; (10003d14 <irq_remove_handler+0x194>)
10003b98:	6813      	ldr	r3, [r2, #0]
10003b9a:	2b00      	cmp	r3, #0
10003b9c:	d0fc      	beq.n	10003b98 <irq_remove_handler+0x18>
10003b9e:	f3bf 8f5f 	dmb	sy
10003ba2:	4b5d      	ldr	r3, [pc, #372]	; (10003d18 <irq_remove_handler+0x198>)
10003ba4:	689a      	ldr	r2, [r3, #8]
10003ba6:	0003      	movs	r3, r0
10003ba8:	3310      	adds	r3, #16
10003baa:	009f      	lsls	r7, r3, #2
10003bac:	59d5      	ldr	r5, [r2, r7]
10003bae:	4a5b      	ldr	r2, [pc, #364]	; (10003d1c <irq_remove_handler+0x19c>)
10003bb0:	4690      	mov	r8, r2
10003bb2:	4295      	cmp	r5, r2
10003bb4:	d03d      	beq.n	10003c32 <irq_remove_handler+0xb2>
10003bb6:	42a5      	cmp	r5, r4
10003bb8:	d04e      	beq.n	10003c58 <irq_remove_handler+0xd8>
10003bba:	4e59      	ldr	r6, [pc, #356]	; (10003d20 <irq_remove_handler+0x1a0>)
10003bbc:	1baa      	subs	r2, r5, r6
10003bbe:	2a2f      	cmp	r2, #47	; 0x2f
10003bc0:	d837      	bhi.n	10003c32 <irq_remove_handler+0xb2>
10003bc2:	4a58      	ldr	r2, [pc, #352]	; (10003d24 <irq_remove_handler+0x1a4>)
10003bc4:	4693      	mov	fp, r2
10003bc6:	6812      	ldr	r2, [r2, #0]
10003bc8:	4694      	mov	ip, r2
10003bca:	2201      	movs	r2, #1
10003bcc:	4661      	mov	r1, ip
10003bce:	4692      	mov	sl, r2
10003bd0:	4082      	lsls	r2, r0
10003bd2:	4011      	ands	r1, r2
10003bd4:	221f      	movs	r2, #31
10003bd6:	4010      	ands	r0, r2
10003bd8:	4652      	mov	r2, sl
10003bda:	4082      	lsls	r2, r0
10003bdc:	4692      	mov	sl, r2
10003bde:	9101      	str	r1, [sp, #4]
10003be0:	2280      	movs	r2, #128	; 0x80
10003be2:	4651      	mov	r1, sl
10003be4:	4658      	mov	r0, fp
10003be6:	5081      	str	r1, [r0, r2]
10003be8:	f3bf 8f5f 	dmb	sy
10003bec:	f3ef 8205 	mrs	r2, IPSR
10003bf0:	4693      	mov	fp, r2
10003bf2:	2a00      	cmp	r2, #0
10003bf4:	d132      	bne.n	10003c5c <irq_remove_handler+0xdc>
10003bf6:	2301      	movs	r3, #1
10003bf8:	002a      	movs	r2, r5
10003bfa:	439a      	bics	r2, r3
10003bfc:	6890      	ldr	r0, [r2, #8]
10003bfe:	4284      	cmp	r4, r0
10003c00:	d108      	bne.n	10003c14 <irq_remove_handler+0x94>
10003c02:	e07c      	b.n	10003cfe <irq_remove_handler+0x17e>
10003c04:	004b      	lsls	r3, r1, #1
10003c06:	185b      	adds	r3, r3, r1
10003c08:	009b      	lsls	r3, r3, #2
10003c0a:	18f3      	adds	r3, r6, r3
10003c0c:	6898      	ldr	r0, [r3, #8]
10003c0e:	4284      	cmp	r4, r0
10003c10:	d02e      	beq.n	10003c70 <irq_remove_handler+0xf0>
10003c12:	001a      	movs	r2, r3
10003c14:	2106      	movs	r1, #6
10003c16:	5651      	ldrsb	r1, [r2, r1]
10003c18:	2900      	cmp	r1, #0
10003c1a:	daf3      	bge.n	10003c04 <irq_remove_handler+0x84>
10003c1c:	4284      	cmp	r4, r0
10003c1e:	d04d      	beq.n	10003cbc <irq_remove_handler+0x13c>
10003c20:	9b01      	ldr	r3, [sp, #4]
10003c22:	2b00      	cmp	r3, #0
10003c24:	d01f      	beq.n	10003c66 <irq_remove_handler+0xe6>
10003c26:	22c0      	movs	r2, #192	; 0xc0
10003c28:	4651      	mov	r1, sl
10003c2a:	4b3e      	ldr	r3, [pc, #248]	; (10003d24 <irq_remove_handler+0x1a4>)
10003c2c:	0052      	lsls	r2, r2, #1
10003c2e:	5099      	str	r1, [r3, r2]
10003c30:	6019      	str	r1, [r3, #0]
10003c32:	4b39      	ldr	r3, [pc, #228]	; (10003d18 <irq_remove_handler+0x198>)
10003c34:	689b      	ldr	r3, [r3, #8]
10003c36:	51dd      	str	r5, [r3, r7]
10003c38:	f3bf 8f5f 	dmb	sy
10003c3c:	f3bf 8f5f 	dmb	sy
10003c40:	2200      	movs	r2, #0
10003c42:	4b34      	ldr	r3, [pc, #208]	; (10003d14 <irq_remove_handler+0x194>)
10003c44:	601a      	str	r2, [r3, #0]
10003c46:	f389 8810 	msr	PRIMASK, r9
10003c4a:	b003      	add	sp, #12
10003c4c:	bcf0      	pop	{r4, r5, r6, r7}
10003c4e:	46bb      	mov	fp, r7
10003c50:	46b2      	mov	sl, r6
10003c52:	46a9      	mov	r9, r5
10003c54:	46a0      	mov	r8, r4
10003c56:	bdf0      	pop	{r4, r5, r6, r7, pc}
10003c58:	0015      	movs	r5, r2
10003c5a:	e7ea      	b.n	10003c32 <irq_remove_handler+0xb2>
10003c5c:	4293      	cmp	r3, r2
10003c5e:	d0ca      	beq.n	10003bf6 <irq_remove_handler+0x76>
10003c60:	f000 fe2c 	bl	100048bc <hard_assertion_failure>
10003c64:	e7c7      	b.n	10003bf6 <irq_remove_handler+0x76>
10003c66:	2380      	movs	r3, #128	; 0x80
10003c68:	4651      	mov	r1, sl
10003c6a:	4a2e      	ldr	r2, [pc, #184]	; (10003d24 <irq_remove_handler+0x1a4>)
10003c6c:	50d1      	str	r1, [r2, r3]
10003c6e:	e7e0      	b.n	10003c32 <irq_remove_handler+0xb2>
10003c70:	2106      	movs	r1, #6
10003c72:	5659      	ldrsb	r1, [r3, r1]
10003c74:	2900      	cmp	r1, #0
10003c76:	db22      	blt.n	10003cbe <irq_remove_handler+0x13e>
10003c78:	004a      	lsls	r2, r1, #1
10003c7a:	1850      	adds	r0, r2, r1
10003c7c:	0080      	lsls	r0, r0, #2
10003c7e:	1834      	adds	r4, r6, r0
10003c80:	4680      	mov	r8, r0
10003c82:	68a0      	ldr	r0, [r4, #8]
10003c84:	6098      	str	r0, [r3, #8]
10003c86:	79e0      	ldrb	r0, [r4, #7]
10003c88:	71d8      	strb	r0, [r3, #7]
10003c8a:	2006      	movs	r0, #6
10003c8c:	5620      	ldrsb	r0, [r4, r0]
10003c8e:	7198      	strb	r0, [r3, #6]
10003c90:	2800      	cmp	r0, #0
10003c92:	db25      	blt.n	10003ce0 <irq_remove_handler+0x160>
10003c94:	88a4      	ldrh	r4, [r4, #4]
10003c96:	1af0      	subs	r0, r6, r3
10003c98:	0564      	lsls	r4, r4, #21
10003c9a:	1524      	asrs	r4, r4, #20
10003c9c:	4444      	add	r4, r8
10003c9e:	1900      	adds	r0, r0, r4
10003ca0:	24e0      	movs	r4, #224	; 0xe0
10003ca2:	0500      	lsls	r0, r0, #20
10003ca4:	0d40      	lsrs	r0, r0, #21
10003ca6:	0224      	lsls	r4, r4, #8
10003ca8:	4320      	orrs	r0, r4
10003caa:	8098      	strh	r0, [r3, #4]
10003cac:	1852      	adds	r2, r2, r1
10003cae:	4b1e      	ldr	r3, [pc, #120]	; (10003d28 <irq_remove_handler+0x1a8>)
10003cb0:	0092      	lsls	r2, r2, #2
10003cb2:	18b6      	adds	r6, r6, r2
10003cb4:	781a      	ldrb	r2, [r3, #0]
10003cb6:	7019      	strb	r1, [r3, #0]
10003cb8:	71b2      	strb	r2, [r6, #6]
10003cba:	e7b1      	b.n	10003c20 <irq_remove_handler+0xa0>
10003cbc:	0013      	movs	r3, r2
10003cbe:	4659      	mov	r1, fp
10003cc0:	2900      	cmp	r1, #0
10003cc2:	d10f      	bne.n	10003ce4 <irq_remove_handler+0x164>
10003cc4:	31ff      	adds	r1, #255	; 0xff
10003cc6:	7191      	strb	r1, [r2, #6]
10003cc8:	4918      	ldr	r1, [pc, #96]	; (10003d2c <irq_remove_handler+0x1ac>)
10003cca:	8091      	strh	r1, [r2, #4]
10003ccc:	4916      	ldr	r1, [pc, #88]	; (10003d28 <irq_remove_handler+0x1a8>)
10003cce:	780a      	ldrb	r2, [r1, #0]
10003cd0:	719a      	strb	r2, [r3, #6]
10003cd2:	4a17      	ldr	r2, [pc, #92]	; (10003d30 <irq_remove_handler+0x1b0>)
10003cd4:	1b9b      	subs	r3, r3, r6
10003cd6:	415b      	adcs	r3, r3
10003cd8:	435a      	muls	r2, r3
10003cda:	0d12      	lsrs	r2, r2, #20
10003cdc:	700a      	strb	r2, [r1, #0]
10003cde:	e79f      	b.n	10003c20 <irq_remove_handler+0xa0>
10003ce0:	4814      	ldr	r0, [pc, #80]	; (10003d34 <irq_remove_handler+0x1b4>)
10003ce2:	e7e2      	b.n	10003caa <irq_remove_handler+0x12a>
10003ce4:	4a14      	ldr	r2, [pc, #80]	; (10003d38 <irq_remove_handler+0x1b8>)
10003ce6:	4915      	ldr	r1, [pc, #84]	; (10003d3c <irq_remove_handler+0x1bc>)
10003ce8:	1ad2      	subs	r2, r2, r3
10003cea:	3a08      	subs	r2, #8
10003cec:	0250      	lsls	r0, r2, #9
10003cee:	0d40      	lsrs	r0, r0, #21
10003cf0:	4301      	orrs	r1, r0
10003cf2:	8099      	strh	r1, [r3, #4]
10003cf4:	4912      	ldr	r1, [pc, #72]	; (10003d40 <irq_remove_handler+0x1c0>)
10003cf6:	0852      	lsrs	r2, r2, #1
10003cf8:	430a      	orrs	r2, r1
10003cfa:	80da      	strh	r2, [r3, #6]
10003cfc:	e790      	b.n	10003c20 <irq_remove_handler+0xa0>
10003cfe:	2106      	movs	r1, #6
10003d00:	5651      	ldrsb	r1, [r2, r1]
10003d02:	0013      	movs	r3, r2
10003d04:	2900      	cmp	r1, #0
10003d06:	dab7      	bge.n	10003c78 <irq_remove_handler+0xf8>
10003d08:	465a      	mov	r2, fp
10003d0a:	2a00      	cmp	r2, #0
10003d0c:	d1ea      	bne.n	10003ce4 <irq_remove_handler+0x164>
10003d0e:	4645      	mov	r5, r8
10003d10:	e7dc      	b.n	10003ccc <irq_remove_handler+0x14c>
10003d12:	46c0      	nop			; (mov r8, r8)
10003d14:	d0000124 	.word	0xd0000124
10003d18:	e000ed00 	.word	0xe000ed00
10003d1c:	100001cd 	.word	0x100001cd
10003d20:	20000240 	.word	0x20000240
10003d24:	e000e100 	.word	0xe000e100
10003d28:	20020b1a 	.word	0x20020b1a
10003d2c:	ffffbd01 	.word	0xffffbd01
10003d30:	0000aaaa 	.word	0x0000aaaa
10003d34:	0000bd01 	.word	0x0000bd01
10003d38:	2000027a 	.word	0x2000027a
10003d3c:	fffff000 	.word	0xfffff000
10003d40:	fffff800 	.word	0xfffff800

10003d44 <irq_set_priority>:
10003d44:	b510      	push	{r4, lr}
10003d46:	0883      	lsrs	r3, r0, #2
10003d48:	0004      	movs	r4, r0
10003d4a:	2003      	movs	r0, #3
10003d4c:	4020      	ands	r0, r4
10003d4e:	24ff      	movs	r4, #255	; 0xff
10003d50:	4a05      	ldr	r2, [pc, #20]	; (10003d68 <irq_set_priority+0x24>)
10003d52:	00c0      	lsls	r0, r0, #3
10003d54:	4694      	mov	ip, r2
10003d56:	4084      	lsls	r4, r0
10003d58:	4081      	lsls	r1, r0
10003d5a:	009b      	lsls	r3, r3, #2
10003d5c:	4463      	add	r3, ip
10003d5e:	681a      	ldr	r2, [r3, #0]
10003d60:	43a2      	bics	r2, r4
10003d62:	430a      	orrs	r2, r1
10003d64:	601a      	str	r2, [r3, #0]
10003d66:	bd10      	pop	{r4, pc}
10003d68:	e000e400 	.word	0xe000e400

10003d6c <irq_add_tail_to_free_list>:
10003d6c:	b570      	push	{r4, r5, r6, lr}
10003d6e:	2401      	movs	r4, #1
10003d70:	4304      	orrs	r4, r0
10003d72:	f3ef 8105 	mrs	r1, IPSR
10003d76:	f3ef 8c10 	mrs	ip, PRIMASK
10003d7a:	b672      	cpsid	i
10003d7c:	4a21      	ldr	r2, [pc, #132]	; (10003e04 <irq_add_tail_to_free_list+0x98>)
10003d7e:	6813      	ldr	r3, [r2, #0]
10003d80:	2b00      	cmp	r3, #0
10003d82:	d0fc      	beq.n	10003d7e <irq_add_tail_to_free_list+0x12>
10003d84:	f3bf 8f5f 	dmb	sy
10003d88:	4b1f      	ldr	r3, [pc, #124]	; (10003e08 <irq_add_tail_to_free_list+0x9c>)
10003d8a:	0005      	movs	r5, r0
10003d8c:	4a1f      	ldr	r2, [pc, #124]	; (10003e0c <irq_add_tail_to_free_list+0xa0>)
10003d8e:	1aed      	subs	r5, r5, r3
10003d90:	416d      	adcs	r5, r5
10003d92:	436a      	muls	r2, r5
10003d94:	0d12      	lsrs	r2, r2, #20
10003d96:	4d1e      	ldr	r5, [pc, #120]	; (10003e10 <irq_add_tail_to_free_list+0xa4>)
10003d98:	0089      	lsls	r1, r1, #2
10003d9a:	68ae      	ldr	r6, [r5, #8]
10003d9c:	b252      	sxtb	r2, r2
10003d9e:	5876      	ldr	r6, [r6, r1]
10003da0:	42a6      	cmp	r6, r4
10003da2:	d01c      	beq.n	10003dde <irq_add_tail_to_free_list+0x72>
10003da4:	2106      	movs	r1, #6
10003da6:	5659      	ldrsb	r1, [r3, r1]
10003da8:	4291      	cmp	r1, r2
10003daa:	d01c      	beq.n	10003de6 <irq_add_tail_to_free_list+0x7a>
10003dac:	2112      	movs	r1, #18
10003dae:	5659      	ldrsb	r1, [r3, r1]
10003db0:	4291      	cmp	r1, r2
10003db2:	d022      	beq.n	10003dfa <irq_add_tail_to_free_list+0x8e>
10003db4:	211e      	movs	r1, #30
10003db6:	5659      	ldrsb	r1, [r3, r1]
10003db8:	4291      	cmp	r1, r2
10003dba:	d020      	beq.n	10003dfe <irq_add_tail_to_free_list+0x92>
10003dbc:	212a      	movs	r1, #42	; 0x2a
10003dbe:	5659      	ldrsb	r1, [r3, r1]
10003dc0:	2403      	movs	r4, #3
10003dc2:	4291      	cmp	r1, r2
10003dc4:	d010      	beq.n	10003de8 <irq_add_tail_to_free_list+0x7c>
10003dc6:	4b13      	ldr	r3, [pc, #76]	; (10003e14 <irq_add_tail_to_free_list+0xa8>)
10003dc8:	7819      	ldrb	r1, [r3, #0]
10003dca:	701a      	strb	r2, [r3, #0]
10003dcc:	7181      	strb	r1, [r0, #6]
10003dce:	f3bf 8f5f 	dmb	sy
10003dd2:	2200      	movs	r2, #0
10003dd4:	4b0b      	ldr	r3, [pc, #44]	; (10003e04 <irq_add_tail_to_free_list+0x98>)
10003dd6:	601a      	str	r2, [r3, #0]
10003dd8:	f38c 8810 	msr	PRIMASK, ip
10003ddc:	bd70      	pop	{r4, r5, r6, pc}
10003dde:	68ab      	ldr	r3, [r5, #8]
10003de0:	4c0d      	ldr	r4, [pc, #52]	; (10003e18 <irq_add_tail_to_free_list+0xac>)
10003de2:	505c      	str	r4, [r3, r1]
10003de4:	e7ef      	b.n	10003dc6 <irq_add_tail_to_free_list+0x5a>
10003de6:	2400      	movs	r4, #0
10003de8:	0061      	lsls	r1, r4, #1
10003dea:	1909      	adds	r1, r1, r4
10003dec:	0089      	lsls	r1, r1, #2
10003dee:	185b      	adds	r3, r3, r1
10003df0:	21ff      	movs	r1, #255	; 0xff
10003df2:	7199      	strb	r1, [r3, #6]
10003df4:	4909      	ldr	r1, [pc, #36]	; (10003e1c <irq_add_tail_to_free_list+0xb0>)
10003df6:	8099      	strh	r1, [r3, #4]
10003df8:	e7e5      	b.n	10003dc6 <irq_add_tail_to_free_list+0x5a>
10003dfa:	2401      	movs	r4, #1
10003dfc:	e7f4      	b.n	10003de8 <irq_add_tail_to_free_list+0x7c>
10003dfe:	2402      	movs	r4, #2
10003e00:	e7f2      	b.n	10003de8 <irq_add_tail_to_free_list+0x7c>
10003e02:	46c0      	nop			; (mov r8, r8)
10003e04:	d0000124 	.word	0xd0000124
10003e08:	20000240 	.word	0x20000240
10003e0c:	0000aaaa 	.word	0x0000aaaa
10003e10:	e000ed00 	.word	0xe000ed00
10003e14:	20020b1a 	.word	0x20020b1a
10003e18:	100001cd 	.word	0x100001cd
10003e1c:	ffffbd01 	.word	0xffffbd01

10003e20 <lock_init>:
10003e20:	4b02      	ldr	r3, [pc, #8]	; (10003e2c <lock_init+0xc>)
10003e22:	469c      	mov	ip, r3
10003e24:	4461      	add	r1, ip
10003e26:	0089      	lsls	r1, r1, #2
10003e28:	6001      	str	r1, [r0, #0]
10003e2a:	4770      	bx	lr
10003e2c:	34000040 	.word	0x34000040

10003e30 <runtime_init_mutex>:
10003e30:	b5f0      	push	{r4, r5, r6, r7, lr}
10003e32:	46c6      	mov	lr, r8
10003e34:	4d16      	ldr	r5, [pc, #88]	; (10003e90 <runtime_init_mutex+0x60>)
10003e36:	4e17      	ldr	r6, [pc, #92]	; (10003e94 <runtime_init_mutex+0x64>)
10003e38:	002c      	movs	r4, r5
10003e3a:	b500      	push	{lr}
10003e3c:	42b5      	cmp	r5, r6
10003e3e:	d224      	bcs.n	10003e8a <runtime_init_mutex+0x5a>
10003e40:	2300      	movs	r3, #0
10003e42:	2701      	movs	r7, #1
10003e44:	4698      	mov	r8, r3
10003e46:	6823      	ldr	r3, [r4, #0]
10003e48:	427f      	negs	r7, r7
10003e4a:	2b00      	cmp	r3, #0
10003e4c:	d011      	beq.n	10003e72 <runtime_init_mutex+0x42>
10003e4e:	f7ff fdfd 	bl	10003a4c <next_striped_spin_lock_num>
10003e52:	0001      	movs	r1, r0
10003e54:	0028      	movs	r0, r5
10003e56:	f7ff ffe3 	bl	10003e20 <lock_init>
10003e5a:	4643      	mov	r3, r8
10003e5c:	6067      	str	r7, [r4, #4]
10003e5e:	7223      	strb	r3, [r4, #8]
10003e60:	f3bf 8f5f 	dmb	sy
10003e64:	340c      	adds	r4, #12
10003e66:	42b4      	cmp	r4, r6
10003e68:	d20f      	bcs.n	10003e8a <runtime_init_mutex+0x5a>
10003e6a:	6823      	ldr	r3, [r4, #0]
10003e6c:	0025      	movs	r5, r4
10003e6e:	2b00      	cmp	r3, #0
10003e70:	d1ed      	bne.n	10003e4e <runtime_init_mutex+0x1e>
10003e72:	f7ff fdeb 	bl	10003a4c <next_striped_spin_lock_num>
10003e76:	0001      	movs	r1, r0
10003e78:	0028      	movs	r0, r5
10003e7a:	f7ff ffd1 	bl	10003e20 <lock_init>
10003e7e:	6067      	str	r7, [r4, #4]
10003e80:	f3bf 8f5f 	dmb	sy
10003e84:	3408      	adds	r4, #8
10003e86:	42b4      	cmp	r4, r6
10003e88:	d3ef      	bcc.n	10003e6a <runtime_init_mutex+0x3a>
10003e8a:	bc80      	pop	{r7}
10003e8c:	46b8      	mov	r8, r7
10003e8e:	bdf0      	pop	{r4, r5, r6, r7, pc}
10003e90:	200002d8 	.word	0x200002d8
10003e94:	200002e8 	.word	0x200002e8

10003e98 <alarm_pool_irq_handler>:
10003e98:	b5f0      	push	{r4, r5, r6, r7, lr}
10003e9a:	46de      	mov	lr, fp
10003e9c:	4657      	mov	r7, sl
10003e9e:	464e      	mov	r6, r9
10003ea0:	4645      	mov	r5, r8
10003ea2:	b5e0      	push	{r5, r6, r7, lr}
10003ea4:	b085      	sub	sp, #20
10003ea6:	f3ef 8205 	mrs	r2, IPSR
10003eaa:	2303      	movs	r3, #3
10003eac:	4013      	ands	r3, r2
10003eae:	009a      	lsls	r2, r3, #2
10003eb0:	0011      	movs	r1, r2
10003eb2:	9203      	str	r2, [sp, #12]
10003eb4:	4ab6      	ldr	r2, [pc, #728]	; (10004190 <alarm_pool_irq_handler+0x2f8>)
10003eb6:	5852      	ldr	r2, [r2, r1]
10003eb8:	4690      	mov	r8, r2
10003eba:	2201      	movs	r2, #1
10003ebc:	409a      	lsls	r2, r3
10003ebe:	4bb5      	ldr	r3, [pc, #724]	; (10004194 <alarm_pool_irq_handler+0x2fc>)
10003ec0:	4691      	mov	r9, r2
10003ec2:	601a      	str	r2, [r3, #0]
10003ec4:	e031      	b.n	10003f2a <alarm_pool_irq_handler+0x92>
10003ec6:	4643      	mov	r3, r8
10003ec8:	889b      	ldrh	r3, [r3, #4]
10003eca:	b21b      	sxth	r3, r3
10003ecc:	2b00      	cmp	r3, #0
10003ece:	db00      	blt.n	10003ed2 <alarm_pool_irq_handler+0x3a>
10003ed0:	e09d      	b.n	1000400e <alarm_pool_irq_handler+0x176>
10003ed2:	4643      	mov	r3, r8
10003ed4:	799b      	ldrb	r3, [r3, #6]
10003ed6:	2b00      	cmp	r3, #0
10003ed8:	d000      	beq.n	10003edc <alarm_pool_irq_handler+0x44>
10003eda:	e0ef      	b.n	100040bc <alarm_pool_irq_handler+0x224>
10003edc:	4643      	mov	r3, r8
10003ede:	2408      	movs	r4, #8
10003ee0:	5f1c      	ldrsh	r4, [r3, r4]
10003ee2:	2c00      	cmp	r4, #0
10003ee4:	da00      	bge.n	10003ee8 <alarm_pool_irq_handler+0x50>
10003ee6:	e117      	b.n	10004118 <alarm_pool_irq_handler+0x280>
10003ee8:	4642      	mov	r2, r8
10003eea:	6952      	ldr	r2, [r2, #20]
10003eec:	0063      	lsls	r3, r4, #1
10003eee:	4694      	mov	ip, r2
10003ef0:	191b      	adds	r3, r3, r4
10003ef2:	00db      	lsls	r3, r3, #3
10003ef4:	4463      	add	r3, ip
10003ef6:	689c      	ldr	r4, [r3, #8]
10003ef8:	68dd      	ldr	r5, [r3, #12]
10003efa:	1c63      	adds	r3, r4, #1
10003efc:	d100      	bne.n	10003f00 <alarm_pool_irq_handler+0x68>
10003efe:	e113      	b.n	10004128 <alarm_pool_irq_handler+0x290>
10003f00:	4ba5      	ldr	r3, [pc, #660]	; (10004198 <alarm_pool_irq_handler+0x300>)
10003f02:	9903      	ldr	r1, [sp, #12]
10003f04:	469c      	mov	ip, r3
10003f06:	4461      	add	r1, ip
10003f08:	6a9a      	ldr	r2, [r3, #40]	; 0x28
10003f0a:	690b      	ldr	r3, [r1, #16]
10003f0c:	1aa0      	subs	r0, r4, r2
10003f0e:	1a9b      	subs	r3, r3, r2
10003f10:	4298      	cmp	r0, r3
10003f12:	d200      	bcs.n	10003f16 <alarm_pool_irq_handler+0x7e>
10003f14:	610c      	str	r4, [r1, #16]
10003f16:	48a0      	ldr	r0, [pc, #640]	; (10004198 <alarm_pool_irq_handler+0x300>)
10003f18:	f000 fad2 	bl	100044c0 <timer_time_us_64>
10003f1c:	1a24      	subs	r4, r4, r0
10003f1e:	418d      	sbcs	r5, r1
10003f20:	2d00      	cmp	r5, #0
10003f22:	dd00      	ble.n	10003f26 <alarm_pool_irq_handler+0x8e>
10003f24:	e0f8      	b.n	10004118 <alarm_pool_irq_handler+0x280>
10003f26:	d100      	bne.n	10003f2a <alarm_pool_irq_handler+0x92>
10003f28:	e12e      	b.n	10004188 <alarm_pool_irq_handler+0x2f0>
10003f2a:	464b      	mov	r3, r9
10003f2c:	489a      	ldr	r0, [pc, #616]	; (10004198 <alarm_pool_irq_handler+0x300>)
10003f2e:	6343      	str	r3, [r0, #52]	; 0x34
10003f30:	4643      	mov	r3, r8
10003f32:	2208      	movs	r2, #8
10003f34:	5e9b      	ldrsh	r3, [r3, r2]
10003f36:	469a      	mov	sl, r3
10003f38:	2b00      	cmp	r3, #0
10003f3a:	dbc4      	blt.n	10003ec6 <alarm_pool_irq_handler+0x2e>
10003f3c:	4642      	mov	r2, r8
10003f3e:	6952      	ldr	r2, [r2, #20]
10003f40:	005b      	lsls	r3, r3, #1
10003f42:	4693      	mov	fp, r2
10003f44:	4453      	add	r3, sl
10003f46:	00db      	lsls	r3, r3, #3
10003f48:	449b      	add	fp, r3
10003f4a:	465b      	mov	r3, fp
10003f4c:	689e      	ldr	r6, [r3, #8]
10003f4e:	68df      	ldr	r7, [r3, #12]
10003f50:	f000 fab6 	bl	100044c0 <timer_time_us_64>
10003f54:	1b80      	subs	r0, r0, r6
10003f56:	41b9      	sbcs	r1, r7
10003f58:	2900      	cmp	r1, #0
10003f5a:	dbb4      	blt.n	10003ec6 <alarm_pool_irq_handler+0x2e>
10003f5c:	2f00      	cmp	r7, #0
10003f5e:	da00      	bge.n	10003f62 <alarm_pool_irq_handler+0xca>
10003f60:	e0ed      	b.n	1000413e <alarm_pool_irq_handler+0x2a6>
10003f62:	465b      	mov	r3, fp
10003f64:	4a8d      	ldr	r2, [pc, #564]	; (1000419c <alarm_pool_irq_handler+0x304>)
10003f66:	691b      	ldr	r3, [r3, #16]
10003f68:	4293      	cmp	r3, r2
10003f6a:	d100      	bne.n	10003f6e <alarm_pool_irq_handler+0xd6>
10003f6c:	e0e0      	b.n	10004130 <alarm_pool_irq_handler+0x298>
10003f6e:	4641      	mov	r1, r8
10003f70:	465a      	mov	r2, fp
10003f72:	2008      	movs	r0, #8
10003f74:	5e08      	ldrsh	r0, [r1, r0]
10003f76:	8852      	ldrh	r2, [r2, #2]
10003f78:	0400      	lsls	r0, r0, #16
10003f7a:	4310      	orrs	r0, r2
10003f7c:	465a      	mov	r2, fp
10003f7e:	6951      	ldr	r1, [r2, #20]
10003f80:	4798      	blx	r3
10003f82:	0004      	movs	r4, r0
10003f84:	000d      	movs	r5, r1
10003f86:	0023      	movs	r3, r4
10003f88:	432b      	orrs	r3, r5
10003f8a:	d100      	bne.n	10003f8e <alarm_pool_irq_handler+0xf6>
10003f8c:	e0d7      	b.n	1000413e <alarm_pool_irq_handler+0x2a6>
10003f8e:	2d00      	cmp	r5, #0
10003f90:	db00      	blt.n	10003f94 <alarm_pool_irq_handler+0xfc>
10003f92:	e0f0      	b.n	10004176 <alarm_pool_irq_handler+0x2de>
10003f94:	1b36      	subs	r6, r6, r4
10003f96:	41af      	sbcs	r7, r5
10003f98:	0034      	movs	r4, r6
10003f9a:	003d      	movs	r5, r7
10003f9c:	465b      	mov	r3, fp
10003f9e:	609c      	str	r4, [r3, #8]
10003fa0:	60dd      	str	r5, [r3, #12]
10003fa2:	2100      	movs	r1, #0
10003fa4:	5e59      	ldrsh	r1, [r3, r1]
10003fa6:	2900      	cmp	r1, #0
10003fa8:	db8d      	blt.n	10003ec6 <alarm_pool_irq_handler+0x2e>
10003faa:	4643      	mov	r3, r8
10003fac:	695b      	ldr	r3, [r3, #20]
10003fae:	0022      	movs	r2, r4
10003fb0:	469c      	mov	ip, r3
10003fb2:	002b      	movs	r3, r5
10003fb4:	0048      	lsls	r0, r1, #1
10003fb6:	1840      	adds	r0, r0, r1
10003fb8:	00c0      	lsls	r0, r0, #3
10003fba:	4460      	add	r0, ip
10003fbc:	6886      	ldr	r6, [r0, #8]
10003fbe:	68c7      	ldr	r7, [r0, #12]
10003fc0:	1b92      	subs	r2, r2, r6
10003fc2:	41bb      	sbcs	r3, r7
10003fc4:	2b00      	cmp	r3, #0
10003fc6:	da00      	bge.n	10003fca <alarm_pool_irq_handler+0x132>
10003fc8:	e77d      	b.n	10003ec6 <alarm_pool_irq_handler+0x2e>
10003fca:	4643      	mov	r3, r8
10003fcc:	4666      	mov	r6, ip
10003fce:	0002      	movs	r2, r0
10003fd0:	9400      	str	r4, [sp, #0]
10003fd2:	9501      	str	r5, [sp, #4]
10003fd4:	8119      	strh	r1, [r3, #8]
10003fd6:	e00c      	b.n	10003ff2 <alarm_pool_irq_handler+0x15a>
10003fd8:	007b      	lsls	r3, r7, #1
10003fda:	19db      	adds	r3, r3, r7
10003fdc:	00db      	lsls	r3, r3, #3
10003fde:	18f3      	adds	r3, r6, r3
10003fe0:	9800      	ldr	r0, [sp, #0]
10003fe2:	9901      	ldr	r1, [sp, #4]
10003fe4:	689c      	ldr	r4, [r3, #8]
10003fe6:	68dd      	ldr	r5, [r3, #12]
10003fe8:	1b00      	subs	r0, r0, r4
10003fea:	41a9      	sbcs	r1, r5
10003fec:	2900      	cmp	r1, #0
10003fee:	db04      	blt.n	10003ffa <alarm_pool_irq_handler+0x162>
10003ff0:	001a      	movs	r2, r3
10003ff2:	2300      	movs	r3, #0
10003ff4:	5ed7      	ldrsh	r7, [r2, r3]
10003ff6:	2f00      	cmp	r7, #0
10003ff8:	daee      	bge.n	10003fd8 <alarm_pool_irq_handler+0x140>
10003ffa:	465b      	mov	r3, fp
10003ffc:	801f      	strh	r7, [r3, #0]
10003ffe:	4653      	mov	r3, sl
10004000:	8013      	strh	r3, [r2, #0]
10004002:	4643      	mov	r3, r8
10004004:	889b      	ldrh	r3, [r3, #4]
10004006:	b21b      	sxth	r3, r3
10004008:	2b00      	cmp	r3, #0
1000400a:	da00      	bge.n	1000400e <alarm_pool_irq_handler+0x176>
1000400c:	e761      	b.n	10003ed2 <alarm_pool_irq_handler+0x3a>
1000400e:	4643      	mov	r3, r8
10004010:	691a      	ldr	r2, [r3, #16]
10004012:	f3ef 8110 	mrs	r1, PRIMASK
10004016:	b672      	cpsid	i
10004018:	6813      	ldr	r3, [r2, #0]
1000401a:	2b00      	cmp	r3, #0
1000401c:	d0fc      	beq.n	10004018 <alarm_pool_irq_handler+0x180>
1000401e:	f3bf 8f5f 	dmb	sy
10004022:	4643      	mov	r3, r8
10004024:	889b      	ldrh	r3, [r3, #4]
10004026:	4642      	mov	r2, r8
10004028:	b21b      	sxth	r3, r3
1000402a:	469a      	mov	sl, r3
1000402c:	2301      	movs	r3, #1
1000402e:	425b      	negs	r3, r3
10004030:	8093      	strh	r3, [r2, #4]
10004032:	6913      	ldr	r3, [r2, #16]
10004034:	f3bf 8f5f 	dmb	sy
10004038:	2200      	movs	r2, #0
1000403a:	601a      	str	r2, [r3, #0]
1000403c:	f381 8810 	msr	PRIMASK, r1
10004040:	4653      	mov	r3, sl
10004042:	2b00      	cmp	r3, #0
10004044:	da00      	bge.n	10004048 <alarm_pool_irq_handler+0x1b0>
10004046:	e744      	b.n	10003ed2 <alarm_pool_irq_handler+0x3a>
10004048:	4643      	mov	r3, r8
1000404a:	695b      	ldr	r3, [r3, #20]
1000404c:	469c      	mov	ip, r3
1000404e:	2308      	movs	r3, #8
10004050:	4443      	add	r3, r8
10004052:	469b      	mov	fp, r3
10004054:	4653      	mov	r3, sl
10004056:	005f      	lsls	r7, r3, #1
10004058:	4643      	mov	r3, r8
1000405a:	4457      	add	r7, sl
1000405c:	00ff      	lsls	r7, r7, #3
1000405e:	2208      	movs	r2, #8
10004060:	5e9a      	ldrsh	r2, [r3, r2]
10004062:	4467      	add	r7, ip
10004064:	465e      	mov	r6, fp
10004066:	68bc      	ldr	r4, [r7, #8]
10004068:	68fd      	ldr	r5, [r7, #12]
1000406a:	2a00      	cmp	r2, #0
1000406c:	db19      	blt.n	100040a2 <alarm_pool_irq_handler+0x20a>
1000406e:	003b      	movs	r3, r7
10004070:	9400      	str	r4, [sp, #0]
10004072:	9501      	str	r5, [sp, #4]
10004074:	4667      	mov	r7, ip
10004076:	469c      	mov	ip, r3
10004078:	e004      	b.n	10004084 <alarm_pool_irq_handler+0x1ec>
1000407a:	001e      	movs	r6, r3
1000407c:	2300      	movs	r3, #0
1000407e:	5ef2      	ldrsh	r2, [r6, r3]
10004080:	2a00      	cmp	r2, #0
10004082:	db0b      	blt.n	1000409c <alarm_pool_irq_handler+0x204>
10004084:	9800      	ldr	r0, [sp, #0]
10004086:	9901      	ldr	r1, [sp, #4]
10004088:	0053      	lsls	r3, r2, #1
1000408a:	189b      	adds	r3, r3, r2
1000408c:	00db      	lsls	r3, r3, #3
1000408e:	18fb      	adds	r3, r7, r3
10004090:	689c      	ldr	r4, [r3, #8]
10004092:	68dd      	ldr	r5, [r3, #12]
10004094:	1b00      	subs	r0, r0, r4
10004096:	41a9      	sbcs	r1, r5
10004098:	2900      	cmp	r1, #0
1000409a:	daee      	bge.n	1000407a <alarm_pool_irq_handler+0x1e2>
1000409c:	4663      	mov	r3, ip
1000409e:	46bc      	mov	ip, r7
100040a0:	001f      	movs	r7, r3
100040a2:	4653      	mov	r3, sl
100040a4:	8033      	strh	r3, [r6, #0]
100040a6:	2100      	movs	r1, #0
100040a8:	5e7b      	ldrsh	r3, [r7, r1]
100040aa:	803a      	strh	r2, [r7, #0]
100040ac:	469a      	mov	sl, r3
100040ae:	2b00      	cmp	r3, #0
100040b0:	dad0      	bge.n	10004054 <alarm_pool_irq_handler+0x1bc>
100040b2:	4643      	mov	r3, r8
100040b4:	799b      	ldrb	r3, [r3, #6]
100040b6:	2b00      	cmp	r3, #0
100040b8:	d100      	bne.n	100040bc <alarm_pool_irq_handler+0x224>
100040ba:	e70f      	b.n	10003edc <alarm_pool_irq_handler+0x44>
100040bc:	2300      	movs	r3, #0
100040be:	4642      	mov	r2, r8
100040c0:	7193      	strb	r3, [r2, #6]
100040c2:	4643      	mov	r3, r8
100040c4:	4646      	mov	r6, r8
100040c6:	2108      	movs	r1, #8
100040c8:	5e59      	ldrsh	r1, [r3, r1]
100040ca:	3608      	adds	r6, #8
100040cc:	1c4b      	adds	r3, r1, #1
100040ce:	d023      	beq.n	10004118 <alarm_pool_irq_handler+0x280>
100040d0:	4647      	mov	r7, r8
100040d2:	468c      	mov	ip, r1
100040d4:	6955      	ldr	r5, [r2, #20]
100040d6:	e002      	b.n	100040de <alarm_pool_irq_handler+0x246>
100040d8:	0006      	movs	r6, r0
100040da:	1c4b      	adds	r3, r1, #1
100040dc:	d017      	beq.n	1000410e <alarm_pool_irq_handler+0x276>
100040de:	004b      	lsls	r3, r1, #1
100040e0:	185b      	adds	r3, r3, r1
100040e2:	00db      	lsls	r3, r3, #3
100040e4:	18e8      	adds	r0, r5, r3
100040e6:	000a      	movs	r2, r1
100040e8:	5ee9      	ldrsh	r1, [r5, r3]
100040ea:	8843      	ldrh	r3, [r0, #2]
100040ec:	b21b      	sxth	r3, r3
100040ee:	2b00      	cmp	r3, #0
100040f0:	daf2      	bge.n	100040d8 <alarm_pool_irq_handler+0x240>
100040f2:	2301      	movs	r3, #1
100040f4:	425b      	negs	r3, r3
100040f6:	17dc      	asrs	r4, r3, #31
100040f8:	6083      	str	r3, [r0, #8]
100040fa:	60c4      	str	r4, [r0, #12]
100040fc:	4562      	cmp	r2, ip
100040fe:	d0ec      	beq.n	100040da <alarm_pool_irq_handler+0x242>
10004100:	8031      	strh	r1, [r6, #0]
10004102:	893b      	ldrh	r3, [r7, #8]
10004104:	4694      	mov	ip, r2
10004106:	8003      	strh	r3, [r0, #0]
10004108:	813a      	strh	r2, [r7, #8]
1000410a:	1c4b      	adds	r3, r1, #1
1000410c:	d1e7      	bne.n	100040de <alarm_pool_irq_handler+0x246>
1000410e:	4664      	mov	r4, ip
10004110:	46b8      	mov	r8, r7
10004112:	2c00      	cmp	r4, #0
10004114:	db00      	blt.n	10004118 <alarm_pool_irq_handler+0x280>
10004116:	e6e7      	b.n	10003ee8 <alarm_pool_irq_handler+0x50>
10004118:	bf40      	sev
1000411a:	b005      	add	sp, #20
1000411c:	bcf0      	pop	{r4, r5, r6, r7}
1000411e:	46bb      	mov	fp, r7
10004120:	46b2      	mov	sl, r6
10004122:	46a9      	mov	r9, r5
10004124:	46a0      	mov	r8, r4
10004126:	bdf0      	pop	{r4, r5, r6, r7, pc}
10004128:	1c6b      	adds	r3, r5, #1
1000412a:	d000      	beq.n	1000412e <alarm_pool_irq_handler+0x296>
1000412c:	e6e8      	b.n	10003f00 <alarm_pool_irq_handler+0x68>
1000412e:	e6f2      	b.n	10003f16 <alarm_pool_irq_handler+0x7e>
10004130:	465b      	mov	r3, fp
10004132:	695c      	ldr	r4, [r3, #20]
10004134:	0020      	movs	r0, r4
10004136:	6923      	ldr	r3, [r4, #16]
10004138:	4798      	blx	r3
1000413a:	2800      	cmp	r0, #0
1000413c:	d121      	bne.n	10004182 <alarm_pool_irq_handler+0x2ea>
1000413e:	465b      	mov	r3, fp
10004140:	4642      	mov	r2, r8
10004142:	881b      	ldrh	r3, [r3, #0]
10004144:	8113      	strh	r3, [r2, #8]
10004146:	6912      	ldr	r2, [r2, #16]
10004148:	f3ef 8310 	mrs	r3, PRIMASK
1000414c:	b672      	cpsid	i
1000414e:	6811      	ldr	r1, [r2, #0]
10004150:	2900      	cmp	r1, #0
10004152:	d0fc      	beq.n	1000414e <alarm_pool_irq_handler+0x2b6>
10004154:	f3bf 8f5f 	dmb	sy
10004158:	4642      	mov	r2, r8
1000415a:	4659      	mov	r1, fp
1000415c:	8852      	ldrh	r2, [r2, #2]
1000415e:	800a      	strh	r2, [r1, #0]
10004160:	4642      	mov	r2, r8
10004162:	4651      	mov	r1, sl
10004164:	8051      	strh	r1, [r2, #2]
10004166:	6912      	ldr	r2, [r2, #16]
10004168:	f3bf 8f5f 	dmb	sy
1000416c:	2100      	movs	r1, #0
1000416e:	6011      	str	r1, [r2, #0]
10004170:	f383 8810 	msr	PRIMASK, r3
10004174:	e6a7      	b.n	10003ec6 <alarm_pool_irq_handler+0x2e>
10004176:	4808      	ldr	r0, [pc, #32]	; (10004198 <alarm_pool_irq_handler+0x300>)
10004178:	f000 f9a2 	bl	100044c0 <timer_time_us_64>
1000417c:	1824      	adds	r4, r4, r0
1000417e:	414d      	adcs	r5, r1
10004180:	e70c      	b.n	10003f9c <alarm_pool_irq_handler+0x104>
10004182:	6865      	ldr	r5, [r4, #4]
10004184:	6824      	ldr	r4, [r4, #0]
10004186:	e6fe      	b.n	10003f86 <alarm_pool_irq_handler+0xee>
10004188:	2c00      	cmp	r4, #0
1000418a:	d100      	bne.n	1000418e <alarm_pool_irq_handler+0x2f6>
1000418c:	e6cd      	b.n	10003f2a <alarm_pool_irq_handler+0x92>
1000418e:	e7c3      	b.n	10004118 <alarm_pool_irq_handler+0x280>
10004190:	2000074c 	.word	0x2000074c
10004194:	4005703c 	.word	0x4005703c
10004198:	40054000 	.word	0x40054000
1000419c:	10003e99 	.word	0x10003e99

100041a0 <sleep_until_callback>:
100041a0:	4807      	ldr	r0, [pc, #28]	; (100041c0 <sleep_until_callback+0x20>)
100041a2:	b510      	push	{r4, lr}
100041a4:	6802      	ldr	r2, [r0, #0]
100041a6:	f3ef 8110 	mrs	r1, PRIMASK
100041aa:	b672      	cpsid	i
100041ac:	6813      	ldr	r3, [r2, #0]
100041ae:	2b00      	cmp	r3, #0
100041b0:	d0fc      	beq.n	100041ac <sleep_until_callback+0xc>
100041b2:	f3bf 8f5f 	dmb	sy
100041b6:	f7fc fcab 	bl	10000b10 <vPortLockInternalSpinUnlockWithNotify>
100041ba:	2000      	movs	r0, #0
100041bc:	2100      	movs	r1, #0
100041be:	bd10      	pop	{r4, pc}
100041c0:	20000a04 	.word	0x20000a04

100041c4 <runtime_init_default_alarm_pool>:
100041c4:	b570      	push	{r4, r5, r6, lr}
100041c6:	4c2e      	ldr	r4, [pc, #184]	; (10004280 <runtime_init_default_alarm_pool+0xbc>)
100041c8:	6925      	ldr	r5, [r4, #16]
100041ca:	2d00      	cmp	r5, #0
100041cc:	d004      	beq.n	100041d8 <runtime_init_default_alarm_pool+0x14>
100041ce:	210a      	movs	r1, #10
100041d0:	482c      	ldr	r0, [pc, #176]	; (10004284 <runtime_init_default_alarm_pool+0xc0>)
100041d2:	f7ff fe25 	bl	10003e20 <lock_init>
100041d6:	bd70      	pop	{r4, r5, r6, pc}
100041d8:	4e2b      	ldr	r6, [pc, #172]	; (10004288 <runtime_init_default_alarm_pool+0xc4>)
100041da:	2103      	movs	r1, #3
100041dc:	0030      	movs	r0, r6
100041de:	f000 f965 	bl	100044ac <timer_hardware_alarm_claim>
100041e2:	60e6      	str	r6, [r4, #12]
100041e4:	f7ff fc32 	bl	10003a4c <next_striped_spin_lock_num>
100041e8:	4b28      	ldr	r3, [pc, #160]	; (1000428c <runtime_init_default_alarm_pool+0xc8>)
100041ea:	2203      	movs	r2, #3
100041ec:	469c      	mov	ip, r3
100041ee:	23d0      	movs	r3, #208	; 0xd0
100041f0:	7022      	strb	r2, [r4, #0]
100041f2:	061b      	lsls	r3, r3, #24
100041f4:	681b      	ldr	r3, [r3, #0]
100041f6:	2101      	movs	r1, #1
100041f8:	7063      	strb	r3, [r4, #1]
100041fa:	4b25      	ldr	r3, [pc, #148]	; (10004290 <runtime_init_default_alarm_pool+0xcc>)
100041fc:	4460      	add	r0, ip
100041fe:	60a3      	str	r3, [r4, #8]
10004200:	230f      	movs	r3, #15
10004202:	0080      	lsls	r0, r0, #2
10004204:	6120      	str	r0, [r4, #16]
10004206:	2002      	movs	r0, #2
10004208:	8063      	strh	r3, [r4, #2]
1000420a:	6963      	ldr	r3, [r4, #20]
1000420c:	4249      	negs	r1, r1
1000420e:	80a1      	strh	r1, [r4, #4]
10004210:	8019      	strh	r1, [r3, #0]
10004212:	3102      	adds	r1, #2
10004214:	8619      	strh	r1, [r3, #48]	; 0x30
10004216:	3147      	adds	r1, #71	; 0x47
10004218:	831d      	strh	r5, [r3, #24]
1000421a:	5258      	strh	r0, [r3, r1]
1000421c:	3118      	adds	r1, #24
1000421e:	525a      	strh	r2, [r3, r1]
10004220:	3275      	adds	r2, #117	; 0x75
10004222:	395c      	subs	r1, #92	; 0x5c
10004224:	5299      	strh	r1, [r3, r2]
10004226:	3218      	adds	r2, #24
10004228:	3101      	adds	r1, #1
1000422a:	5299      	strh	r1, [r3, r2]
1000422c:	3218      	adds	r2, #24
1000422e:	3101      	adds	r1, #1
10004230:	5299      	strh	r1, [r3, r2]
10004232:	3218      	adds	r2, #24
10004234:	3101      	adds	r1, #1
10004236:	5299      	strh	r1, [r3, r2]
10004238:	3508      	adds	r5, #8
1000423a:	3218      	adds	r2, #24
1000423c:	529d      	strh	r5, [r3, r2]
1000423e:	3102      	adds	r1, #2
10004240:	3218      	adds	r2, #24
10004242:	5299      	strh	r1, [r3, r2]
10004244:	3218      	adds	r2, #24
10004246:	3101      	adds	r1, #1
10004248:	5299      	strh	r1, [r3, r2]
1000424a:	3218      	adds	r2, #24
1000424c:	3101      	adds	r1, #1
1000424e:	5299      	strh	r1, [r3, r2]
10004250:	3218      	adds	r2, #24
10004252:	3101      	adds	r1, #1
10004254:	5299      	strh	r1, [r3, r2]
10004256:	3218      	adds	r2, #24
10004258:	3101      	adds	r1, #1
1000425a:	5299      	strh	r1, [r3, r2]
1000425c:	3218      	adds	r2, #24
1000425e:	3101      	adds	r1, #1
10004260:	5299      	strh	r1, [r3, r2]
10004262:	4b0c      	ldr	r3, [pc, #48]	; (10004294 <runtime_init_default_alarm_pool+0xd0>)
10004264:	490c      	ldr	r1, [pc, #48]	; (10004298 <runtime_init_default_alarm_pool+0xd4>)
10004266:	60dc      	str	r4, [r3, #12]
10004268:	3001      	adds	r0, #1
1000426a:	6235      	str	r5, [r6, #32]
1000426c:	f7ff fc5e 	bl	10003b2c <irq_set_exclusive_handler>
10004270:	2101      	movs	r1, #1
10004272:	2003      	movs	r0, #3
10004274:	f7ff fc3c 	bl	10003af0 <irq_set_enabled>
10004278:	4b08      	ldr	r3, [pc, #32]	; (1000429c <runtime_init_default_alarm_pool+0xd8>)
1000427a:	601d      	str	r5, [r3, #0]
1000427c:	e7a7      	b.n	100041ce <runtime_init_default_alarm_pool+0xa>
1000427e:	46c0      	nop			; (mov r8, r8)
10004280:	20000288 	.word	0x20000288
10004284:	20000a04 	.word	0x20000a04
10004288:	40054000 	.word	0x40054000
1000428c:	34000040 	.word	0x34000040
10004290:	0010ffff 	.word	0x0010ffff
10004294:	2000074c 	.word	0x2000074c
10004298:	10003e99 	.word	0x10003e99
1000429c:	40056038 	.word	0x40056038

100042a0 <alarm_pool_add_alarm_at_force_in_context>:
100042a0:	b570      	push	{r4, r5, r6, lr}
100042a2:	46c6      	mov	lr, r8
100042a4:	0001      	movs	r1, r0
100042a6:	b500      	push	{lr}
100042a8:	6904      	ldr	r4, [r0, #16]
100042aa:	f3ef 8c10 	mrs	ip, PRIMASK
100042ae:	b672      	cpsid	i
100042b0:	6820      	ldr	r0, [r4, #0]
100042b2:	2800      	cmp	r0, #0
100042b4:	d0fc      	beq.n	100042b0 <alarm_pool_add_alarm_at_force_in_context+0x10>
100042b6:	f3bf 8f5f 	dmb	sy
100042ba:	2002      	movs	r0, #2
100042bc:	5e0d      	ldrsh	r5, [r1, r0]
100042be:	6948      	ldr	r0, [r1, #20]
100042c0:	006c      	lsls	r4, r5, #1
100042c2:	4680      	mov	r8, r0
100042c4:	1964      	adds	r4, r4, r5
100042c6:	00e4      	lsls	r4, r4, #3
100042c8:	4444      	add	r4, r8
100042ca:	2d00      	cmp	r5, #0
100042cc:	db01      	blt.n	100042d2 <alarm_pool_add_alarm_at_force_in_context+0x32>
100042ce:	8820      	ldrh	r0, [r4, #0]
100042d0:	8048      	strh	r0, [r1, #2]
100042d2:	6908      	ldr	r0, [r1, #16]
100042d4:	f3bf 8f5f 	dmb	sy
100042d8:	2600      	movs	r6, #0
100042da:	6006      	str	r6, [r0, #0]
100042dc:	f38c 8810 	msr	PRIMASK, ip
100042e0:	2d00      	cmp	r5, #0
100042e2:	db30      	blt.n	10004346 <alarm_pool_add_alarm_at_force_in_context+0xa6>
100042e4:	60e3      	str	r3, [r4, #12]
100042e6:	8863      	ldrh	r3, [r4, #2]
100042e8:	9805      	ldr	r0, [sp, #20]
100042ea:	3301      	adds	r3, #1
100042ec:	6120      	str	r0, [r4, #16]
100042ee:	045b      	lsls	r3, r3, #17
100042f0:	9806      	ldr	r0, [sp, #24]
100042f2:	0c5b      	lsrs	r3, r3, #17
100042f4:	60a2      	str	r2, [r4, #8]
100042f6:	6160      	str	r0, [r4, #20]
100042f8:	1c1a      	adds	r2, r3, #0
100042fa:	2b00      	cmp	r3, #0
100042fc:	d021      	beq.n	10004342 <alarm_pool_add_alarm_at_force_in_context+0xa2>
100042fe:	b290      	uxth	r0, r2
10004300:	042b      	lsls	r3, r5, #16
10004302:	8062      	strh	r2, [r4, #2]
10004304:	4318      	orrs	r0, r3
10004306:	690a      	ldr	r2, [r1, #16]
10004308:	f3ef 8610 	mrs	r6, PRIMASK
1000430c:	b672      	cpsid	i
1000430e:	6813      	ldr	r3, [r2, #0]
10004310:	2b00      	cmp	r3, #0
10004312:	d0fc      	beq.n	1000430e <alarm_pool_add_alarm_at_force_in_context+0x6e>
10004314:	f3bf 8f5f 	dmb	sy
10004318:	888b      	ldrh	r3, [r1, #4]
1000431a:	8023      	strh	r3, [r4, #0]
1000431c:	808d      	strh	r5, [r1, #4]
1000431e:	690b      	ldr	r3, [r1, #16]
10004320:	f3bf 8f5f 	dmb	sy
10004324:	2200      	movs	r2, #0
10004326:	601a      	str	r2, [r3, #0]
10004328:	f386 8810 	msr	PRIMASK, r6
1000432c:	780b      	ldrb	r3, [r1, #0]
1000432e:	3201      	adds	r2, #1
10004330:	409a      	lsls	r2, r3
10004332:	68cb      	ldr	r3, [r1, #12]
10004334:	4905      	ldr	r1, [pc, #20]	; (1000434c <alarm_pool_add_alarm_at_force_in_context+0xac>)
10004336:	468c      	mov	ip, r1
10004338:	4463      	add	r3, ip
1000433a:	601a      	str	r2, [r3, #0]
1000433c:	bc40      	pop	{r6}
1000433e:	46b0      	mov	r8, r6
10004340:	bd70      	pop	{r4, r5, r6, pc}
10004342:	2201      	movs	r2, #1
10004344:	e7db      	b.n	100042fe <alarm_pool_add_alarm_at_force_in_context+0x5e>
10004346:	2001      	movs	r0, #1
10004348:	4240      	negs	r0, r0
1000434a:	e7f7      	b.n	1000433c <alarm_pool_add_alarm_at_force_in_context+0x9c>
1000434c:	0000203c 	.word	0x0000203c

10004350 <alarm_pool_cancel_alarm>:
10004350:	b510      	push	{r4, lr}
10004352:	8943      	ldrh	r3, [r0, #10]
10004354:	140a      	asrs	r2, r1, #16
10004356:	4293      	cmp	r3, r2
10004358:	dd33      	ble.n	100043c2 <alarm_pool_cancel_alarm+0x72>
1000435a:	0053      	lsls	r3, r2, #1
1000435c:	189b      	adds	r3, r3, r2
1000435e:	6942      	ldr	r2, [r0, #20]
10004360:	00db      	lsls	r3, r3, #3
10004362:	4694      	mov	ip, r2
10004364:	6904      	ldr	r4, [r0, #16]
10004366:	4463      	add	r3, ip
10004368:	f3ef 8c10 	mrs	ip, PRIMASK
1000436c:	b672      	cpsid	i
1000436e:	6822      	ldr	r2, [r4, #0]
10004370:	2a00      	cmp	r2, #0
10004372:	d0fc      	beq.n	1000436e <alarm_pool_cancel_alarm+0x1e>
10004374:	f3bf 8f5f 	dmb	sy
10004378:	885a      	ldrh	r2, [r3, #2]
1000437a:	0409      	lsls	r1, r1, #16
1000437c:	b294      	uxth	r4, r2
1000437e:	0c09      	lsrs	r1, r1, #16
10004380:	428a      	cmp	r2, r1
10004382:	d008      	beq.n	10004396 <alarm_pool_cancel_alarm+0x46>
10004384:	6903      	ldr	r3, [r0, #16]
10004386:	f3bf 8f5f 	dmb	sy
1000438a:	2200      	movs	r2, #0
1000438c:	601a      	str	r2, [r3, #0]
1000438e:	f38c 8810 	msr	PRIMASK, ip
10004392:	2000      	movs	r0, #0
10004394:	bd10      	pop	{r4, pc}
10004396:	2280      	movs	r2, #128	; 0x80
10004398:	0212      	lsls	r2, r2, #8
1000439a:	4314      	orrs	r4, r2
1000439c:	805c      	strh	r4, [r3, #2]
1000439e:	2301      	movs	r3, #1
100043a0:	6902      	ldr	r2, [r0, #16]
100043a2:	7183      	strb	r3, [r0, #6]
100043a4:	f3bf 8f5f 	dmb	sy
100043a8:	2100      	movs	r1, #0
100043aa:	6011      	str	r1, [r2, #0]
100043ac:	f38c 8810 	msr	PRIMASK, ip
100043b0:	4905      	ldr	r1, [pc, #20]	; (100043c8 <alarm_pool_cancel_alarm+0x78>)
100043b2:	7802      	ldrb	r2, [r0, #0]
100043b4:	468c      	mov	ip, r1
100043b6:	4093      	lsls	r3, r2
100043b8:	68c2      	ldr	r2, [r0, #12]
100043ba:	2001      	movs	r0, #1
100043bc:	4462      	add	r2, ip
100043be:	6013      	str	r3, [r2, #0]
100043c0:	e7e8      	b.n	10004394 <alarm_pool_cancel_alarm+0x44>
100043c2:	2000      	movs	r0, #0
100043c4:	e7e6      	b.n	10004394 <alarm_pool_cancel_alarm+0x44>
100043c6:	46c0      	nop			; (mov r8, r8)
100043c8:	0000203c 	.word	0x0000203c

100043cc <best_effort_wfe_or_timeout>:
100043cc:	b5f0      	push	{r4, r5, r6, r7, lr}
100043ce:	46ce      	mov	lr, r9
100043d0:	4647      	mov	r7, r8
100043d2:	b580      	push	{r7, lr}
100043d4:	0004      	movs	r4, r0
100043d6:	000d      	movs	r5, r1
100043d8:	b083      	sub	sp, #12
100043da:	f3ef 8705 	mrs	r7, IPSR
100043de:	2f00      	cmp	r7, #0
100043e0:	d13b      	bne.n	1000445a <best_effort_wfe_or_timeout+0x8e>
100043e2:	4e2f      	ldr	r6, [pc, #188]	; (100044a0 <best_effort_wfe_or_timeout+0xd4>)
100043e4:	4681      	mov	r9, r0
100043e6:	7833      	ldrb	r3, [r6, #0]
100043e8:	68f2      	ldr	r2, [r6, #12]
100043ea:	3304      	adds	r3, #4
100043ec:	009b      	lsls	r3, r3, #2
100043ee:	6a91      	ldr	r1, [r2, #40]	; 0x28
100043f0:	589b      	ldr	r3, [r3, r2]
100043f2:	1a42      	subs	r2, r0, r1
100043f4:	1a5b      	subs	r3, r3, r1
100043f6:	429a      	cmp	r2, r3
100043f8:	d30e      	bcc.n	10004418 <best_effort_wfe_or_timeout+0x4c>
100043fa:	bf20      	wfe
100043fc:	4a29      	ldr	r2, [pc, #164]	; (100044a4 <best_effort_wfe_or_timeout+0xd8>)
100043fe:	2000      	movs	r0, #0
10004400:	6a53      	ldr	r3, [r2, #36]	; 0x24
10004402:	42ab      	cmp	r3, r5
10004404:	d303      	bcc.n	1000440e <best_effort_wfe_or_timeout+0x42>
10004406:	6a92      	ldr	r2, [r2, #40]	; 0x28
10004408:	3001      	adds	r0, #1
1000440a:	4591      	cmp	r9, r2
1000440c:	d83c      	bhi.n	10004488 <best_effort_wfe_or_timeout+0xbc>
1000440e:	b003      	add	sp, #12
10004410:	bcc0      	pop	{r6, r7}
10004412:	46b9      	mov	r9, r7
10004414:	46b0      	mov	r8, r6
10004416:	bdf0      	pop	{r4, r5, r6, r7, pc}
10004418:	f000 f85a 	bl	100044d0 <time_us_64>
1000441c:	0022      	movs	r2, r4
1000441e:	002b      	movs	r3, r5
10004420:	1a12      	subs	r2, r2, r0
10004422:	418b      	sbcs	r3, r1
10004424:	2b00      	cmp	r3, #0
10004426:	db26      	blt.n	10004476 <best_effort_wfe_or_timeout+0xaa>
10004428:	4b1f      	ldr	r3, [pc, #124]	; (100044a8 <best_effort_wfe_or_timeout+0xdc>)
1000442a:	0022      	movs	r2, r4
1000442c:	9300      	str	r3, [sp, #0]
1000442e:	0030      	movs	r0, r6
10004430:	002b      	movs	r3, r5
10004432:	9701      	str	r7, [sp, #4]
10004434:	f7ff ff34 	bl	100042a0 <alarm_pool_add_alarm_at_force_in_context>
10004438:	1e01      	subs	r1, r0, #0
1000443a:	dd1c      	ble.n	10004476 <best_effort_wfe_or_timeout+0xaa>
1000443c:	4b19      	ldr	r3, [pc, #100]	; (100044a4 <best_effort_wfe_or_timeout+0xd8>)
1000443e:	46a8      	mov	r8, r5
10004440:	6a5a      	ldr	r2, [r3, #36]	; 0x24
10004442:	4295      	cmp	r5, r2
10004444:	d925      	bls.n	10004492 <best_effort_wfe_or_timeout+0xc6>
10004446:	bf20      	wfe
10004448:	0030      	movs	r0, r6
1000444a:	f7ff ff81 	bl	10004350 <alarm_pool_cancel_alarm>
1000444e:	4a15      	ldr	r2, [pc, #84]	; (100044a4 <best_effort_wfe_or_timeout+0xd8>)
10004450:	2000      	movs	r0, #0
10004452:	6a53      	ldr	r3, [r2, #36]	; 0x24
10004454:	4598      	cmp	r8, r3
10004456:	d8da      	bhi.n	1000440e <best_effort_wfe_or_timeout+0x42>
10004458:	e7d5      	b.n	10004406 <best_effort_wfe_or_timeout+0x3a>
1000445a:	4a12      	ldr	r2, [pc, #72]	; (100044a4 <best_effort_wfe_or_timeout+0xd8>)
1000445c:	2000      	movs	r0, #0
1000445e:	6a53      	ldr	r3, [r2, #36]	; 0x24
10004460:	428b      	cmp	r3, r1
10004462:	d3d4      	bcc.n	1000440e <best_effort_wfe_or_timeout+0x42>
10004464:	6a92      	ldr	r2, [r2, #40]	; 0x28
10004466:	3001      	adds	r0, #1
10004468:	42a2      	cmp	r2, r4
1000446a:	d2d0      	bcs.n	1000440e <best_effort_wfe_or_timeout+0x42>
1000446c:	1a58      	subs	r0, r3, r1
1000446e:	1e42      	subs	r2, r0, #1
10004470:	4190      	sbcs	r0, r2
10004472:	b2c0      	uxtb	r0, r0
10004474:	e7cb      	b.n	1000440e <best_effort_wfe_or_timeout+0x42>
10004476:	4a0b      	ldr	r2, [pc, #44]	; (100044a4 <best_effort_wfe_or_timeout+0xd8>)
10004478:	2000      	movs	r0, #0
1000447a:	6a53      	ldr	r3, [r2, #36]	; 0x24
1000447c:	42ab      	cmp	r3, r5
1000447e:	d3c6      	bcc.n	1000440e <best_effort_wfe_or_timeout+0x42>
10004480:	6a92      	ldr	r2, [r2, #40]	; 0x28
10004482:	2001      	movs	r0, #1
10004484:	4591      	cmp	r9, r2
10004486:	d9c2      	bls.n	1000440e <best_effort_wfe_or_timeout+0x42>
10004488:	1ae8      	subs	r0, r5, r3
1000448a:	1e42      	subs	r2, r0, #1
1000448c:	4190      	sbcs	r0, r2
1000448e:	b2c0      	uxtb	r0, r0
10004490:	e7bd      	b.n	1000440e <best_effort_wfe_or_timeout+0x42>
10004492:	6a9b      	ldr	r3, [r3, #40]	; 0x28
10004494:	429c      	cmp	r4, r3
10004496:	d9d7      	bls.n	10004448 <best_effort_wfe_or_timeout+0x7c>
10004498:	4295      	cmp	r5, r2
1000449a:	d1d5      	bne.n	10004448 <best_effort_wfe_or_timeout+0x7c>
1000449c:	e7d3      	b.n	10004446 <best_effort_wfe_or_timeout+0x7a>
1000449e:	46c0      	nop			; (mov r8, r8)
100044a0:	20000288 	.word	0x20000288
100044a4:	40054000 	.word	0x40054000
100044a8:	100041a1 	.word	0x100041a1

100044ac <timer_hardware_alarm_claim>:
100044ac:	b510      	push	{r4, lr}
100044ae:	4a02      	ldr	r2, [pc, #8]	; (100044b8 <timer_hardware_alarm_claim+0xc>)
100044b0:	4802      	ldr	r0, [pc, #8]	; (100044bc <timer_hardware_alarm_claim+0x10>)
100044b2:	f7ff faa9 	bl	10003a08 <hw_claim_or_assert>
100044b6:	bd10      	pop	{r4, pc}
100044b8:	1000777c 	.word	0x1000777c
100044bc:	20000714 	.word	0x20000714

100044c0 <timer_time_us_64>:
100044c0:	0003      	movs	r3, r0
100044c2:	6a41      	ldr	r1, [r0, #36]	; 0x24
100044c4:	000a      	movs	r2, r1
100044c6:	6a98      	ldr	r0, [r3, #40]	; 0x28
100044c8:	6a59      	ldr	r1, [r3, #36]	; 0x24
100044ca:	428a      	cmp	r2, r1
100044cc:	d1fa      	bne.n	100044c4 <timer_time_us_64+0x4>
100044ce:	4770      	bx	lr

100044d0 <time_us_64>:
100044d0:	4b03      	ldr	r3, [pc, #12]	; (100044e0 <time_us_64+0x10>)
100044d2:	6a59      	ldr	r1, [r3, #36]	; 0x24
100044d4:	000a      	movs	r2, r1
100044d6:	6a98      	ldr	r0, [r3, #40]	; 0x28
100044d8:	6a59      	ldr	r1, [r3, #36]	; 0x24
100044da:	4291      	cmp	r1, r2
100044dc:	d1fa      	bne.n	100044d4 <time_us_64+0x4>
100044de:	4770      	bx	lr
100044e0:	40054000 	.word	0x40054000

100044e4 <busy_wait_us>:
100044e4:	b570      	push	{r4, r5, r6, lr}
100044e6:	0004      	movs	r4, r0
100044e8:	000d      	movs	r5, r1
100044ea:	4a12      	ldr	r2, [pc, #72]	; (10004534 <busy_wait_us+0x50>)
100044ec:	6a53      	ldr	r3, [r2, #36]	; 0x24
100044ee:	0019      	movs	r1, r3
100044f0:	6a96      	ldr	r6, [r2, #40]	; 0x28
100044f2:	6a53      	ldr	r3, [r2, #36]	; 0x24
100044f4:	428b      	cmp	r3, r1
100044f6:	d1fa      	bne.n	100044ee <busy_wait_us+0xa>
100044f8:	0030      	movs	r0, r6
100044fa:	0019      	movs	r1, r3
100044fc:	1824      	adds	r4, r4, r0
100044fe:	414d      	adcs	r5, r1
10004500:	42ab      	cmp	r3, r5
10004502:	d811      	bhi.n	10004528 <busy_wait_us+0x44>
10004504:	d00e      	beq.n	10004524 <busy_wait_us+0x40>
10004506:	002b      	movs	r3, r5
10004508:	490a      	ldr	r1, [pc, #40]	; (10004534 <busy_wait_us+0x50>)
1000450a:	6a4a      	ldr	r2, [r1, #36]	; 0x24
1000450c:	429a      	cmp	r2, r3
1000450e:	d3fc      	bcc.n	1000450a <busy_wait_us+0x26>
10004510:	d107      	bne.n	10004522 <busy_wait_us+0x3e>
10004512:	4a08      	ldr	r2, [pc, #32]	; (10004534 <busy_wait_us+0x50>)
10004514:	e002      	b.n	1000451c <busy_wait_us+0x38>
10004516:	6a51      	ldr	r1, [r2, #36]	; 0x24
10004518:	4299      	cmp	r1, r3
1000451a:	d102      	bne.n	10004522 <busy_wait_us+0x3e>
1000451c:	6a91      	ldr	r1, [r2, #40]	; 0x28
1000451e:	42a1      	cmp	r1, r4
10004520:	d3f9      	bcc.n	10004516 <busy_wait_us+0x32>
10004522:	bd70      	pop	{r4, r5, r6, pc}
10004524:	42a6      	cmp	r6, r4
10004526:	d9ee      	bls.n	10004506 <busy_wait_us+0x22>
10004528:	2301      	movs	r3, #1
1000452a:	2401      	movs	r4, #1
1000452c:	4264      	negs	r4, r4
1000452e:	17e5      	asrs	r5, r4, #31
10004530:	425b      	negs	r3, r3
10004532:	e7e9      	b.n	10004508 <busy_wait_us+0x24>
10004534:	40054000 	.word	0x40054000

10004538 <pll_init>:
10004538:	b5f8      	push	{r3, r4, r5, r6, r7, lr}
1000453a:	0004      	movs	r4, r0
1000453c:	4820      	ldr	r0, [pc, #128]	; (100045c0 <pll_init+0x88>)
1000453e:	001d      	movs	r5, r3
10004540:	0017      	movs	r7, r2
10004542:	000e      	movs	r6, r1
10004544:	f000 fad4 	bl	10004af0 <__wrap___aeabi_uidiv>
10004548:	0001      	movs	r1, r0
1000454a:	0038      	movs	r0, r7
1000454c:	f000 fad0 	bl	10004af0 <__wrap___aeabi_uidiv>
10004550:	9b06      	ldr	r3, [sp, #24]
10004552:	0429      	lsls	r1, r5, #16
10004554:	031b      	lsls	r3, r3, #12
10004556:	4319      	orrs	r1, r3
10004558:	6823      	ldr	r3, [r4, #0]
1000455a:	2b00      	cmp	r3, #0
1000455c:	db1e      	blt.n	1000459c <pll_init+0x64>
1000455e:	4b19      	ldr	r3, [pc, #100]	; (100045c4 <pll_init+0x8c>)
10004560:	4d19      	ldr	r5, [pc, #100]	; (100045c8 <pll_init+0x90>)
10004562:	18e2      	adds	r2, r4, r3
10004564:	4253      	negs	r3, r2
10004566:	415a      	adcs	r2, r3
10004568:	2380      	movs	r3, #128	; 0x80
1000456a:	015b      	lsls	r3, r3, #5
1000456c:	469c      	mov	ip, r3
1000456e:	0312      	lsls	r2, r2, #12
10004570:	4b16      	ldr	r3, [pc, #88]	; (100045cc <pll_init+0x94>)
10004572:	4462      	add	r2, ip
10004574:	601a      	str	r2, [r3, #0]
10004576:	4b16      	ldr	r3, [pc, #88]	; (100045d0 <pll_init+0x98>)
10004578:	601a      	str	r2, [r3, #0]
1000457a:	0017      	movs	r7, r2
1000457c:	682b      	ldr	r3, [r5, #0]
1000457e:	439f      	bics	r7, r3
10004580:	d1fb      	bne.n	1000457a <pll_init+0x42>
10004582:	4b14      	ldr	r3, [pc, #80]	; (100045d4 <pll_init+0x9c>)
10004584:	6026      	str	r6, [r4, #0]
10004586:	18e2      	adds	r2, r4, r3
10004588:	2321      	movs	r3, #33	; 0x21
1000458a:	60a0      	str	r0, [r4, #8]
1000458c:	6013      	str	r3, [r2, #0]
1000458e:	6823      	ldr	r3, [r4, #0]
10004590:	2b00      	cmp	r3, #0
10004592:	dafc      	bge.n	1000458e <pll_init+0x56>
10004594:	2308      	movs	r3, #8
10004596:	60e1      	str	r1, [r4, #12]
10004598:	6013      	str	r3, [r2, #0]
1000459a:	bdf8      	pop	{r3, r4, r5, r6, r7, pc}
1000459c:	233f      	movs	r3, #63	; 0x3f
1000459e:	6822      	ldr	r2, [r4, #0]
100045a0:	4013      	ands	r3, r2
100045a2:	42b3      	cmp	r3, r6
100045a4:	d1db      	bne.n	1000455e <pll_init+0x26>
100045a6:	68a3      	ldr	r3, [r4, #8]
100045a8:	051b      	lsls	r3, r3, #20
100045aa:	0d1b      	lsrs	r3, r3, #20
100045ac:	4283      	cmp	r3, r0
100045ae:	d1d6      	bne.n	1000455e <pll_init+0x26>
100045b0:	22ee      	movs	r2, #238	; 0xee
100045b2:	68e3      	ldr	r3, [r4, #12]
100045b4:	02d2      	lsls	r2, r2, #11
100045b6:	4013      	ands	r3, r2
100045b8:	428b      	cmp	r3, r1
100045ba:	d1d0      	bne.n	1000455e <pll_init+0x26>
100045bc:	e7ed      	b.n	1000459a <pll_init+0x62>
100045be:	46c0      	nop			; (mov r8, r8)
100045c0:	00b71b00 	.word	0x00b71b00
100045c4:	bffd4000 	.word	0xbffd4000
100045c8:	4000c008 	.word	0x4000c008
100045cc:	4000e000 	.word	0x4000e000
100045d0:	4000f000 	.word	0x4000f000
100045d4:	00003004 	.word	0x00003004

100045d8 <tick_start>:
100045d8:	2380      	movs	r3, #128	; 0x80
100045da:	4a02      	ldr	r2, [pc, #8]	; (100045e4 <tick_start+0xc>)
100045dc:	009b      	lsls	r3, r3, #2
100045de:	430b      	orrs	r3, r1
100045e0:	62d3      	str	r3, [r2, #44]	; 0x2c
100045e2:	4770      	bx	lr
100045e4:	40058000 	.word	0x40058000

100045e8 <rom_func_lookup>:
100045e8:	2314      	movs	r3, #20
100045ea:	b510      	push	{r4, lr}
100045ec:	0001      	movs	r1, r0
100045ee:	8818      	ldrh	r0, [r3, #0]
100045f0:	3304      	adds	r3, #4
100045f2:	881b      	ldrh	r3, [r3, #0]
100045f4:	4798      	blx	r3
100045f6:	bd10      	pop	{r4, pc}

100045f8 <rom_data_lookup>:
100045f8:	2316      	movs	r3, #22
100045fa:	b510      	push	{r4, lr}
100045fc:	0001      	movs	r1, r0
100045fe:	8818      	ldrh	r0, [r3, #0]
10004600:	3302      	adds	r3, #2
10004602:	881b      	ldrh	r3, [r3, #0]
10004604:	4798      	blx	r3
10004606:	bd10      	pop	{r4, pc}

10004608 <rom_funcs_lookup>:
10004608:	b5f8      	push	{r3, r4, r5, r6, r7, lr}
1000460a:	4647      	mov	r7, r8
1000460c:	46ce      	mov	lr, r9
1000460e:	b580      	push	{r7, lr}
10004610:	1e0f      	subs	r7, r1, #0
10004612:	d019      	beq.n	10004648 <rom_funcs_lookup+0x40>
10004614:	2314      	movs	r3, #20
10004616:	4699      	mov	r9, r3
10004618:	3304      	adds	r3, #4
1000461a:	0004      	movs	r4, r0
1000461c:	2500      	movs	r5, #0
1000461e:	2601      	movs	r6, #1
10004620:	4698      	mov	r8, r3
10004622:	464b      	mov	r3, r9
10004624:	8818      	ldrh	r0, [r3, #0]
10004626:	4643      	mov	r3, r8
10004628:	6821      	ldr	r1, [r4, #0]
1000462a:	881b      	ldrh	r3, [r3, #0]
1000462c:	4798      	blx	r3
1000462e:	c401      	stmia	r4!, {r0}
10004630:	1e43      	subs	r3, r0, #1
10004632:	4198      	sbcs	r0, r3
10004634:	3501      	adds	r5, #1
10004636:	4240      	negs	r0, r0
10004638:	4006      	ands	r6, r0
1000463a:	42af      	cmp	r7, r5
1000463c:	d1f1      	bne.n	10004622 <rom_funcs_lookup+0x1a>
1000463e:	0030      	movs	r0, r6
10004640:	bcc0      	pop	{r6, r7}
10004642:	46b9      	mov	r9, r7
10004644:	46b0      	mov	r8, r6
10004646:	bdf8      	pop	{r3, r4, r5, r6, r7, pc}
10004648:	2601      	movs	r6, #1
1000464a:	e7f8      	b.n	1000463e <rom_funcs_lookup+0x36>

1000464c <xosc_init>:
1000464c:	23aa      	movs	r3, #170	; 0xaa
1000464e:	4a06      	ldr	r2, [pc, #24]	; (10004668 <xosc_init+0x1c>)
10004650:	011b      	lsls	r3, r3, #4
10004652:	6013      	str	r3, [r2, #0]
10004654:	232f      	movs	r3, #47	; 0x2f
10004656:	4905      	ldr	r1, [pc, #20]	; (1000466c <xosc_init+0x20>)
10004658:	60d3      	str	r3, [r2, #12]
1000465a:	4b05      	ldr	r3, [pc, #20]	; (10004670 <xosc_init+0x24>)
1000465c:	6019      	str	r1, [r3, #0]
1000465e:	6853      	ldr	r3, [r2, #4]
10004660:	2b00      	cmp	r3, #0
10004662:	dafc      	bge.n	1000465e <xosc_init+0x12>
10004664:	4770      	bx	lr
10004666:	46c0      	nop			; (mov r8, r8)
10004668:	40024000 	.word	0x40024000
1000466c:	00fab000 	.word	0x00fab000
10004670:	40026000 	.word	0x40026000

10004674 <exception_set_exclusive_handler>:
10004674:	b5f8      	push	{r3, r4, r5, r6, r7, lr}
10004676:	000e      	movs	r6, r1
10004678:	f3ef 8710 	mrs	r7, PRIMASK
1000467c:	b672      	cpsid	i
1000467e:	4b0c      	ldr	r3, [pc, #48]	; (100046b0 <exception_set_exclusive_handler+0x3c>)
10004680:	0084      	lsls	r4, r0, #2
10004682:	689b      	ldr	r3, [r3, #8]
10004684:	591d      	ldr	r5, [r3, r4]
10004686:	42a9      	cmp	r1, r5
10004688:	d005      	beq.n	10004696 <exception_set_exclusive_handler+0x22>
1000468a:	4b0a      	ldr	r3, [pc, #40]	; (100046b4 <exception_set_exclusive_handler+0x40>)
1000468c:	429d      	cmp	r5, r3
1000468e:	d30b      	bcc.n	100046a8 <exception_set_exclusive_handler+0x34>
10004690:	4b09      	ldr	r3, [pc, #36]	; (100046b8 <exception_set_exclusive_handler+0x44>)
10004692:	429d      	cmp	r5, r3
10004694:	d208      	bcs.n	100046a8 <exception_set_exclusive_handler+0x34>
10004696:	4b06      	ldr	r3, [pc, #24]	; (100046b0 <exception_set_exclusive_handler+0x3c>)
10004698:	689b      	ldr	r3, [r3, #8]
1000469a:	511e      	str	r6, [r3, r4]
1000469c:	f3bf 8f5f 	dmb	sy
100046a0:	f387 8810 	msr	PRIMASK, r7
100046a4:	0028      	movs	r0, r5
100046a6:	bdf8      	pop	{r3, r4, r5, r6, r7, pc}
100046a8:	f000 f908 	bl	100048bc <hard_assertion_failure>
100046ac:	e7f3      	b.n	10004696 <exception_set_exclusive_handler+0x22>
100046ae:	46c0      	nop			; (mov r8, r8)
100046b0:	e000ed00 	.word	0xe000ed00
100046b4:	100001c0 	.word	0x100001c0
100046b8:	100001cc 	.word	0x100001cc

100046bc <core1_trampoline>:
100046bc:	bd03      	pop	{r0, r1, pc}
100046be:	46c0      	nop			; (mov r8, r8)

100046c0 <core1_wrapper>:
100046c0:	b510      	push	{r4, lr}
100046c2:	0004      	movs	r4, r0
100046c4:	f000 f914 	bl	100048f0 <runtime_run_per_core_initializers>
100046c8:	47a0      	blx	r4
100046ca:	bd10      	pop	{r4, pc}

100046cc <multicore_launch_core1_raw>:
100046cc:	b5f0      	push	{r4, r5, r6, r7, lr}
100046ce:	0004      	movs	r4, r0
100046d0:	b087      	sub	sp, #28
100046d2:	200f      	movs	r0, #15
100046d4:	000e      	movs	r6, r1
100046d6:	0017      	movs	r7, r2
100046d8:	f7ff fa1c 	bl	10003b14 <irq_is_enabled>
100046dc:	2100      	movs	r1, #0
100046de:	0005      	movs	r5, r0
100046e0:	200f      	movs	r0, #15
100046e2:	f7ff fa05 	bl	10003af0 <irq_set_enabled>
100046e6:	2300      	movs	r3, #0
100046e8:	2200      	movs	r2, #0
100046ea:	9200      	str	r2, [sp, #0]
100046ec:	9301      	str	r3, [sp, #4]
100046ee:	2301      	movs	r3, #1
100046f0:	9302      	str	r3, [sp, #8]
100046f2:	23d0      	movs	r3, #208	; 0xd0
100046f4:	9604      	str	r6, [sp, #16]
100046f6:	9405      	str	r4, [sp, #20]
100046f8:	2600      	movs	r6, #0
100046fa:	2400      	movs	r4, #0
100046fc:	2101      	movs	r1, #1
100046fe:	2002      	movs	r0, #2
10004700:	9703      	str	r7, [sp, #12]
10004702:	061b      	lsls	r3, r3, #24
10004704:	2c00      	cmp	r4, #0
10004706:	d014      	beq.n	10004732 <multicore_launch_core1_raw+0x66>
10004708:	6d1a      	ldr	r2, [r3, #80]	; 0x50
1000470a:	4210      	tst	r0, r2
1000470c:	d0fc      	beq.n	10004708 <multicore_launch_core1_raw+0x3c>
1000470e:	655c      	str	r4, [r3, #84]	; 0x54
10004710:	bf40      	sev
10004712:	6d1a      	ldr	r2, [r3, #80]	; 0x50
10004714:	4211      	tst	r1, r2
10004716:	d103      	bne.n	10004720 <multicore_launch_core1_raw+0x54>
10004718:	bf20      	wfe
1000471a:	6d1a      	ldr	r2, [r3, #80]	; 0x50
1000471c:	4211      	tst	r1, r2
1000471e:	d0fb      	beq.n	10004718 <multicore_launch_core1_raw+0x4c>
10004720:	6d9a      	ldr	r2, [r3, #88]	; 0x58
10004722:	42a2      	cmp	r2, r4
10004724:	d00a      	beq.n	1000473c <multicore_launch_core1_raw+0x70>
10004726:	2600      	movs	r6, #0
10004728:	466c      	mov	r4, sp
1000472a:	00b2      	lsls	r2, r6, #2
1000472c:	58a4      	ldr	r4, [r4, r2]
1000472e:	e7e9      	b.n	10004704 <multicore_launch_core1_raw+0x38>
10004730:	6d9a      	ldr	r2, [r3, #88]	; 0x58
10004732:	6d1a      	ldr	r2, [r3, #80]	; 0x50
10004734:	4211      	tst	r1, r2
10004736:	d1fb      	bne.n	10004730 <multicore_launch_core1_raw+0x64>
10004738:	bf40      	sev
1000473a:	e7e5      	b.n	10004708 <multicore_launch_core1_raw+0x3c>
1000473c:	3601      	adds	r6, #1
1000473e:	2e05      	cmp	r6, #5
10004740:	d9f2      	bls.n	10004728 <multicore_launch_core1_raw+0x5c>
10004742:	0029      	movs	r1, r5
10004744:	200f      	movs	r0, #15
10004746:	f7ff f9d3 	bl	10003af0 <irq_set_enabled>
1000474a:	b007      	add	sp, #28
1000474c:	bdf0      	pop	{r4, r5, r6, r7, pc}
1000474e:	46c0      	nop			; (mov r8, r8)

10004750 <multicore_launch_core1>:
10004750:	4b0b      	ldr	r3, [pc, #44]	; (10004780 <multicore_launch_core1+0x30>)
10004752:	4a0c      	ldr	r2, [pc, #48]	; (10004784 <multicore_launch_core1+0x34>)
10004754:	b510      	push	{r4, lr}
10004756:	4293      	cmp	r3, r2
10004758:	d201      	bcs.n	1000475e <multicore_launch_core1+0xe>
1000475a:	2301      	movs	r3, #1
1000475c:	425b      	negs	r3, r3
1000475e:	4c0a      	ldr	r4, [pc, #40]	; (10004788 <multicore_launch_core1+0x38>)
10004760:	4a0a      	ldr	r2, [pc, #40]	; (1000478c <multicore_launch_core1+0x3c>)
10004762:	0019      	movs	r1, r3
10004764:	6892      	ldr	r2, [r2, #8]
10004766:	5118      	str	r0, [r3, r4]
10004768:	20ff      	movs	r0, #255	; 0xff
1000476a:	46a4      	mov	ip, r4
1000476c:	00c0      	lsls	r0, r0, #3
1000476e:	501b      	str	r3, [r3, r0]
10004770:	4b07      	ldr	r3, [pc, #28]	; (10004790 <multicore_launch_core1+0x40>)
10004772:	4808      	ldr	r0, [pc, #32]	; (10004794 <multicore_launch_core1+0x44>)
10004774:	50c8      	str	r0, [r1, r3]
10004776:	4808      	ldr	r0, [pc, #32]	; (10004798 <multicore_launch_core1+0x48>)
10004778:	4461      	add	r1, ip
1000477a:	f7ff ffa7 	bl	100046cc <multicore_launch_core1_raw>
1000477e:	bd10      	pop	{r4, pc}
10004780:	20040800 	.word	0x20040800
10004784:	20040000 	.word	0x20040000
10004788:	000007f4 	.word	0x000007f4
1000478c:	e000ed00 	.word	0xe000ed00
10004790:	000007fc 	.word	0x000007fc
10004794:	100046c1 	.word	0x100046c1
10004798:	100046bd 	.word	0x100046bd

1000479c <uart_init>:
1000479c:	b5f8      	push	{r3, r4, r5, r6, r7, lr}
1000479e:	0004      	movs	r4, r0
100047a0:	2006      	movs	r0, #6
100047a2:	000d      	movs	r5, r1
100047a4:	f7ff f92a 	bl	100039fc <clock_get_hz>
100047a8:	2800      	cmp	r0, #0
100047aa:	d042      	beq.n	10004832 <uart_init+0x96>
100047ac:	4b36      	ldr	r3, [pc, #216]	; (10004888 <uart_init+0xec>)
100047ae:	4937      	ldr	r1, [pc, #220]	; (1000488c <uart_init+0xf0>)
100047b0:	18e2      	adds	r2, r4, r3
100047b2:	4253      	negs	r3, r2
100047b4:	415a      	adcs	r2, r3
100047b6:	2380      	movs	r3, #128	; 0x80
100047b8:	03db      	lsls	r3, r3, #15
100047ba:	469c      	mov	ip, r3
100047bc:	0592      	lsls	r2, r2, #22
100047be:	4b34      	ldr	r3, [pc, #208]	; (10004890 <uart_init+0xf4>)
100047c0:	4462      	add	r2, ip
100047c2:	601a      	str	r2, [r3, #0]
100047c4:	4b33      	ldr	r3, [pc, #204]	; (10004894 <uart_init+0xf8>)
100047c6:	601a      	str	r2, [r3, #0]
100047c8:	0010      	movs	r0, r2
100047ca:	680b      	ldr	r3, [r1, #0]
100047cc:	4398      	bics	r0, r3
100047ce:	d1fb      	bne.n	100047c8 <uart_init+0x2c>
100047d0:	4b2d      	ldr	r3, [pc, #180]	; (10004888 <uart_init+0xec>)
100047d2:	2180      	movs	r1, #128	; 0x80
100047d4:	18e3      	adds	r3, r4, r3
100047d6:	425a      	negs	r2, r3
100047d8:	4153      	adcs	r3, r2
100047da:	4a2f      	ldr	r2, [pc, #188]	; (10004898 <uart_init+0xfc>)
100047dc:	005b      	lsls	r3, r3, #1
100047de:	0049      	lsls	r1, r1, #1
100047e0:	5299      	strh	r1, [r3, r2]
100047e2:	2006      	movs	r0, #6
100047e4:	f7ff f90a 	bl	100039fc <clock_get_hz>
100047e8:	0029      	movs	r1, r5
100047ea:	00c0      	lsls	r0, r0, #3
100047ec:	f000 f980 	bl	10004af0 <__wrap___aeabi_uidiv>
100047f0:	3001      	adds	r0, #1
100047f2:	09c3      	lsrs	r3, r0, #7
100047f4:	d11e      	bne.n	10004834 <uart_init+0x98>
100047f6:	2740      	movs	r7, #64	; 0x40
100047f8:	2201      	movs	r2, #1
100047fa:	6262      	str	r2, [r4, #36]	; 0x24
100047fc:	62a3      	str	r3, [r4, #40]	; 0x28
100047fe:	6b26      	ldr	r6, [r4, #48]	; 0x30
10004800:	07f3      	lsls	r3, r6, #31
10004802:	d422      	bmi.n	1000484a <uart_init+0xae>
10004804:	6ae3      	ldr	r3, [r4, #44]	; 0x2c
10004806:	4b25      	ldr	r3, [pc, #148]	; (1000489c <uart_init+0x100>)
10004808:	2006      	movs	r0, #6
1000480a:	18e5      	adds	r5, r4, r3
1000480c:	2300      	movs	r3, #0
1000480e:	602b      	str	r3, [r5, #0]
10004810:	6326      	str	r6, [r4, #48]	; 0x30
10004812:	f7ff f8f3 	bl	100039fc <clock_get_hz>
10004816:	0039      	movs	r1, r7
10004818:	0080      	lsls	r0, r0, #2
1000481a:	f000 f969 	bl	10004af0 <__wrap___aeabi_uidiv>
1000481e:	2270      	movs	r2, #112	; 0x70
10004820:	6ae3      	ldr	r3, [r4, #44]	; 0x2c
10004822:	405a      	eors	r2, r3
10004824:	237e      	movs	r3, #126	; 0x7e
10004826:	4013      	ands	r3, r2
10004828:	602b      	str	r3, [r5, #0]
1000482a:	4b1d      	ldr	r3, [pc, #116]	; (100048a0 <uart_init+0x104>)
1000482c:	6323      	str	r3, [r4, #48]	; 0x30
1000482e:	2303      	movs	r3, #3
10004830:	64a3      	str	r3, [r4, #72]	; 0x48
10004832:	bdf8      	pop	{r3, r4, r5, r6, r7, pc}
10004834:	4a1b      	ldr	r2, [pc, #108]	; (100048a4 <uart_init+0x108>)
10004836:	4293      	cmp	r3, r2
10004838:	d91e      	bls.n	10004878 <uart_init+0xdc>
1000483a:	2300      	movs	r3, #0
1000483c:	4a1a      	ldr	r2, [pc, #104]	; (100048a8 <uart_init+0x10c>)
1000483e:	4f1b      	ldr	r7, [pc, #108]	; (100048ac <uart_init+0x110>)
10004840:	6262      	str	r2, [r4, #36]	; 0x24
10004842:	62a3      	str	r3, [r4, #40]	; 0x28
10004844:	6b26      	ldr	r6, [r4, #48]	; 0x30
10004846:	07f3      	lsls	r3, r6, #31
10004848:	d5dc      	bpl.n	10004804 <uart_init+0x68>
1000484a:	4b19      	ldr	r3, [pc, #100]	; (100048b0 <uart_init+0x114>)
1000484c:	4a14      	ldr	r2, [pc, #80]	; (100048a0 <uart_init+0x104>)
1000484e:	18e3      	adds	r3, r4, r3
10004850:	601a      	str	r2, [r3, #0]
10004852:	6a65      	ldr	r5, [r4, #36]	; 0x24
10004854:	6aa2      	ldr	r2, [r4, #40]	; 0x28
10004856:	2006      	movs	r0, #6
10004858:	01ad      	lsls	r5, r5, #6
1000485a:	18ad      	adds	r5, r5, r2
1000485c:	f7ff f8ce 	bl	100039fc <clock_get_hz>
10004860:	4914      	ldr	r1, [pc, #80]	; (100048b4 <uart_init+0x118>)
10004862:	f000 f945 	bl	10004af0 <__wrap___aeabi_uidiv>
10004866:	02ad      	lsls	r5, r5, #10
10004868:	0001      	movs	r1, r0
1000486a:	0028      	movs	r0, r5
1000486c:	f000 f940 	bl	10004af0 <__wrap___aeabi_uidiv>
10004870:	2100      	movs	r1, #0
10004872:	f7ff fe37 	bl	100044e4 <busy_wait_us>
10004876:	e7c5      	b.n	10004804 <uart_init+0x68>
10004878:	0640      	lsls	r0, r0, #25
1000487a:	0e80      	lsrs	r0, r0, #26
1000487c:	019f      	lsls	r7, r3, #6
1000487e:	001a      	movs	r2, r3
10004880:	183f      	adds	r7, r7, r0
10004882:	0003      	movs	r3, r0
10004884:	e7b9      	b.n	100047fa <uart_init+0x5e>
10004886:	46c0      	nop			; (mov r8, r8)
10004888:	bffc8000 	.word	0xbffc8000
1000488c:	4000c008 	.word	0x4000c008
10004890:	4000e000 	.word	0x4000e000
10004894:	4000f000 	.word	0x4000f000
10004898:	20000a08 	.word	0x20000a08
1000489c:	0000102c 	.word	0x0000102c
100048a0:	00000301 	.word	0x00000301
100048a4:	0000fffe 	.word	0x0000fffe
100048a8:	0000ffff 	.word	0x0000ffff
100048ac:	003fffc0 	.word	0x003fffc0
100048b0:	00003030 	.word	0x00003030
100048b4:	00000e4e 	.word	0x00000e4e

100048b8 <first_per_core_initializer>:
100048b8:	4770      	bx	lr
100048ba:	46c0      	nop			; (mov r8, r8)

100048bc <hard_assertion_failure>:
100048bc:	b510      	push	{r4, lr}
100048be:	4801      	ldr	r0, [pc, #4]	; (100048c4 <hard_assertion_failure+0x8>)
100048c0:	f7fb feca 	bl	10000658 <panic>
100048c4:	100077a0 	.word	0x100077a0

100048c8 <runtime_run_initializers>:
100048c8:	b570      	push	{r4, r5, r6, lr}
100048ca:	4d07      	ldr	r5, [pc, #28]	; (100048e8 <runtime_run_initializers+0x20>)
100048cc:	4e07      	ldr	r6, [pc, #28]	; (100048ec <runtime_run_initializers+0x24>)
100048ce:	42b5      	cmp	r5, r6
100048d0:	d209      	bcs.n	100048e6 <runtime_run_initializers+0x1e>
100048d2:	2400      	movs	r4, #0
100048d4:	3e01      	subs	r6, #1
100048d6:	1b76      	subs	r6, r6, r5
100048d8:	08b6      	lsrs	r6, r6, #2
100048da:	cd08      	ldmia	r5!, {r3}
100048dc:	4798      	blx	r3
100048de:	0023      	movs	r3, r4
100048e0:	3401      	adds	r4, #1
100048e2:	42b3      	cmp	r3, r6
100048e4:	d1f9      	bne.n	100048da <runtime_run_initializers+0x12>
100048e6:	bd70      	pop	{r4, r5, r6, pc}
100048e8:	100075d8 	.word	0x100075d8
100048ec:	10007614 	.word	0x10007614

100048f0 <runtime_run_per_core_initializers>:
100048f0:	b570      	push	{r4, r5, r6, lr}
100048f2:	4d07      	ldr	r5, [pc, #28]	; (10004910 <runtime_run_per_core_initializers+0x20>)
100048f4:	4e07      	ldr	r6, [pc, #28]	; (10004914 <runtime_run_per_core_initializers+0x24>)
100048f6:	42b5      	cmp	r5, r6
100048f8:	d209      	bcs.n	1000490e <runtime_run_per_core_initializers+0x1e>
100048fa:	2400      	movs	r4, #0
100048fc:	3e01      	subs	r6, #1
100048fe:	1b76      	subs	r6, r6, r5
10004900:	08b6      	lsrs	r6, r6, #2
10004902:	cd08      	ldmia	r5!, {r3}
10004904:	4798      	blx	r3
10004906:	0023      	movs	r3, r4
10004908:	3401      	adds	r4, #1
1000490a:	42b3      	cmp	r3, r6
1000490c:	d1f9      	bne.n	10004902 <runtime_run_per_core_initializers+0x12>
1000490e:	bd70      	pop	{r4, r5, r6, pc}
10004910:	1000760c 	.word	0x1000760c
10004914:	10007614 	.word	0x10007614

10004918 <runtime_init_early_resets>:
10004918:	4b05      	ldr	r3, [pc, #20]	; (10004930 <runtime_init_early_resets+0x18>)
1000491a:	4a06      	ldr	r2, [pc, #24]	; (10004934 <runtime_init_early_resets+0x1c>)
1000491c:	4906      	ldr	r1, [pc, #24]	; (10004938 <runtime_init_early_resets+0x20>)
1000491e:	601a      	str	r2, [r3, #0]
10004920:	4a06      	ldr	r2, [pc, #24]	; (1000493c <runtime_init_early_resets+0x24>)
10004922:	4b07      	ldr	r3, [pc, #28]	; (10004940 <runtime_init_early_resets+0x28>)
10004924:	601a      	str	r2, [r3, #0]
10004926:	0010      	movs	r0, r2
10004928:	680b      	ldr	r3, [r1, #0]
1000492a:	4398      	bics	r0, r3
1000492c:	d1fb      	bne.n	10004926 <runtime_init_early_resets+0xe>
1000492e:	4770      	bx	lr
10004930:	4000e000 	.word	0x4000e000
10004934:	fefbcdbf 	.word	0xfefbcdbf
10004938:	4000c008 	.word	0x4000c008
1000493c:	003c7ffe 	.word	0x003c7ffe
10004940:	4000f000 	.word	0x4000f000

10004944 <runtime_init_usb_power_down>:
10004944:	4b04      	ldr	r3, [pc, #16]	; (10004958 <runtime_init_usb_power_down+0x14>)
10004946:	6cdb      	ldr	r3, [r3, #76]	; 0x4c
10004948:	2b00      	cmp	r3, #0
1000494a:	d103      	bne.n	10004954 <runtime_init_usb_power_down+0x10>
1000494c:	2280      	movs	r2, #128	; 0x80
1000494e:	4b03      	ldr	r3, [pc, #12]	; (1000495c <runtime_init_usb_power_down+0x18>)
10004950:	02d2      	lsls	r2, r2, #11
10004952:	601a      	str	r2, [r3, #0]
10004954:	4770      	bx	lr
10004956:	46c0      	nop			; (mov r8, r8)
10004958:	50110000 	.word	0x50110000
1000495c:	5011204c 	.word	0x5011204c

10004960 <runtime_init_post_clock_resets>:
10004960:	4a04      	ldr	r2, [pc, #16]	; (10004974 <runtime_init_post_clock_resets+0x14>)
10004962:	4b05      	ldr	r3, [pc, #20]	; (10004978 <runtime_init_post_clock_resets+0x18>)
10004964:	601a      	str	r2, [r3, #0]
10004966:	4a05      	ldr	r2, [pc, #20]	; (1000497c <runtime_init_post_clock_resets+0x1c>)
10004968:	6813      	ldr	r3, [r2, #0]
1000496a:	01db      	lsls	r3, r3, #7
1000496c:	3380      	adds	r3, #128	; 0x80
1000496e:	d1fb      	bne.n	10004968 <runtime_init_post_clock_resets+0x8>
10004970:	4770      	bx	lr
10004972:	46c0      	nop			; (mov r8, r8)
10004974:	01ffffff 	.word	0x01ffffff
10004978:	4000f000 	.word	0x4000f000
1000497c:	4000c008 	.word	0x4000c008

10004980 <runtime_init_rp2040_gpio_ie_disable>:
10004980:	2240      	movs	r2, #64	; 0x40
10004982:	4b03      	ldr	r3, [pc, #12]	; (10004990 <runtime_init_rp2040_gpio_ie_disable+0x10>)
10004984:	679a      	str	r2, [r3, #120]	; 0x78
10004986:	675a      	str	r2, [r3, #116]	; 0x74
10004988:	671a      	str	r2, [r3, #112]	; 0x70
1000498a:	66da      	str	r2, [r3, #108]	; 0x6c
1000498c:	4770      	bx	lr
1000498e:	46c0      	nop			; (mov r8, r8)
10004990:	4001f000 	.word	0x4001f000

10004994 <runtime_init_spin_locks_reset>:
10004994:	b510      	push	{r4, lr}
10004996:	f7ff f871 	bl	10003a7c <spin_locks_reset>
1000499a:	bd10      	pop	{r4, pc}

1000499c <runtime_init_install_ram_vector_table>:
1000499c:	b570      	push	{r4, r5, r6, lr}
1000499e:	4d04      	ldr	r5, [pc, #16]	; (100049b0 <runtime_init_install_ram_vector_table+0x14>)
100049a0:	4c04      	ldr	r4, [pc, #16]	; (100049b4 <runtime_init_install_ram_vector_table+0x18>)
100049a2:	0028      	movs	r0, r5
100049a4:	22c0      	movs	r2, #192	; 0xc0
100049a6:	68a1      	ldr	r1, [r4, #8]
100049a8:	f000 ff1a 	bl	100057e0 <__wrap___aeabi_memcpy>
100049ac:	60a5      	str	r5, [r4, #8]
100049ae:	bd70      	pop	{r4, r5, r6, pc}
100049b0:	20000000 	.word	0x20000000
100049b4:	e000ed00 	.word	0xe000ed00

100049b8 <runtime_init_clocks>:
100049b8:	2300      	movs	r3, #0
100049ba:	b510      	push	{r4, lr}
100049bc:	4c29      	ldr	r4, [pc, #164]	; (10004a64 <runtime_init_clocks+0xac>)
100049be:	b082      	sub	sp, #8
100049c0:	67a3      	str	r3, [r4, #120]	; 0x78
100049c2:	f7ff fe43 	bl	1000464c <xosc_init>
100049c6:	2201      	movs	r2, #1
100049c8:	4b27      	ldr	r3, [pc, #156]	; (10004a68 <runtime_init_clocks+0xb0>)
100049ca:	601a      	str	r2, [r3, #0]
100049cc:	6c63      	ldr	r3, [r4, #68]	; 0x44
100049ce:	2b01      	cmp	r3, #1
100049d0:	d1fc      	bne.n	100049cc <runtime_init_clocks+0x14>
100049d2:	2203      	movs	r2, #3
100049d4:	4b25      	ldr	r3, [pc, #148]	; (10004a6c <runtime_init_clocks+0xb4>)
100049d6:	601a      	str	r2, [r3, #0]
100049d8:	4a22      	ldr	r2, [pc, #136]	; (10004a64 <runtime_init_clocks+0xac>)
100049da:	6b93      	ldr	r3, [r2, #56]	; 0x38
100049dc:	2b01      	cmp	r3, #1
100049de:	d1fc      	bne.n	100049da <runtime_init_clocks+0x22>
100049e0:	3301      	adds	r3, #1
100049e2:	9300      	str	r3, [sp, #0]
100049e4:	2101      	movs	r1, #1
100049e6:	4a22      	ldr	r2, [pc, #136]	; (10004a70 <runtime_init_clocks+0xb8>)
100049e8:	4822      	ldr	r0, [pc, #136]	; (10004a74 <runtime_init_clocks+0xbc>)
100049ea:	3304      	adds	r3, #4
100049ec:	f7ff fda4 	bl	10004538 <pll_init>
100049f0:	2305      	movs	r3, #5
100049f2:	2101      	movs	r1, #1
100049f4:	9300      	str	r3, [sp, #0]
100049f6:	4a20      	ldr	r2, [pc, #128]	; (10004a78 <runtime_init_clocks+0xc0>)
100049f8:	4820      	ldr	r0, [pc, #128]	; (10004a7c <runtime_init_clocks+0xc4>)
100049fa:	f7ff fd9d 	bl	10004538 <pll_init>
100049fe:	2200      	movs	r2, #0
10004a00:	2102      	movs	r1, #2
10004a02:	2004      	movs	r0, #4
10004a04:	4b1e      	ldr	r3, [pc, #120]	; (10004a80 <runtime_init_clocks+0xc8>)
10004a06:	f7fe ff85 	bl	10003914 <clock_configure_undivided>
10004a0a:	2200      	movs	r2, #0
10004a0c:	2101      	movs	r1, #1
10004a0e:	2005      	movs	r0, #5
10004a10:	4b1c      	ldr	r3, [pc, #112]	; (10004a84 <runtime_init_clocks+0xcc>)
10004a12:	f7fe ff7f 	bl	10003914 <clock_configure_undivided>
10004a16:	2200      	movs	r2, #0
10004a18:	2100      	movs	r1, #0
10004a1a:	2007      	movs	r0, #7
10004a1c:	4b1a      	ldr	r3, [pc, #104]	; (10004a88 <runtime_init_clocks+0xd0>)
10004a1e:	f7fe ff79 	bl	10003914 <clock_configure_undivided>
10004a22:	2200      	movs	r2, #0
10004a24:	2100      	movs	r1, #0
10004a26:	2008      	movs	r0, #8
10004a28:	4b17      	ldr	r3, [pc, #92]	; (10004a88 <runtime_init_clocks+0xd0>)
10004a2a:	f7fe ff73 	bl	10003914 <clock_configure_undivided>
10004a2e:	2380      	movs	r3, #128	; 0x80
10004a30:	00db      	lsls	r3, r3, #3
10004a32:	9300      	str	r3, [sp, #0]
10004a34:	2200      	movs	r2, #0
10004a36:	2100      	movs	r1, #0
10004a38:	2009      	movs	r0, #9
10004a3a:	4b13      	ldr	r3, [pc, #76]	; (10004a88 <runtime_init_clocks+0xd0>)
10004a3c:	f7fe fef0 	bl	10003820 <clock_configure_int_divider>
10004a40:	2200      	movs	r2, #0
10004a42:	4b10      	ldr	r3, [pc, #64]	; (10004a84 <runtime_init_clocks+0xcc>)
10004a44:	2100      	movs	r1, #0
10004a46:	2006      	movs	r0, #6
10004a48:	f7fe ff64 	bl	10003914 <clock_configure_undivided>
10004a4c:	2004      	movs	r0, #4
10004a4e:	f7fe ffd5 	bl	100039fc <clock_get_hz>
10004a52:	490e      	ldr	r1, [pc, #56]	; (10004a8c <runtime_init_clocks+0xd4>)
10004a54:	f000 f84c 	bl	10004af0 <__wrap___aeabi_uidiv>
10004a58:	0001      	movs	r1, r0
10004a5a:	2000      	movs	r0, #0
10004a5c:	f7ff fdbc 	bl	100045d8 <tick_start>
10004a60:	b002      	add	sp, #8
10004a62:	bd10      	pop	{r4, pc}
10004a64:	40008000 	.word	0x40008000
10004a68:	4000b03c 	.word	0x4000b03c
10004a6c:	4000b030 	.word	0x4000b030
10004a70:	59682f00 	.word	0x59682f00
10004a74:	40028000 	.word	0x40028000
10004a78:	47868c00 	.word	0x47868c00
10004a7c:	4002c000 	.word	0x4002c000
10004a80:	00b71b00 	.word	0x00b71b00
10004a84:	07735940 	.word	0x07735940
10004a88:	02dc6c00 	.word	0x02dc6c00
10004a8c:	000f4240 	.word	0x000f4240

10004a90 <__aeabi_bits_init>:
10004a90:	4801      	ldr	r0, [pc, #4]	; (10004a98 <__aeabi_bits_init+0x8>)
10004a92:	2104      	movs	r1, #4
10004a94:	4b01      	ldr	r3, [pc, #4]	; (10004a9c <__aeabi_bits_init+0xc>)
10004a96:	4718      	bx	r3
10004a98:	200002a0 	.word	0x200002a0
10004a9c:	10004609 	.word	0x10004609

10004aa0 <__wrap___aeabi_idiv>:
10004aa0:	4a12      	ldr	r2, [pc, #72]	; (10004aec <divmod_s32s32_savestate+0x18>)
10004aa2:	6f93      	ldr	r3, [r2, #120]	; 0x78
10004aa4:	089b      	lsrs	r3, r3, #2
10004aa6:	d215      	bcs.n	10004ad4 <divmod_s32s32_savestate>

10004aa8 <divmod_s32s32_unsafe>:
10004aa8:	6690      	str	r0, [r2, #104]	; 0x68
10004aaa:	66d1      	str	r1, [r2, #108]	; 0x6c
10004aac:	2900      	cmp	r1, #0
10004aae:	d005      	beq.n	10004abc <divmod_s32s32_unsafe+0x14>
10004ab0:	e7ff      	b.n	10004ab2 <divmod_s32s32_unsafe+0xa>
10004ab2:	e7ff      	b.n	10004ab4 <divmod_s32s32_unsafe+0xc>
10004ab4:	e7ff      	b.n	10004ab6 <divmod_s32s32_unsafe+0xe>
10004ab6:	6f51      	ldr	r1, [r2, #116]	; 0x74
10004ab8:	6f10      	ldr	r0, [r2, #112]	; 0x70
10004aba:	4770      	bx	lr
10004abc:	b504      	push	{r2, lr}
10004abe:	2180      	movs	r1, #128	; 0x80
10004ac0:	0609      	lsls	r1, r1, #24
10004ac2:	17c2      	asrs	r2, r0, #31
10004ac4:	4051      	eors	r1, r2
10004ac6:	2800      	cmp	r0, #0
10004ac8:	d000      	beq.n	10004acc <divmod_s32s32_unsafe+0x24>
10004aca:	43c8      	mvns	r0, r1
10004acc:	f002 fd6c 	bl	100075a8 <____aeabi_idiv0_veneer>
10004ad0:	2100      	movs	r1, #0
10004ad2:	bd04      	pop	{r2, pc}

10004ad4 <divmod_s32s32_savestate>:
10004ad4:	b5f0      	push	{r4, r5, r6, r7, lr}
10004ad6:	6e14      	ldr	r4, [r2, #96]	; 0x60
10004ad8:	6e55      	ldr	r5, [r2, #100]	; 0x64
10004ada:	6f57      	ldr	r7, [r2, #116]	; 0x74
10004adc:	6f16      	ldr	r6, [r2, #112]	; 0x70
10004ade:	f7ff ffe3 	bl	10004aa8 <divmod_s32s32_unsafe>
10004ae2:	6614      	str	r4, [r2, #96]	; 0x60
10004ae4:	6655      	str	r5, [r2, #100]	; 0x64
10004ae6:	6757      	str	r7, [r2, #116]	; 0x74
10004ae8:	6716      	str	r6, [r2, #112]	; 0x70
10004aea:	bdf0      	pop	{r4, r5, r6, r7, pc}
10004aec:	d0000000 	.word	0xd0000000

10004af0 <__wrap___aeabi_uidiv>:
10004af0:	4a11      	ldr	r2, [pc, #68]	; (10004b38 <divmod_u32u32_savestate+0x18>)
10004af2:	6f93      	ldr	r3, [r2, #120]	; 0x78
10004af4:	089b      	lsrs	r3, r3, #2
10004af6:	d213      	bcs.n	10004b20 <divmod_u32u32_savestate>

10004af8 <divmod_u32u32_unsafe>:
10004af8:	6610      	str	r0, [r2, #96]	; 0x60
10004afa:	6651      	str	r1, [r2, #100]	; 0x64
10004afc:	2900      	cmp	r1, #0
10004afe:	d005      	beq.n	10004b0c <divmod_u32u32_unsafe+0x14>
10004b00:	e7ff      	b.n	10004b02 <divmod_u32u32_unsafe+0xa>
10004b02:	e7ff      	b.n	10004b04 <divmod_u32u32_unsafe+0xc>
10004b04:	e7ff      	b.n	10004b06 <divmod_u32u32_unsafe+0xe>
10004b06:	6f51      	ldr	r1, [r2, #116]	; 0x74
10004b08:	6f10      	ldr	r0, [r2, #112]	; 0x70
10004b0a:	4770      	bx	lr
10004b0c:	b504      	push	{r2, lr}
10004b0e:	2800      	cmp	r0, #0
10004b10:	d001      	beq.n	10004b16 <divmod_u32u32_unsafe+0x1e>
10004b12:	2000      	movs	r0, #0
10004b14:	43c0      	mvns	r0, r0
10004b16:	f002 fd47 	bl	100075a8 <____aeabi_idiv0_veneer>
10004b1a:	2100      	movs	r1, #0
10004b1c:	bd04      	pop	{r2, pc}
10004b1e:	46c0      	nop			; (mov r8, r8)

10004b20 <divmod_u32u32_savestate>:
10004b20:	b5f0      	push	{r4, r5, r6, r7, lr}
10004b22:	6e14      	ldr	r4, [r2, #96]	; 0x60
10004b24:	6e55      	ldr	r5, [r2, #100]	; 0x64
10004b26:	6f57      	ldr	r7, [r2, #116]	; 0x74
10004b28:	6f16      	ldr	r6, [r2, #112]	; 0x70
10004b2a:	f7ff ffe5 	bl	10004af8 <divmod_u32u32_unsafe>
10004b2e:	6614      	str	r4, [r2, #96]	; 0x60
10004b30:	6655      	str	r5, [r2, #100]	; 0x64
10004b32:	6757      	str	r7, [r2, #116]	; 0x74
10004b34:	6716      	str	r6, [r2, #112]	; 0x70
10004b36:	bdf0      	pop	{r4, r5, r6, r7, pc}
10004b38:	d0000000 	.word	0xd0000000

10004b3c <__wrap___aeabi_ldivmod>:
10004b3c:	4694      	mov	ip, r2
10004b3e:	4a4a      	ldr	r2, [pc, #296]	; (10004c68 <udiv0+0x1a>)
10004b40:	6f92      	ldr	r2, [r2, #120]	; 0x78
10004b42:	0892      	lsrs	r2, r2, #2
10004b44:	4662      	mov	r2, ip
10004b46:	d201      	bcs.n	10004b4c <divmod_s64s64_savestate>
10004b48:	e028      	b.n	10004b9c <divmod_s64s64_unsafe>
10004b4a:	46c0      	nop			; (mov r8, r8)

10004b4c <divmod_s64s64_savestate>:
10004b4c:	b5f0      	push	{r4, r5, r6, r7, lr}
10004b4e:	4e46      	ldr	r6, [pc, #280]	; (10004c68 <udiv0+0x1a>)
10004b50:	6e34      	ldr	r4, [r6, #96]	; 0x60
10004b52:	6e75      	ldr	r5, [r6, #100]	; 0x64
10004b54:	6f77      	ldr	r7, [r6, #116]	; 0x74
10004b56:	6f36      	ldr	r6, [r6, #112]	; 0x70
10004b58:	f000 f820 	bl	10004b9c <divmod_s64s64_unsafe>
10004b5c:	4694      	mov	ip, r2
10004b5e:	4a42      	ldr	r2, [pc, #264]	; (10004c68 <udiv0+0x1a>)
10004b60:	6614      	str	r4, [r2, #96]	; 0x60
10004b62:	6655      	str	r5, [r2, #100]	; 0x64
10004b64:	6757      	str	r7, [r2, #116]	; 0x74
10004b66:	6716      	str	r6, [r2, #112]	; 0x70
10004b68:	4662      	mov	r2, ip
10004b6a:	bdf0      	pop	{r4, r5, r6, r7, pc}

10004b6c <__wrap___aeabi_uldivmod>:
10004b6c:	4694      	mov	ip, r2
10004b6e:	4a3e      	ldr	r2, [pc, #248]	; (10004c68 <udiv0+0x1a>)
10004b70:	6f92      	ldr	r2, [r2, #120]	; 0x78
10004b72:	0892      	lsrs	r2, r2, #2
10004b74:	4662      	mov	r2, ip
10004b76:	d201      	bcs.n	10004b7c <divmod_u64u64_savestate>
10004b78:	e054      	b.n	10004c24 <divmod_u64u64_unsafe>
10004b7a:	46c0      	nop			; (mov r8, r8)

10004b7c <divmod_u64u64_savestate>:
10004b7c:	b5f0      	push	{r4, r5, r6, r7, lr}
10004b7e:	4e3a      	ldr	r6, [pc, #232]	; (10004c68 <udiv0+0x1a>)
10004b80:	6e34      	ldr	r4, [r6, #96]	; 0x60
10004b82:	6e75      	ldr	r5, [r6, #100]	; 0x64
10004b84:	6f77      	ldr	r7, [r6, #116]	; 0x74
10004b86:	6f36      	ldr	r6, [r6, #112]	; 0x70
10004b88:	f000 f84c 	bl	10004c24 <divmod_u64u64_unsafe>
10004b8c:	4694      	mov	ip, r2
10004b8e:	4a36      	ldr	r2, [pc, #216]	; (10004c68 <udiv0+0x1a>)
10004b90:	6614      	str	r4, [r2, #96]	; 0x60
10004b92:	6655      	str	r5, [r2, #100]	; 0x64
10004b94:	6757      	str	r7, [r2, #116]	; 0x74
10004b96:	6716      	str	r6, [r2, #112]	; 0x70
10004b98:	4662      	mov	r2, ip
10004b9a:	bdf0      	pop	{r4, r5, r6, r7, pc}

10004b9c <divmod_s64s64_unsafe>:
10004b9c:	2b00      	cmp	r3, #0
10004b9e:	db24      	blt.n	10004bea <l42_1+0x26>
10004ba0:	d011      	beq.n	10004bc6 <l42_1+0x2>
10004ba2:	2900      	cmp	r1, #0
10004ba4:	da3e      	bge.n	10004c24 <divmod_u64u64_unsafe>
10004ba6:	b500      	push	{lr}
10004ba8:	43c9      	mvns	r1, r1
10004baa:	4240      	negs	r0, r0
10004bac:	d100      	bne.n	10004bb0 <l40_1>
10004bae:	3101      	adds	r1, #1

10004bb0 <l40_1>:
10004bb0:	f000 f838 	bl	10004c24 <divmod_u64u64_unsafe>
10004bb4:	43c9      	mvns	r1, r1
10004bb6:	4240      	negs	r0, r0
10004bb8:	d100      	bne.n	10004bbc <l41_1>
10004bba:	3101      	adds	r1, #1

10004bbc <l41_1>:
10004bbc:	43db      	mvns	r3, r3
10004bbe:	4252      	negs	r2, r2
10004bc0:	d100      	bne.n	10004bc4 <l42_1>
10004bc2:	3301      	adds	r3, #1

10004bc4 <l42_1>:
10004bc4:	bd00      	pop	{pc}
10004bc6:	2a00      	cmp	r2, #0
10004bc8:	d1eb      	bne.n	10004ba2 <divmod_s64s64_unsafe+0x6>
10004bca:	2800      	cmp	r0, #0
10004bcc:	d101      	bne.n	10004bd2 <l42_1+0xe>
10004bce:	2900      	cmp	r1, #0
10004bd0:	d005      	beq.n	10004bde <l42_1+0x1a>
10004bd2:	2000      	movs	r0, #0
10004bd4:	0fc9      	lsrs	r1, r1, #31
10004bd6:	07c9      	lsls	r1, r1, #31
10004bd8:	d101      	bne.n	10004bde <l42_1+0x1a>
10004bda:	43c0      	mvns	r0, r0
10004bdc:	0841      	lsrs	r1, r0, #1
10004bde:	b500      	push	{lr}
10004be0:	f002 fcda 	bl	10007598 <____aeabi_ldiv0_veneer>
10004be4:	2200      	movs	r2, #0
10004be6:	2300      	movs	r3, #0
10004be8:	bd00      	pop	{pc}
10004bea:	b500      	push	{lr}
10004bec:	2900      	cmp	r1, #0
10004bee:	db0a      	blt.n	10004c06 <l44_1+0x2>
10004bf0:	43db      	mvns	r3, r3
10004bf2:	4252      	negs	r2, r2
10004bf4:	d100      	bne.n	10004bf8 <l43_1>
10004bf6:	3301      	adds	r3, #1

10004bf8 <l43_1>:
10004bf8:	f000 f814 	bl	10004c24 <divmod_u64u64_unsafe>
10004bfc:	43c9      	mvns	r1, r1
10004bfe:	4240      	negs	r0, r0
10004c00:	d100      	bne.n	10004c04 <l44_1>
10004c02:	3101      	adds	r1, #1

10004c04 <l44_1>:
10004c04:	bd00      	pop	{pc}
10004c06:	43c9      	mvns	r1, r1
10004c08:	4240      	negs	r0, r0
10004c0a:	d100      	bne.n	10004c0e <l45_1>
10004c0c:	3101      	adds	r1, #1

10004c0e <l45_1>:
10004c0e:	43db      	mvns	r3, r3
10004c10:	4252      	negs	r2, r2
10004c12:	d100      	bne.n	10004c16 <l46_1>
10004c14:	3301      	adds	r3, #1

10004c16 <l46_1>:
10004c16:	f000 f805 	bl	10004c24 <divmod_u64u64_unsafe>
10004c1a:	43db      	mvns	r3, r3
10004c1c:	4252      	negs	r2, r2
10004c1e:	d100      	bne.n	10004c22 <l47_1>
10004c20:	3301      	adds	r3, #1

10004c22 <l47_1>:
10004c22:	bd00      	pop	{pc}

10004c24 <divmod_u64u64_unsafe>:
10004c24:	2900      	cmp	r1, #0
10004c26:	d123      	bne.n	10004c70 <y64>
10004c28:	2b00      	cmp	r3, #0
10004c2a:	d118      	bne.n	10004c5e <udiv0+0x10>
10004c2c:	2a00      	cmp	r2, #0
10004c2e:	d00c      	beq.n	10004c4a <divmod_u64u64_unsafe+0x26>
10004c30:	46bc      	mov	ip, r7
10004c32:	4f0d      	ldr	r7, [pc, #52]	; (10004c68 <udiv0+0x1a>)
10004c34:	6638      	str	r0, [r7, #96]	; 0x60
10004c36:	667a      	str	r2, [r7, #100]	; 0x64
10004c38:	2100      	movs	r1, #0
10004c3a:	2300      	movs	r3, #0
10004c3c:	e7ff      	b.n	10004c3e <divmod_u64u64_unsafe+0x1a>
10004c3e:	e7ff      	b.n	10004c40 <divmod_u64u64_unsafe+0x1c>
10004c40:	e7ff      	b.n	10004c42 <divmod_u64u64_unsafe+0x1e>
10004c42:	6f7a      	ldr	r2, [r7, #116]	; 0x74
10004c44:	6f38      	ldr	r0, [r7, #112]	; 0x70
10004c46:	4667      	mov	r7, ip
10004c48:	4770      	bx	lr
10004c4a:	2800      	cmp	r0, #0
10004c4c:	d001      	beq.n	10004c52 <udiv0+0x4>

10004c4e <udiv0>:
10004c4e:	4807      	ldr	r0, [pc, #28]	; (10004c6c <udiv0+0x1e>)
10004c50:	0001      	movs	r1, r0
10004c52:	b500      	push	{lr}
10004c54:	f002 fca0 	bl	10007598 <____aeabi_ldiv0_veneer>
10004c58:	2200      	movs	r2, #0
10004c5a:	2300      	movs	r3, #0
10004c5c:	bd00      	pop	{pc}
10004c5e:	0002      	movs	r2, r0
10004c60:	000b      	movs	r3, r1
10004c62:	2000      	movs	r0, #0
10004c64:	2100      	movs	r1, #0
10004c66:	4770      	bx	lr
10004c68:	d0000000 	.word	0xd0000000
10004c6c:	ffffffff 	.word	0xffffffff

10004c70 <y64>:
10004c70:	2b00      	cmp	r3, #0
10004c72:	d000      	beq.n	10004c76 <y64+0x6>
10004c74:	e0bf      	b.n	10004df6 <y64_x48>
10004c76:	0c13      	lsrs	r3, r2, #16
10004c78:	d128      	bne.n	10004ccc <y64_x32>
10004c7a:	2a00      	cmp	r2, #0
10004c7c:	d0e7      	beq.n	10004c4e <udiv0>
10004c7e:	b480      	push	{r7}
10004c80:	4f11      	ldr	r7, [pc, #68]	; (10004cc8 <y64+0x58>)
10004c82:	6639      	str	r1, [r7, #96]	; 0x60
10004c84:	667a      	str	r2, [r7, #100]	; 0x64
10004c86:	e7ff      	b.n	10004c88 <y64+0x18>
10004c88:	e7ff      	b.n	10004c8a <y64+0x1a>
10004c8a:	b430      	push	{r4, r5}
10004c8c:	0c04      	lsrs	r4, r0, #16
10004c8e:	6f7b      	ldr	r3, [r7, #116]	; 0x74
10004c90:	6f39      	ldr	r1, [r7, #112]	; 0x70
10004c92:	041b      	lsls	r3, r3, #16
10004c94:	4323      	orrs	r3, r4
10004c96:	663b      	str	r3, [r7, #96]	; 0x60
10004c98:	667a      	str	r2, [r7, #100]	; 0x64
10004c9a:	e7ff      	b.n	10004c9c <y64+0x2c>
10004c9c:	e7ff      	b.n	10004c9e <y64+0x2e>
10004c9e:	e7ff      	b.n	10004ca0 <y64+0x30>
10004ca0:	46c0      	nop			; (mov r8, r8)
10004ca2:	b284      	uxth	r4, r0
10004ca4:	6f7b      	ldr	r3, [r7, #116]	; 0x74
10004ca6:	6f3d      	ldr	r5, [r7, #112]	; 0x70
10004ca8:	041b      	lsls	r3, r3, #16
10004caa:	4323      	orrs	r3, r4
10004cac:	663b      	str	r3, [r7, #96]	; 0x60
10004cae:	667a      	str	r2, [r7, #100]	; 0x64
10004cb0:	e7ff      	b.n	10004cb2 <y64+0x42>
10004cb2:	e7ff      	b.n	10004cb4 <y64+0x44>
10004cb4:	46c0      	nop			; (mov r8, r8)
10004cb6:	2300      	movs	r3, #0
10004cb8:	042c      	lsls	r4, r5, #16
10004cba:	0c2d      	lsrs	r5, r5, #16
10004cbc:	6f7a      	ldr	r2, [r7, #116]	; 0x74
10004cbe:	6f38      	ldr	r0, [r7, #112]	; 0x70
10004cc0:	1900      	adds	r0, r0, r4
10004cc2:	4169      	adcs	r1, r5
10004cc4:	bcb0      	pop	{r4, r5, r7}
10004cc6:	4770      	bx	lr
10004cc8:	d0000000 	.word	0xd0000000

10004ccc <y64_x32>:
10004ccc:	b5f0      	push	{r4, r5, r6, r7, lr}
10004cce:	4694      	mov	ip, r2
10004cd0:	2500      	movs	r5, #0
10004cd2:	0e14      	lsrs	r4, r2, #24
10004cd4:	d101      	bne.n	10004cda <y64_x32+0xe>
10004cd6:	0212      	lsls	r2, r2, #8
10004cd8:	3508      	adds	r5, #8
10004cda:	0f14      	lsrs	r4, r2, #28
10004cdc:	d101      	bne.n	10004ce2 <y64_x32+0x16>
10004cde:	0112      	lsls	r2, r2, #4
10004ce0:	3504      	adds	r5, #4
10004ce2:	0f94      	lsrs	r4, r2, #30
10004ce4:	d101      	bne.n	10004cea <y64_x32+0x1e>
10004ce6:	0092      	lsls	r2, r2, #2
10004ce8:	3502      	adds	r5, #2
10004cea:	0fd4      	lsrs	r4, r2, #31
10004cec:	d101      	bne.n	10004cf2 <y64_x32+0x26>
10004cee:	0052      	lsls	r2, r2, #1
10004cf0:	3501      	adds	r5, #1
10004cf2:	0bd4      	lsrs	r4, r2, #15
10004cf4:	3401      	adds	r4, #1
10004cf6:	4f25      	ldr	r7, [pc, #148]	; (10004d8c <y64_x32+0xc0>)
10004cf8:	667c      	str	r4, [r7, #100]	; 0x64
10004cfa:	4c25      	ldr	r4, [pc, #148]	; (10004d90 <y64_x32+0xc4>)
10004cfc:	663c      	str	r4, [r7, #96]	; 0x60
10004cfe:	0c0e      	lsrs	r6, r1, #16
10004d00:	b293      	uxth	r3, r2
10004d02:	e7ff      	b.n	10004d04 <y64_x32+0x38>
10004d04:	e7ff      	b.n	10004d06 <y64_x32+0x3a>
10004d06:	e7ff      	b.n	10004d08 <y64_x32+0x3c>
10004d08:	6f3c      	ldr	r4, [r7, #112]	; 0x70
10004d0a:	4366      	muls	r6, r4
10004d0c:	0c36      	lsrs	r6, r6, #16
10004d0e:	0377      	lsls	r7, r6, #13
10004d10:	46be      	mov	lr, r7
10004d12:	4373      	muls	r3, r6
10004d14:	0bdf      	lsrs	r7, r3, #15
10004d16:	045b      	lsls	r3, r3, #17
10004d18:	1ac0      	subs	r0, r0, r3
10004d1a:	41b9      	sbcs	r1, r7
10004d1c:	0c13      	lsrs	r3, r2, #16
10004d1e:	4373      	muls	r3, r6
10004d20:	18db      	adds	r3, r3, r3
10004d22:	1ac9      	subs	r1, r1, r3
10004d24:	08ce      	lsrs	r6, r1, #3
10004d26:	4366      	muls	r6, r4
10004d28:	0c36      	lsrs	r6, r6, #16
10004d2a:	44b6      	add	lr, r6
10004d2c:	b293      	uxth	r3, r2
10004d2e:	4373      	muls	r3, r6
10004d30:	0f1f      	lsrs	r7, r3, #28
10004d32:	011b      	lsls	r3, r3, #4
10004d34:	1ac0      	subs	r0, r0, r3
10004d36:	41b9      	sbcs	r1, r7
10004d38:	0c13      	lsrs	r3, r2, #16
10004d3a:	4373      	muls	r3, r6
10004d3c:	0b1f      	lsrs	r7, r3, #12
10004d3e:	051b      	lsls	r3, r3, #20
10004d40:	1ac0      	subs	r0, r0, r3
10004d42:	41b9      	sbcs	r1, r7
10004d44:	0d86      	lsrs	r6, r0, #22
10004d46:	028f      	lsls	r7, r1, #10
10004d48:	433e      	orrs	r6, r7
10004d4a:	4366      	muls	r6, r4
10004d4c:	0c36      	lsrs	r6, r6, #16
10004d4e:	2d09      	cmp	r5, #9
10004d50:	db24      	blt.n	10004d9c <last0>
10004d52:	0a52      	lsrs	r2, r2, #9
10004d54:	4372      	muls	r2, r6
10004d56:	1a80      	subs	r0, r0, r2
10004d58:	0377      	lsls	r7, r6, #13
10004d5a:	0a46      	lsrs	r6, r0, #9
10004d5c:	4366      	muls	r6, r4
10004d5e:	0c36      	lsrs	r6, r6, #16
10004d60:	2316      	movs	r3, #22
10004d62:	1b5b      	subs	r3, r3, r5
10004d64:	40de      	lsrs	r6, r3
10004d66:	40df      	lsrs	r7, r3
10004d68:	19bf      	adds	r7, r7, r6
10004d6a:	4664      	mov	r4, ip
10004d6c:	4366      	muls	r6, r4
10004d6e:	1b82      	subs	r2, r0, r6
10004d70:	4670      	mov	r0, lr
10004d72:	3504      	adds	r5, #4
10004d74:	3306      	adds	r3, #6
10004d76:	0001      	movs	r1, r0
10004d78:	40d9      	lsrs	r1, r3
10004d7a:	40a8      	lsls	r0, r5
10004d7c:	19c0      	adds	r0, r0, r7
10004d7e:	d300      	bcc.n	10004d82 <y64_x32+0xb6>
10004d80:	3101      	adds	r1, #1
10004d82:	42a2      	cmp	r2, r4
10004d84:	d206      	bcs.n	10004d94 <y64_x32+0xc8>
10004d86:	2300      	movs	r3, #0
10004d88:	bdf0      	pop	{r4, r5, r6, r7, pc}
10004d8a:	0000      	.short	0x0000
10004d8c:	d0000000 	.word	0xd0000000
10004d90:	ffffffff 	.word	0xffffffff
10004d94:	1b12      	subs	r2, r2, r4
10004d96:	3001      	adds	r0, #1
10004d98:	d3f3      	bcc.n	10004d82 <y64_x32+0xb6>
10004d9a:	e7f1      	b.n	10004d80 <y64_x32+0xb4>

10004d9c <last0>:
10004d9c:	2709      	movs	r7, #9
10004d9e:	1b7f      	subs	r7, r7, r5
10004da0:	40fe      	lsrs	r6, r7
10004da2:	4664      	mov	r4, ip
10004da4:	b2a2      	uxth	r2, r4
10004da6:	4372      	muls	r2, r6
10004da8:	1a80      	subs	r0, r0, r2
10004daa:	d200      	bcs.n	10004dae <last0+0x12>
10004dac:	3901      	subs	r1, #1
10004dae:	0c22      	lsrs	r2, r4, #16
10004db0:	4372      	muls	r2, r6
10004db2:	0c13      	lsrs	r3, r2, #16
10004db4:	0412      	lsls	r2, r2, #16
10004db6:	1a82      	subs	r2, r0, r2
10004db8:	4199      	sbcs	r1, r3
10004dba:	000b      	movs	r3, r1
10004dbc:	4670      	mov	r0, lr
10004dbe:	3504      	adds	r5, #4
10004dc0:	3713      	adds	r7, #19
10004dc2:	0001      	movs	r1, r0
10004dc4:	40f9      	lsrs	r1, r7
10004dc6:	40a8      	lsls	r0, r5
10004dc8:	1980      	adds	r0, r0, r6
10004dca:	d300      	bcc.n	10004dce <last0+0x32>
10004dcc:	3101      	adds	r1, #1
10004dce:	2b00      	cmp	r3, #0
10004dd0:	d102      	bne.n	10004dd8 <last0+0x3c>
10004dd2:	42a2      	cmp	r2, r4
10004dd4:	d20a      	bcs.n	10004dec <last0+0x50>
10004dd6:	bdf0      	pop	{r4, r5, r6, r7, pc}
10004dd8:	3001      	adds	r0, #1
10004dda:	d300      	bcc.n	10004dde <last0+0x42>
10004ddc:	3101      	adds	r1, #1
10004dde:	1b12      	subs	r2, r2, r4
10004de0:	d2fa      	bcs.n	10004dd8 <last0+0x3c>
10004de2:	3b01      	subs	r3, #1
10004de4:	d1f8      	bne.n	10004dd8 <last0+0x3c>
10004de6:	42a2      	cmp	r2, r4
10004de8:	d200      	bcs.n	10004dec <last0+0x50>
10004dea:	bdf0      	pop	{r4, r5, r6, r7, pc}
10004dec:	3001      	adds	r0, #1
10004dee:	d300      	bcc.n	10004df2 <last0+0x56>
10004df0:	3101      	adds	r1, #1
10004df2:	1b12      	subs	r2, r2, r4
10004df4:	e7f7      	b.n	10004de6 <last0+0x4a>

10004df6 <y64_x48>:
10004df6:	b5f0      	push	{r4, r5, r6, r7, lr}
10004df8:	0c1c      	lsrs	r4, r3, #16
10004dfa:	d000      	beq.n	10004dfe <y64_x48+0x8>
10004dfc:	e080      	b.n	10004f00 <y64_x64>
10004dfe:	b40c      	push	{r2, r3}
10004e00:	2500      	movs	r5, #0
10004e02:	0a1c      	lsrs	r4, r3, #8
10004e04:	d104      	bne.n	10004e10 <y64_x48+0x1a>
10004e06:	021b      	lsls	r3, r3, #8
10004e08:	0e16      	lsrs	r6, r2, #24
10004e0a:	4333      	orrs	r3, r6
10004e0c:	0212      	lsls	r2, r2, #8
10004e0e:	3508      	adds	r5, #8
10004e10:	0b1c      	lsrs	r4, r3, #12
10004e12:	d104      	bne.n	10004e1e <y64_x48+0x28>
10004e14:	011b      	lsls	r3, r3, #4
10004e16:	0f16      	lsrs	r6, r2, #28
10004e18:	4333      	orrs	r3, r6
10004e1a:	0112      	lsls	r2, r2, #4
10004e1c:	3504      	adds	r5, #4
10004e1e:	0b9c      	lsrs	r4, r3, #14
10004e20:	d104      	bne.n	10004e2c <y64_x48+0x36>
10004e22:	009b      	lsls	r3, r3, #2
10004e24:	0f96      	lsrs	r6, r2, #30
10004e26:	4333      	orrs	r3, r6
10004e28:	0092      	lsls	r2, r2, #2
10004e2a:	3502      	adds	r5, #2
10004e2c:	0bdc      	lsrs	r4, r3, #15
10004e2e:	d102      	bne.n	10004e36 <y64_x48+0x40>
10004e30:	1892      	adds	r2, r2, r2
10004e32:	415b      	adcs	r3, r3
10004e34:	3501      	adds	r5, #1
10004e36:	001c      	movs	r4, r3
10004e38:	1897      	adds	r7, r2, r2
10004e3a:	4164      	adcs	r4, r4
10004e3c:	3401      	adds	r4, #1
10004e3e:	4f46      	ldr	r7, [pc, #280]	; (10004f58 <y64_x64+0x58>)
10004e40:	667c      	str	r4, [r7, #100]	; 0x64
10004e42:	4c46      	ldr	r4, [pc, #280]	; (10004f5c <y64_x64+0x5c>)
10004e44:	663c      	str	r4, [r7, #96]	; 0x60
10004e46:	0c0e      	lsrs	r6, r1, #16
10004e48:	e7ff      	b.n	10004e4a <y64_x48+0x54>
10004e4a:	e7ff      	b.n	10004e4c <y64_x48+0x56>
10004e4c:	e7ff      	b.n	10004e4e <y64_x48+0x58>
10004e4e:	46c0      	nop			; (mov r8, r8)
10004e50:	6f3c      	ldr	r4, [r7, #112]	; 0x70
10004e52:	4366      	muls	r6, r4
10004e54:	0c36      	lsrs	r6, r6, #16
10004e56:	0377      	lsls	r7, r6, #13
10004e58:	46be      	mov	lr, r7
10004e5a:	b297      	uxth	r7, r2
10004e5c:	4377      	muls	r7, r6
10004e5e:	1bc0      	subs	r0, r0, r7
10004e60:	d200      	bcs.n	10004e64 <y64_x48+0x6e>
10004e62:	3901      	subs	r1, #1
10004e64:	1bc0      	subs	r0, r0, r7
10004e66:	d200      	bcs.n	10004e6a <y64_x48+0x74>
10004e68:	3901      	subs	r1, #1
10004e6a:	b29f      	uxth	r7, r3
10004e6c:	4377      	muls	r7, r6
10004e6e:	1bc9      	subs	r1, r1, r7
10004e70:	1bc9      	subs	r1, r1, r7
10004e72:	0c17      	lsrs	r7, r2, #16
10004e74:	4377      	muls	r7, r6
10004e76:	047e      	lsls	r6, r7, #17
10004e78:	0bff      	lsrs	r7, r7, #15
10004e7a:	1b80      	subs	r0, r0, r6
10004e7c:	41b9      	sbcs	r1, r7
10004e7e:	08ce      	lsrs	r6, r1, #3
10004e80:	4366      	muls	r6, r4
10004e82:	0c36      	lsrs	r6, r6, #16
10004e84:	2d0c      	cmp	r5, #12
10004e86:	db33      	blt.n	10004ef0 <last1>
10004e88:	44b6      	add	lr, r6
10004e8a:	0b12      	lsrs	r2, r2, #12
10004e8c:	051f      	lsls	r7, r3, #20
10004e8e:	433a      	orrs	r2, r7
10004e90:	0b1b      	lsrs	r3, r3, #12
10004e92:	b297      	uxth	r7, r2
10004e94:	4377      	muls	r7, r6
10004e96:	1bc0      	subs	r0, r0, r7
10004e98:	d200      	bcs.n	10004e9c <y64_x48+0xa6>
10004e9a:	3901      	subs	r1, #1
10004e9c:	b29f      	uxth	r7, r3
10004e9e:	4377      	muls	r7, r6
10004ea0:	1bc9      	subs	r1, r1, r7
10004ea2:	0c17      	lsrs	r7, r2, #16
10004ea4:	4377      	muls	r7, r6
10004ea6:	043e      	lsls	r6, r7, #16
10004ea8:	0c3f      	lsrs	r7, r7, #16
10004eaa:	1b80      	subs	r0, r0, r6
10004eac:	41b9      	sbcs	r1, r7
10004eae:	0d86      	lsrs	r6, r0, #22
10004eb0:	028f      	lsls	r7, r1, #10
10004eb2:	433e      	orrs	r6, r7
10004eb4:	4366      	muls	r6, r4
10004eb6:	2729      	movs	r7, #41	; 0x29
10004eb8:	1b7f      	subs	r7, r7, r5
10004eba:	40fe      	lsrs	r6, r7
10004ebc:	3d0c      	subs	r5, #12
10004ebe:	4677      	mov	r7, lr
10004ec0:	40af      	lsls	r7, r5
10004ec2:	19bf      	adds	r7, r7, r6
10004ec4:	bc30      	pop	{r4, r5}
10004ec6:	b2a2      	uxth	r2, r4
10004ec8:	b2ab      	uxth	r3, r5
10004eca:	4372      	muls	r2, r6
10004ecc:	4373      	muls	r3, r6
10004ece:	1a80      	subs	r0, r0, r2
10004ed0:	4199      	sbcs	r1, r3
10004ed2:	0c22      	lsrs	r2, r4, #16
10004ed4:	4372      	muls	r2, r6
10004ed6:	0c13      	lsrs	r3, r2, #16
10004ed8:	0412      	lsls	r2, r2, #16
10004eda:	1a80      	subs	r0, r0, r2
10004edc:	4199      	sbcs	r1, r3
10004ede:	0002      	movs	r2, r0
10004ee0:	000b      	movs	r3, r1
10004ee2:	3701      	adds	r7, #1
10004ee4:	1b00      	subs	r0, r0, r4
10004ee6:	41a9      	sbcs	r1, r5
10004ee8:	d2f9      	bcs.n	10004ede <y64_x48+0xe8>
10004eea:	1e78      	subs	r0, r7, #1
10004eec:	2100      	movs	r1, #0
10004eee:	bdf0      	pop	{r4, r5, r6, r7, pc}

10004ef0 <last1>:
10004ef0:	270c      	movs	r7, #12
10004ef2:	1b7f      	subs	r7, r7, r5
10004ef4:	40fe      	lsrs	r6, r7
10004ef6:	4677      	mov	r7, lr
10004ef8:	0b7f      	lsrs	r7, r7, #13
10004efa:	40af      	lsls	r7, r5
10004efc:	19ff      	adds	r7, r7, r7
10004efe:	e7e0      	b.n	10004ec2 <y64_x48+0xcc>

10004f00 <y64_x64>:
10004f00:	2400      	movs	r4, #0
10004f02:	1c5d      	adds	r5, r3, #1
10004f04:	d007      	beq.n	10004f16 <y64_x64+0x16>
10004f06:	4f14      	ldr	r7, [pc, #80]	; (10004f58 <y64_x64+0x58>)
10004f08:	667d      	str	r5, [r7, #100]	; 0x64
10004f0a:	6639      	str	r1, [r7, #96]	; 0x60
10004f0c:	e7ff      	b.n	10004f0e <y64_x64+0xe>
10004f0e:	e7ff      	b.n	10004f10 <y64_x64+0x10>
10004f10:	e7ff      	b.n	10004f12 <y64_x64+0x12>
10004f12:	e7ff      	b.n	10004f14 <y64_x64+0x14>
10004f14:	6f3c      	ldr	r4, [r7, #112]	; 0x70
10004f16:	b295      	uxth	r5, r2
10004f18:	b29e      	uxth	r6, r3
10004f1a:	4365      	muls	r5, r4
10004f1c:	4366      	muls	r6, r4
10004f1e:	1b40      	subs	r0, r0, r5
10004f20:	41b1      	sbcs	r1, r6
10004f22:	0c15      	lsrs	r5, r2, #16
10004f24:	0c1e      	lsrs	r6, r3, #16
10004f26:	4365      	muls	r5, r4
10004f28:	4366      	muls	r6, r4
10004f2a:	0436      	lsls	r6, r6, #16
10004f2c:	0c2f      	lsrs	r7, r5, #16
10004f2e:	433e      	orrs	r6, r7
10004f30:	042d      	lsls	r5, r5, #16
10004f32:	1b40      	subs	r0, r0, r5
10004f34:	41b1      	sbcs	r1, r6
10004f36:	4299      	cmp	r1, r3
10004f38:	d204      	bcs.n	10004f44 <y64_x64+0x44>
10004f3a:	0002      	movs	r2, r0
10004f3c:	000b      	movs	r3, r1
10004f3e:	0020      	movs	r0, r4
10004f40:	2100      	movs	r1, #0
10004f42:	bdf0      	pop	{r4, r5, r6, r7, pc}
10004f44:	d101      	bne.n	10004f4a <y64_x64+0x4a>
10004f46:	4290      	cmp	r0, r2
10004f48:	d3f7      	bcc.n	10004f3a <y64_x64+0x3a>
10004f4a:	1a80      	subs	r0, r0, r2
10004f4c:	4199      	sbcs	r1, r3
10004f4e:	3401      	adds	r4, #1
10004f50:	4299      	cmp	r1, r3
10004f52:	d3f2      	bcc.n	10004f3a <y64_x64+0x3a>
10004f54:	e7f6      	b.n	10004f44 <y64_x64+0x44>
10004f56:	0000      	.short	0x0000
10004f58:	d0000000 	.word	0xd0000000
10004f5c:	ffffffff 	.word	0xffffffff

10004f60 <__wrap___aeabi_drsub>:
10004f60:	4048      	eors	r0, r1
10004f62:	4041      	eors	r1, r0
10004f64:	4048      	eors	r0, r1

10004f66 <__wrap___aeabi_dsub>:
10004f66:	b418      	push	{r3, r4}
10004f68:	4b1b      	ldr	r3, [pc, #108]	; (10004fd8 <__wrap___aeabi_dmul+0x12>)
10004f6a:	685b      	ldr	r3, [r3, #4]
10004f6c:	46fc      	mov	ip, pc
10004f6e:	9301      	str	r3, [sp, #4]
10004f70:	bd08      	pop	{r3, pc}
10004f72:	df04      	.short	0xdf04
10004f74:	10005207 	.word	0x10005207

10004f78 <__wrap___aeabi_dadd>:
10004f78:	b418      	push	{r3, r4}
10004f7a:	4b17      	ldr	r3, [pc, #92]	; (10004fd8 <__wrap___aeabi_dmul+0x12>)
10004f7c:	681b      	ldr	r3, [r3, #0]
10004f7e:	46fc      	mov	ip, pc
10004f80:	9301      	str	r3, [sp, #4]
10004f82:	bd08      	pop	{r3, pc}
10004f84:	5211df00 	.word	0x5211df00
10004f88:	1000      	.short	0x1000

10004f8a <__wrap___aeabi_ddiv>:
10004f8a:	4694      	mov	ip, r2
10004f8c:	4a13      	ldr	r2, [pc, #76]	; (10004fdc <__wrap___aeabi_dmul+0x16>)
10004f8e:	6f92      	ldr	r2, [r2, #120]	; 0x78
10004f90:	0892      	lsrs	r2, r2, #2
10004f92:	d209      	bcs.n	10004fa8 <ddiv_save_state>
10004f94:	4662      	mov	r2, ip

10004f96 <ddiv_shim_call>:
10004f96:	b418      	push	{r3, r4}
10004f98:	4b0f      	ldr	r3, [pc, #60]	; (10004fd8 <__wrap___aeabi_dmul+0x12>)
10004f9a:	68db      	ldr	r3, [r3, #12]
10004f9c:	46fc      	mov	ip, pc
10004f9e:	9301      	str	r3, [sp, #4]
10004fa0:	bd08      	pop	{r3, pc}
10004fa2:	df0c      	.short	0xdf0c
10004fa4:	100054c9 	.word	0x100054c9

10004fa8 <ddiv_save_state>:
10004fa8:	4a0c      	ldr	r2, [pc, #48]	; (10004fdc <__wrap___aeabi_dmul+0x16>)
10004faa:	b5f0      	push	{r4, r5, r6, r7, lr}
10004fac:	6e14      	ldr	r4, [r2, #96]	; 0x60
10004fae:	6e55      	ldr	r5, [r2, #100]	; 0x64
10004fb0:	6f57      	ldr	r7, [r2, #116]	; 0x74
10004fb2:	6f16      	ldr	r6, [r2, #112]	; 0x70
10004fb4:	4662      	mov	r2, ip
10004fb6:	f7ff ffee 	bl	10004f96 <ddiv_shim_call>
10004fba:	4a08      	ldr	r2, [pc, #32]	; (10004fdc <__wrap___aeabi_dmul+0x16>)
10004fbc:	6614      	str	r4, [r2, #96]	; 0x60
10004fbe:	6655      	str	r5, [r2, #100]	; 0x64
10004fc0:	6757      	str	r7, [r2, #116]	; 0x74
10004fc2:	6716      	str	r6, [r2, #112]	; 0x70
10004fc4:	bdf0      	pop	{r4, r5, r6, r7, pc}

10004fc6 <__wrap___aeabi_dmul>:
10004fc6:	b418      	push	{r3, r4}
10004fc8:	4b03      	ldr	r3, [pc, #12]	; (10004fd8 <__wrap___aeabi_dmul+0x12>)
10004fca:	689b      	ldr	r3, [r3, #8]
10004fcc:	46fc      	mov	ip, pc
10004fce:	9301      	str	r3, [sp, #4]
10004fd0:	bd08      	pop	{r3, pc}
10004fd2:	df08      	.short	0xdf08
10004fd4:	1000536d 	.word	0x1000536d
10004fd8:	20000468 	.word	0x20000468
10004fdc:	d0000000 	.word	0xd0000000

10004fe0 <__wrap___aeabi_cdrcmple>:
10004fe0:	b5ff      	push	{r0, r1, r2, r3, r4, r5, r6, r7, lr}
10004fe2:	4050      	eors	r0, r2
10004fe4:	4042      	eors	r2, r0
10004fe6:	4050      	eors	r0, r2
10004fe8:	4059      	eors	r1, r3
10004fea:	404b      	eors	r3, r1
10004fec:	4059      	eors	r1, r3
10004fee:	e000      	b.n	10004ff2 <__aeabi_dfcmple_guts>

10004ff0 <__wrap___aeabi_cdcmpeq>:
10004ff0:	b5ff      	push	{r0, r1, r2, r3, r4, r5, r6, r7, lr}

10004ff2 <__aeabi_dfcmple_guts>:
10004ff2:	4f15      	ldr	r7, [pc, #84]	; (10005048 <__aeabi_dfcmple_guts+0x56>)
10004ff4:	004c      	lsls	r4, r1, #1
10004ff6:	0d64      	lsrs	r4, r4, #21
10004ff8:	d003      	beq.n	10005002 <__aeabi_dfcmple_guts+0x10>
10004ffa:	42bc      	cmp	r4, r7
10004ffc:	d104      	bne.n	10005008 <__aeabi_dfcmple_guts+0x16>
10004ffe:	030c      	lsls	r4, r1, #12
10005000:	d814      	bhi.n	1000502c <__aeabi_dfcmple_guts+0x3a>
10005002:	2000      	movs	r0, #0
10005004:	0d09      	lsrs	r1, r1, #20
10005006:	0509      	lsls	r1, r1, #20
10005008:	005c      	lsls	r4, r3, #1
1000500a:	0d64      	lsrs	r4, r4, #21
1000500c:	d003      	beq.n	10005016 <__aeabi_dfcmple_guts+0x24>
1000500e:	42bc      	cmp	r4, r7
10005010:	d104      	bne.n	1000501c <__aeabi_dfcmple_guts+0x2a>
10005012:	031c      	lsls	r4, r3, #12
10005014:	d80a      	bhi.n	1000502c <__aeabi_dfcmple_guts+0x3a>
10005016:	2200      	movs	r2, #0
10005018:	0d1b      	lsrs	r3, r3, #20
1000501a:	051b      	lsls	r3, r3, #20
1000501c:	2601      	movs	r6, #1
1000501e:	404b      	eors	r3, r1
10005020:	d409      	bmi.n	10005036 <__aeabi_dfcmple_guts+0x44>
10005022:	404b      	eors	r3, r1
10005024:	d503      	bpl.n	1000502e <__aeabi_dfcmple_guts+0x3c>
10005026:	428b      	cmp	r3, r1
10005028:	d100      	bne.n	1000502c <__aeabi_dfcmple_guts+0x3a>
1000502a:	4282      	cmp	r2, r0
1000502c:	bdff      	pop	{r0, r1, r2, r3, r4, r5, r6, r7, pc}
1000502e:	4299      	cmp	r1, r3
10005030:	d1fc      	bne.n	1000502c <__aeabi_dfcmple_guts+0x3a>
10005032:	4290      	cmp	r0, r2
10005034:	bdff      	pop	{r0, r1, r2, r3, r4, r5, r6, r7, pc}
10005036:	430b      	orrs	r3, r1
10005038:	18db      	adds	r3, r3, r3
1000503a:	4303      	orrs	r3, r0
1000503c:	4313      	orrs	r3, r2
1000503e:	d0f5      	beq.n	1000502c <__aeabi_dfcmple_guts+0x3a>
10005040:	43c9      	mvns	r1, r1
10005042:	1849      	adds	r1, r1, r1
10005044:	bdff      	pop	{r0, r1, r2, r3, r4, r5, r6, r7, pc}
10005046:	0000      	.short	0x0000
10005048:	000007ff 	.word	0x000007ff

1000504c <__wrap___aeabi_dcmplt>:
1000504c:	b500      	push	{lr}
1000504e:	f7ff ffcf 	bl	10004ff0 <__wrap___aeabi_cdcmpeq>
10005052:	4180      	sbcs	r0, r0
10005054:	bd00      	pop	{pc}
10005056:	46c0      	nop			; (mov r8, r8)

10005058 <__wrap___aeabi_dcmple>:
10005058:	b500      	push	{lr}
1000505a:	f7ff ffc9 	bl	10004ff0 <__wrap___aeabi_cdcmpeq>
1000505e:	d901      	bls.n	10005064 <__wrap___aeabi_dcmple+0xc>
10005060:	2000      	movs	r0, #0
10005062:	bd00      	pop	{pc}
10005064:	2001      	movs	r0, #1
10005066:	bd00      	pop	{pc}

10005068 <__wrap___aeabi_dcmpge>:
10005068:	b500      	push	{lr}
1000506a:	f7ff ffb9 	bl	10004fe0 <__wrap___aeabi_cdrcmple>
1000506e:	d901      	bls.n	10005074 <__wrap___aeabi_dcmpge+0xc>
10005070:	2000      	movs	r0, #0
10005072:	bd00      	pop	{pc}
10005074:	2001      	movs	r0, #1
10005076:	bd00      	pop	{pc}

10005078 <__wrap___aeabi_dcmpgt>:
10005078:	b500      	push	{lr}
1000507a:	f7ff ffb1 	bl	10004fe0 <__wrap___aeabi_cdrcmple>
1000507e:	4180      	sbcs	r0, r0
10005080:	bd00      	pop	{pc}

10005082 <__wrap___aeabi_dcmpun>:
10005082:	2001      	movs	r0, #1
10005084:	0540      	lsls	r0, r0, #21
10005086:	004a      	lsls	r2, r1, #1
10005088:	1812      	adds	r2, r2, r0
1000508a:	d804      	bhi.n	10005096 <__wrap___aeabi_dcmpun+0x14>
1000508c:	005a      	lsls	r2, r3, #1
1000508e:	1812      	adds	r2, r2, r0
10005090:	d801      	bhi.n	10005096 <__wrap___aeabi_dcmpun+0x14>
10005092:	2000      	movs	r0, #0
10005094:	4770      	bx	lr
10005096:	2001      	movs	r0, #1
10005098:	4770      	bx	lr
	...

1000509c <__wrap___aeabi_ui2d>:
1000509c:	2100      	movs	r1, #0
1000509e:	2800      	cmp	r0, #0
100050a0:	d105      	bne.n	100050ae <__wrap___aeabi_i2d+0xa>
100050a2:	4770      	bx	lr

100050a4 <__wrap___aeabi_i2d>:
100050a4:	17c1      	asrs	r1, r0, #31
100050a6:	4048      	eors	r0, r1
100050a8:	1a40      	subs	r0, r0, r1
100050aa:	d0fa      	beq.n	100050a2 <__wrap___aeabi_ui2d+0x6>
100050ac:	07c9      	lsls	r1, r1, #31
100050ae:	b513      	push	{r0, r1, r4, lr}
100050b0:	4b06      	ldr	r3, [pc, #24]	; (100050cc <__wrap___aeabi_i2d+0x28>)
100050b2:	681b      	ldr	r3, [r3, #0]
100050b4:	4798      	blx	r3
100050b6:	bc0c      	pop	{r2, r3}
100050b8:	1c44      	adds	r4, r0, #1
100050ba:	40a2      	lsls	r2, r4
100050bc:	0510      	lsls	r0, r2, #20
100050be:	0b12      	lsrs	r2, r2, #12
100050c0:	4903      	ldr	r1, [pc, #12]	; (100050d0 <__wrap___aeabi_i2d+0x2c>)
100050c2:	1b09      	subs	r1, r1, r4
100050c4:	0509      	lsls	r1, r1, #20
100050c6:	4319      	orrs	r1, r3
100050c8:	4311      	orrs	r1, r2
100050ca:	bd10      	pop	{r4, pc}
100050cc:	20000a00 	.word	0x20000a00
100050d0:	0000041f 	.word	0x0000041f

100050d4 <__wrap___aeabi_d2iz>:
100050d4:	b510      	push	{r4, lr}
100050d6:	004c      	lsls	r4, r1, #1
100050d8:	0d62      	lsrs	r2, r4, #21
100050da:	2380      	movs	r3, #128	; 0x80
100050dc:	18d2      	adds	r2, r2, r3
100050de:	00db      	lsls	r3, r3, #3
100050e0:	1ad2      	subs	r2, r2, r3
100050e2:	055b      	lsls	r3, r3, #21
100050e4:	2a7e      	cmp	r2, #126	; 0x7e
100050e6:	dd10      	ble.n	1000510a <__wrap___aeabi_d2iz+0x36>
100050e8:	3a9e      	subs	r2, #158	; 0x9e
100050ea:	da13      	bge.n	10005114 <__wrap___aeabi_d2iz+0x40>
100050ec:	17cc      	asrs	r4, r1, #31
100050ee:	0309      	lsls	r1, r1, #12
100050f0:	0849      	lsrs	r1, r1, #1
100050f2:	4319      	orrs	r1, r3
100050f4:	4252      	negs	r2, r2
100050f6:	40d1      	lsrs	r1, r2
100050f8:	0064      	lsls	r4, r4, #1
100050fa:	3401      	adds	r4, #1
100050fc:	3215      	adds	r2, #21
100050fe:	2a20      	cmp	r2, #32
10005100:	da05      	bge.n	1000510e <__wrap___aeabi_d2iz+0x3a>
10005102:	40d0      	lsrs	r0, r2
10005104:	4308      	orrs	r0, r1
10005106:	4360      	muls	r0, r4
10005108:	bd10      	pop	{r4, pc}
1000510a:	2000      	movs	r0, #0
1000510c:	bd10      	pop	{r4, pc}
1000510e:	4608      	mov	r0, r1
10005110:	4360      	muls	r0, r4
10005112:	bd10      	pop	{r4, pc}
10005114:	0fc8      	lsrs	r0, r1, #31
10005116:	18c0      	adds	r0, r0, r3
10005118:	3801      	subs	r0, #1
1000511a:	bd10      	pop	{r4, pc}

1000511c <__wrap___aeabi_d2uiz>:
1000511c:	b418      	push	{r3, r4}
1000511e:	4b04      	ldr	r3, [pc, #16]	; (10005130 <__wrap___aeabi_d2uiz+0x14>)
10005120:	6a5b      	ldr	r3, [r3, #36]	; 0x24
10005122:	46fc      	mov	ip, pc
10005124:	9301      	str	r3, [sp, #4]
10005126:	bd08      	pop	{r3, pc}
10005128:	5679df24 	.word	0x5679df24
1000512c:	00001000 	.word	0x00001000
10005130:	20000468 	.word	0x20000468

10005134 <__aeabi_double_init>:
10005134:	2313      	movs	r3, #19
10005136:	b570      	push	{r4, r5, r6, lr}
10005138:	781d      	ldrb	r5, [r3, #0]
1000513a:	2d01      	cmp	r5, #1
1000513c:	d019      	beq.n	10005172 <__aeabi_double_init+0x3e>
1000513e:	dd14      	ble.n	1000516a <__aeabi_double_init+0x36>
10005140:	481e      	ldr	r0, [pc, #120]	; (100051bc <__aeabi_double_init+0x88>)
10005142:	f7ff fa59 	bl	100045f8 <rom_data_lookup>
10005146:	0006      	movs	r6, r0
10005148:	481d      	ldr	r0, [pc, #116]	; (100051c0 <__aeabi_double_init+0x8c>)
1000514a:	f7ff fa55 	bl	100045f8 <rom_data_lookup>
1000514e:	4c1d      	ldr	r4, [pc, #116]	; (100051c4 <__aeabi_double_init+0x90>)
10005150:	2280      	movs	r2, #128	; 0x80
10005152:	0031      	movs	r1, r6
10005154:	0020      	movs	r0, r4
10005156:	f000 fb43 	bl	100057e0 <__wrap___aeabi_memcpy>
1000515a:	2d02      	cmp	r5, #2
1000515c:	d006      	beq.n	1000516c <__aeabi_double_init+0x38>
1000515e:	481a      	ldr	r0, [pc, #104]	; (100051c8 <__aeabi_double_init+0x94>)
10005160:	f7ff fa42 	bl	100045e8 <rom_func_lookup>
10005164:	4b19      	ldr	r3, [pc, #100]	; (100051cc <__aeabi_double_init+0x98>)
10005166:	6018      	str	r0, [r3, #0]
10005168:	bd70      	pop	{r4, r5, r6, pc}
1000516a:	4c16      	ldr	r4, [pc, #88]	; (100051c4 <__aeabi_double_init+0x90>)
1000516c:	4b18      	ldr	r3, [pc, #96]	; (100051d0 <__aeabi_double_init+0x9c>)
1000516e:	64a3      	str	r3, [r4, #72]	; 0x48
10005170:	e7f5      	b.n	1000515e <__aeabi_double_init+0x2a>
10005172:	4b17      	ldr	r3, [pc, #92]	; (100051d0 <__aeabi_double_init+0x9c>)
10005174:	4c13      	ldr	r4, [pc, #76]	; (100051c4 <__aeabi_double_init+0x90>)
10005176:	6023      	str	r3, [r4, #0]
10005178:	6063      	str	r3, [r4, #4]
1000517a:	60a3      	str	r3, [r4, #8]
1000517c:	60e3      	str	r3, [r4, #12]
1000517e:	6123      	str	r3, [r4, #16]
10005180:	6163      	str	r3, [r4, #20]
10005182:	61a3      	str	r3, [r4, #24]
10005184:	61e3      	str	r3, [r4, #28]
10005186:	6223      	str	r3, [r4, #32]
10005188:	6263      	str	r3, [r4, #36]	; 0x24
1000518a:	62a3      	str	r3, [r4, #40]	; 0x28
1000518c:	62e3      	str	r3, [r4, #44]	; 0x2c
1000518e:	6323      	str	r3, [r4, #48]	; 0x30
10005190:	6363      	str	r3, [r4, #52]	; 0x34
10005192:	63a3      	str	r3, [r4, #56]	; 0x38
10005194:	63e3      	str	r3, [r4, #60]	; 0x3c
10005196:	6423      	str	r3, [r4, #64]	; 0x40
10005198:	6463      	str	r3, [r4, #68]	; 0x44
1000519a:	64a3      	str	r3, [r4, #72]	; 0x48
1000519c:	64e3      	str	r3, [r4, #76]	; 0x4c
1000519e:	6523      	str	r3, [r4, #80]	; 0x50
100051a0:	6563      	str	r3, [r4, #84]	; 0x54
100051a2:	65a3      	str	r3, [r4, #88]	; 0x58
100051a4:	65e3      	str	r3, [r4, #92]	; 0x5c
100051a6:	6623      	str	r3, [r4, #96]	; 0x60
100051a8:	6663      	str	r3, [r4, #100]	; 0x64
100051aa:	66a3      	str	r3, [r4, #104]	; 0x68
100051ac:	66e3      	str	r3, [r4, #108]	; 0x6c
100051ae:	6723      	str	r3, [r4, #112]	; 0x70
100051b0:	6763      	str	r3, [r4, #116]	; 0x74
100051b2:	67a3      	str	r3, [r4, #120]	; 0x78
100051b4:	67e3      	str	r3, [r4, #124]	; 0x7c
100051b6:	64a3      	str	r3, [r4, #72]	; 0x48
100051b8:	e7d1      	b.n	1000515e <__aeabi_double_init+0x2a>
100051ba:	46c0      	nop			; (mov r8, r8)
100051bc:	00004453 	.word	0x00004453
100051c0:	00004653 	.word	0x00004653
100051c4:	20000468 	.word	0x20000468
100051c8:	0000334c 	.word	0x0000334c
100051cc:	20000a00 	.word	0x20000a00
100051d0:	100051d5 	.word	0x100051d5

100051d4 <double_table_shim_on_use_helper>:
100051d4:	b507      	push	{r0, r1, r2, lr}
100051d6:	4660      	mov	r0, ip
100051d8:	8801      	ldrh	r1, [r0, #0]
100051da:	0a0a      	lsrs	r2, r1, #8
100051dc:	3002      	adds	r0, #2
100051de:	2adf      	cmp	r2, #223	; 0xdf
100051e0:	d1fa      	bne.n	100051d8 <double_table_shim_on_use_helper+0x4>
100051e2:	b2c9      	uxtb	r1, r1
100051e4:	0882      	lsrs	r2, r0, #2
100051e6:	d304      	bcc.n	100051f2 <double_table_shim_on_use_helper+0x1e>
100051e8:	8802      	ldrh	r2, [r0, #0]
100051ea:	8840      	ldrh	r0, [r0, #2]
100051ec:	0400      	lsls	r0, r0, #16
100051ee:	4310      	orrs	r0, r2
100051f0:	e000      	b.n	100051f4 <double_table_shim_on_use_helper+0x20>
100051f2:	6800      	ldr	r0, [r0, #0]
100051f4:	4a01      	ldr	r2, [pc, #4]	; (100051fc <double_table_shim_on_use_helper+0x28>)
100051f6:	5050      	str	r0, [r2, r1]
100051f8:	9003      	str	r0, [sp, #12]
100051fa:	bd07      	pop	{r0, r1, r2, pc}
100051fc:	20000468 	.word	0x20000468

10005200 <drsub_shim>:
10005200:	b40f      	push	{r0, r1, r2, r3}
10005202:	bc03      	pop	{r0, r1}
10005204:	bc0c      	pop	{r2, r3}

10005206 <dsub_shim>:
10005206:	b5f0      	push	{r4, r5, r6, r7, lr}
10005208:	2401      	movs	r4, #1
1000520a:	07e4      	lsls	r4, r4, #31
1000520c:	4063      	eors	r3, r4
1000520e:	e000      	b.n	10005212 <da_entry>

10005210 <dadd_shim>:
10005210:	b5f0      	push	{r4, r5, r6, r7, lr}

10005212 <da_entry>:
10005212:	0d0c      	lsrs	r4, r1, #20
10005214:	0fcf      	lsrs	r7, r1, #31
10005216:	1e66      	subs	r6, r4, #1
10005218:	0536      	lsls	r6, r6, #20
1000521a:	1b89      	subs	r1, r1, r6
1000521c:	0564      	lsls	r4, r4, #21
1000521e:	d303      	bcc.n	10005228 <l8_1>
10005220:	43c9      	mvns	r1, r1
10005222:	4240      	negs	r0, r0
10005224:	d300      	bcc.n	10005228 <l8_1>
10005226:	3101      	adds	r1, #1

10005228 <l8_1>:
10005228:	0d64      	lsrs	r4, r4, #21
1000522a:	d003      	beq.n	10005234 <l8_2>
1000522c:	1c66      	adds	r6, r4, #1
1000522e:	0af6      	lsrs	r6, r6, #11
10005230:	d007      	beq.n	10005242 <l8_3>
10005232:	1be4      	subs	r4, r4, r7

10005234 <l8_2>:
10005234:	2000      	movs	r0, #0
10005236:	007f      	lsls	r7, r7, #1
10005238:	1c79      	adds	r1, r7, #1
1000523a:	0789      	lsls	r1, r1, #30
1000523c:	1289      	asrs	r1, r1, #10
1000523e:	3c80      	subs	r4, #128	; 0x80
10005240:	0324      	lsls	r4, r4, #12

10005242 <l8_3>:
10005242:	0d1d      	lsrs	r5, r3, #20
10005244:	0fdf      	lsrs	r7, r3, #31
10005246:	1e6e      	subs	r6, r5, #1
10005248:	0536      	lsls	r6, r6, #20
1000524a:	1b9b      	subs	r3, r3, r6
1000524c:	056d      	lsls	r5, r5, #21
1000524e:	d303      	bcc.n	10005258 <l9_1>
10005250:	43db      	mvns	r3, r3
10005252:	4252      	negs	r2, r2
10005254:	d300      	bcc.n	10005258 <l9_1>
10005256:	3301      	adds	r3, #1

10005258 <l9_1>:
10005258:	0d6d      	lsrs	r5, r5, #21
1000525a:	d003      	beq.n	10005264 <l9_2>
1000525c:	1c6e      	adds	r6, r5, #1
1000525e:	0af6      	lsrs	r6, r6, #11
10005260:	d007      	beq.n	10005272 <l9_3>
10005262:	1bed      	subs	r5, r5, r7

10005264 <l9_2>:
10005264:	2200      	movs	r2, #0
10005266:	007f      	lsls	r7, r7, #1
10005268:	1c7b      	adds	r3, r7, #1
1000526a:	079b      	lsls	r3, r3, #30
1000526c:	129b      	asrs	r3, r3, #10
1000526e:	3d80      	subs	r5, #128	; 0x80
10005270:	032d      	lsls	r5, r5, #12

10005272 <l9_3>:
10005272:	1b2f      	subs	r7, r5, r4
10005274:	1b66      	subs	r6, r4, r5
10005276:	d458      	bmi.n	1000532a <da_ygtx>
10005278:	46a4      	mov	ip, r4
1000527a:	2e20      	cmp	r6, #32
1000527c:	da46      	bge.n	1000530c <da_xrgty>
1000527e:	3720      	adds	r7, #32
10005280:	0014      	movs	r4, r2
10005282:	40bc      	lsls	r4, r7

10005284 <da_xgty0>:
10005284:	001d      	movs	r5, r3
10005286:	40bd      	lsls	r5, r7
10005288:	40f2      	lsrs	r2, r6
1000528a:	4133      	asrs	r3, r6
1000528c:	432a      	orrs	r2, r5

1000528e <da_add>:
1000528e:	1880      	adds	r0, r0, r2
10005290:	4159      	adcs	r1, r3

10005292 <da_pack>:
10005292:	0fcb      	lsrs	r3, r1, #31
10005294:	d005      	beq.n	100052a2 <da_pack+0x10>
10005296:	43c9      	mvns	r1, r1
10005298:	43c0      	mvns	r0, r0
1000529a:	2200      	movs	r2, #0
1000529c:	4264      	negs	r4, r4
1000529e:	4150      	adcs	r0, r2
100052a0:	4151      	adcs	r1, r2
100052a2:	4662      	mov	r2, ip
100052a4:	0d4d      	lsrs	r5, r1, #21
100052a6:	d128      	bne.n	100052fa <da_0>
100052a8:	0d0d      	lsrs	r5, r1, #20
100052aa:	d107      	bne.n	100052bc <da_1>
100052ac:	2800      	cmp	r0, #0
100052ae:	d01f      	beq.n	100052f0 <da_5>

100052b0 <da_2>:
100052b0:	1924      	adds	r4, r4, r4
100052b2:	4140      	adcs	r0, r0
100052b4:	4149      	adcs	r1, r1
100052b6:	3a01      	subs	r2, #1
100052b8:	0d0d      	lsrs	r5, r1, #20
100052ba:	d0f9      	beq.n	100052b0 <da_2>

100052bc <da_1>:
100052bc:	0064      	lsls	r4, r4, #1
100052be:	d306      	bcc.n	100052ce <da_3>

100052c0 <da_4>:
100052c0:	3001      	adds	r0, #1
100052c2:	d300      	bcc.n	100052c6 <da_4+0x6>
100052c4:	3101      	adds	r1, #1
100052c6:	2c00      	cmp	r4, #0
100052c8:	d101      	bne.n	100052ce <da_3>
100052ca:	0840      	lsrs	r0, r0, #1
100052cc:	0040      	lsls	r0, r0, #1

100052ce <da_3>:
100052ce:	3a01      	subs	r2, #1
100052d0:	d40b      	bmi.n	100052ea <da_6>
100052d2:	1c94      	adds	r4, r2, #2
100052d4:	0ae4      	lsrs	r4, r4, #11
100052d6:	d104      	bne.n	100052e2 <da_7>
100052d8:	0512      	lsls	r2, r2, #20
100052da:	4411      	add	r1, r2
100052dc:	07db      	lsls	r3, r3, #31
100052de:	4419      	add	r1, r3
100052e0:	bdf0      	pop	{r4, r5, r6, r7, pc}

100052e2 <da_7>:
100052e2:	07d9      	lsls	r1, r3, #31
100052e4:	4b20      	ldr	r3, [pc, #128]	; (10005368 <da_xmgty+0x4>)
100052e6:	4319      	orrs	r1, r3
100052e8:	e000      	b.n	100052ec <da_6+0x2>

100052ea <da_6>:
100052ea:	07d9      	lsls	r1, r3, #31
100052ec:	2000      	movs	r0, #0
100052ee:	bdf0      	pop	{r4, r5, r6, r7, pc}

100052f0 <da_5>:
100052f0:	2900      	cmp	r1, #0
100052f2:	d1dd      	bne.n	100052b0 <da_2>
100052f4:	2c00      	cmp	r4, #0
100052f6:	d1db      	bne.n	100052b0 <da_2>
100052f8:	bdf0      	pop	{r4, r5, r6, r7, pc}

100052fa <da_0>:
100052fa:	3201      	adds	r2, #1
100052fc:	07c6      	lsls	r6, r0, #31
100052fe:	0840      	lsrs	r0, r0, #1
10005300:	07cd      	lsls	r5, r1, #31
10005302:	4328      	orrs	r0, r5
10005304:	0849      	lsrs	r1, r1, #1
10005306:	2e00      	cmp	r6, #0
10005308:	d0e1      	beq.n	100052ce <da_3>
1000530a:	e7d9      	b.n	100052c0 <da_4>

1000530c <da_xrgty>:
1000530c:	2e3c      	cmp	r6, #60	; 0x3c
1000530e:	da29      	bge.n	10005364 <da_xmgty>
10005310:	3e20      	subs	r6, #32
10005312:	3740      	adds	r7, #64	; 0x40
10005314:	0014      	movs	r4, r2
10005316:	40bc      	lsls	r4, r7
10005318:	d000      	beq.n	1000531c <da_xrgty+0x10>
1000531a:	2401      	movs	r4, #1
1000531c:	40f2      	lsrs	r2, r6
1000531e:	4314      	orrs	r4, r2
10005320:	001a      	movs	r2, r3
10005322:	40bb      	lsls	r3, r7
10005324:	431c      	orrs	r4, r3
10005326:	17d3      	asrs	r3, r2, #31
10005328:	e7ac      	b.n	10005284 <da_xgty0>

1000532a <da_ygtx>:
1000532a:	46ac      	mov	ip, r5
1000532c:	2f20      	cmp	r7, #32
1000532e:	da08      	bge.n	10005342 <da_yrgtx>
10005330:	3620      	adds	r6, #32
10005332:	0004      	movs	r4, r0
10005334:	40b4      	lsls	r4, r6

10005336 <da_ygtx0>:
10005336:	000d      	movs	r5, r1
10005338:	40b5      	lsls	r5, r6
1000533a:	40f8      	lsrs	r0, r7
1000533c:	4139      	asrs	r1, r7
1000533e:	4328      	orrs	r0, r5
10005340:	e7a5      	b.n	1000528e <da_add>

10005342 <da_yrgtx>:
10005342:	2f3c      	cmp	r7, #60	; 0x3c
10005344:	da0c      	bge.n	10005360 <da_ymgtx>
10005346:	3f20      	subs	r7, #32
10005348:	3640      	adds	r6, #64	; 0x40
1000534a:	0004      	movs	r4, r0
1000534c:	40b4      	lsls	r4, r6
1000534e:	d000      	beq.n	10005352 <da_yrgtx+0x10>
10005350:	2401      	movs	r4, #1
10005352:	40f8      	lsrs	r0, r7
10005354:	4304      	orrs	r4, r0
10005356:	0008      	movs	r0, r1
10005358:	40b1      	lsls	r1, r6
1000535a:	430c      	orrs	r4, r1
1000535c:	17c1      	asrs	r1, r0, #31
1000535e:	e7ea      	b.n	10005336 <da_ygtx0>

10005360 <da_ymgtx>:
10005360:	0010      	movs	r0, r2
10005362:	0019      	movs	r1, r3

10005364 <da_xmgty>:
10005364:	2400      	movs	r4, #0
10005366:	e794      	b.n	10005292 <da_pack>
10005368:	7ff00000 	.word	0x7ff00000

1000536c <dmul_shim>:
1000536c:	b5f0      	push	{r4, r5, r6, r7, lr}
1000536e:	0d0c      	lsrs	r4, r1, #20
10005370:	1e66      	subs	r6, r4, #1
10005372:	0536      	lsls	r6, r6, #20
10005374:	1b89      	subs	r1, r1, r6
10005376:	0ae6      	lsrs	r6, r4, #11
10005378:	0564      	lsls	r4, r4, #21
1000537a:	0d64      	lsrs	r4, r4, #21
1000537c:	d002      	beq.n	10005384 <l12_1>
1000537e:	1c65      	adds	r5, r4, #1
10005380:	0aed      	lsrs	r5, r5, #11
10005382:	d004      	beq.n	1000538e <l12_2>

10005384 <l12_1>:
10005384:	2000      	movs	r0, #0
10005386:	2101      	movs	r1, #1
10005388:	0509      	lsls	r1, r1, #20
1000538a:	3c80      	subs	r4, #128	; 0x80
1000538c:	0324      	lsls	r4, r4, #12

1000538e <l12_2>:
1000538e:	46a4      	mov	ip, r4
10005390:	0d1c      	lsrs	r4, r3, #20
10005392:	1e67      	subs	r7, r4, #1
10005394:	053f      	lsls	r7, r7, #20
10005396:	1bdb      	subs	r3, r3, r7
10005398:	0ae7      	lsrs	r7, r4, #11
1000539a:	0564      	lsls	r4, r4, #21
1000539c:	0d64      	lsrs	r4, r4, #21
1000539e:	d002      	beq.n	100053a6 <l13_1>
100053a0:	1c65      	adds	r5, r4, #1
100053a2:	0aed      	lsrs	r5, r5, #11
100053a4:	d004      	beq.n	100053b0 <l13_2>

100053a6 <l13_1>:
100053a6:	2200      	movs	r2, #0
100053a8:	2301      	movs	r3, #1
100053aa:	051b      	lsls	r3, r3, #20
100053ac:	3c80      	subs	r4, #128	; 0x80
100053ae:	0324      	lsls	r4, r4, #12

100053b0 <l13_2>:
100053b0:	4077      	eors	r7, r6
100053b2:	4464      	add	r4, ip
100053b4:	b497      	push	{r0, r1, r2, r4, r7}
100053b6:	b284      	uxth	r4, r0
100053b8:	b296      	uxth	r6, r2
100053ba:	4374      	muls	r4, r6
100053bc:	0c07      	lsrs	r7, r0, #16
100053be:	437e      	muls	r6, r7
100053c0:	0c15      	lsrs	r5, r2, #16
100053c2:	436f      	muls	r7, r5
100053c4:	b280      	uxth	r0, r0
100053c6:	4368      	muls	r0, r5
100053c8:	1836      	adds	r6, r6, r0
100053ca:	d302      	bcc.n	100053d2 <l14_1>
100053cc:	2001      	movs	r0, #1
100053ce:	0400      	lsls	r0, r0, #16
100053d0:	183f      	adds	r7, r7, r0

100053d2 <l14_1>:
100053d2:	0430      	lsls	r0, r6, #16
100053d4:	0c35      	lsrs	r5, r6, #16
100053d6:	1900      	adds	r0, r0, r4
100053d8:	417d      	adcs	r5, r7
100053da:	4684      	mov	ip, r0
100053dc:	b288      	uxth	r0, r1
100053de:	b29a      	uxth	r2, r3
100053e0:	4350      	muls	r0, r2
100053e2:	0c0c      	lsrs	r4, r1, #16
100053e4:	4362      	muls	r2, r4
100053e6:	0c1f      	lsrs	r7, r3, #16
100053e8:	437c      	muls	r4, r7
100053ea:	b28e      	uxth	r6, r1
100053ec:	437e      	muls	r6, r7
100053ee:	1992      	adds	r2, r2, r6
100053f0:	d302      	bcc.n	100053f8 <l15_1>
100053f2:	2601      	movs	r6, #1
100053f4:	0436      	lsls	r6, r6, #16
100053f6:	19a4      	adds	r4, r4, r6

100053f8 <l15_1>:
100053f8:	0416      	lsls	r6, r2, #16
100053fa:	0c17      	lsrs	r7, r2, #16
100053fc:	1836      	adds	r6, r6, r0
100053fe:	4167      	adcs	r7, r4
10005400:	bc01      	pop	{r0}
10005402:	b281      	uxth	r1, r0
10005404:	b29a      	uxth	r2, r3
10005406:	4351      	muls	r1, r2
10005408:	0c04      	lsrs	r4, r0, #16
1000540a:	4362      	muls	r2, r4
1000540c:	0c1b      	lsrs	r3, r3, #16
1000540e:	435c      	muls	r4, r3
10005410:	b280      	uxth	r0, r0
10005412:	4358      	muls	r0, r3
10005414:	1812      	adds	r2, r2, r0
10005416:	d302      	bcc.n	1000541e <l16_1>
10005418:	2001      	movs	r0, #1
1000541a:	0400      	lsls	r0, r0, #16
1000541c:	1824      	adds	r4, r4, r0

1000541e <l16_1>:
1000541e:	0410      	lsls	r0, r2, #16
10005420:	0c13      	lsrs	r3, r2, #16
10005422:	1840      	adds	r0, r0, r1
10005424:	4163      	adcs	r3, r4
10005426:	182d      	adds	r5, r5, r0
10005428:	415e      	adcs	r6, r3
1000542a:	2000      	movs	r0, #0
1000542c:	4147      	adcs	r7, r0
1000542e:	bc06      	pop	{r1, r2}
10005430:	b288      	uxth	r0, r1
10005432:	b293      	uxth	r3, r2
10005434:	4358      	muls	r0, r3
10005436:	0c0c      	lsrs	r4, r1, #16
10005438:	4363      	muls	r3, r4
1000543a:	0c12      	lsrs	r2, r2, #16
1000543c:	4354      	muls	r4, r2
1000543e:	b289      	uxth	r1, r1
10005440:	4351      	muls	r1, r2
10005442:	185b      	adds	r3, r3, r1
10005444:	d302      	bcc.n	1000544c <l17_1>
10005446:	2101      	movs	r1, #1
10005448:	0409      	lsls	r1, r1, #16
1000544a:	1864      	adds	r4, r4, r1

1000544c <l17_1>:
1000544c:	0419      	lsls	r1, r3, #16
1000544e:	0c1a      	lsrs	r2, r3, #16
10005450:	1809      	adds	r1, r1, r0
10005452:	4162      	adcs	r2, r4
10005454:	186d      	adds	r5, r5, r1
10005456:	4156      	adcs	r6, r2
10005458:	2000      	movs	r0, #0
1000545a:	4147      	adcs	r7, r0
1000545c:	bc18      	pop	{r3, r4}
1000545e:	02f9      	lsls	r1, r7, #11
10005460:	0d72      	lsrs	r2, r6, #21
10005462:	4311      	orrs	r1, r2
10005464:	02f0      	lsls	r0, r6, #11
10005466:	0d6a      	lsrs	r2, r5, #21
10005468:	4310      	orrs	r0, r2
1000546a:	02ed      	lsls	r5, r5, #11
1000546c:	0d0a      	lsrs	r2, r1, #20
1000546e:	d103      	bne.n	10005478 <l17_1+0x2c>
10005470:	196d      	adds	r5, r5, r5
10005472:	4140      	adcs	r0, r0
10005474:	4149      	adcs	r1, r1
10005476:	3b01      	subs	r3, #1
10005478:	4e12      	ldr	r6, [pc, #72]	; (100054c4 <dm_1+0xa>)
1000547a:	1b9b      	subs	r3, r3, r6
1000547c:	0076      	lsls	r6, r6, #1
1000547e:	42b3      	cmp	r3, r6
10005480:	d20e      	bcs.n	100054a0 <dm_0>
10005482:	006d      	lsls	r5, r5, #1
10005484:	d307      	bcc.n	10005496 <l17_1+0x4a>
10005486:	3001      	adds	r0, #1
10005488:	2600      	movs	r6, #0
1000548a:	4171      	adcs	r1, r6
1000548c:	4666      	mov	r6, ip
1000548e:	4335      	orrs	r5, r6
10005490:	d101      	bne.n	10005496 <l17_1+0x4a>
10005492:	0840      	lsrs	r0, r0, #1
10005494:	0040      	lsls	r0, r0, #1
10005496:	051b      	lsls	r3, r3, #20
10005498:	18c9      	adds	r1, r1, r3

1000549a <dm_2>:
1000549a:	07e4      	lsls	r4, r4, #31
1000549c:	4421      	add	r1, r4
1000549e:	bdf0      	pop	{r4, r5, r6, r7, pc}

100054a0 <dm_0>:
100054a0:	da0b      	bge.n	100054ba <dm_1>
100054a2:	3301      	adds	r3, #1
100054a4:	d106      	bne.n	100054b4 <dm_0+0x14>
100054a6:	3001      	adds	r0, #1
100054a8:	d104      	bne.n	100054b4 <dm_0+0x14>
100054aa:	3101      	adds	r1, #1
100054ac:	0d4f      	lsrs	r7, r1, #21
100054ae:	d001      	beq.n	100054b4 <dm_0+0x14>
100054b0:	0849      	lsrs	r1, r1, #1
100054b2:	e7f2      	b.n	1000549a <dm_2>
100054b4:	07e1      	lsls	r1, r4, #31
100054b6:	2000      	movs	r0, #0
100054b8:	bdf0      	pop	{r4, r5, r6, r7, pc}

100054ba <dm_1>:
100054ba:	3601      	adds	r6, #1
100054bc:	0531      	lsls	r1, r6, #20
100054be:	2000      	movs	r0, #0
100054c0:	e7eb      	b.n	1000549a <dm_2>
100054c2:	0000      	.short	0x0000
100054c4:	000003ff 	.word	0x000003ff

100054c8 <ddiv_shim>:
100054c8:	b5f0      	push	{r4, r5, r6, r7, lr}

100054ca <ddiv0>:
100054ca:	0d1c      	lsrs	r4, r3, #20
100054cc:	1e67      	subs	r7, r4, #1
100054ce:	053f      	lsls	r7, r7, #20
100054d0:	1bdb      	subs	r3, r3, r7
100054d2:	0ae7      	lsrs	r7, r4, #11
100054d4:	0564      	lsls	r4, r4, #21
100054d6:	0d64      	lsrs	r4, r4, #21
100054d8:	d002      	beq.n	100054e0 <l20_1>
100054da:	1c66      	adds	r6, r4, #1
100054dc:	0af6      	lsrs	r6, r6, #11
100054de:	d004      	beq.n	100054ea <l20_2>

100054e0 <l20_1>:
100054e0:	2200      	movs	r2, #0
100054e2:	2301      	movs	r3, #1
100054e4:	051b      	lsls	r3, r3, #20
100054e6:	3c80      	subs	r4, #128	; 0x80
100054e8:	0324      	lsls	r4, r4, #12

100054ea <l20_2>:
100054ea:	25d0      	movs	r5, #208	; 0xd0
100054ec:	062d      	lsls	r5, r5, #24
100054ee:	2600      	movs	r6, #0
100054f0:	43f6      	mvns	r6, r6
100054f2:	662e      	str	r6, [r5, #96]	; 0x60
100054f4:	091e      	lsrs	r6, r3, #4
100054f6:	666e      	str	r6, [r5, #100]	; 0x64
100054f8:	0fce      	lsrs	r6, r1, #31
100054fa:	19f6      	adds	r6, r6, r7
100054fc:	46b4      	mov	ip, r6
100054fe:	0049      	lsls	r1, r1, #1
10005500:	0d4f      	lsrs	r7, r1, #21
10005502:	d002      	beq.n	1000550a <l20_2+0x20>
10005504:	1c7e      	adds	r6, r7, #1
10005506:	0af6      	lsrs	r6, r6, #11
10005508:	d003      	beq.n	10005512 <l20_2+0x28>
1000550a:	2000      	movs	r0, #0
1000550c:	2100      	movs	r1, #0
1000550e:	3f40      	subs	r7, #64	; 0x40
10005510:	033f      	lsls	r7, r7, #12
10005512:	1b3e      	subs	r6, r7, r4
10005514:	00b6      	lsls	r6, r6, #2
10005516:	44b4      	add	ip, r6
10005518:	3f01      	subs	r7, #1
1000551a:	057f      	lsls	r7, r7, #21
1000551c:	1bc9      	subs	r1, r1, r7
1000551e:	0849      	lsrs	r1, r1, #1
10005520:	6f2e      	ldr	r6, [r5, #112]	; 0x70
10005522:	3601      	adds	r6, #1
10005524:	0876      	lsrs	r6, r6, #1
10005526:	029c      	lsls	r4, r3, #10
10005528:	0d95      	lsrs	r5, r2, #22
1000552a:	4325      	orrs	r5, r4
1000552c:	4375      	muls	r5, r6
1000552e:	13ed      	asrs	r5, r5, #15
10005530:	4375      	muls	r5, r6
10005532:	13ad      	asrs	r5, r5, #14
10005534:	3501      	adds	r5, #1
10005536:	106d      	asrs	r5, r5, #1
10005538:	03f6      	lsls	r6, r6, #15
1000553a:	1b76      	subs	r6, r6, r5
1000553c:	b40c      	push	{r2, r3}
1000553e:	02cc      	lsls	r4, r1, #11
10005540:	0d45      	lsrs	r5, r0, #21
10005542:	432c      	orrs	r4, r5
10005544:	b2a2      	uxth	r2, r4
10005546:	b2b3      	uxth	r3, r6
10005548:	435a      	muls	r2, r3
1000554a:	0c27      	lsrs	r7, r4, #16
1000554c:	437b      	muls	r3, r7
1000554e:	0c35      	lsrs	r5, r6, #16
10005550:	436f      	muls	r7, r5
10005552:	b2a4      	uxth	r4, r4
10005554:	436c      	muls	r4, r5
10005556:	191b      	adds	r3, r3, r4
10005558:	d302      	bcc.n	10005560 <l21_1>
1000555a:	2401      	movs	r4, #1
1000555c:	0424      	lsls	r4, r4, #16
1000555e:	193f      	adds	r7, r7, r4

10005560 <l21_1>:
10005560:	041c      	lsls	r4, r3, #16
10005562:	0c1d      	lsrs	r5, r3, #16
10005564:	18a4      	adds	r4, r4, r2
10005566:	417d      	adcs	r5, r7
10005568:	1924      	adds	r4, r4, r4
1000556a:	416d      	adcs	r5, r5
1000556c:	9a00      	ldr	r2, [sp, #0]
1000556e:	b291      	uxth	r1, r2
10005570:	b2ac      	uxth	r4, r5
10005572:	4361      	muls	r1, r4
10005574:	0c17      	lsrs	r7, r2, #16
10005576:	437c      	muls	r4, r7
10005578:	0c2b      	lsrs	r3, r5, #16
1000557a:	435f      	muls	r7, r3
1000557c:	b292      	uxth	r2, r2
1000557e:	435a      	muls	r2, r3
10005580:	18a4      	adds	r4, r4, r2
10005582:	d302      	bcc.n	1000558a <l22_1>
10005584:	2201      	movs	r2, #1
10005586:	0412      	lsls	r2, r2, #16
10005588:	18bf      	adds	r7, r7, r2

1000558a <l22_1>:
1000558a:	0422      	lsls	r2, r4, #16
1000558c:	0c23      	lsrs	r3, r4, #16
1000558e:	1852      	adds	r2, r2, r1
10005590:	417b      	adcs	r3, r7
10005592:	9c01      	ldr	r4, [sp, #4]
10005594:	436c      	muls	r4, r5
10005596:	191b      	adds	r3, r3, r4
10005598:	0e52      	lsrs	r2, r2, #25
1000559a:	01d9      	lsls	r1, r3, #7
1000559c:	430a      	orrs	r2, r1
1000559e:	0144      	lsls	r4, r0, #5
100055a0:	1aa0      	subs	r0, r4, r2
100055a2:	b281      	uxth	r1, r0
100055a4:	b2b2      	uxth	r2, r6
100055a6:	4351      	muls	r1, r2
100055a8:	1403      	asrs	r3, r0, #16
100055aa:	435a      	muls	r2, r3
100055ac:	0c36      	lsrs	r6, r6, #16
100055ae:	4373      	muls	r3, r6
100055b0:	b287      	uxth	r7, r0
100055b2:	4377      	muls	r7, r6
100055b4:	17d6      	asrs	r6, r2, #31
100055b6:	19d2      	adds	r2, r2, r7
100055b8:	2700      	movs	r7, #0
100055ba:	417e      	adcs	r6, r7
100055bc:	0436      	lsls	r6, r6, #16
100055be:	199b      	adds	r3, r3, r6
100055c0:	0417      	lsls	r7, r2, #16
100055c2:	0c16      	lsrs	r6, r2, #16
100055c4:	187f      	adds	r7, r7, r1
100055c6:	415e      	adcs	r6, r3
100055c8:	1673      	asrs	r3, r6, #25
100055ca:	18ed      	adds	r5, r5, r3
100055cc:	01f3      	lsls	r3, r6, #7
100055ce:	2600      	movs	r6, #0
100055d0:	3380      	adds	r3, #128	; 0x80
100055d2:	4175      	adcs	r5, r6
100055d4:	0fa9      	lsrs	r1, r5, #30
100055d6:	d106      	bne.n	100055e6 <dd_0>
100055d8:	0064      	lsls	r4, r4, #1
100055da:	0a69      	lsrs	r1, r5, #9
100055dc:	05e8      	lsls	r0, r5, #23
100055de:	0a5b      	lsrs	r3, r3, #9
100055e0:	4318      	orrs	r0, r3
100055e2:	d209      	bcs.n	100055f8 <dd_1>
100055e4:	e02f      	b.n	10005646 <dd_2>

100055e6 <dd_0>:
100055e6:	2204      	movs	r2, #4
100055e8:	4494      	add	ip, r2
100055ea:	3380      	adds	r3, #128	; 0x80
100055ec:	4175      	adcs	r5, r6
100055ee:	0aa9      	lsrs	r1, r5, #10
100055f0:	05a8      	lsls	r0, r5, #22
100055f2:	0a9b      	lsrs	r3, r3, #10
100055f4:	4318      	orrs	r0, r3
100055f6:	d326      	bcc.n	10005646 <dd_2>

100055f8 <dd_1>:
100055f8:	4140      	adcs	r0, r0
100055fa:	4149      	adcs	r1, r1
100055fc:	0424      	lsls	r4, r4, #16
100055fe:	9a00      	ldr	r2, [sp, #0]
10005600:	9b01      	ldr	r3, [sp, #4]
10005602:	000d      	movs	r5, r1
10005604:	4355      	muls	r5, r2
10005606:	1b64      	subs	r4, r4, r5
10005608:	4343      	muls	r3, r0
1000560a:	1ae4      	subs	r4, r4, r3
1000560c:	b295      	uxth	r5, r2
1000560e:	b286      	uxth	r6, r0
10005610:	4375      	muls	r5, r6
10005612:	0c17      	lsrs	r7, r2, #16
10005614:	437e      	muls	r6, r7
10005616:	0c03      	lsrs	r3, r0, #16
10005618:	435f      	muls	r7, r3
1000561a:	b292      	uxth	r2, r2
1000561c:	435a      	muls	r2, r3
1000561e:	18b6      	adds	r6, r6, r2
10005620:	d302      	bcc.n	10005628 <l24_1>
10005622:	2201      	movs	r2, #1
10005624:	0412      	lsls	r2, r2, #16
10005626:	18bf      	adds	r7, r7, r2

10005628 <l24_1>:
10005628:	0432      	lsls	r2, r6, #16
1000562a:	0c33      	lsrs	r3, r6, #16
1000562c:	1952      	adds	r2, r2, r5
1000562e:	417b      	adcs	r3, r7
10005630:	4252      	negs	r2, r2
10005632:	419c      	sbcs	r4, r3
10005634:	2c00      	cmp	r4, #0
10005636:	d402      	bmi.n	1000563e <l24_1+0x16>
10005638:	2200      	movs	r2, #0
1000563a:	3001      	adds	r0, #1
1000563c:	4151      	adcs	r1, r2
1000563e:	0840      	lsrs	r0, r0, #1
10005640:	07ca      	lsls	r2, r1, #31
10005642:	4310      	orrs	r0, r2
10005644:	0849      	lsrs	r1, r1, #1

10005646 <dd_2>:
10005646:	b002      	add	sp, #8
10005648:	4662      	mov	r2, ip
1000564a:	07d7      	lsls	r7, r2, #31
1000564c:	1092      	asrs	r2, r2, #2
1000564e:	4b08      	ldr	r3, [pc, #32]	; (10005670 <dd_4+0x6>)
10005650:	18d2      	adds	r2, r2, r3
10005652:	4b08      	ldr	r3, [pc, #32]	; (10005674 <dd_4+0xa>)
10005654:	429a      	cmp	r2, r3
10005656:	d203      	bcs.n	10005660 <dd_3>
10005658:	0512      	lsls	r2, r2, #20
1000565a:	1889      	adds	r1, r1, r2

1000565c <dd_5>:
1000565c:	19c9      	adds	r1, r1, r7
1000565e:	bdf0      	pop	{r4, r5, r6, r7, pc}

10005660 <dd_3>:
10005660:	2000      	movs	r0, #0
10005662:	2a00      	cmp	r2, #0
10005664:	dc01      	bgt.n	1000566a <dd_4>
10005666:	0039      	movs	r1, r7
10005668:	bdf0      	pop	{r4, r5, r6, r7, pc}

1000566a <dd_4>:
1000566a:	3301      	adds	r3, #1
1000566c:	0519      	lsls	r1, r3, #20
1000566e:	e7f5      	b.n	1000565c <dd_5>
10005670:	000003fd 	.word	0x000003fd
10005674:	000007fe 	.word	0x000007fe

10005678 <double2uint_shim>:
10005678:	2200      	movs	r2, #0

1000567a <double2ufix_shim>:
1000567a:	b500      	push	{lr}
1000567c:	3220      	adds	r2, #32
1000567e:	f000 f804 	bl	1000568a <double2ufix64_shim>
10005682:	0008      	movs	r0, r1
10005684:	bd00      	pop	{pc}
	...

10005688 <double2uint64_shim>:
10005688:	2200      	movs	r2, #0

1000568a <double2ufix64_shim>:
1000568a:	150b      	asrs	r3, r1, #20
1000568c:	d40a      	bmi.n	100056a4 <ret_dzero>

1000568e <d2fix>:
1000568e:	b510      	push	{r4, lr}
10005690:	4694      	mov	ip, r2
10005692:	f000 f831 	bl	100056f8 <dunpacks>
10005696:	1414      	asrs	r4, r2, #16
10005698:	3401      	adds	r4, #1
1000569a:	da00      	bge.n	1000569e <d2fix+0x10>
1000569c:	2100      	movs	r1, #0
1000569e:	17cb      	asrs	r3, r1, #31
100056a0:	4c14      	ldr	r4, [pc, #80]	; (100056f4 <d2fix_a+0x4a>)
100056a2:	4720      	bx	r4

100056a4 <ret_dzero>:
100056a4:	2000      	movs	r0, #0
100056a6:	2100      	movs	r1, #0
100056a8:	4770      	bx	lr

100056aa <d2fix_a>:
100056aa:	4462      	add	r2, ip
100056ac:	3a34      	subs	r2, #52	; 0x34
100056ae:	d40c      	bmi.n	100056ca <d2fix_a+0x20>
100056b0:	2a0c      	cmp	r2, #12
100056b2:	da07      	bge.n	100056c4 <d2fix_a+0x1a>
100056b4:	0004      	movs	r4, r0
100056b6:	4091      	lsls	r1, r2
100056b8:	4090      	lsls	r0, r2
100056ba:	4252      	negs	r2, r2
100056bc:	3220      	adds	r2, #32
100056be:	40d4      	lsrs	r4, r2
100056c0:	4321      	orrs	r1, r4
100056c2:	bd10      	pop	{r4, pc}
100056c4:	43d8      	mvns	r0, r3
100056c6:	43d9      	mvns	r1, r3
100056c8:	bd10      	pop	{r4, pc}
100056ca:	3220      	adds	r2, #32
100056cc:	d407      	bmi.n	100056de <d2fix_a+0x34>
100056ce:	460c      	mov	r4, r1
100056d0:	4094      	lsls	r4, r2
100056d2:	4252      	negs	r2, r2
100056d4:	3220      	adds	r2, #32
100056d6:	4111      	asrs	r1, r2
100056d8:	40d0      	lsrs	r0, r2
100056da:	4320      	orrs	r0, r4
100056dc:	bd10      	pop	{r4, pc}
100056de:	0008      	movs	r0, r1
100056e0:	17c9      	asrs	r1, r1, #31
100056e2:	3220      	adds	r2, #32
100056e4:	d403      	bmi.n	100056ee <d2fix_a+0x44>
100056e6:	4252      	negs	r2, r2
100056e8:	3220      	adds	r2, #32
100056ea:	4110      	asrs	r0, r2
100056ec:	bd10      	pop	{r4, pc}
100056ee:	0018      	movs	r0, r3
100056f0:	0019      	movs	r1, r3
100056f2:	bd10      	pop	{r4, pc}
100056f4:	100056ab 	.word	0x100056ab

100056f8 <dunpacks>:
100056f8:	0d0a      	lsrs	r2, r1, #20
100056fa:	0fcc      	lsrs	r4, r1, #31
100056fc:	1e53      	subs	r3, r2, #1
100056fe:	051b      	lsls	r3, r3, #20
10005700:	1ac9      	subs	r1, r1, r3
10005702:	0552      	lsls	r2, r2, #21
10005704:	d303      	bcc.n	1000570e <l60_1>
10005706:	43c9      	mvns	r1, r1
10005708:	4240      	negs	r0, r0
1000570a:	d300      	bcc.n	1000570e <l60_1>
1000570c:	3101      	adds	r1, #1

1000570e <l60_1>:
1000570e:	0d52      	lsrs	r2, r2, #21
10005710:	d003      	beq.n	1000571a <l60_2>
10005712:	1c53      	adds	r3, r2, #1
10005714:	0adb      	lsrs	r3, r3, #11
10005716:	d007      	beq.n	10005728 <l60_3>
10005718:	1b12      	subs	r2, r2, r4

1000571a <l60_2>:
1000571a:	2000      	movs	r0, #0
1000571c:	0064      	lsls	r4, r4, #1
1000571e:	1c61      	adds	r1, r4, #1
10005720:	0789      	lsls	r1, r1, #30
10005722:	1289      	asrs	r1, r1, #10
10005724:	3a80      	subs	r2, #128	; 0x80
10005726:	0312      	lsls	r2, r2, #12

10005728 <l60_3>:
10005728:	4b01      	ldr	r3, [pc, #4]	; (10005730 <l60_3+0x8>)
1000572a:	1ad2      	subs	r2, r2, r3
1000572c:	4770      	bx	lr
1000572e:	0000      	.short	0x0000
10005730:	000003ff 	.word	0x000003ff

10005734 <__aeabi_float_init>:
10005734:	2313      	movs	r3, #19
10005736:	b510      	push	{r4, lr}
10005738:	4812      	ldr	r0, [pc, #72]	; (10005784 <__aeabi_float_init+0x50>)
1000573a:	781c      	ldrb	r4, [r3, #0]
1000573c:	f7fe ff5c 	bl	100045f8 <rom_data_lookup>
10005740:	0001      	movs	r1, r0
10005742:	2c01      	cmp	r4, #1
10005744:	d00a      	beq.n	1000575c <__aeabi_float_init+0x28>
10005746:	dd03      	ble.n	10005750 <__aeabi_float_init+0x1c>
10005748:	2280      	movs	r2, #128	; 0x80
1000574a:	480f      	ldr	r0, [pc, #60]	; (10005788 <__aeabi_float_init+0x54>)
1000574c:	f000 f848 	bl	100057e0 <__wrap___aeabi_memcpy>
10005750:	480e      	ldr	r0, [pc, #56]	; (1000578c <__aeabi_float_init+0x58>)
10005752:	f7fe ff49 	bl	100045e8 <rom_func_lookup>
10005756:	4b0e      	ldr	r3, [pc, #56]	; (10005790 <__aeabi_float_init+0x5c>)
10005758:	6018      	str	r0, [r3, #0]
1000575a:	bd10      	pop	{r4, pc}
1000575c:	4c0a      	ldr	r4, [pc, #40]	; (10005788 <__aeabi_float_init+0x54>)
1000575e:	2254      	movs	r2, #84	; 0x54
10005760:	0020      	movs	r0, r4
10005762:	f000 f83d 	bl	100057e0 <__wrap___aeabi_memcpy>
10005766:	4b0b      	ldr	r3, [pc, #44]	; (10005794 <__aeabi_float_init+0x60>)
10005768:	6563      	str	r3, [r4, #84]	; 0x54
1000576a:	65a3      	str	r3, [r4, #88]	; 0x58
1000576c:	65e3      	str	r3, [r4, #92]	; 0x5c
1000576e:	6623      	str	r3, [r4, #96]	; 0x60
10005770:	6663      	str	r3, [r4, #100]	; 0x64
10005772:	66a3      	str	r3, [r4, #104]	; 0x68
10005774:	66e3      	str	r3, [r4, #108]	; 0x6c
10005776:	6723      	str	r3, [r4, #112]	; 0x70
10005778:	6763      	str	r3, [r4, #116]	; 0x74
1000577a:	67a3      	str	r3, [r4, #120]	; 0x78
1000577c:	67e3      	str	r3, [r4, #124]	; 0x7c
1000577e:	6223      	str	r3, [r4, #32]
10005780:	61e3      	str	r3, [r4, #28]
10005782:	e7e5      	b.n	10005750 <__aeabi_float_init+0x1c>
10005784:	00004653 	.word	0x00004653
10005788:	20000568 	.word	0x20000568
1000578c:	0000334c 	.word	0x0000334c
10005790:	20000a00 	.word	0x20000a00
10005794:	10005799 	.word	0x10005799

10005798 <float_table_shim_on_use_helper>:
10005798:	b507      	push	{r0, r1, r2, lr}
1000579a:	4660      	mov	r0, ip
1000579c:	8801      	ldrh	r1, [r0, #0]
1000579e:	0a0a      	lsrs	r2, r1, #8
100057a0:	3002      	adds	r0, #2
100057a2:	2adf      	cmp	r2, #223	; 0xdf
100057a4:	d1fa      	bne.n	1000579c <float_table_shim_on_use_helper+0x4>
100057a6:	b2c9      	uxtb	r1, r1
100057a8:	0882      	lsrs	r2, r0, #2
100057aa:	d304      	bcc.n	100057b6 <float_table_shim_on_use_helper+0x1e>
100057ac:	8802      	ldrh	r2, [r0, #0]
100057ae:	8840      	ldrh	r0, [r0, #2]
100057b0:	0400      	lsls	r0, r0, #16
100057b2:	4310      	orrs	r0, r2
100057b4:	e000      	b.n	100057b8 <float_table_shim_on_use_helper+0x20>
100057b6:	6800      	ldr	r0, [r0, #0]
100057b8:	4a01      	ldr	r2, [pc, #4]	; (100057c0 <float_table_shim_on_use_helper+0x28>)
100057ba:	5050      	str	r0, [r2, r1]
100057bc:	9003      	str	r0, [sp, #12]
100057be:	bd07      	pop	{r0, r1, r2, pc}
100057c0:	20000568 	.word	0x20000568

100057c4 <__aeabi_mem_init>:
100057c4:	4801      	ldr	r0, [pc, #4]	; (100057cc <__aeabi_mem_init+0x8>)
100057c6:	2104      	movs	r1, #4
100057c8:	4b01      	ldr	r3, [pc, #4]	; (100057d0 <__aeabi_mem_init+0xc>)
100057ca:	4718      	bx	r3
100057cc:	200002b0 	.word	0x200002b0
100057d0:	10004609 	.word	0x10004609

100057d4 <__wrap_memset>:
100057d4:	4b01      	ldr	r3, [pc, #4]	; (100057dc <__wrap_memset+0x8>)
100057d6:	681b      	ldr	r3, [r3, #0]
100057d8:	4718      	bx	r3
100057da:	0000      	.short	0x0000
100057dc:	200002b0 	.word	0x200002b0

100057e0 <__wrap___aeabi_memcpy>:
100057e0:	4b01      	ldr	r3, [pc, #4]	; (100057e8 <__wrap___aeabi_memcpy+0x8>)
100057e2:	685b      	ldr	r3, [r3, #4]
100057e4:	4718      	bx	r3
100057e6:	0000      	.short	0x0000
100057e8:	200002b0 	.word	0x200002b0

100057ec <_out_null>:
100057ec:	4770      	bx	lr
100057ee:	46c0      	nop			; (mov r8, r8)

100057f0 <_out_rev>:
100057f0:	b5f8      	push	{r3, r4, r5, r6, r7, lr}
100057f2:	4657      	mov	r7, sl
100057f4:	464e      	mov	r6, r9
100057f6:	4645      	mov	r5, r8
100057f8:	46de      	mov	lr, fp
100057fa:	b5e0      	push	{r5, r6, r7, lr}
100057fc:	4699      	mov	r9, r3
100057fe:	9b0a      	ldr	r3, [sp, #40]	; 0x28
10005800:	0007      	movs	r7, r0
10005802:	469a      	mov	sl, r3
10005804:	9b0d      	ldr	r3, [sp, #52]	; 0x34
10005806:	4688      	mov	r8, r1
10005808:	4693      	mov	fp, r2
1000580a:	0015      	movs	r5, r2
1000580c:	9e0b      	ldr	r6, [sp, #44]	; 0x2c
1000580e:	079b      	lsls	r3, r3, #30
10005810:	d110      	bne.n	10005834 <_out_rev+0x44>
10005812:	9b0c      	ldr	r3, [sp, #48]	; 0x30
10005814:	429e      	cmp	r6, r3
10005816:	d20d      	bcs.n	10005834 <_out_rev+0x44>
10005818:	1b9d      	subs	r5, r3, r6
1000581a:	0014      	movs	r4, r2
1000581c:	000e      	movs	r6, r1
1000581e:	445d      	add	r5, fp
10005820:	0022      	movs	r2, r4
10005822:	464b      	mov	r3, r9
10005824:	3401      	adds	r4, #1
10005826:	0031      	movs	r1, r6
10005828:	2020      	movs	r0, #32
1000582a:	47b8      	blx	r7
1000582c:	42a5      	cmp	r5, r4
1000582e:	d1f7      	bne.n	10005820 <_out_rev+0x30>
10005830:	46b0      	mov	r8, r6
10005832:	9e0b      	ldr	r6, [sp, #44]	; 0x2c
10005834:	2e00      	cmp	r6, #0
10005836:	d027      	beq.n	10005888 <_out_rev+0x98>
10005838:	4644      	mov	r4, r8
1000583a:	1975      	adds	r5, r6, r5
1000583c:	4653      	mov	r3, sl
1000583e:	1baa      	subs	r2, r5, r6
10005840:	3e01      	subs	r6, #1
10005842:	5d98      	ldrb	r0, [r3, r6]
10005844:	0021      	movs	r1, r4
10005846:	464b      	mov	r3, r9
10005848:	47b8      	blx	r7
1000584a:	2e00      	cmp	r6, #0
1000584c:	d1f6      	bne.n	1000583c <_out_rev+0x4c>
1000584e:	0023      	movs	r3, r4
10005850:	002c      	movs	r4, r5
10005852:	4698      	mov	r8, r3
10005854:	9b0d      	ldr	r3, [sp, #52]	; 0x34
10005856:	079b      	lsls	r3, r3, #30
10005858:	d50f      	bpl.n	1000587a <_out_rev+0x8a>
1000585a:	465b      	mov	r3, fp
1000585c:	1ae5      	subs	r5, r4, r3
1000585e:	9b0c      	ldr	r3, [sp, #48]	; 0x30
10005860:	42ab      	cmp	r3, r5
10005862:	d90a      	bls.n	1000587a <_out_rev+0x8a>
10005864:	4646      	mov	r6, r8
10005866:	4698      	mov	r8, r3
10005868:	0022      	movs	r2, r4
1000586a:	464b      	mov	r3, r9
1000586c:	0031      	movs	r1, r6
1000586e:	2020      	movs	r0, #32
10005870:	3501      	adds	r5, #1
10005872:	47b8      	blx	r7
10005874:	3401      	adds	r4, #1
10005876:	45a8      	cmp	r8, r5
10005878:	d8f6      	bhi.n	10005868 <_out_rev+0x78>
1000587a:	0020      	movs	r0, r4
1000587c:	bcf0      	pop	{r4, r5, r6, r7}
1000587e:	46bb      	mov	fp, r7
10005880:	46b2      	mov	sl, r6
10005882:	46a9      	mov	r9, r5
10005884:	46a0      	mov	r8, r4
10005886:	bdf8      	pop	{r3, r4, r5, r6, r7, pc}
10005888:	002c      	movs	r4, r5
1000588a:	e7e3      	b.n	10005854 <_out_rev+0x64>

1000588c <_ntoa_format>:
1000588c:	b5f0      	push	{r4, r5, r6, r7, lr}
1000588e:	464f      	mov	r7, r9
10005890:	4646      	mov	r6, r8
10005892:	46d6      	mov	lr, sl
10005894:	b5c0      	push	{r6, r7, lr}
10005896:	b084      	sub	sp, #16
10005898:	4698      	mov	r8, r3
1000589a:	ab0e      	add	r3, sp, #56	; 0x38
1000589c:	781b      	ldrb	r3, [r3, #0]
1000589e:	9f12      	ldr	r7, [sp, #72]	; 0x48
100058a0:	4699      	mov	r9, r3
100058a2:	4694      	mov	ip, r2
100058a4:	9c0d      	ldr	r4, [sp, #52]	; 0x34
100058a6:	9b10      	ldr	r3, [sp, #64]	; 0x40
100058a8:	9e11      	ldr	r6, [sp, #68]	; 0x44
100058aa:	07ba      	lsls	r2, r7, #30
100058ac:	d425      	bmi.n	100058fa <_ntoa_format+0x6e>
100058ae:	2e00      	cmp	r6, #0
100058b0:	d14b      	bne.n	1000594a <_ntoa_format+0xbe>
100058b2:	429c      	cmp	r4, r3
100058b4:	d300      	bcc.n	100058b8 <_ntoa_format+0x2c>
100058b6:	e0bf      	b.n	10005a38 <_ntoa_format+0x1ac>
100058b8:	2201      	movs	r2, #1
100058ba:	403a      	ands	r2, r7
100058bc:	4692      	mov	sl, r2
100058be:	2c1f      	cmp	r4, #31
100058c0:	d900      	bls.n	100058c4 <_ntoa_format+0x38>
100058c2:	e0b8      	b.n	10005a36 <_ntoa_format+0x1aa>
100058c4:	9a0c      	ldr	r2, [sp, #48]	; 0x30
100058c6:	1e55      	subs	r5, r2, #1
100058c8:	2230      	movs	r2, #48	; 0x30
100058ca:	e001      	b.n	100058d0 <_ntoa_format+0x44>
100058cc:	2c20      	cmp	r4, #32
100058ce:	d003      	beq.n	100058d8 <_ntoa_format+0x4c>
100058d0:	3401      	adds	r4, #1
100058d2:	552a      	strb	r2, [r5, r4]
100058d4:	42a3      	cmp	r3, r4
100058d6:	d8f9      	bhi.n	100058cc <_ntoa_format+0x40>
100058d8:	4652      	mov	r2, sl
100058da:	2a00      	cmp	r2, #0
100058dc:	d00d      	beq.n	100058fa <_ntoa_format+0x6e>
100058de:	42a6      	cmp	r6, r4
100058e0:	d90b      	bls.n	100058fa <_ntoa_format+0x6e>
100058e2:	2c20      	cmp	r4, #32
100058e4:	d044      	beq.n	10005970 <_ntoa_format+0xe4>
100058e6:	9a0c      	ldr	r2, [sp, #48]	; 0x30
100058e8:	1e55      	subs	r5, r2, #1
100058ea:	2230      	movs	r2, #48	; 0x30
100058ec:	e001      	b.n	100058f2 <_ntoa_format+0x66>
100058ee:	2c20      	cmp	r4, #32
100058f0:	d03e      	beq.n	10005970 <_ntoa_format+0xe4>
100058f2:	3401      	adds	r4, #1
100058f4:	552a      	strb	r2, [r5, r4]
100058f6:	42b4      	cmp	r4, r6
100058f8:	d1f9      	bne.n	100058ee <_ntoa_format+0x62>
100058fa:	06fa      	lsls	r2, r7, #27
100058fc:	d54d      	bpl.n	1000599a <_ntoa_format+0x10e>
100058fe:	057a      	lsls	r2, r7, #21
10005900:	d43f      	bmi.n	10005982 <_ntoa_format+0xf6>
10005902:	2c00      	cmp	r4, #0
10005904:	d139      	bne.n	1000597a <_ntoa_format+0xee>
10005906:	9b0f      	ldr	r3, [sp, #60]	; 0x3c
10005908:	2b10      	cmp	r3, #16
1000590a:	d100      	bne.n	1000590e <_ntoa_format+0x82>
1000590c:	e079      	b.n	10005a02 <_ntoa_format+0x176>
1000590e:	9b0f      	ldr	r3, [sp, #60]	; 0x3c
10005910:	2b02      	cmp	r3, #2
10005912:	d100      	bne.n	10005916 <_ntoa_format+0x8a>
10005914:	e08a      	b.n	10005a2c <_ntoa_format+0x1a0>
10005916:	2330      	movs	r3, #48	; 0x30
10005918:	9a0c      	ldr	r2, [sp, #48]	; 0x30
1000591a:	2401      	movs	r4, #1
1000591c:	7013      	strb	r3, [r2, #0]
1000591e:	464b      	mov	r3, r9
10005920:	2b00      	cmp	r3, #0
10005922:	d03f      	beq.n	100059a4 <_ntoa_format+0x118>
10005924:	232d      	movs	r3, #45	; 0x2d
10005926:	9a0c      	ldr	r2, [sp, #48]	; 0x30
10005928:	5513      	strb	r3, [r2, r4]
1000592a:	3401      	adds	r4, #1
1000592c:	9b0c      	ldr	r3, [sp, #48]	; 0x30
1000592e:	4662      	mov	r2, ip
10005930:	9300      	str	r3, [sp, #0]
10005932:	9703      	str	r7, [sp, #12]
10005934:	4643      	mov	r3, r8
10005936:	9602      	str	r6, [sp, #8]
10005938:	9401      	str	r4, [sp, #4]
1000593a:	f7ff ff59 	bl	100057f0 <_out_rev>
1000593e:	b004      	add	sp, #16
10005940:	bce0      	pop	{r5, r6, r7}
10005942:	46ba      	mov	sl, r7
10005944:	46b1      	mov	r9, r6
10005946:	46a8      	mov	r8, r5
10005948:	bdf0      	pop	{r4, r5, r6, r7, pc}
1000594a:	2201      	movs	r2, #1
1000594c:	0015      	movs	r5, r2
1000594e:	403d      	ands	r5, r7
10005950:	46aa      	mov	sl, r5
10005952:	423a      	tst	r2, r7
10005954:	d02f      	beq.n	100059b6 <_ntoa_format+0x12a>
10005956:	464a      	mov	r2, r9
10005958:	2a00      	cmp	r2, #0
1000595a:	d102      	bne.n	10005962 <_ntoa_format+0xd6>
1000595c:	320c      	adds	r2, #12
1000595e:	423a      	tst	r2, r7
10005960:	d000      	beq.n	10005964 <_ntoa_format+0xd8>
10005962:	3e01      	subs	r6, #1
10005964:	429c      	cmp	r4, r3
10005966:	d2ba      	bcs.n	100058de <_ntoa_format+0x52>
10005968:	2c1f      	cmp	r4, #31
1000596a:	d9ab      	bls.n	100058c4 <_ntoa_format+0x38>
1000596c:	2e20      	cmp	r6, #32
1000596e:	d927      	bls.n	100059c0 <_ntoa_format+0x134>
10005970:	2420      	movs	r4, #32
10005972:	06fa      	lsls	r2, r7, #27
10005974:	d5da      	bpl.n	1000592c <_ntoa_format+0xa0>
10005976:	057a      	lsls	r2, r7, #21
10005978:	d403      	bmi.n	10005982 <_ntoa_format+0xf6>
1000597a:	42a3      	cmp	r3, r4
1000597c:	d02d      	beq.n	100059da <_ntoa_format+0x14e>
1000597e:	42a6      	cmp	r6, r4
10005980:	d02b      	beq.n	100059da <_ntoa_format+0x14e>
10005982:	9b0f      	ldr	r3, [sp, #60]	; 0x3c
10005984:	2b10      	cmp	r3, #16
10005986:	d032      	beq.n	100059ee <_ntoa_format+0x162>
10005988:	2b02      	cmp	r3, #2
1000598a:	d020      	beq.n	100059ce <_ntoa_format+0x142>
1000598c:	2c20      	cmp	r4, #32
1000598e:	d0cd      	beq.n	1000592c <_ntoa_format+0xa0>
10005990:	2230      	movs	r2, #48	; 0x30
10005992:	9b0c      	ldr	r3, [sp, #48]	; 0x30
10005994:	191b      	adds	r3, r3, r4
10005996:	701a      	strb	r2, [r3, #0]
10005998:	3401      	adds	r4, #1
1000599a:	2c20      	cmp	r4, #32
1000599c:	d0c6      	beq.n	1000592c <_ntoa_format+0xa0>
1000599e:	464b      	mov	r3, r9
100059a0:	2b00      	cmp	r3, #0
100059a2:	d1bf      	bne.n	10005924 <_ntoa_format+0x98>
100059a4:	077b      	lsls	r3, r7, #29
100059a6:	d40d      	bmi.n	100059c4 <_ntoa_format+0x138>
100059a8:	073b      	lsls	r3, r7, #28
100059aa:	d5bf      	bpl.n	1000592c <_ntoa_format+0xa0>
100059ac:	2320      	movs	r3, #32
100059ae:	9a0c      	ldr	r2, [sp, #48]	; 0x30
100059b0:	5513      	strb	r3, [r2, r4]
100059b2:	3401      	adds	r4, #1
100059b4:	e7ba      	b.n	1000592c <_ntoa_format+0xa0>
100059b6:	429c      	cmp	r4, r3
100059b8:	d29f      	bcs.n	100058fa <_ntoa_format+0x6e>
100059ba:	2c1f      	cmp	r4, #31
100059bc:	d800      	bhi.n	100059c0 <_ntoa_format+0x134>
100059be:	e781      	b.n	100058c4 <_ntoa_format+0x38>
100059c0:	2420      	movs	r4, #32
100059c2:	e79a      	b.n	100058fa <_ntoa_format+0x6e>
100059c4:	232b      	movs	r3, #43	; 0x2b
100059c6:	9a0c      	ldr	r2, [sp, #48]	; 0x30
100059c8:	5513      	strb	r3, [r2, r4]
100059ca:	3401      	adds	r4, #1
100059cc:	e7ae      	b.n	1000592c <_ntoa_format+0xa0>
100059ce:	2c20      	cmp	r4, #32
100059d0:	d0ac      	beq.n	1000592c <_ntoa_format+0xa0>
100059d2:	9b0c      	ldr	r3, [sp, #48]	; 0x30
100059d4:	191b      	adds	r3, r3, r4
100059d6:	3401      	adds	r4, #1
100059d8:	e03a      	b.n	10005a50 <_ntoa_format+0x1c4>
100059da:	1e63      	subs	r3, r4, #1
100059dc:	2c01      	cmp	r4, #1
100059de:	d092      	beq.n	10005906 <_ntoa_format+0x7a>
100059e0:	9a0f      	ldr	r2, [sp, #60]	; 0x3c
100059e2:	2a10      	cmp	r2, #16
100059e4:	d02a      	beq.n	10005a3c <_ntoa_format+0x1b0>
100059e6:	2a02      	cmp	r2, #2
100059e8:	d02f      	beq.n	10005a4a <_ntoa_format+0x1be>
100059ea:	001c      	movs	r4, r3
100059ec:	e7d0      	b.n	10005990 <_ntoa_format+0x104>
100059ee:	06bb      	lsls	r3, r7, #26
100059f0:	d40e      	bmi.n	10005a10 <_ntoa_format+0x184>
100059f2:	2c20      	cmp	r4, #32
100059f4:	d09a      	beq.n	1000592c <_ntoa_format+0xa0>
100059f6:	9b0c      	ldr	r3, [sp, #48]	; 0x30
100059f8:	191a      	adds	r2, r3, r4
100059fa:	3401      	adds	r4, #1
100059fc:	2378      	movs	r3, #120	; 0x78
100059fe:	7013      	strb	r3, [r2, #0]
10005a00:	e7c4      	b.n	1000598c <_ntoa_format+0x100>
10005a02:	06bb      	lsls	r3, r7, #26
10005a04:	d40d      	bmi.n	10005a22 <_ntoa_format+0x196>
10005a06:	2378      	movs	r3, #120	; 0x78
10005a08:	9a0c      	ldr	r2, [sp, #48]	; 0x30
10005a0a:	2401      	movs	r4, #1
10005a0c:	7013      	strb	r3, [r2, #0]
10005a0e:	e7bf      	b.n	10005990 <_ntoa_format+0x104>
10005a10:	2c20      	cmp	r4, #32
10005a12:	d100      	bne.n	10005a16 <_ntoa_format+0x18a>
10005a14:	e78a      	b.n	1000592c <_ntoa_format+0xa0>
10005a16:	2258      	movs	r2, #88	; 0x58
10005a18:	9b0c      	ldr	r3, [sp, #48]	; 0x30
10005a1a:	191b      	adds	r3, r3, r4
10005a1c:	701a      	strb	r2, [r3, #0]
10005a1e:	3401      	adds	r4, #1
10005a20:	e7b4      	b.n	1000598c <_ntoa_format+0x100>
10005a22:	2358      	movs	r3, #88	; 0x58
10005a24:	9a0c      	ldr	r2, [sp, #48]	; 0x30
10005a26:	2401      	movs	r4, #1
10005a28:	7013      	strb	r3, [r2, #0]
10005a2a:	e7b1      	b.n	10005990 <_ntoa_format+0x104>
10005a2c:	9a0c      	ldr	r2, [sp, #48]	; 0x30
10005a2e:	3360      	adds	r3, #96	; 0x60
10005a30:	2401      	movs	r4, #1
10005a32:	7013      	strb	r3, [r2, #0]
10005a34:	e7ac      	b.n	10005990 <_ntoa_format+0x104>
10005a36:	2420      	movs	r4, #32
10005a38:	2600      	movs	r6, #0
10005a3a:	e75e      	b.n	100058fa <_ntoa_format+0x6e>
10005a3c:	3c02      	subs	r4, #2
10005a3e:	06ba      	lsls	r2, r7, #26
10005a40:	d4e9      	bmi.n	10005a16 <_ntoa_format+0x18a>
10005a42:	9a0c      	ldr	r2, [sp, #48]	; 0x30
10005a44:	1912      	adds	r2, r2, r4
10005a46:	001c      	movs	r4, r3
10005a48:	e7d8      	b.n	100059fc <_ntoa_format+0x170>
10005a4a:	9a0c      	ldr	r2, [sp, #48]	; 0x30
10005a4c:	4692      	mov	sl, r2
10005a4e:	4453      	add	r3, sl
10005a50:	2262      	movs	r2, #98	; 0x62
10005a52:	701a      	strb	r2, [r3, #0]
10005a54:	e79a      	b.n	1000598c <_ntoa_format+0x100>
10005a56:	46c0      	nop			; (mov r8, r8)

10005a58 <_out_char>:
10005a58:	b510      	push	{r4, lr}
10005a5a:	2800      	cmp	r0, #0
10005a5c:	d100      	bne.n	10005a60 <_out_char+0x8>
10005a5e:	bd10      	pop	{r4, pc}
10005a60:	f001 faf4 	bl	1000704c <__wrap_putchar>
10005a64:	e7fb      	b.n	10005a5e <_out_char+0x6>
10005a66:	46c0      	nop			; (mov r8, r8)

10005a68 <_out_fct>:
10005a68:	000b      	movs	r3, r1
10005a6a:	b510      	push	{r4, lr}
10005a6c:	2800      	cmp	r0, #0
10005a6e:	d002      	beq.n	10005a76 <_out_fct+0xe>
10005a70:	6849      	ldr	r1, [r1, #4]
10005a72:	681b      	ldr	r3, [r3, #0]
10005a74:	4798      	blx	r3
10005a76:	bd10      	pop	{r4, pc}

10005a78 <_etoa>:
10005a78:	b5f0      	push	{r4, r5, r6, r7, lr}
10005a7a:	46de      	mov	lr, fp
10005a7c:	4657      	mov	r7, sl
10005a7e:	464e      	mov	r6, r9
10005a80:	4645      	mov	r5, r8
10005a82:	b5e0      	push	{r5, r6, r7, lr}
10005a84:	b09b      	sub	sp, #108	; 0x6c
10005a86:	469b      	mov	fp, r3
10005a88:	9b24      	ldr	r3, [sp, #144]	; 0x90
10005a8a:	4689      	mov	r9, r1
10005a8c:	4698      	mov	r8, r3
10005a8e:	9b25      	ldr	r3, [sp, #148]	; 0x94
10005a90:	900b      	str	r0, [sp, #44]	; 0x2c
10005a92:	920c      	str	r2, [sp, #48]	; 0x30
10005a94:	4640      	mov	r0, r8
10005a96:	4642      	mov	r2, r8
10005a98:	0019      	movs	r1, r3
10005a9a:	469a      	mov	sl, r3
10005a9c:	f7ff faf1 	bl	10005082 <__wrap___aeabi_dcmpun>
10005aa0:	2800      	cmp	r0, #0
10005aa2:	d000      	beq.n	10005aa6 <_etoa+0x2e>
10005aa4:	e0d8      	b.n	10005c58 <_etoa+0x1e0>
10005aa6:	2201      	movs	r2, #1
10005aa8:	4640      	mov	r0, r8
10005aaa:	4651      	mov	r1, sl
10005aac:	4b77      	ldr	r3, [pc, #476]	; (10005c8c <_etoa+0x214>)
10005aae:	4252      	negs	r2, r2
10005ab0:	f7ff fae2 	bl	10005078 <__wrap___aeabi_dcmpgt>
10005ab4:	2800      	cmp	r0, #0
10005ab6:	d000      	beq.n	10005aba <_etoa+0x42>
10005ab8:	e0ce      	b.n	10005c58 <_etoa+0x1e0>
10005aba:	2201      	movs	r2, #1
10005abc:	4640      	mov	r0, r8
10005abe:	4651      	mov	r1, sl
10005ac0:	4b73      	ldr	r3, [pc, #460]	; (10005c90 <_etoa+0x218>)
10005ac2:	4252      	negs	r2, r2
10005ac4:	f7ff fac2 	bl	1000504c <__wrap___aeabi_dcmplt>
10005ac8:	2800      	cmp	r0, #0
10005aca:	d000      	beq.n	10005ace <_etoa+0x56>
10005acc:	e0c4      	b.n	10005c58 <_etoa+0x1e0>
10005ace:	2200      	movs	r2, #0
10005ad0:	2300      	movs	r3, #0
10005ad2:	4640      	mov	r0, r8
10005ad4:	4651      	mov	r1, sl
10005ad6:	f7ff fab9 	bl	1000504c <__wrap___aeabi_dcmplt>
10005ada:	2800      	cmp	r0, #0
10005adc:	d000      	beq.n	10005ae0 <_etoa+0x68>
10005ade:	e1b9      	b.n	10005e54 <_etoa+0x3dc>
10005ae0:	4642      	mov	r2, r8
10005ae2:	4653      	mov	r3, sl
10005ae4:	920a      	str	r2, [sp, #40]	; 0x28
10005ae6:	9309      	str	r3, [sp, #36]	; 0x24
10005ae8:	2380      	movs	r3, #128	; 0x80
10005aea:	9a28      	ldr	r2, [sp, #160]	; 0xa0
10005aec:	00db      	lsls	r3, r3, #3
10005aee:	401a      	ands	r2, r3
10005af0:	920e      	str	r2, [sp, #56]	; 0x38
10005af2:	9a28      	ldr	r2, [sp, #160]	; 0xa0
10005af4:	421a      	tst	r2, r3
10005af6:	d101      	bne.n	10005afc <_etoa+0x84>
10005af8:	2306      	movs	r3, #6
10005afa:	9326      	str	r3, [sp, #152]	; 0x98
10005afc:	9a0a      	ldr	r2, [sp, #40]	; 0x28
10005afe:	9b09      	ldr	r3, [sp, #36]	; 0x24
10005b00:	0016      	movs	r6, r2
10005b02:	4313      	orrs	r3, r2
10005b04:	d000      	beq.n	10005b08 <_etoa+0x90>
10005b06:	e0c7      	b.n	10005c98 <_etoa+0x220>
10005b08:	9b28      	ldr	r3, [sp, #160]	; 0xa0
10005b0a:	2500      	movs	r5, #0
10005b0c:	2600      	movs	r6, #0
10005b0e:	051b      	lsls	r3, r3, #20
10005b10:	d400      	bmi.n	10005b14 <_etoa+0x9c>
10005b12:	e19b      	b.n	10005e4c <_etoa+0x3d4>
10005b14:	2300      	movs	r3, #0
10005b16:	930d      	str	r3, [sp, #52]	; 0x34
10005b18:	9a26      	ldr	r2, [sp, #152]	; 0x98
10005b1a:	9b0d      	ldr	r3, [sp, #52]	; 0x34
10005b1c:	429a      	cmp	r2, r3
10005b1e:	dc00      	bgt.n	10005b22 <_etoa+0xaa>
10005b20:	e19f      	b.n	10005e62 <_etoa+0x3ea>
10005b22:	1ad0      	subs	r0, r2, r3
10005b24:	1e43      	subs	r3, r0, #1
10005b26:	9326      	str	r3, [sp, #152]	; 0x98
10005b28:	2380      	movs	r3, #128	; 0x80
10005b2a:	9a28      	ldr	r2, [sp, #160]	; 0xa0
10005b2c:	00db      	lsls	r3, r3, #3
10005b2e:	431a      	orrs	r2, r3
10005b30:	2300      	movs	r3, #0
10005b32:	2700      	movs	r7, #0
10005b34:	9228      	str	r2, [sp, #160]	; 0xa0
10005b36:	930d      	str	r3, [sp, #52]	; 0x34
10005b38:	9b27      	ldr	r3, [sp, #156]	; 0x9c
10005b3a:	2400      	movs	r4, #0
10005b3c:	42bb      	cmp	r3, r7
10005b3e:	d900      	bls.n	10005b42 <_etoa+0xca>
10005b40:	1bdc      	subs	r4, r3, r7
10005b42:	2302      	movs	r3, #2
10005b44:	9a28      	ldr	r2, [sp, #160]	; 0xa0
10005b46:	401a      	ands	r2, r3
10005b48:	920e      	str	r2, [sp, #56]	; 0x38
10005b4a:	9a28      	ldr	r2, [sp, #160]	; 0xa0
10005b4c:	4213      	tst	r3, r2
10005b4e:	d003      	beq.n	10005b58 <_etoa+0xe0>
10005b50:	427b      	negs	r3, r7
10005b52:	417b      	adcs	r3, r7
10005b54:	425b      	negs	r3, r3
10005b56:	401c      	ands	r4, r3
10005b58:	9b0d      	ldr	r3, [sp, #52]	; 0x34
10005b5a:	2b00      	cmp	r3, #0
10005b5c:	d007      	beq.n	10005b6e <_etoa+0xf6>
10005b5e:	980a      	ldr	r0, [sp, #40]	; 0x28
10005b60:	9909      	ldr	r1, [sp, #36]	; 0x24
10005b62:	002a      	movs	r2, r5
10005b64:	0033      	movs	r3, r6
10005b66:	f7ff fa10 	bl	10004f8a <__wrap___aeabi_ddiv>
10005b6a:	900a      	str	r0, [sp, #40]	; 0x28
10005b6c:	9109      	str	r1, [sp, #36]	; 0x24
10005b6e:	2200      	movs	r2, #0
10005b70:	2300      	movs	r3, #0
10005b72:	4640      	mov	r0, r8
10005b74:	4651      	mov	r1, sl
10005b76:	f7ff fa69 	bl	1000504c <__wrap___aeabi_dcmplt>
10005b7a:	2800      	cmp	r0, #0
10005b7c:	d005      	beq.n	10005b8a <_etoa+0x112>
10005b7e:	2080      	movs	r0, #128	; 0x80
10005b80:	0600      	lsls	r0, r0, #24
10005b82:	4684      	mov	ip, r0
10005b84:	9909      	ldr	r1, [sp, #36]	; 0x24
10005b86:	4461      	add	r1, ip
10005b88:	9109      	str	r1, [sp, #36]	; 0x24
10005b8a:	9a28      	ldr	r2, [sp, #160]	; 0xa0
10005b8c:	4b41      	ldr	r3, [pc, #260]	; (10005c94 <_etoa+0x21c>)
10005b8e:	9d0b      	ldr	r5, [sp, #44]	; 0x2c
10005b90:	4013      	ands	r3, r2
10005b92:	9304      	str	r3, [sp, #16]
10005b94:	9b26      	ldr	r3, [sp, #152]	; 0x98
10005b96:	9a0a      	ldr	r2, [sp, #40]	; 0x28
10005b98:	9302      	str	r3, [sp, #8]
10005b9a:	9b09      	ldr	r3, [sp, #36]	; 0x24
10005b9c:	9403      	str	r4, [sp, #12]
10005b9e:	9200      	str	r2, [sp, #0]
10005ba0:	9301      	str	r3, [sp, #4]
10005ba2:	4649      	mov	r1, r9
10005ba4:	465b      	mov	r3, fp
10005ba6:	0028      	movs	r0, r5
10005ba8:	9a0c      	ldr	r2, [sp, #48]	; 0x30
10005baa:	f000 f98b 	bl	10005ec4 <_ftoa>
10005bae:	0004      	movs	r4, r0
10005bb0:	2f00      	cmp	r7, #0
10005bb2:	d062      	beq.n	10005c7a <_etoa+0x202>
10005bb4:	9b28      	ldr	r3, [sp, #160]	; 0xa0
10005bb6:	0022      	movs	r2, r4
10005bb8:	0698      	lsls	r0, r3, #26
10005bba:	231f      	movs	r3, #31
10005bbc:	17c0      	asrs	r0, r0, #31
10005bbe:	4398      	bics	r0, r3
10005bc0:	1c63      	adds	r3, r4, #1
10005bc2:	4698      	mov	r8, r3
10005bc4:	4649      	mov	r1, r9
10005bc6:	465b      	mov	r3, fp
10005bc8:	3065      	adds	r0, #101	; 0x65
10005bca:	47a8      	blx	r5
10005bcc:	9b0d      	ldr	r3, [sp, #52]	; 0x34
10005bce:	2500      	movs	r5, #0
10005bd0:	17da      	asrs	r2, r3, #31
10005bd2:	189c      	adds	r4, r3, r2
10005bd4:	0fdb      	lsrs	r3, r3, #31
10005bd6:	469a      	mov	sl, r3
10005bd8:	4054      	eors	r4, r2
10005bda:	3f01      	subs	r7, #1
10005bdc:	e001      	b.n	10005be2 <_etoa+0x16a>
10005bde:	2d20      	cmp	r5, #32
10005be0:	d013      	beq.n	10005c0a <_etoa+0x192>
10005be2:	aa0a      	add	r2, sp, #40	; 0x28
10005be4:	4694      	mov	ip, r2
10005be6:	231f      	movs	r3, #31
10005be8:	0020      	movs	r0, r4
10005bea:	4463      	add	r3, ip
10005bec:	210a      	movs	r1, #10
10005bee:	3501      	adds	r5, #1
10005bf0:	195e      	adds	r6, r3, r5
10005bf2:	f7fe ff7d 	bl	10004af0 <__wrap___aeabi_uidiv>
10005bf6:	3130      	adds	r1, #48	; 0x30
10005bf8:	7031      	strb	r1, [r6, #0]
10005bfa:	0020      	movs	r0, r4
10005bfc:	210a      	movs	r1, #10
10005bfe:	f7fe ff77 	bl	10004af0 <__wrap___aeabi_uidiv>
10005c02:	0026      	movs	r6, r4
10005c04:	0004      	movs	r4, r0
10005c06:	2e09      	cmp	r6, #9
10005c08:	d8e9      	bhi.n	10005bde <_etoa+0x166>
10005c0a:	2305      	movs	r3, #5
10005c0c:	9306      	str	r3, [sp, #24]
10005c0e:	2300      	movs	r3, #0
10005c10:	9304      	str	r3, [sp, #16]
10005c12:	330a      	adds	r3, #10
10005c14:	9303      	str	r3, [sp, #12]
10005c16:	4653      	mov	r3, sl
10005c18:	9705      	str	r7, [sp, #20]
10005c1a:	9f0b      	ldr	r7, [sp, #44]	; 0x2c
10005c1c:	9302      	str	r3, [sp, #8]
10005c1e:	ab12      	add	r3, sp, #72	; 0x48
10005c20:	9300      	str	r3, [sp, #0]
10005c22:	4642      	mov	r2, r8
10005c24:	465b      	mov	r3, fp
10005c26:	4649      	mov	r1, r9
10005c28:	0038      	movs	r0, r7
10005c2a:	9501      	str	r5, [sp, #4]
10005c2c:	f7ff fe2e 	bl	1000588c <_ntoa_format>
10005c30:	9b0e      	ldr	r3, [sp, #56]	; 0x38
10005c32:	0004      	movs	r4, r0
10005c34:	2b00      	cmp	r3, #0
10005c36:	d020      	beq.n	10005c7a <_etoa+0x202>
10005c38:	9b0c      	ldr	r3, [sp, #48]	; 0x30
10005c3a:	1ac5      	subs	r5, r0, r3
10005c3c:	9b27      	ldr	r3, [sp, #156]	; 0x9c
10005c3e:	42ab      	cmp	r3, r5
10005c40:	d91b      	bls.n	10005c7a <_etoa+0x202>
10005c42:	001e      	movs	r6, r3
10005c44:	0022      	movs	r2, r4
10005c46:	465b      	mov	r3, fp
10005c48:	4649      	mov	r1, r9
10005c4a:	2020      	movs	r0, #32
10005c4c:	3501      	adds	r5, #1
10005c4e:	47b8      	blx	r7
10005c50:	3401      	adds	r4, #1
10005c52:	42ae      	cmp	r6, r5
10005c54:	d8f6      	bhi.n	10005c44 <_etoa+0x1cc>
10005c56:	e010      	b.n	10005c7a <_etoa+0x202>
10005c58:	9b28      	ldr	r3, [sp, #160]	; 0xa0
10005c5a:	4642      	mov	r2, r8
10005c5c:	9304      	str	r3, [sp, #16]
10005c5e:	9b27      	ldr	r3, [sp, #156]	; 0x9c
10005c60:	4649      	mov	r1, r9
10005c62:	9303      	str	r3, [sp, #12]
10005c64:	9b26      	ldr	r3, [sp, #152]	; 0x98
10005c66:	980b      	ldr	r0, [sp, #44]	; 0x2c
10005c68:	9302      	str	r3, [sp, #8]
10005c6a:	4653      	mov	r3, sl
10005c6c:	9200      	str	r2, [sp, #0]
10005c6e:	9301      	str	r3, [sp, #4]
10005c70:	465b      	mov	r3, fp
10005c72:	9a0c      	ldr	r2, [sp, #48]	; 0x30
10005c74:	f000 f926 	bl	10005ec4 <_ftoa>
10005c78:	0004      	movs	r4, r0
10005c7a:	0020      	movs	r0, r4
10005c7c:	b01b      	add	sp, #108	; 0x6c
10005c7e:	bcf0      	pop	{r4, r5, r6, r7}
10005c80:	46bb      	mov	fp, r7
10005c82:	46b2      	mov	sl, r6
10005c84:	46a9      	mov	r9, r5
10005c86:	46a0      	mov	r8, r4
10005c88:	bdf0      	pop	{r4, r5, r6, r7, pc}
10005c8a:	46c0      	nop			; (mov r8, r8)
10005c8c:	7fefffff 	.word	0x7fefffff
10005c90:	ffefffff 	.word	0xffefffff
10005c94:	fffff7ff 	.word	0xfffff7ff
10005c98:	4b73      	ldr	r3, [pc, #460]	; (10005e68 <_etoa+0x3f0>)
10005c9a:	9f09      	ldr	r7, [sp, #36]	; 0x24
10005c9c:	469c      	mov	ip, r3
10005c9e:	0078      	lsls	r0, r7, #1
10005ca0:	0d40      	lsrs	r0, r0, #21
10005ca2:	4460      	add	r0, ip
10005ca4:	f7ff f9fe 	bl	100050a4 <__wrap___aeabi_i2d>
10005ca8:	4a70      	ldr	r2, [pc, #448]	; (10005e6c <_etoa+0x3f4>)
10005caa:	4b71      	ldr	r3, [pc, #452]	; (10005e70 <_etoa+0x3f8>)
10005cac:	f7ff f98b 	bl	10004fc6 <__wrap___aeabi_dmul>
10005cb0:	4a70      	ldr	r2, [pc, #448]	; (10005e74 <_etoa+0x3fc>)
10005cb2:	4b71      	ldr	r3, [pc, #452]	; (10005e78 <_etoa+0x400>)
10005cb4:	f7ff f960 	bl	10004f78 <__wrap___aeabi_dadd>
10005cb8:	033b      	lsls	r3, r7, #12
10005cba:	4a70      	ldr	r2, [pc, #448]	; (10005e7c <_etoa+0x404>)
10005cbc:	0b1b      	lsrs	r3, r3, #12
10005cbe:	431a      	orrs	r2, r3
10005cc0:	0004      	movs	r4, r0
10005cc2:	000d      	movs	r5, r1
10005cc4:	0030      	movs	r0, r6
10005cc6:	0011      	movs	r1, r2
10005cc8:	4b6d      	ldr	r3, [pc, #436]	; (10005e80 <_etoa+0x408>)
10005cca:	2200      	movs	r2, #0
10005ccc:	f7ff f94b 	bl	10004f66 <__wrap___aeabi_dsub>
10005cd0:	4a6c      	ldr	r2, [pc, #432]	; (10005e84 <_etoa+0x40c>)
10005cd2:	4b6d      	ldr	r3, [pc, #436]	; (10005e88 <_etoa+0x410>)
10005cd4:	f7ff f977 	bl	10004fc6 <__wrap___aeabi_dmul>
10005cd8:	0002      	movs	r2, r0
10005cda:	000b      	movs	r3, r1
10005cdc:	0020      	movs	r0, r4
10005cde:	0029      	movs	r1, r5
10005ce0:	f7ff f94a 	bl	10004f78 <__wrap___aeabi_dadd>
10005ce4:	f7ff f9f6 	bl	100050d4 <__wrap___aeabi_d2iz>
10005ce8:	900d      	str	r0, [sp, #52]	; 0x34
10005cea:	f7ff f9db 	bl	100050a4 <__wrap___aeabi_i2d>
10005cee:	4a67      	ldr	r2, [pc, #412]	; (10005e8c <_etoa+0x414>)
10005cf0:	4b67      	ldr	r3, [pc, #412]	; (10005e90 <_etoa+0x418>)
10005cf2:	0004      	movs	r4, r0
10005cf4:	000d      	movs	r5, r1
10005cf6:	f7ff f966 	bl	10004fc6 <__wrap___aeabi_dmul>
10005cfa:	2200      	movs	r2, #0
10005cfc:	4b65      	ldr	r3, [pc, #404]	; (10005e94 <_etoa+0x41c>)
10005cfe:	f7ff f93b 	bl	10004f78 <__wrap___aeabi_dadd>
10005d02:	f7ff f9e7 	bl	100050d4 <__wrap___aeabi_d2iz>
10005d06:	4a64      	ldr	r2, [pc, #400]	; (10005e98 <_etoa+0x420>)
10005d08:	0006      	movs	r6, r0
10005d0a:	4b64      	ldr	r3, [pc, #400]	; (10005e9c <_etoa+0x424>)
10005d0c:	0020      	movs	r0, r4
10005d0e:	0029      	movs	r1, r5
10005d10:	f7ff f959 	bl	10004fc6 <__wrap___aeabi_dmul>
10005d14:	0004      	movs	r4, r0
10005d16:	0030      	movs	r0, r6
10005d18:	000d      	movs	r5, r1
10005d1a:	960f      	str	r6, [sp, #60]	; 0x3c
10005d1c:	f7ff f9c2 	bl	100050a4 <__wrap___aeabi_i2d>
10005d20:	4a5f      	ldr	r2, [pc, #380]	; (10005ea0 <_etoa+0x428>)
10005d22:	4b60      	ldr	r3, [pc, #384]	; (10005ea4 <_etoa+0x42c>)
10005d24:	f7ff f94f 	bl	10004fc6 <__wrap___aeabi_dmul>
10005d28:	0002      	movs	r2, r0
10005d2a:	000b      	movs	r3, r1
10005d2c:	0020      	movs	r0, r4
10005d2e:	0029      	movs	r1, r5
10005d30:	f7ff f919 	bl	10004f66 <__wrap___aeabi_dsub>
10005d34:	0002      	movs	r2, r0
10005d36:	000b      	movs	r3, r1
10005d38:	0006      	movs	r6, r0
10005d3a:	000f      	movs	r7, r1
10005d3c:	f7ff f943 	bl	10004fc6 <__wrap___aeabi_dmul>
10005d40:	0032      	movs	r2, r6
10005d42:	0004      	movs	r4, r0
10005d44:	000d      	movs	r5, r1
10005d46:	003b      	movs	r3, r7
10005d48:	0030      	movs	r0, r6
10005d4a:	0039      	movs	r1, r7
10005d4c:	f7ff f914 	bl	10004f78 <__wrap___aeabi_dadd>
10005d50:	2200      	movs	r2, #0
10005d52:	9010      	str	r0, [sp, #64]	; 0x40
10005d54:	9111      	str	r1, [sp, #68]	; 0x44
10005d56:	4b54      	ldr	r3, [pc, #336]	; (10005ea8 <_etoa+0x430>)
10005d58:	0020      	movs	r0, r4
10005d5a:	0029      	movs	r1, r5
10005d5c:	f7ff f915 	bl	10004f8a <__wrap___aeabi_ddiv>
10005d60:	2200      	movs	r2, #0
10005d62:	4b52      	ldr	r3, [pc, #328]	; (10005eac <_etoa+0x434>)
10005d64:	f7ff f908 	bl	10004f78 <__wrap___aeabi_dadd>
10005d68:	0002      	movs	r2, r0
10005d6a:	000b      	movs	r3, r1
10005d6c:	0020      	movs	r0, r4
10005d6e:	0029      	movs	r1, r5
10005d70:	f7ff f90b 	bl	10004f8a <__wrap___aeabi_ddiv>
10005d74:	2200      	movs	r2, #0
10005d76:	4b4e      	ldr	r3, [pc, #312]	; (10005eb0 <_etoa+0x438>)
10005d78:	f7ff f8fe 	bl	10004f78 <__wrap___aeabi_dadd>
10005d7c:	0002      	movs	r2, r0
10005d7e:	000b      	movs	r3, r1
10005d80:	0020      	movs	r0, r4
10005d82:	0029      	movs	r1, r5
10005d84:	f7ff f901 	bl	10004f8a <__wrap___aeabi_ddiv>
10005d88:	000d      	movs	r5, r1
10005d8a:	2180      	movs	r1, #128	; 0x80
10005d8c:	0004      	movs	r4, r0
10005d8e:	0032      	movs	r2, r6
10005d90:	003b      	movs	r3, r7
10005d92:	2000      	movs	r0, #0
10005d94:	05c9      	lsls	r1, r1, #23
10005d96:	f7ff f8e6 	bl	10004f66 <__wrap___aeabi_dsub>
10005d9a:	0002      	movs	r2, r0
10005d9c:	000b      	movs	r3, r1
10005d9e:	0020      	movs	r0, r4
10005da0:	0029      	movs	r1, r5
10005da2:	f7ff f8e9 	bl	10004f78 <__wrap___aeabi_dadd>
10005da6:	0002      	movs	r2, r0
10005da8:	000b      	movs	r3, r1
10005daa:	9810      	ldr	r0, [sp, #64]	; 0x40
10005dac:	9911      	ldr	r1, [sp, #68]	; 0x44
10005dae:	f7ff f8ec 	bl	10004f8a <__wrap___aeabi_ddiv>
10005db2:	2200      	movs	r2, #0
10005db4:	4b31      	ldr	r3, [pc, #196]	; (10005e7c <_etoa+0x404>)
10005db6:	f7ff f8df 	bl	10004f78 <__wrap___aeabi_dadd>
10005dba:	4b3e      	ldr	r3, [pc, #248]	; (10005eb4 <_etoa+0x43c>)
10005dbc:	9c0f      	ldr	r4, [sp, #60]	; 0x3c
10005dbe:	469c      	mov	ip, r3
10005dc0:	4464      	add	r4, ip
10005dc2:	2200      	movs	r2, #0
10005dc4:	0523      	lsls	r3, r4, #20
10005dc6:	f7ff f8fe 	bl	10004fc6 <__wrap___aeabi_dmul>
10005dca:	0005      	movs	r5, r0
10005dcc:	000e      	movs	r6, r1
10005dce:	0002      	movs	r2, r0
10005dd0:	000b      	movs	r3, r1
10005dd2:	980a      	ldr	r0, [sp, #40]	; 0x28
10005dd4:	9909      	ldr	r1, [sp, #36]	; 0x24
10005dd6:	f7ff f939 	bl	1000504c <__wrap___aeabi_dcmplt>
10005dda:	2800      	cmp	r0, #0
10005ddc:	d00a      	beq.n	10005df4 <_etoa+0x37c>
10005dde:	9b0d      	ldr	r3, [sp, #52]	; 0x34
10005de0:	0028      	movs	r0, r5
10005de2:	3b01      	subs	r3, #1
10005de4:	0031      	movs	r1, r6
10005de6:	930d      	str	r3, [sp, #52]	; 0x34
10005de8:	2200      	movs	r2, #0
10005dea:	4b30      	ldr	r3, [pc, #192]	; (10005eac <_etoa+0x434>)
10005dec:	f7ff f8cd 	bl	10004f8a <__wrap___aeabi_ddiv>
10005df0:	0005      	movs	r5, r0
10005df2:	000e      	movs	r6, r1
10005df4:	27c6      	movs	r7, #198	; 0xc6
10005df6:	990d      	ldr	r1, [sp, #52]	; 0x34
10005df8:	002b      	movs	r3, r5
10005dfa:	3163      	adds	r1, #99	; 0x63
10005dfc:	428f      	cmp	r7, r1
10005dfe:	41bf      	sbcs	r7, r7
10005e00:	9928      	ldr	r1, [sp, #160]	; 0xa0
10005e02:	427f      	negs	r7, r7
10005e04:	3704      	adds	r7, #4
10005e06:	0509      	lsls	r1, r1, #20
10005e08:	d400      	bmi.n	10005e0c <_etoa+0x394>
10005e0a:	e695      	b.n	10005b38 <_etoa+0xc0>
10005e0c:	4333      	orrs	r3, r6
10005e0e:	d100      	bne.n	10005e12 <_etoa+0x39a>
10005e10:	e682      	b.n	10005b18 <_etoa+0xa0>
10005e12:	9c09      	ldr	r4, [sp, #36]	; 0x24
10005e14:	4a28      	ldr	r2, [pc, #160]	; (10005eb8 <_etoa+0x440>)
10005e16:	0021      	movs	r1, r4
10005e18:	4b28      	ldr	r3, [pc, #160]	; (10005ebc <_etoa+0x444>)
10005e1a:	980a      	ldr	r0, [sp, #40]	; 0x28
10005e1c:	f7ff f924 	bl	10005068 <__wrap___aeabi_dcmpge>
10005e20:	2800      	cmp	r0, #0
10005e22:	d008      	beq.n	10005e36 <_etoa+0x3be>
10005e24:	2200      	movs	r2, #0
10005e26:	0021      	movs	r1, r4
10005e28:	4b25      	ldr	r3, [pc, #148]	; (10005ec0 <_etoa+0x448>)
10005e2a:	980a      	ldr	r0, [sp, #40]	; 0x28
10005e2c:	f7ff f90e 	bl	1000504c <__wrap___aeabi_dcmplt>
10005e30:	2800      	cmp	r0, #0
10005e32:	d000      	beq.n	10005e36 <_etoa+0x3be>
10005e34:	e670      	b.n	10005b18 <_etoa+0xa0>
10005e36:	9b26      	ldr	r3, [sp, #152]	; 0x98
10005e38:	2b00      	cmp	r3, #0
10005e3a:	d100      	bne.n	10005e3e <_etoa+0x3c6>
10005e3c:	e67c      	b.n	10005b38 <_etoa+0xc0>
10005e3e:	9b0e      	ldr	r3, [sp, #56]	; 0x38
10005e40:	1e5a      	subs	r2, r3, #1
10005e42:	4193      	sbcs	r3, r2
10005e44:	9a26      	ldr	r2, [sp, #152]	; 0x98
10005e46:	1ad3      	subs	r3, r2, r3
10005e48:	9326      	str	r3, [sp, #152]	; 0x98
10005e4a:	e675      	b.n	10005b38 <_etoa+0xc0>
10005e4c:	2300      	movs	r3, #0
10005e4e:	2704      	movs	r7, #4
10005e50:	930d      	str	r3, [sp, #52]	; 0x34
10005e52:	e671      	b.n	10005b38 <_etoa+0xc0>
10005e54:	4643      	mov	r3, r8
10005e56:	930a      	str	r3, [sp, #40]	; 0x28
10005e58:	2380      	movs	r3, #128	; 0x80
10005e5a:	061b      	lsls	r3, r3, #24
10005e5c:	4453      	add	r3, sl
10005e5e:	9309      	str	r3, [sp, #36]	; 0x24
10005e60:	e642      	b.n	10005ae8 <_etoa+0x70>
10005e62:	2300      	movs	r3, #0
10005e64:	9326      	str	r3, [sp, #152]	; 0x98
10005e66:	e65f      	b.n	10005b28 <_etoa+0xb0>
10005e68:	fffffc01 	.word	0xfffffc01
10005e6c:	509f79fb 	.word	0x509f79fb
10005e70:	3fd34413 	.word	0x3fd34413
10005e74:	8b60c8b3 	.word	0x8b60c8b3
10005e78:	3fc68a28 	.word	0x3fc68a28
10005e7c:	3ff00000 	.word	0x3ff00000
10005e80:	3ff80000 	.word	0x3ff80000
10005e84:	636f4361 	.word	0x636f4361
10005e88:	3fd287a7 	.word	0x3fd287a7
10005e8c:	0979a371 	.word	0x0979a371
10005e90:	400a934f 	.word	0x400a934f
10005e94:	3fe00000 	.word	0x3fe00000
10005e98:	bbb55516 	.word	0xbbb55516
10005e9c:	40026bb1 	.word	0x40026bb1
10005ea0:	fefa39ef 	.word	0xfefa39ef
10005ea4:	3fe62e42 	.word	0x3fe62e42
10005ea8:	402c0000 	.word	0x402c0000
10005eac:	40240000 	.word	0x40240000
10005eb0:	40180000 	.word	0x40180000
10005eb4:	000003ff 	.word	0x000003ff
10005eb8:	eb1c432d 	.word	0xeb1c432d
10005ebc:	3f1a36e2 	.word	0x3f1a36e2
10005ec0:	412e8480 	.word	0x412e8480

10005ec4 <_ftoa>:
10005ec4:	b5f0      	push	{r4, r5, r6, r7, lr}
10005ec6:	464e      	mov	r6, r9
10005ec8:	46de      	mov	lr, fp
10005eca:	4657      	mov	r7, sl
10005ecc:	4645      	mov	r5, r8
10005ece:	b5e0      	push	{r5, r6, r7, lr}
10005ed0:	b097      	sub	sp, #92	; 0x5c
10005ed2:	4699      	mov	r9, r3
10005ed4:	9e20      	ldr	r6, [sp, #128]	; 0x80
10005ed6:	9f21      	ldr	r7, [sp, #132]	; 0x84
10005ed8:	9b22      	ldr	r3, [sp, #136]	; 0x88
10005eda:	4683      	mov	fp, r0
10005edc:	4698      	mov	r8, r3
10005ede:	9107      	str	r1, [sp, #28]
10005ee0:	920c      	str	r2, [sp, #48]	; 0x30
10005ee2:	003b      	movs	r3, r7
10005ee4:	0032      	movs	r2, r6
10005ee6:	0030      	movs	r0, r6
10005ee8:	0039      	movs	r1, r7
10005eea:	f7ff f8ca 	bl	10005082 <__wrap___aeabi_dcmpun>
10005eee:	2800      	cmp	r0, #0
10005ef0:	d000      	beq.n	10005ef4 <_ftoa+0x30>
10005ef2:	e1a9      	b.n	10006248 <_ftoa+0x384>
10005ef4:	2201      	movs	r2, #1
10005ef6:	0030      	movs	r0, r6
10005ef8:	0039      	movs	r1, r7
10005efa:	4bca      	ldr	r3, [pc, #808]	; (10006224 <_ftoa+0x360>)
10005efc:	4252      	negs	r2, r2
10005efe:	f7ff f8a5 	bl	1000504c <__wrap___aeabi_dcmplt>
10005f02:	2800      	cmp	r0, #0
10005f04:	d000      	beq.n	10005f08 <_ftoa+0x44>
10005f06:	e0e1      	b.n	100060cc <_ftoa+0x208>
10005f08:	2201      	movs	r2, #1
10005f0a:	0030      	movs	r0, r6
10005f0c:	0039      	movs	r1, r7
10005f0e:	4bc6      	ldr	r3, [pc, #792]	; (10006228 <_ftoa+0x364>)
10005f10:	4252      	negs	r2, r2
10005f12:	f7ff f8b1 	bl	10005078 <__wrap___aeabi_dcmpgt>
10005f16:	2800      	cmp	r0, #0
10005f18:	d000      	beq.n	10005f1c <_ftoa+0x58>
10005f1a:	e0b7      	b.n	1000608c <_ftoa+0x1c8>
10005f1c:	2200      	movs	r2, #0
10005f1e:	0030      	movs	r0, r6
10005f20:	0039      	movs	r1, r7
10005f22:	4bc2      	ldr	r3, [pc, #776]	; (1000622c <_ftoa+0x368>)
10005f24:	f7ff f8a8 	bl	10005078 <__wrap___aeabi_dcmpgt>
10005f28:	2800      	cmp	r0, #0
10005f2a:	d000      	beq.n	10005f2e <_ftoa+0x6a>
10005f2c:	e099      	b.n	10006062 <_ftoa+0x19e>
10005f2e:	2200      	movs	r2, #0
10005f30:	0030      	movs	r0, r6
10005f32:	0039      	movs	r1, r7
10005f34:	4bbe      	ldr	r3, [pc, #760]	; (10006230 <_ftoa+0x36c>)
10005f36:	f7ff f889 	bl	1000504c <__wrap___aeabi_dcmplt>
10005f3a:	2800      	cmp	r0, #0
10005f3c:	d000      	beq.n	10005f40 <_ftoa+0x7c>
10005f3e:	e090      	b.n	10006062 <_ftoa+0x19e>
10005f40:	2200      	movs	r2, #0
10005f42:	2300      	movs	r3, #0
10005f44:	0030      	movs	r0, r6
10005f46:	0039      	movs	r1, r7
10005f48:	f7ff f880 	bl	1000504c <__wrap___aeabi_dcmplt>
10005f4c:	2800      	cmp	r0, #0
10005f4e:	d000      	beq.n	10005f52 <_ftoa+0x8e>
10005f50:	e0b1      	b.n	100060b6 <_ftoa+0x1f2>
10005f52:	2300      	movs	r3, #0
10005f54:	930d      	str	r3, [sp, #52]	; 0x34
10005f56:	9b24      	ldr	r3, [sp, #144]	; 0x90
10005f58:	055b      	lsls	r3, r3, #21
10005f5a:	d401      	bmi.n	10005f60 <_ftoa+0x9c>
10005f5c:	2306      	movs	r3, #6
10005f5e:	4698      	mov	r8, r3
10005f60:	ab08      	add	r3, sp, #32
10005f62:	469c      	mov	ip, r3
10005f64:	2217      	movs	r2, #23
10005f66:	2400      	movs	r4, #0
10005f68:	2330      	movs	r3, #48	; 0x30
10005f6a:	4641      	mov	r1, r8
10005f6c:	4462      	add	r2, ip
10005f6e:	e004      	b.n	10005f7a <_ftoa+0xb6>
10005f70:	3401      	adds	r4, #1
10005f72:	5513      	strb	r3, [r2, r4]
10005f74:	3901      	subs	r1, #1
10005f76:	2c20      	cmp	r4, #32
10005f78:	d001      	beq.n	10005f7e <_ftoa+0xba>
10005f7a:	2909      	cmp	r1, #9
10005f7c:	d8f8      	bhi.n	10005f70 <_ftoa+0xac>
10005f7e:	4688      	mov	r8, r1
10005f80:	0030      	movs	r0, r6
10005f82:	0039      	movs	r1, r7
10005f84:	f7ff f8a6 	bl	100050d4 <__wrap___aeabi_d2iz>
10005f88:	4643      	mov	r3, r8
10005f8a:	00da      	lsls	r2, r3, #3
10005f8c:	4ba9      	ldr	r3, [pc, #676]	; (10006234 <_ftoa+0x370>)
10005f8e:	0005      	movs	r5, r0
10005f90:	189b      	adds	r3, r3, r2
10005f92:	681a      	ldr	r2, [r3, #0]
10005f94:	685b      	ldr	r3, [r3, #4]
10005f96:	9208      	str	r2, [sp, #32]
10005f98:	9309      	str	r3, [sp, #36]	; 0x24
10005f9a:	f7ff f883 	bl	100050a4 <__wrap___aeabi_i2d>
10005f9e:	0002      	movs	r2, r0
10005fa0:	000b      	movs	r3, r1
10005fa2:	0030      	movs	r0, r6
10005fa4:	0039      	movs	r1, r7
10005fa6:	f7fe ffde 	bl	10004f66 <__wrap___aeabi_dsub>
10005faa:	9a08      	ldr	r2, [sp, #32]
10005fac:	9b09      	ldr	r3, [sp, #36]	; 0x24
10005fae:	f7ff f80a 	bl	10004fc6 <__wrap___aeabi_dmul>
10005fb2:	900a      	str	r0, [sp, #40]	; 0x28
10005fb4:	910b      	str	r1, [sp, #44]	; 0x2c
10005fb6:	f7ff f8b1 	bl	1000511c <__wrap___aeabi_d2uiz>
10005fba:	4682      	mov	sl, r0
10005fbc:	f7ff f86e 	bl	1000509c <__wrap___aeabi_ui2d>
10005fc0:	0002      	movs	r2, r0
10005fc2:	000b      	movs	r3, r1
10005fc4:	980a      	ldr	r0, [sp, #40]	; 0x28
10005fc6:	990b      	ldr	r1, [sp, #44]	; 0x2c
10005fc8:	f7fe ffcd 	bl	10004f66 <__wrap___aeabi_dsub>
10005fcc:	2200      	movs	r2, #0
10005fce:	4b9a      	ldr	r3, [pc, #616]	; (10006238 <_ftoa+0x374>)
10005fd0:	900a      	str	r0, [sp, #40]	; 0x28
10005fd2:	910b      	str	r1, [sp, #44]	; 0x2c
10005fd4:	f7ff f850 	bl	10005078 <__wrap___aeabi_dcmpgt>
10005fd8:	2800      	cmp	r0, #0
10005fda:	d100      	bne.n	10005fde <_ftoa+0x11a>
10005fdc:	e0c0      	b.n	10006160 <_ftoa+0x29c>
10005fde:	2301      	movs	r3, #1
10005fe0:	469c      	mov	ip, r3
10005fe2:	44e2      	add	sl, ip
10005fe4:	4650      	mov	r0, sl
10005fe6:	f7ff f859 	bl	1000509c <__wrap___aeabi_ui2d>
10005fea:	0002      	movs	r2, r0
10005fec:	000b      	movs	r3, r1
10005fee:	9808      	ldr	r0, [sp, #32]
10005ff0:	9909      	ldr	r1, [sp, #36]	; 0x24
10005ff2:	f7ff f831 	bl	10005058 <__wrap___aeabi_dcmple>
10005ff6:	2800      	cmp	r0, #0
10005ff8:	d002      	beq.n	10006000 <_ftoa+0x13c>
10005ffa:	2300      	movs	r3, #0
10005ffc:	469a      	mov	sl, r3
10005ffe:	3501      	adds	r5, #1
10006000:	4643      	mov	r3, r8
10006002:	2b00      	cmp	r3, #0
10006004:	d06a      	beq.n	100060dc <_ftoa+0x218>
10006006:	ab08      	add	r3, sp, #32
10006008:	2617      	movs	r6, #23
1000600a:	469c      	mov	ip, r3
1000600c:	9508      	str	r5, [sp, #32]
1000600e:	4466      	add	r6, ip
10006010:	4655      	mov	r5, sl
10006012:	e014      	b.n	1000603e <_ftoa+0x17a>
10006014:	2301      	movs	r3, #1
10006016:	425b      	negs	r3, r3
10006018:	4443      	add	r3, r8
1000601a:	210a      	movs	r1, #10
1000601c:	0028      	movs	r0, r5
1000601e:	469a      	mov	sl, r3
10006020:	f7fe fd66 	bl	10004af0 <__wrap___aeabi_uidiv>
10006024:	3401      	adds	r4, #1
10006026:	3130      	adds	r1, #48	; 0x30
10006028:	1937      	adds	r7, r6, r4
1000602a:	7039      	strb	r1, [r7, #0]
1000602c:	0028      	movs	r0, r5
1000602e:	210a      	movs	r1, #10
10006030:	f7fe fd5e 	bl	10004af0 <__wrap___aeabi_uidiv>
10006034:	2d09      	cmp	r5, #9
10006036:	d800      	bhi.n	1000603a <_ftoa+0x176>
10006038:	e0d0      	b.n	100061dc <_ftoa+0x318>
1000603a:	46d0      	mov	r8, sl
1000603c:	0005      	movs	r5, r0
1000603e:	2c20      	cmp	r4, #32
10006040:	d1e8      	bne.n	10006014 <_ftoa+0x150>
10006042:	ab0e      	add	r3, sp, #56	; 0x38
10006044:	4698      	mov	r8, r3
10006046:	2303      	movs	r3, #3
10006048:	9a24      	ldr	r2, [sp, #144]	; 0x90
1000604a:	4013      	ands	r3, r2
1000604c:	2b01      	cmp	r3, #1
1000604e:	d100      	bne.n	10006052 <_ftoa+0x18e>
10006050:	e096      	b.n	10006180 <_ftoa+0x2bc>
10006052:	2320      	movs	r3, #32
10006054:	9a24      	ldr	r2, [sp, #144]	; 0x90
10006056:	9301      	str	r3, [sp, #4]
10006058:	9203      	str	r2, [sp, #12]
1000605a:	9a23      	ldr	r2, [sp, #140]	; 0x8c
1000605c:	4643      	mov	r3, r8
1000605e:	9202      	str	r2, [sp, #8]
10006060:	e01e      	b.n	100060a0 <_ftoa+0x1dc>
10006062:	9b24      	ldr	r3, [sp, #144]	; 0x90
10006064:	4658      	mov	r0, fp
10006066:	9304      	str	r3, [sp, #16]
10006068:	9b23      	ldr	r3, [sp, #140]	; 0x8c
1000606a:	9600      	str	r6, [sp, #0]
1000606c:	9701      	str	r7, [sp, #4]
1000606e:	9303      	str	r3, [sp, #12]
10006070:	4643      	mov	r3, r8
10006072:	9a0c      	ldr	r2, [sp, #48]	; 0x30
10006074:	9302      	str	r3, [sp, #8]
10006076:	9907      	ldr	r1, [sp, #28]
10006078:	464b      	mov	r3, r9
1000607a:	f7ff fcfd 	bl	10005a78 <_etoa>
1000607e:	b017      	add	sp, #92	; 0x5c
10006080:	bcf0      	pop	{r4, r5, r6, r7}
10006082:	46bb      	mov	fp, r7
10006084:	46b2      	mov	sl, r6
10006086:	46a9      	mov	r9, r5
10006088:	46a0      	mov	r8, r4
1000608a:	bdf0      	pop	{r4, r5, r6, r7, pc}
1000608c:	9b24      	ldr	r3, [sp, #144]	; 0x90
1000608e:	075b      	lsls	r3, r3, #29
10006090:	d40e      	bmi.n	100060b0 <_ftoa+0x1ec>
10006092:	2203      	movs	r2, #3
10006094:	4b69      	ldr	r3, [pc, #420]	; (1000623c <_ftoa+0x378>)
10006096:	9924      	ldr	r1, [sp, #144]	; 0x90
10006098:	9201      	str	r2, [sp, #4]
1000609a:	9103      	str	r1, [sp, #12]
1000609c:	9923      	ldr	r1, [sp, #140]	; 0x8c
1000609e:	9102      	str	r1, [sp, #8]
100060a0:	9300      	str	r3, [sp, #0]
100060a2:	4658      	mov	r0, fp
100060a4:	464b      	mov	r3, r9
100060a6:	9a0c      	ldr	r2, [sp, #48]	; 0x30
100060a8:	9907      	ldr	r1, [sp, #28]
100060aa:	f7ff fba1 	bl	100057f0 <_out_rev>
100060ae:	e7e6      	b.n	1000607e <_ftoa+0x1ba>
100060b0:	2204      	movs	r2, #4
100060b2:	4b63      	ldr	r3, [pc, #396]	; (10006240 <_ftoa+0x37c>)
100060b4:	e7ef      	b.n	10006096 <_ftoa+0x1d2>
100060b6:	003b      	movs	r3, r7
100060b8:	0032      	movs	r2, r6
100060ba:	2000      	movs	r0, #0
100060bc:	2100      	movs	r1, #0
100060be:	f7fe ff52 	bl	10004f66 <__wrap___aeabi_dsub>
100060c2:	2301      	movs	r3, #1
100060c4:	0006      	movs	r6, r0
100060c6:	000f      	movs	r7, r1
100060c8:	930d      	str	r3, [sp, #52]	; 0x34
100060ca:	e744      	b.n	10005f56 <_ftoa+0x92>
100060cc:	9b24      	ldr	r3, [sp, #144]	; 0x90
100060ce:	9303      	str	r3, [sp, #12]
100060d0:	9b23      	ldr	r3, [sp, #140]	; 0x8c
100060d2:	9302      	str	r3, [sp, #8]
100060d4:	2304      	movs	r3, #4
100060d6:	9301      	str	r3, [sp, #4]
100060d8:	4b5a      	ldr	r3, [pc, #360]	; (10006244 <_ftoa+0x380>)
100060da:	e7e1      	b.n	100060a0 <_ftoa+0x1dc>
100060dc:	0028      	movs	r0, r5
100060de:	f7fe ffe1 	bl	100050a4 <__wrap___aeabi_i2d>
100060e2:	0002      	movs	r2, r0
100060e4:	000b      	movs	r3, r1
100060e6:	0030      	movs	r0, r6
100060e8:	0039      	movs	r1, r7
100060ea:	f7fe ff3c 	bl	10004f66 <__wrap___aeabi_dsub>
100060ee:	4b52      	ldr	r3, [pc, #328]	; (10006238 <_ftoa+0x374>)
100060f0:	2200      	movs	r2, #0
100060f2:	0006      	movs	r6, r0
100060f4:	000f      	movs	r7, r1
100060f6:	f7fe ffa9 	bl	1000504c <__wrap___aeabi_dcmplt>
100060fa:	ab0e      	add	r3, sp, #56	; 0x38
100060fc:	4698      	mov	r8, r3
100060fe:	2800      	cmp	r0, #0
10006100:	d10a      	bne.n	10006118 <_ftoa+0x254>
10006102:	2200      	movs	r2, #0
10006104:	0030      	movs	r0, r6
10006106:	0039      	movs	r1, r7
10006108:	4b4b      	ldr	r3, [pc, #300]	; (10006238 <_ftoa+0x374>)
1000610a:	f7fe ffb5 	bl	10005078 <__wrap___aeabi_dcmpgt>
1000610e:	2800      	cmp	r0, #0
10006110:	d102      	bne.n	10006118 <_ftoa+0x254>
10006112:	07eb      	lsls	r3, r5, #31
10006114:	d500      	bpl.n	10006118 <_ftoa+0x254>
10006116:	3501      	adds	r5, #1
10006118:	2c20      	cmp	r4, #32
1000611a:	d094      	beq.n	10006046 <_ftoa+0x182>
1000611c:	aa08      	add	r2, sp, #32
1000611e:	4694      	mov	ip, r2
10006120:	2317      	movs	r3, #23
10006122:	0028      	movs	r0, r5
10006124:	4463      	add	r3, ip
10006126:	210a      	movs	r1, #10
10006128:	3401      	adds	r4, #1
1000612a:	191e      	adds	r6, r3, r4
1000612c:	f7fe fcb8 	bl	10004aa0 <__wrap___aeabi_idiv>
10006130:	3130      	adds	r1, #48	; 0x30
10006132:	0028      	movs	r0, r5
10006134:	7031      	strb	r1, [r6, #0]
10006136:	210a      	movs	r1, #10
10006138:	f7fe fcb2 	bl	10004aa0 <__wrap___aeabi_idiv>
1000613c:	1e05      	subs	r5, r0, #0
1000613e:	d1eb      	bne.n	10006118 <_ftoa+0x254>
10006140:	2303      	movs	r3, #3
10006142:	9a24      	ldr	r2, [sp, #144]	; 0x90
10006144:	4013      	ands	r3, r2
10006146:	2b01      	cmp	r3, #1
10006148:	d01b      	beq.n	10006182 <_ftoa+0x2be>
1000614a:	2c20      	cmp	r4, #32
1000614c:	d100      	bne.n	10006150 <_ftoa+0x28c>
1000614e:	e780      	b.n	10006052 <_ftoa+0x18e>
10006150:	9b0d      	ldr	r3, [sp, #52]	; 0x34
10006152:	2b00      	cmp	r3, #0
10006154:	d035      	beq.n	100061c2 <_ftoa+0x2fe>
10006156:	222d      	movs	r2, #45	; 0x2d
10006158:	4641      	mov	r1, r8
1000615a:	1c63      	adds	r3, r4, #1
1000615c:	550a      	strb	r2, [r1, r4]
1000615e:	e779      	b.n	10006054 <_ftoa+0x190>
10006160:	2200      	movs	r2, #0
10006162:	980a      	ldr	r0, [sp, #40]	; 0x28
10006164:	990b      	ldr	r1, [sp, #44]	; 0x2c
10006166:	4b34      	ldr	r3, [pc, #208]	; (10006238 <_ftoa+0x374>)
10006168:	f7fe ff70 	bl	1000504c <__wrap___aeabi_dcmplt>
1000616c:	2800      	cmp	r0, #0
1000616e:	d000      	beq.n	10006172 <_ftoa+0x2ae>
10006170:	e746      	b.n	10006000 <_ftoa+0x13c>
10006172:	4653      	mov	r3, sl
10006174:	2b00      	cmp	r3, #0
10006176:	d151      	bne.n	1000621c <_ftoa+0x358>
10006178:	2301      	movs	r3, #1
1000617a:	469c      	mov	ip, r3
1000617c:	44e2      	add	sl, ip
1000617e:	e73f      	b.n	10006000 <_ftoa+0x13c>
10006180:	2420      	movs	r4, #32
10006182:	9b23      	ldr	r3, [sp, #140]	; 0x8c
10006184:	2b00      	cmp	r3, #0
10006186:	d0e0      	beq.n	1000614a <_ftoa+0x286>
10006188:	9b0d      	ldr	r3, [sp, #52]	; 0x34
1000618a:	2b00      	cmp	r3, #0
1000618c:	d103      	bne.n	10006196 <_ftoa+0x2d2>
1000618e:	9a24      	ldr	r2, [sp, #144]	; 0x90
10006190:	330c      	adds	r3, #12
10006192:	4213      	tst	r3, r2
10006194:	d002      	beq.n	1000619c <_ftoa+0x2d8>
10006196:	9b23      	ldr	r3, [sp, #140]	; 0x8c
10006198:	3b01      	subs	r3, #1
1000619a:	9323      	str	r3, [sp, #140]	; 0x8c
1000619c:	9b23      	ldr	r3, [sp, #140]	; 0x8c
1000619e:	42a3      	cmp	r3, r4
100061a0:	d9d3      	bls.n	1000614a <_ftoa+0x286>
100061a2:	ab08      	add	r3, sp, #32
100061a4:	469c      	mov	ip, r3
100061a6:	2217      	movs	r2, #23
100061a8:	2330      	movs	r3, #48	; 0x30
100061aa:	4462      	add	r2, ip
100061ac:	2c20      	cmp	r4, #32
100061ae:	d100      	bne.n	100061b2 <_ftoa+0x2ee>
100061b0:	e74f      	b.n	10006052 <_ftoa+0x18e>
100061b2:	9923      	ldr	r1, [sp, #140]	; 0x8c
100061b4:	3401      	adds	r4, #1
100061b6:	5513      	strb	r3, [r2, r4]
100061b8:	428c      	cmp	r4, r1
100061ba:	d0c6      	beq.n	1000614a <_ftoa+0x286>
100061bc:	2c20      	cmp	r4, #32
100061be:	d1f8      	bne.n	100061b2 <_ftoa+0x2ee>
100061c0:	e747      	b.n	10006052 <_ftoa+0x18e>
100061c2:	9b24      	ldr	r3, [sp, #144]	; 0x90
100061c4:	075b      	lsls	r3, r3, #29
100061c6:	d424      	bmi.n	10006212 <_ftoa+0x34e>
100061c8:	9a24      	ldr	r2, [sp, #144]	; 0x90
100061ca:	0023      	movs	r3, r4
100061cc:	0712      	lsls	r2, r2, #28
100061ce:	d400      	bmi.n	100061d2 <_ftoa+0x30e>
100061d0:	e740      	b.n	10006054 <_ftoa+0x190>
100061d2:	2220      	movs	r2, #32
100061d4:	4641      	mov	r1, r8
100061d6:	3301      	adds	r3, #1
100061d8:	550a      	strb	r2, [r1, r4]
100061da:	e73b      	b.n	10006054 <_ftoa+0x190>
100061dc:	4657      	mov	r7, sl
100061de:	9d08      	ldr	r5, [sp, #32]
100061e0:	2c20      	cmp	r4, #32
100061e2:	d100      	bne.n	100061e6 <_ftoa+0x322>
100061e4:	e72d      	b.n	10006042 <_ftoa+0x17e>
100061e6:	0022      	movs	r2, r4
100061e8:	2130      	movs	r1, #48	; 0x30
100061ea:	4640      	mov	r0, r8
100061ec:	2f00      	cmp	r7, #0
100061ee:	d009      	beq.n	10006204 <_ftoa+0x340>
100061f0:	3201      	adds	r2, #1
100061f2:	54b1      	strb	r1, [r6, r2]
100061f4:	2a20      	cmp	r2, #32
100061f6:	d100      	bne.n	100061fa <_ftoa+0x336>
100061f8:	e723      	b.n	10006042 <_ftoa+0x17e>
100061fa:	43d3      	mvns	r3, r2
100061fc:	191b      	adds	r3, r3, r4
100061fe:	181b      	adds	r3, r3, r0
10006200:	2b00      	cmp	r3, #0
10006202:	d1f5      	bne.n	100061f0 <_ftoa+0x32c>
10006204:	ab0e      	add	r3, sp, #56	; 0x38
10006206:	4698      	mov	r8, r3
10006208:	232e      	movs	r3, #46	; 0x2e
1000620a:	4641      	mov	r1, r8
1000620c:	1c54      	adds	r4, r2, #1
1000620e:	548b      	strb	r3, [r1, r2]
10006210:	e782      	b.n	10006118 <_ftoa+0x254>
10006212:	222b      	movs	r2, #43	; 0x2b
10006214:	4641      	mov	r1, r8
10006216:	1c63      	adds	r3, r4, #1
10006218:	550a      	strb	r2, [r1, r4]
1000621a:	e71b      	b.n	10006054 <_ftoa+0x190>
1000621c:	07db      	lsls	r3, r3, #31
1000621e:	d400      	bmi.n	10006222 <_ftoa+0x35e>
10006220:	e6ee      	b.n	10006000 <_ftoa+0x13c>
10006222:	e7a9      	b.n	10006178 <_ftoa+0x2b4>
10006224:	ffefffff 	.word	0xffefffff
10006228:	7fefffff 	.word	0x7fefffff
1000622c:	41cdcd65 	.word	0x41cdcd65
10006230:	c1cdcd65 	.word	0xc1cdcd65
10006234:	10007a40 	.word	0x10007a40
10006238:	3fe00000 	.word	0x3fe00000
1000623c:	10007844 	.word	0x10007844
10006240:	10007848 	.word	0x10007848
10006244:	10007854 	.word	0x10007854
10006248:	9b24      	ldr	r3, [sp, #144]	; 0x90
1000624a:	9303      	str	r3, [sp, #12]
1000624c:	9b23      	ldr	r3, [sp, #140]	; 0x8c
1000624e:	9302      	str	r3, [sp, #8]
10006250:	2303      	movs	r3, #3
10006252:	9301      	str	r3, [sp, #4]
10006254:	4b00      	ldr	r3, [pc, #0]	; (10006258 <_ftoa+0x394>)
10006256:	e723      	b.n	100060a0 <_ftoa+0x1dc>
10006258:	10007850 	.word	0x10007850

1000625c <_vsnprintf>:
1000625c:	b5f0      	push	{r4, r5, r6, r7, lr}
1000625e:	46de      	mov	lr, fp
10006260:	464e      	mov	r6, r9
10006262:	4657      	mov	r7, sl
10006264:	4645      	mov	r5, r8
10006266:	b5e0      	push	{r5, r6, r7, lr}
10006268:	b09f      	sub	sp, #124	; 0x7c
1000626a:	001c      	movs	r4, r3
1000626c:	9b28      	ldr	r3, [sp, #160]	; 0xa0
1000626e:	4691      	mov	r9, r2
10006270:	9309      	str	r3, [sp, #36]	; 0x24
10006272:	4ac9      	ldr	r2, [pc, #804]	; (10006598 <_vsnprintf+0x33c>)
10006274:	4bc9      	ldr	r3, [pc, #804]	; (1000659c <_vsnprintf+0x340>)
10006276:	468b      	mov	fp, r1
10006278:	9008      	str	r0, [sp, #32]
1000627a:	601a      	str	r2, [r3, #0]
1000627c:	2900      	cmp	r1, #0
1000627e:	d100      	bne.n	10006282 <_vsnprintf+0x26>
10006280:	e218      	b.n	100066b4 <_vsnprintf+0x458>
10006282:	2300      	movs	r3, #0
10006284:	7820      	ldrb	r0, [r4, #0]
10006286:	469a      	mov	sl, r3
10006288:	2800      	cmp	r0, #0
1000628a:	d100      	bne.n	1000628e <_vsnprintf+0x32>
1000628c:	e21a      	b.n	100066c4 <_vsnprintf+0x468>
1000628e:	0026      	movs	r6, r4
10006290:	001d      	movs	r5, r3
10006292:	465c      	mov	r4, fp
10006294:	e00a      	b.n	100062ac <_vsnprintf+0x50>
10006296:	002a      	movs	r2, r5
10006298:	1c6f      	adds	r7, r5, #1
1000629a:	464b      	mov	r3, r9
1000629c:	9d08      	ldr	r5, [sp, #32]
1000629e:	0021      	movs	r1, r4
100062a0:	47a8      	blx	r5
100062a2:	003d      	movs	r5, r7
100062a4:	3601      	adds	r6, #1
100062a6:	7830      	ldrb	r0, [r6, #0]
100062a8:	2800      	cmp	r0, #0
100062aa:	d070      	beq.n	1000638e <_vsnprintf+0x132>
100062ac:	2825      	cmp	r0, #37	; 0x25
100062ae:	d1f2      	bne.n	10006296 <_vsnprintf+0x3a>
100062b0:	2310      	movs	r3, #16
100062b2:	469b      	mov	fp, r3
100062b4:	3b08      	subs	r3, #8
100062b6:	469a      	mov	sl, r3
100062b8:	3b04      	subs	r3, #4
100062ba:	4698      	mov	r8, r3
100062bc:	3b02      	subs	r3, #2
100062be:	2100      	movs	r1, #0
100062c0:	469c      	mov	ip, r3
100062c2:	1c72      	adds	r2, r6, #1
100062c4:	7810      	ldrb	r0, [r2, #0]
100062c6:	0016      	movs	r6, r2
100062c8:	0003      	movs	r3, r0
100062ca:	3b20      	subs	r3, #32
100062cc:	b2db      	uxtb	r3, r3
100062ce:	2b10      	cmp	r3, #16
100062d0:	d803      	bhi.n	100062da <_vsnprintf+0x7e>
100062d2:	4fb3      	ldr	r7, [pc, #716]	; (100065a0 <_vsnprintf+0x344>)
100062d4:	009b      	lsls	r3, r3, #2
100062d6:	58fb      	ldr	r3, [r7, r3]
100062d8:	469f      	mov	pc, r3
100062da:	0003      	movs	r3, r0
100062dc:	3b30      	subs	r3, #48	; 0x30
100062de:	2b09      	cmp	r3, #9
100062e0:	d932      	bls.n	10006348 <_vsnprintf+0xec>
100062e2:	2300      	movs	r3, #0
100062e4:	930a      	str	r3, [sp, #40]	; 0x28
100062e6:	282a      	cmp	r0, #42	; 0x2a
100062e8:	d068      	beq.n	100063bc <_vsnprintf+0x160>
100062ea:	2300      	movs	r3, #0
100062ec:	4698      	mov	r8, r3
100062ee:	282e      	cmp	r0, #46	; 0x2e
100062f0:	d03e      	beq.n	10006370 <_vsnprintf+0x114>
100062f2:	0003      	movs	r3, r0
100062f4:	3b68      	subs	r3, #104	; 0x68
100062f6:	b2db      	uxtb	r3, r3
100062f8:	2b12      	cmp	r3, #18
100062fa:	d81c      	bhi.n	10006336 <_vsnprintf+0xda>
100062fc:	4aa9      	ldr	r2, [pc, #676]	; (100065a4 <_vsnprintf+0x348>)
100062fe:	009b      	lsls	r3, r3, #2
10006300:	58d3      	ldr	r3, [r2, r3]
10006302:	469f      	mov	pc, r3
10006304:	2301      	movs	r3, #1
10006306:	3201      	adds	r2, #1
10006308:	4319      	orrs	r1, r3
1000630a:	e7db      	b.n	100062c4 <_vsnprintf+0x68>
1000630c:	4663      	mov	r3, ip
1000630e:	3201      	adds	r2, #1
10006310:	4319      	orrs	r1, r3
10006312:	e7d7      	b.n	100062c4 <_vsnprintf+0x68>
10006314:	4643      	mov	r3, r8
10006316:	3201      	adds	r2, #1
10006318:	4319      	orrs	r1, r3
1000631a:	e7d3      	b.n	100062c4 <_vsnprintf+0x68>
1000631c:	465b      	mov	r3, fp
1000631e:	3201      	adds	r2, #1
10006320:	4319      	orrs	r1, r3
10006322:	e7cf      	b.n	100062c4 <_vsnprintf+0x68>
10006324:	4653      	mov	r3, sl
10006326:	3201      	adds	r2, #1
10006328:	4319      	orrs	r1, r3
1000632a:	e7cb      	b.n	100062c4 <_vsnprintf+0x68>
1000632c:	2380      	movs	r3, #128	; 0x80
1000632e:	005b      	lsls	r3, r3, #1
10006330:	7870      	ldrb	r0, [r6, #1]
10006332:	4319      	orrs	r1, r3
10006334:	3601      	adds	r6, #1
10006336:	0003      	movs	r3, r0
10006338:	3b25      	subs	r3, #37	; 0x25
1000633a:	b2db      	uxtb	r3, r3
1000633c:	2b53      	cmp	r3, #83	; 0x53
1000633e:	d8aa      	bhi.n	10006296 <_vsnprintf+0x3a>
10006340:	4a99      	ldr	r2, [pc, #612]	; (100065a8 <_vsnprintf+0x34c>)
10006342:	009b      	lsls	r3, r3, #2
10006344:	58d3      	ldr	r3, [r2, r3]
10006346:	469f      	mov	pc, r3
10006348:	2700      	movs	r7, #0
1000634a:	0003      	movs	r3, r0
1000634c:	00b8      	lsls	r0, r7, #2
1000634e:	19c0      	adds	r0, r0, r7
10006350:	3601      	adds	r6, #1
10006352:	0040      	lsls	r0, r0, #1
10006354:	18c0      	adds	r0, r0, r3
10006356:	7833      	ldrb	r3, [r6, #0]
10006358:	3830      	subs	r0, #48	; 0x30
1000635a:	001a      	movs	r2, r3
1000635c:	3a30      	subs	r2, #48	; 0x30
1000635e:	0007      	movs	r7, r0
10006360:	2a09      	cmp	r2, #9
10006362:	d9f3      	bls.n	1000634c <_vsnprintf+0xf0>
10006364:	900a      	str	r0, [sp, #40]	; 0x28
10006366:	0018      	movs	r0, r3
10006368:	2300      	movs	r3, #0
1000636a:	4698      	mov	r8, r3
1000636c:	282e      	cmp	r0, #46	; 0x2e
1000636e:	d1c0      	bne.n	100062f2 <_vsnprintf+0x96>
10006370:	2380      	movs	r3, #128	; 0x80
10006372:	7870      	ldrb	r0, [r6, #1]
10006374:	00db      	lsls	r3, r3, #3
10006376:	4319      	orrs	r1, r3
10006378:	0003      	movs	r3, r0
1000637a:	3b30      	subs	r3, #48	; 0x30
1000637c:	1c72      	adds	r2, r6, #1
1000637e:	2b09      	cmp	r3, #9
10006380:	d800      	bhi.n	10006384 <_vsnprintf+0x128>
10006382:	e1a1      	b.n	100066c8 <_vsnprintf+0x46c>
10006384:	282a      	cmp	r0, #42	; 0x2a
10006386:	d100      	bne.n	1000638a <_vsnprintf+0x12e>
10006388:	e1b2      	b.n	100066f0 <_vsnprintf+0x494>
1000638a:	0016      	movs	r6, r2
1000638c:	e7b1      	b.n	100062f2 <_vsnprintf+0x96>
1000638e:	46a3      	mov	fp, r4
10006390:	46aa      	mov	sl, r5
10006392:	002c      	movs	r4, r5
10006394:	45d1      	cmp	r9, sl
10006396:	d803      	bhi.n	100063a0 <_vsnprintf+0x144>
10006398:	2301      	movs	r3, #1
1000639a:	425b      	negs	r3, r3
1000639c:	444b      	add	r3, r9
1000639e:	469a      	mov	sl, r3
100063a0:	464b      	mov	r3, r9
100063a2:	4652      	mov	r2, sl
100063a4:	4659      	mov	r1, fp
100063a6:	2000      	movs	r0, #0
100063a8:	9d08      	ldr	r5, [sp, #32]
100063aa:	47a8      	blx	r5
100063ac:	0020      	movs	r0, r4
100063ae:	b01f      	add	sp, #124	; 0x7c
100063b0:	bcf0      	pop	{r4, r5, r6, r7}
100063b2:	46bb      	mov	fp, r7
100063b4:	46b2      	mov	sl, r6
100063b6:	46a9      	mov	r9, r5
100063b8:	46a0      	mov	r8, r4
100063ba:	bdf0      	pop	{r4, r5, r6, r7, pc}
100063bc:	9b09      	ldr	r3, [sp, #36]	; 0x24
100063be:	cb40      	ldmia	r3!, {r6}
100063c0:	960a      	str	r6, [sp, #40]	; 0x28
100063c2:	2e00      	cmp	r6, #0
100063c4:	db03      	blt.n	100063ce <_vsnprintf+0x172>
100063c6:	7850      	ldrb	r0, [r2, #1]
100063c8:	9309      	str	r3, [sp, #36]	; 0x24
100063ca:	1c56      	adds	r6, r2, #1
100063cc:	e78d      	b.n	100062ea <_vsnprintf+0x8e>
100063ce:	3828      	subs	r0, #40	; 0x28
100063d0:	4301      	orrs	r1, r0
100063d2:	4270      	negs	r0, r6
100063d4:	900a      	str	r0, [sp, #40]	; 0x28
100063d6:	9309      	str	r3, [sp, #36]	; 0x24
100063d8:	7850      	ldrb	r0, [r2, #1]
100063da:	1c56      	adds	r6, r2, #1
100063dc:	e785      	b.n	100062ea <_vsnprintf+0x8e>
100063de:	2878      	cmp	r0, #120	; 0x78
100063e0:	d100      	bne.n	100063e4 <_vsnprintf+0x188>
100063e2:	e1df      	b.n	100067a4 <_vsnprintf+0x548>
100063e4:	2858      	cmp	r0, #88	; 0x58
100063e6:	d100      	bne.n	100063ea <_vsnprintf+0x18e>
100063e8:	e24c      	b.n	10006884 <_vsnprintf+0x628>
100063ea:	286f      	cmp	r0, #111	; 0x6f
100063ec:	d100      	bne.n	100063f0 <_vsnprintf+0x194>
100063ee:	e34f      	b.n	10006a90 <_vsnprintf+0x834>
100063f0:	2862      	cmp	r0, #98	; 0x62
100063f2:	d101      	bne.n	100063f8 <_vsnprintf+0x19c>
100063f4:	f000 fc30 	bl	10006c58 <_vsnprintf+0x9fc>
100063f8:	2310      	movs	r3, #16
100063fa:	000a      	movs	r2, r1
100063fc:	439a      	bics	r2, r3
100063fe:	920b      	str	r2, [sp, #44]	; 0x2c
10006400:	2869      	cmp	r0, #105	; 0x69
10006402:	d001      	beq.n	10006408 <_vsnprintf+0x1ac>
10006404:	f000 fca9 	bl	10006d5a <_vsnprintf+0xafe>
10006408:	230a      	movs	r3, #10
1000640a:	930c      	str	r3, [sp, #48]	; 0x30
1000640c:	054b      	lsls	r3, r1, #21
1000640e:	d500      	bpl.n	10006412 <_vsnprintf+0x1b6>
10006410:	e1d0      	b.n	100067b4 <_vsnprintf+0x558>
10006412:	9a0b      	ldr	r2, [sp, #44]	; 0x2c
10006414:	2380      	movs	r3, #128	; 0x80
10006416:	0011      	movs	r1, r2
10006418:	009b      	lsls	r3, r3, #2
1000641a:	4019      	ands	r1, r3
1000641c:	468b      	mov	fp, r1
1000641e:	421a      	tst	r2, r3
10006420:	d000      	beq.n	10006424 <_vsnprintf+0x1c8>
10006422:	e2a1      	b.n	10006968 <_vsnprintf+0x70c>
10006424:	2380      	movs	r3, #128	; 0x80
10006426:	0011      	movs	r1, r2
10006428:	005b      	lsls	r3, r3, #1
1000642a:	4019      	ands	r1, r3
1000642c:	468a      	mov	sl, r1
1000642e:	421a      	tst	r2, r3
10006430:	d000      	beq.n	10006434 <_vsnprintf+0x1d8>
10006432:	e3b6      	b.n	10006ba2 <_vsnprintf+0x946>
10006434:	0013      	movs	r3, r2
10006436:	065b      	lsls	r3, r3, #25
10006438:	d500      	bpl.n	1000643c <_vsnprintf+0x1e0>
1000643a:	e2ed      	b.n	10006a18 <_vsnprintf+0x7bc>
1000643c:	0013      	movs	r3, r2
1000643e:	9909      	ldr	r1, [sp, #36]	; 0x24
10006440:	061b      	lsls	r3, r3, #24
10006442:	d401      	bmi.n	10006448 <_vsnprintf+0x1ec>
10006444:	f000 fc76 	bl	10006d34 <_vsnprintf+0xad8>
10006448:	c908      	ldmia	r1!, {r3}
1000644a:	b21b      	sxth	r3, r3
1000644c:	17d8      	asrs	r0, r3, #31
1000644e:	181a      	adds	r2, r3, r0
10006450:	4042      	eors	r2, r0
10006452:	b292      	uxth	r2, r2
10006454:	9109      	str	r1, [sp, #36]	; 0x24
10006456:	4693      	mov	fp, r2
10006458:	0fda      	lsrs	r2, r3, #31
1000645a:	9212      	str	r2, [sp, #72]	; 0x48
1000645c:	2b00      	cmp	r3, #0
1000645e:	d109      	bne.n	10006474 <_vsnprintf+0x218>
10006460:	2380      	movs	r3, #128	; 0x80
10006462:	2210      	movs	r2, #16
10006464:	990b      	ldr	r1, [sp, #44]	; 0x2c
10006466:	00db      	lsls	r3, r3, #3
10006468:	400b      	ands	r3, r1
1000646a:	4391      	bics	r1, r2
1000646c:	910b      	str	r1, [sp, #44]	; 0x2c
1000646e:	2b00      	cmp	r3, #0
10006470:	d000      	beq.n	10006474 <_vsnprintf+0x218>
10006472:	e2e4      	b.n	10006a3e <_vsnprintf+0x7e2>
10006474:	9a0b      	ldr	r2, [sp, #44]	; 0x2c
10006476:	2361      	movs	r3, #97	; 0x61
10006478:	0692      	lsls	r2, r2, #26
1000647a:	d500      	bpl.n	1000647e <_vsnprintf+0x222>
1000647c:	2341      	movs	r3, #65	; 0x41
1000647e:	a90e      	add	r1, sp, #56	; 0x38
10006480:	221f      	movs	r2, #31
10006482:	468c      	mov	ip, r1
10006484:	b2db      	uxtb	r3, r3
10006486:	4462      	add	r2, ip
10006488:	3b0a      	subs	r3, #10
1000648a:	465f      	mov	r7, fp
1000648c:	9513      	str	r5, [sp, #76]	; 0x4c
1000648e:	46a3      	mov	fp, r4
10006490:	4655      	mov	r5, sl
10006492:	9c0c      	ldr	r4, [sp, #48]	; 0x30
10006494:	46b2      	mov	sl, r6
10006496:	930d      	str	r3, [sp, #52]	; 0x34
10006498:	0016      	movs	r6, r2
1000649a:	e00a      	b.n	100064b2 <_vsnprintf+0x256>
1000649c:	3330      	adds	r3, #48	; 0x30
1000649e:	b2db      	uxtb	r3, r3
100064a0:	3501      	adds	r5, #1
100064a2:	5573      	strb	r3, [r6, r5]
100064a4:	42a7      	cmp	r7, r4
100064a6:	d200      	bcs.n	100064aa <_vsnprintf+0x24e>
100064a8:	e2ed      	b.n	10006a86 <_vsnprintf+0x82a>
100064aa:	2d20      	cmp	r5, #32
100064ac:	d100      	bne.n	100064b0 <_vsnprintf+0x254>
100064ae:	e2ea      	b.n	10006a86 <_vsnprintf+0x82a>
100064b0:	0007      	movs	r7, r0
100064b2:	0021      	movs	r1, r4
100064b4:	0038      	movs	r0, r7
100064b6:	f7fe fb1b 	bl	10004af0 <__wrap___aeabi_uidiv>
100064ba:	b2cb      	uxtb	r3, r1
100064bc:	2909      	cmp	r1, #9
100064be:	d9ed      	bls.n	1000649c <_vsnprintf+0x240>
100064c0:	9a0d      	ldr	r2, [sp, #52]	; 0x34
100064c2:	4694      	mov	ip, r2
100064c4:	4463      	add	r3, ip
100064c6:	b2db      	uxtb	r3, r3
100064c8:	e7ea      	b.n	100064a0 <_vsnprintf+0x244>
100064ca:	2380      	movs	r3, #128	; 0x80
100064cc:	009b      	lsls	r3, r3, #2
100064ce:	7870      	ldrb	r0, [r6, #1]
100064d0:	4319      	orrs	r1, r3
100064d2:	3601      	adds	r6, #1
100064d4:	e72f      	b.n	10006336 <_vsnprintf+0xda>
100064d6:	7870      	ldrb	r0, [r6, #1]
100064d8:	2868      	cmp	r0, #104	; 0x68
100064da:	d100      	bne.n	100064de <_vsnprintf+0x282>
100064dc:	e1cd      	b.n	1000687a <_vsnprintf+0x61e>
100064de:	2380      	movs	r3, #128	; 0x80
100064e0:	3601      	adds	r6, #1
100064e2:	4319      	orrs	r1, r3
100064e4:	e727      	b.n	10006336 <_vsnprintf+0xda>
100064e6:	7870      	ldrb	r0, [r6, #1]
100064e8:	286c      	cmp	r0, #108	; 0x6c
100064ea:	d100      	bne.n	100064ee <_vsnprintf+0x292>
100064ec:	e1bf      	b.n	1000686e <_vsnprintf+0x612>
100064ee:	2380      	movs	r3, #128	; 0x80
100064f0:	005b      	lsls	r3, r3, #1
100064f2:	4319      	orrs	r1, r3
100064f4:	3601      	adds	r6, #1
100064f6:	e71e      	b.n	10006336 <_vsnprintf+0xda>
100064f8:	2846      	cmp	r0, #70	; 0x46
100064fa:	d100      	bne.n	100064fe <_vsnprintf+0x2a2>
100064fc:	e19b      	b.n	10006836 <_vsnprintf+0x5da>
100064fe:	2207      	movs	r2, #7
10006500:	9b09      	ldr	r3, [sp, #36]	; 0x24
10006502:	9104      	str	r1, [sp, #16]
10006504:	3307      	adds	r3, #7
10006506:	4393      	bics	r3, r2
10006508:	9a0a      	ldr	r2, [sp, #40]	; 0x28
1000650a:	0019      	movs	r1, r3
1000650c:	9203      	str	r2, [sp, #12]
1000650e:	4642      	mov	r2, r8
10006510:	9202      	str	r2, [sp, #8]
10006512:	c90c      	ldmia	r1!, {r2, r3}
10006514:	9808      	ldr	r0, [sp, #32]
10006516:	9200      	str	r2, [sp, #0]
10006518:	9301      	str	r3, [sp, #4]
1000651a:	9109      	str	r1, [sp, #36]	; 0x24
1000651c:	002a      	movs	r2, r5
1000651e:	464b      	mov	r3, r9
10006520:	0021      	movs	r1, r4
10006522:	f7ff fccf 	bl	10005ec4 <_ftoa>
10006526:	3601      	adds	r6, #1
10006528:	0005      	movs	r5, r0
1000652a:	e6bc      	b.n	100062a6 <_vsnprintf+0x4a>
1000652c:	002a      	movs	r2, r5
1000652e:	1c6f      	adds	r7, r5, #1
10006530:	464b      	mov	r3, r9
10006532:	9d08      	ldr	r5, [sp, #32]
10006534:	0021      	movs	r1, r4
10006536:	2025      	movs	r0, #37	; 0x25
10006538:	47a8      	blx	r5
1000653a:	3601      	adds	r6, #1
1000653c:	003d      	movs	r5, r7
1000653e:	e6b2      	b.n	100062a6 <_vsnprintf+0x4a>
10006540:	078b      	lsls	r3, r1, #30
10006542:	d400      	bmi.n	10006546 <_vsnprintf+0x2ea>
10006544:	e1ad      	b.n	100068a2 <_vsnprintf+0x646>
10006546:	9b09      	ldr	r3, [sp, #36]	; 0x24
10006548:	002a      	movs	r2, r5
1000654a:	469a      	mov	sl, r3
1000654c:	1c6b      	adds	r3, r5, #1
1000654e:	4698      	mov	r8, r3
10006550:	4653      	mov	r3, sl
10006552:	cb01      	ldmia	r3!, {r0}
10006554:	0021      	movs	r1, r4
10006556:	469a      	mov	sl, r3
10006558:	9f08      	ldr	r7, [sp, #32]
1000655a:	464b      	mov	r3, r9
1000655c:	b2c0      	uxtb	r0, r0
1000655e:	47b8      	blx	r7
10006560:	9b0a      	ldr	r3, [sp, #40]	; 0x28
10006562:	469c      	mov	ip, r3
10006564:	4465      	add	r5, ip
10006566:	2b01      	cmp	r3, #1
10006568:	d800      	bhi.n	1000656c <_vsnprintf+0x310>
1000656a:	e286      	b.n	10006a7a <_vsnprintf+0x81e>
1000656c:	9b08      	ldr	r3, [sp, #32]
1000656e:	4647      	mov	r7, r8
10006570:	46b0      	mov	r8, r6
10006572:	0026      	movs	r6, r4
10006574:	464c      	mov	r4, r9
10006576:	4699      	mov	r9, r3
10006578:	003a      	movs	r2, r7
1000657a:	0023      	movs	r3, r4
1000657c:	3701      	adds	r7, #1
1000657e:	0031      	movs	r1, r6
10006580:	2020      	movs	r0, #32
10006582:	47c8      	blx	r9
10006584:	42af      	cmp	r7, r5
10006586:	d1f7      	bne.n	10006578 <_vsnprintf+0x31c>
10006588:	46a1      	mov	r9, r4
1000658a:	4653      	mov	r3, sl
1000658c:	0034      	movs	r4, r6
1000658e:	4646      	mov	r6, r8
10006590:	9309      	str	r3, [sp, #36]	; 0x24
10006592:	3601      	adds	r6, #1
10006594:	e687      	b.n	100062a6 <_vsnprintf+0x4a>
10006596:	46c0      	nop			; (mov r8, r8)
10006598:	1000625d 	.word	0x1000625d
1000659c:	20000748 	.word	0x20000748
100065a0:	1000785c 	.word	0x1000785c
100065a4:	100078a0 	.word	0x100078a0
100065a8:	100078ec 	.word	0x100078ec
100065ac:	9b09      	ldr	r3, [sp, #36]	; 0x24
100065ae:	cb04      	ldmia	r3!, {r2}
100065b0:	469b      	mov	fp, r3
100065b2:	4643      	mov	r3, r8
100065b4:	9209      	str	r2, [sp, #36]	; 0x24
100065b6:	2b00      	cmp	r3, #0
100065b8:	d100      	bne.n	100065bc <_vsnprintf+0x360>
100065ba:	e0c6      	b.n	1000674a <_vsnprintf+0x4ee>
100065bc:	7813      	ldrb	r3, [r2, #0]
100065be:	469c      	mov	ip, r3
100065c0:	2b00      	cmp	r3, #0
100065c2:	d100      	bne.n	100065c6 <_vsnprintf+0x36a>
100065c4:	e3bd      	b.n	10006d42 <_vsnprintf+0xae6>
100065c6:	4643      	mov	r3, r8
100065c8:	3b01      	subs	r3, #1
100065ca:	9a09      	ldr	r2, [sp, #36]	; 0x24
100065cc:	3301      	adds	r3, #1
100065ce:	18d0      	adds	r0, r2, r3
100065d0:	9f0a      	ldr	r7, [sp, #40]	; 0x28
100065d2:	0013      	movs	r3, r2
100065d4:	e001      	b.n	100065da <_vsnprintf+0x37e>
100065d6:	4283      	cmp	r3, r0
100065d8:	d003      	beq.n	100065e2 <_vsnprintf+0x386>
100065da:	785a      	ldrb	r2, [r3, #1]
100065dc:	3301      	adds	r3, #1
100065de:	2a00      	cmp	r2, #0
100065e0:	d1f9      	bne.n	100065d6 <_vsnprintf+0x37a>
100065e2:	9a09      	ldr	r2, [sp, #36]	; 0x24
100065e4:	970a      	str	r7, [sp, #40]	; 0x28
100065e6:	1a9b      	subs	r3, r3, r2
100065e8:	930b      	str	r3, [sp, #44]	; 0x2c
100065ea:	2380      	movs	r3, #128	; 0x80
100065ec:	000a      	movs	r2, r1
100065ee:	00db      	lsls	r3, r3, #3
100065f0:	401a      	ands	r2, r3
100065f2:	920c      	str	r2, [sp, #48]	; 0x30
100065f4:	4219      	tst	r1, r3
100065f6:	d004      	beq.n	10006602 <_vsnprintf+0x3a6>
100065f8:	9b0b      	ldr	r3, [sp, #44]	; 0x2c
100065fa:	4543      	cmp	r3, r8
100065fc:	d901      	bls.n	10006602 <_vsnprintf+0x3a6>
100065fe:	4643      	mov	r3, r8
10006600:	930b      	str	r3, [sp, #44]	; 0x2c
10006602:	2302      	movs	r3, #2
10006604:	001a      	movs	r2, r3
10006606:	400a      	ands	r2, r1
10006608:	920d      	str	r2, [sp, #52]	; 0x34
1000660a:	420b      	tst	r3, r1
1000660c:	d100      	bne.n	10006610 <_vsnprintf+0x3b4>
1000660e:	e187      	b.n	10006920 <_vsnprintf+0x6c4>
10006610:	4660      	mov	r0, ip
10006612:	2800      	cmp	r0, #0
10006614:	d100      	bne.n	10006618 <_vsnprintf+0x3bc>
10006616:	e168      	b.n	100068ea <_vsnprintf+0x68e>
10006618:	9b0c      	ldr	r3, [sp, #48]	; 0x30
1000661a:	2b00      	cmp	r3, #0
1000661c:	d100      	bne.n	10006620 <_vsnprintf+0x3c4>
1000661e:	e10d      	b.n	1000683c <_vsnprintf+0x5e0>
10006620:	44a8      	add	r8, r5
10006622:	46c2      	mov	sl, r8
10006624:	9b09      	ldr	r3, [sp, #36]	; 0x24
10006626:	4657      	mov	r7, sl
10006628:	1b5b      	subs	r3, r3, r5
1000662a:	4698      	mov	r8, r3
1000662c:	9b08      	ldr	r3, [sp, #32]
1000662e:	46b2      	mov	sl, r6
10006630:	002a      	movs	r2, r5
10006632:	0026      	movs	r6, r4
10006634:	464c      	mov	r4, r9
10006636:	4699      	mov	r9, r3
10006638:	e009      	b.n	1000664e <_vsnprintf+0x3f2>
1000663a:	0023      	movs	r3, r4
1000663c:	0031      	movs	r1, r6
1000663e:	1c55      	adds	r5, r2, #1
10006640:	47c8      	blx	r9
10006642:	4643      	mov	r3, r8
10006644:	5d58      	ldrb	r0, [r3, r5]
10006646:	2800      	cmp	r0, #0
10006648:	d100      	bne.n	1000664c <_vsnprintf+0x3f0>
1000664a:	e126      	b.n	1000689a <_vsnprintf+0x63e>
1000664c:	002a      	movs	r2, r5
1000664e:	4297      	cmp	r7, r2
10006650:	d1f3      	bne.n	1000663a <_vsnprintf+0x3de>
10006652:	46a1      	mov	r9, r4
10006654:	003d      	movs	r5, r7
10006656:	0034      	movs	r4, r6
10006658:	4656      	mov	r6, sl
1000665a:	9b0d      	ldr	r3, [sp, #52]	; 0x34
1000665c:	2b00      	cmp	r3, #0
1000665e:	d000      	beq.n	10006662 <_vsnprintf+0x406>
10006660:	e143      	b.n	100068ea <_vsnprintf+0x68e>
10006662:	465b      	mov	r3, fp
10006664:	3601      	adds	r6, #1
10006666:	9309      	str	r3, [sp, #36]	; 0x24
10006668:	e61d      	b.n	100062a6 <_vsnprintf+0x4a>
1000666a:	9b09      	ldr	r3, [sp, #36]	; 0x24
1000666c:	001a      	movs	r2, r3
1000666e:	ca08      	ldmia	r2!, {r3}
10006670:	4692      	mov	sl, r2
10006672:	2b00      	cmp	r3, #0
10006674:	d048      	beq.n	10006708 <_vsnprintf+0x4ac>
10006676:	2221      	movs	r2, #33	; 0x21
10006678:	4311      	orrs	r1, r2
1000667a:	468b      	mov	fp, r1
1000667c:	a80e      	add	r0, sp, #56	; 0x38
1000667e:	4684      	mov	ip, r0
10006680:	211f      	movs	r1, #31
10006682:	4461      	add	r1, ip
10006684:	9509      	str	r5, [sp, #36]	; 0x24
10006686:	2200      	movs	r2, #0
10006688:	270f      	movs	r7, #15
1000668a:	46a4      	mov	ip, r4
1000668c:	000d      	movs	r5, r1
1000668e:	e002      	b.n	10006696 <_vsnprintf+0x43a>
10006690:	2a20      	cmp	r2, #32
10006692:	d00c      	beq.n	100066ae <_vsnprintf+0x452>
10006694:	000b      	movs	r3, r1
10006696:	003c      	movs	r4, r7
10006698:	401c      	ands	r4, r3
1000669a:	0020      	movs	r0, r4
1000669c:	3037      	adds	r0, #55	; 0x37
1000669e:	2c09      	cmp	r4, #9
100066a0:	d800      	bhi.n	100066a4 <_vsnprintf+0x448>
100066a2:	3807      	subs	r0, #7
100066a4:	3201      	adds	r2, #1
100066a6:	54a8      	strb	r0, [r5, r2]
100066a8:	0919      	lsrs	r1, r3, #4
100066aa:	2b0f      	cmp	r3, #15
100066ac:	d8f0      	bhi.n	10006690 <_vsnprintf+0x434>
100066ae:	4664      	mov	r4, ip
100066b0:	9d09      	ldr	r5, [sp, #36]	; 0x24
100066b2:	e032      	b.n	1000671a <_vsnprintf+0x4be>
100066b4:	4bdc      	ldr	r3, [pc, #880]	; (10006a28 <_vsnprintf+0x7cc>)
100066b6:	7820      	ldrb	r0, [r4, #0]
100066b8:	9308      	str	r3, [sp, #32]
100066ba:	2300      	movs	r3, #0
100066bc:	469a      	mov	sl, r3
100066be:	2800      	cmp	r0, #0
100066c0:	d000      	beq.n	100066c4 <_vsnprintf+0x468>
100066c2:	e5e4      	b.n	1000628e <_vsnprintf+0x32>
100066c4:	2400      	movs	r4, #0
100066c6:	e665      	b.n	10006394 <_vsnprintf+0x138>
100066c8:	4643      	mov	r3, r8
100066ca:	0006      	movs	r6, r0
100066cc:	9f0a      	ldr	r7, [sp, #40]	; 0x28
100066ce:	0098      	lsls	r0, r3, #2
100066d0:	18c0      	adds	r0, r0, r3
100066d2:	3201      	adds	r2, #1
100066d4:	0040      	lsls	r0, r0, #1
100066d6:	1980      	adds	r0, r0, r6
100066d8:	7816      	ldrb	r6, [r2, #0]
100066da:	0003      	movs	r3, r0
100066dc:	0030      	movs	r0, r6
100066de:	3830      	subs	r0, #48	; 0x30
100066e0:	3b30      	subs	r3, #48	; 0x30
100066e2:	2809      	cmp	r0, #9
100066e4:	d9f3      	bls.n	100066ce <_vsnprintf+0x472>
100066e6:	0030      	movs	r0, r6
100066e8:	4698      	mov	r8, r3
100066ea:	0016      	movs	r6, r2
100066ec:	970a      	str	r7, [sp, #40]	; 0x28
100066ee:	e600      	b.n	100062f2 <_vsnprintf+0x96>
100066f0:	9b09      	ldr	r3, [sp, #36]	; 0x24
100066f2:	3602      	adds	r6, #2
100066f4:	cb04      	ldmia	r3!, {r2}
100066f6:	4690      	mov	r8, r2
100066f8:	43d2      	mvns	r2, r2
100066fa:	4640      	mov	r0, r8
100066fc:	17d2      	asrs	r2, r2, #31
100066fe:	4010      	ands	r0, r2
10006700:	4680      	mov	r8, r0
10006702:	9309      	str	r3, [sp, #36]	; 0x24
10006704:	7830      	ldrb	r0, [r6, #0]
10006706:	e5f4      	b.n	100062f2 <_vsnprintf+0x96>
10006708:	2210      	movs	r2, #16
1000670a:	0008      	movs	r0, r1
1000670c:	4390      	bics	r0, r2
1000670e:	3211      	adds	r2, #17
10006710:	4310      	orrs	r0, r2
10006712:	4683      	mov	fp, r0
10006714:	2200      	movs	r2, #0
10006716:	0549      	lsls	r1, r1, #21
10006718:	d5b0      	bpl.n	1000667c <_vsnprintf+0x420>
1000671a:	465b      	mov	r3, fp
1000671c:	9306      	str	r3, [sp, #24]
1000671e:	2308      	movs	r3, #8
10006720:	9305      	str	r3, [sp, #20]
10006722:	4643      	mov	r3, r8
10006724:	9304      	str	r3, [sp, #16]
10006726:	2310      	movs	r3, #16
10006728:	9303      	str	r3, [sp, #12]
1000672a:	2300      	movs	r3, #0
1000672c:	9302      	str	r3, [sp, #8]
1000672e:	ab16      	add	r3, sp, #88	; 0x58
10006730:	9201      	str	r2, [sp, #4]
10006732:	9300      	str	r3, [sp, #0]
10006734:	002a      	movs	r2, r5
10006736:	464b      	mov	r3, r9
10006738:	0021      	movs	r1, r4
1000673a:	9808      	ldr	r0, [sp, #32]
1000673c:	f7ff f8a6 	bl	1000588c <_ntoa_format>
10006740:	4653      	mov	r3, sl
10006742:	0005      	movs	r5, r0
10006744:	3601      	adds	r6, #1
10006746:	9309      	str	r3, [sp, #36]	; 0x24
10006748:	e5ad      	b.n	100062a6 <_vsnprintf+0x4a>
1000674a:	7813      	ldrb	r3, [r2, #0]
1000674c:	469c      	mov	ip, r3
1000674e:	2b00      	cmp	r3, #0
10006750:	d100      	bne.n	10006754 <_vsnprintf+0x4f8>
10006752:	e2f7      	b.n	10006d44 <_vsnprintf+0xae8>
10006754:	2302      	movs	r3, #2
10006756:	425b      	negs	r3, r3
10006758:	e737      	b.n	100065ca <_vsnprintf+0x36e>
1000675a:	2320      	movs	r3, #32
1000675c:	0002      	movs	r2, r0
1000675e:	439a      	bics	r2, r3
10006760:	2a47      	cmp	r2, #71	; 0x47
10006762:	d104      	bne.n	1000676e <_vsnprintf+0x512>
10006764:	2380      	movs	r3, #128	; 0x80
10006766:	011b      	lsls	r3, r3, #4
10006768:	4319      	orrs	r1, r3
1000676a:	2302      	movs	r3, #2
1000676c:	4398      	bics	r0, r3
1000676e:	2845      	cmp	r0, #69	; 0x45
10006770:	d101      	bne.n	10006776 <_vsnprintf+0x51a>
10006772:	2320      	movs	r3, #32
10006774:	4319      	orrs	r1, r3
10006776:	2207      	movs	r2, #7
10006778:	9b09      	ldr	r3, [sp, #36]	; 0x24
1000677a:	9104      	str	r1, [sp, #16]
1000677c:	3307      	adds	r3, #7
1000677e:	4393      	bics	r3, r2
10006780:	9a0a      	ldr	r2, [sp, #40]	; 0x28
10006782:	0019      	movs	r1, r3
10006784:	9203      	str	r2, [sp, #12]
10006786:	4642      	mov	r2, r8
10006788:	9202      	str	r2, [sp, #8]
1000678a:	c90c      	ldmia	r1!, {r2, r3}
1000678c:	9808      	ldr	r0, [sp, #32]
1000678e:	9200      	str	r2, [sp, #0]
10006790:	9301      	str	r3, [sp, #4]
10006792:	9109      	str	r1, [sp, #36]	; 0x24
10006794:	002a      	movs	r2, r5
10006796:	464b      	mov	r3, r9
10006798:	0021      	movs	r1, r4
1000679a:	f7ff f96d 	bl	10005a78 <_etoa>
1000679e:	3601      	adds	r6, #1
100067a0:	0005      	movs	r5, r0
100067a2:	e580      	b.n	100062a6 <_vsnprintf+0x4a>
100067a4:	2310      	movs	r3, #16
100067a6:	930c      	str	r3, [sp, #48]	; 0x30
100067a8:	230c      	movs	r3, #12
100067aa:	000a      	movs	r2, r1
100067ac:	439a      	bics	r2, r3
100067ae:	920b      	str	r2, [sp, #44]	; 0x2c
100067b0:	054b      	lsls	r3, r1, #21
100067b2:	d503      	bpl.n	100067bc <_vsnprintf+0x560>
100067b4:	2301      	movs	r3, #1
100067b6:	9a0b      	ldr	r2, [sp, #44]	; 0x2c
100067b8:	439a      	bics	r2, r3
100067ba:	920b      	str	r2, [sp, #44]	; 0x2c
100067bc:	2869      	cmp	r0, #105	; 0x69
100067be:	d100      	bne.n	100067c2 <_vsnprintf+0x566>
100067c0:	e627      	b.n	10006412 <_vsnprintf+0x1b6>
100067c2:	2864      	cmp	r0, #100	; 0x64
100067c4:	d100      	bne.n	100067c8 <_vsnprintf+0x56c>
100067c6:	e624      	b.n	10006412 <_vsnprintf+0x1b6>
100067c8:	9a0b      	ldr	r2, [sp, #44]	; 0x2c
100067ca:	2380      	movs	r3, #128	; 0x80
100067cc:	0011      	movs	r1, r2
100067ce:	009b      	lsls	r3, r3, #2
100067d0:	4019      	ands	r1, r3
100067d2:	468b      	mov	fp, r1
100067d4:	421a      	tst	r2, r3
100067d6:	d000      	beq.n	100067da <_vsnprintf+0x57e>
100067d8:	e166      	b.n	10006aa8 <_vsnprintf+0x84c>
100067da:	2380      	movs	r3, #128	; 0x80
100067dc:	0011      	movs	r1, r2
100067de:	005b      	lsls	r3, r3, #1
100067e0:	4019      	ands	r1, r3
100067e2:	468a      	mov	sl, r1
100067e4:	421a      	tst	r2, r3
100067e6:	d000      	beq.n	100067ea <_vsnprintf+0x58e>
100067e8:	e239      	b.n	10006c5e <_vsnprintf+0xa02>
100067ea:	0013      	movs	r3, r2
100067ec:	065b      	lsls	r3, r3, #25
100067ee:	d500      	bpl.n	100067f2 <_vsnprintf+0x596>
100067f0:	e13c      	b.n	10006a6c <_vsnprintf+0x810>
100067f2:	0013      	movs	r3, r2
100067f4:	061b      	lsls	r3, r3, #24
100067f6:	d400      	bmi.n	100067fa <_vsnprintf+0x59e>
100067f8:	e2a6      	b.n	10006d48 <_vsnprintf+0xaec>
100067fa:	9b09      	ldr	r3, [sp, #36]	; 0x24
100067fc:	cb04      	ldmia	r3!, {r2}
100067fe:	0412      	lsls	r2, r2, #16
10006800:	0c12      	lsrs	r2, r2, #16
10006802:	4693      	mov	fp, r2
10006804:	9309      	str	r3, [sp, #36]	; 0x24
10006806:	465b      	mov	r3, fp
10006808:	2b00      	cmp	r3, #0
1000680a:	d000      	beq.n	1000680e <_vsnprintf+0x5b2>
1000680c:	e19a      	b.n	10006b44 <_vsnprintf+0x8e8>
1000680e:	9a0b      	ldr	r2, [sp, #44]	; 0x2c
10006810:	3310      	adds	r3, #16
10006812:	0011      	movs	r1, r2
10006814:	4399      	bics	r1, r3
10006816:	910b      	str	r1, [sp, #44]	; 0x2c
10006818:	0552      	lsls	r2, r2, #21
1000681a:	d400      	bmi.n	1000681e <_vsnprintf+0x5c2>
1000681c:	e192      	b.n	10006b44 <_vsnprintf+0x8e8>
1000681e:	2300      	movs	r3, #0
10006820:	469a      	mov	sl, r3
10006822:	9b0b      	ldr	r3, [sp, #44]	; 0x2c
10006824:	9306      	str	r3, [sp, #24]
10006826:	9b0a      	ldr	r3, [sp, #40]	; 0x28
10006828:	9305      	str	r3, [sp, #20]
1000682a:	4643      	mov	r3, r8
1000682c:	9304      	str	r3, [sp, #16]
1000682e:	9b0c      	ldr	r3, [sp, #48]	; 0x30
10006830:	9303      	str	r3, [sp, #12]
10006832:	2300      	movs	r3, #0
10006834:	e10c      	b.n	10006a50 <_vsnprintf+0x7f4>
10006836:	2320      	movs	r3, #32
10006838:	4319      	orrs	r1, r3
1000683a:	e660      	b.n	100064fe <_vsnprintf+0x2a2>
1000683c:	9b09      	ldr	r3, [sp, #36]	; 0x24
1000683e:	9a0a      	ldr	r2, [sp, #40]	; 0x28
10006840:	1b5b      	subs	r3, r3, r5
10006842:	4698      	mov	r8, r3
10006844:	464b      	mov	r3, r9
10006846:	4691      	mov	r9, r2
10006848:	001f      	movs	r7, r3
1000684a:	46b2      	mov	sl, r6
1000684c:	0026      	movs	r6, r4
1000684e:	9c08      	ldr	r4, [sp, #32]
10006850:	002a      	movs	r2, r5
10006852:	003b      	movs	r3, r7
10006854:	0031      	movs	r1, r6
10006856:	47a0      	blx	r4
10006858:	4643      	mov	r3, r8
1000685a:	3501      	adds	r5, #1
1000685c:	5d58      	ldrb	r0, [r3, r5]
1000685e:	2800      	cmp	r0, #0
10006860:	d1f6      	bne.n	10006850 <_vsnprintf+0x5f4>
10006862:	464a      	mov	r2, r9
10006864:	0034      	movs	r4, r6
10006866:	46b9      	mov	r9, r7
10006868:	4656      	mov	r6, sl
1000686a:	920a      	str	r2, [sp, #40]	; 0x28
1000686c:	e6f5      	b.n	1000665a <_vsnprintf+0x3fe>
1000686e:	23c0      	movs	r3, #192	; 0xc0
10006870:	009b      	lsls	r3, r3, #2
10006872:	78b0      	ldrb	r0, [r6, #2]
10006874:	4319      	orrs	r1, r3
10006876:	3602      	adds	r6, #2
10006878:	e55d      	b.n	10006336 <_vsnprintf+0xda>
1000687a:	23c0      	movs	r3, #192	; 0xc0
1000687c:	78b0      	ldrb	r0, [r6, #2]
1000687e:	4319      	orrs	r1, r3
10006880:	3602      	adds	r6, #2
10006882:	e558      	b.n	10006336 <_vsnprintf+0xda>
10006884:	230c      	movs	r3, #12
10006886:	000a      	movs	r2, r1
10006888:	439a      	bics	r2, r3
1000688a:	3314      	adds	r3, #20
1000688c:	431a      	orrs	r2, r3
1000688e:	3b10      	subs	r3, #16
10006890:	920b      	str	r2, [sp, #44]	; 0x2c
10006892:	930c      	str	r3, [sp, #48]	; 0x30
10006894:	054b      	lsls	r3, r1, #21
10006896:	d48d      	bmi.n	100067b4 <_vsnprintf+0x558>
10006898:	e796      	b.n	100067c8 <_vsnprintf+0x56c>
1000689a:	46a1      	mov	r9, r4
1000689c:	0034      	movs	r4, r6
1000689e:	4656      	mov	r6, sl
100068a0:	e6db      	b.n	1000665a <_vsnprintf+0x3fe>
100068a2:	9a0a      	ldr	r2, [sp, #40]	; 0x28
100068a4:	2a01      	cmp	r2, #1
100068a6:	d800      	bhi.n	100068aa <_vsnprintf+0x64e>
100068a8:	e253      	b.n	10006d52 <_vsnprintf+0xaf6>
100068aa:	1e6b      	subs	r3, r5, #1
100068ac:	189f      	adds	r7, r3, r2
100068ae:	9b08      	ldr	r3, [sp, #32]
100068b0:	46b0      	mov	r8, r6
100068b2:	0026      	movs	r6, r4
100068b4:	464c      	mov	r4, r9
100068b6:	4699      	mov	r9, r3
100068b8:	002a      	movs	r2, r5
100068ba:	0023      	movs	r3, r4
100068bc:	3501      	adds	r5, #1
100068be:	0031      	movs	r1, r6
100068c0:	2020      	movs	r0, #32
100068c2:	47c8      	blx	r9
100068c4:	42bd      	cmp	r5, r7
100068c6:	d1f7      	bne.n	100068b8 <_vsnprintf+0x65c>
100068c8:	46a1      	mov	r9, r4
100068ca:	0034      	movs	r4, r6
100068cc:	4646      	mov	r6, r8
100068ce:	9b09      	ldr	r3, [sp, #36]	; 0x24
100068d0:	003a      	movs	r2, r7
100068d2:	cb01      	ldmia	r3!, {r0}
100068d4:	0021      	movs	r1, r4
100068d6:	4698      	mov	r8, r3
100068d8:	1c7d      	adds	r5, r7, #1
100068da:	464b      	mov	r3, r9
100068dc:	9f08      	ldr	r7, [sp, #32]
100068de:	b2c0      	uxtb	r0, r0
100068e0:	47b8      	blx	r7
100068e2:	4643      	mov	r3, r8
100068e4:	3601      	adds	r6, #1
100068e6:	9309      	str	r3, [sp, #36]	; 0x24
100068e8:	e4dd      	b.n	100062a6 <_vsnprintf+0x4a>
100068ea:	9b0b      	ldr	r3, [sp, #44]	; 0x2c
100068ec:	9a0a      	ldr	r2, [sp, #40]	; 0x28
100068ee:	46a8      	mov	r8, r5
100068f0:	429a      	cmp	r2, r3
100068f2:	d800      	bhi.n	100068f6 <_vsnprintf+0x69a>
100068f4:	e6b5      	b.n	10006662 <_vsnprintf+0x406>
100068f6:	4694      	mov	ip, r2
100068f8:	4465      	add	r5, ip
100068fa:	1aed      	subs	r5, r5, r3
100068fc:	9b08      	ldr	r3, [sp, #32]
100068fe:	4647      	mov	r7, r8
10006900:	46b0      	mov	r8, r6
10006902:	0026      	movs	r6, r4
10006904:	464c      	mov	r4, r9
10006906:	4699      	mov	r9, r3
10006908:	003a      	movs	r2, r7
1000690a:	0023      	movs	r3, r4
1000690c:	3701      	adds	r7, #1
1000690e:	0031      	movs	r1, r6
10006910:	2020      	movs	r0, #32
10006912:	47c8      	blx	r9
10006914:	42af      	cmp	r7, r5
10006916:	d1f7      	bne.n	10006908 <_vsnprintf+0x6ac>
10006918:	46a1      	mov	r9, r4
1000691a:	0034      	movs	r4, r6
1000691c:	4646      	mov	r6, r8
1000691e:	e6a0      	b.n	10006662 <_vsnprintf+0x406>
10006920:	9a0b      	ldr	r2, [sp, #44]	; 0x2c
10006922:	990a      	ldr	r1, [sp, #40]	; 0x28
10006924:	1c53      	adds	r3, r2, #1
10006926:	4291      	cmp	r1, r2
10006928:	d800      	bhi.n	1000692c <_vsnprintf+0x6d0>
1000692a:	e214      	b.n	10006d56 <_vsnprintf+0xafa>
1000692c:	194b      	adds	r3, r1, r5
1000692e:	1a9b      	subs	r3, r3, r2
10006930:	001f      	movs	r7, r3
10006932:	9b08      	ldr	r3, [sp, #32]
10006934:	46b2      	mov	sl, r6
10006936:	0026      	movs	r6, r4
10006938:	464c      	mov	r4, r9
1000693a:	4699      	mov	r9, r3
1000693c:	002a      	movs	r2, r5
1000693e:	0023      	movs	r3, r4
10006940:	3501      	adds	r5, #1
10006942:	0031      	movs	r1, r6
10006944:	2020      	movs	r0, #32
10006946:	47c8      	blx	r9
10006948:	42bd      	cmp	r5, r7
1000694a:	d1f7      	bne.n	1000693c <_vsnprintf+0x6e0>
1000694c:	9b0a      	ldr	r3, [sp, #40]	; 0x28
1000694e:	46a1      	mov	r9, r4
10006950:	3301      	adds	r3, #1
10006952:	930b      	str	r3, [sp, #44]	; 0x2c
10006954:	9b09      	ldr	r3, [sp, #36]	; 0x24
10006956:	0034      	movs	r4, r6
10006958:	781b      	ldrb	r3, [r3, #0]
1000695a:	4656      	mov	r6, sl
1000695c:	469c      	mov	ip, r3
1000695e:	4660      	mov	r0, ip
10006960:	2800      	cmp	r0, #0
10006962:	d000      	beq.n	10006966 <_vsnprintf+0x70a>
10006964:	e658      	b.n	10006618 <_vsnprintf+0x3bc>
10006966:	e67c      	b.n	10006662 <_vsnprintf+0x406>
10006968:	2207      	movs	r2, #7
1000696a:	9b09      	ldr	r3, [sp, #36]	; 0x24
1000696c:	3307      	adds	r3, #7
1000696e:	4393      	bics	r3, r2
10006970:	3201      	adds	r2, #1
10006972:	4694      	mov	ip, r2
10006974:	449c      	add	ip, r3
10006976:	4662      	mov	r2, ip
10006978:	685f      	ldr	r7, [r3, #4]
1000697a:	9209      	str	r2, [sp, #36]	; 0x24
1000697c:	681a      	ldr	r2, [r3, #0]
1000697e:	17fb      	asrs	r3, r7, #31
10006980:	9310      	str	r3, [sp, #64]	; 0x40
10006982:	9311      	str	r3, [sp, #68]	; 0x44
10006984:	9810      	ldr	r0, [sp, #64]	; 0x40
10006986:	9911      	ldr	r1, [sp, #68]	; 0x44
10006988:	0003      	movs	r3, r0
1000698a:	4053      	eors	r3, r2
1000698c:	930e      	str	r3, [sp, #56]	; 0x38
1000698e:	000b      	movs	r3, r1
10006990:	407b      	eors	r3, r7
10006992:	930f      	str	r3, [sp, #60]	; 0x3c
10006994:	4694      	mov	ip, r2
10006996:	9a0e      	ldr	r2, [sp, #56]	; 0x38
10006998:	9b0f      	ldr	r3, [sp, #60]	; 0x3c
1000699a:	1a12      	subs	r2, r2, r0
1000699c:	418b      	sbcs	r3, r1
1000699e:	920e      	str	r2, [sp, #56]	; 0x38
100069a0:	930f      	str	r3, [sp, #60]	; 0x3c
100069a2:	0ffb      	lsrs	r3, r7, #31
100069a4:	4662      	mov	r2, ip
100069a6:	9312      	str	r3, [sp, #72]	; 0x48
100069a8:	2300      	movs	r3, #0
100069aa:	433a      	orrs	r2, r7
100069ac:	469b      	mov	fp, r3
100069ae:	d03d      	beq.n	10006a2c <_vsnprintf+0x7d0>
100069b0:	9a0b      	ldr	r2, [sp, #44]	; 0x2c
100069b2:	2361      	movs	r3, #97	; 0x61
100069b4:	0692      	lsls	r2, r2, #26
100069b6:	d500      	bpl.n	100069ba <_vsnprintf+0x75e>
100069b8:	2341      	movs	r3, #65	; 0x41
100069ba:	2200      	movs	r2, #0
100069bc:	b2db      	uxtb	r3, r3
100069be:	a90e      	add	r1, sp, #56	; 0x38
100069c0:	3b0a      	subs	r3, #10
100069c2:	468c      	mov	ip, r1
100069c4:	4692      	mov	sl, r2
100069c6:	930d      	str	r3, [sp, #52]	; 0x34
100069c8:	4643      	mov	r3, r8
100069ca:	321f      	adds	r2, #31
100069cc:	4462      	add	r2, ip
100069ce:	9513      	str	r5, [sp, #76]	; 0x4c
100069d0:	9615      	str	r6, [sp, #84]	; 0x54
100069d2:	4655      	mov	r5, sl
100069d4:	9e0e      	ldr	r6, [sp, #56]	; 0x38
100069d6:	9f0f      	ldr	r7, [sp, #60]	; 0x3c
100069d8:	46a2      	mov	sl, r4
100069da:	4690      	mov	r8, r2
100069dc:	9c0c      	ldr	r4, [sp, #48]	; 0x30
100069de:	9314      	str	r3, [sp, #80]	; 0x50
100069e0:	e00c      	b.n	100069fc <_vsnprintf+0x7a0>
100069e2:	3230      	adds	r2, #48	; 0x30
100069e4:	b2d2      	uxtb	r2, r2
100069e6:	4643      	mov	r3, r8
100069e8:	3501      	adds	r5, #1
100069ea:	555a      	strb	r2, [r3, r5]
100069ec:	45bb      	cmp	fp, r7
100069ee:	d100      	bne.n	100069f2 <_vsnprintf+0x796>
100069f0:	e18a      	b.n	10006d08 <_vsnprintf+0xaac>
100069f2:	2d20      	cmp	r5, #32
100069f4:	d100      	bne.n	100069f8 <_vsnprintf+0x79c>
100069f6:	e18a      	b.n	10006d0e <_vsnprintf+0xab2>
100069f8:	0006      	movs	r6, r0
100069fa:	000f      	movs	r7, r1
100069fc:	0022      	movs	r2, r4
100069fe:	2300      	movs	r3, #0
10006a00:	0030      	movs	r0, r6
10006a02:	0039      	movs	r1, r7
10006a04:	f7fe f8b2 	bl	10004b6c <__wrap___aeabi_uldivmod>
10006a08:	b2d2      	uxtb	r2, r2
10006a0a:	2a09      	cmp	r2, #9
10006a0c:	d9e9      	bls.n	100069e2 <_vsnprintf+0x786>
10006a0e:	9b0d      	ldr	r3, [sp, #52]	; 0x34
10006a10:	469c      	mov	ip, r3
10006a12:	4462      	add	r2, ip
10006a14:	b2d2      	uxtb	r2, r2
10006a16:	e7e6      	b.n	100069e6 <_vsnprintf+0x78a>
10006a18:	23ff      	movs	r3, #255	; 0xff
10006a1a:	9909      	ldr	r1, [sp, #36]	; 0x24
10006a1c:	c904      	ldmia	r1!, {r2}
10006a1e:	4013      	ands	r3, r2
10006a20:	001a      	movs	r2, r3
10006a22:	9109      	str	r1, [sp, #36]	; 0x24
10006a24:	e517      	b.n	10006456 <_vsnprintf+0x1fa>
10006a26:	46c0      	nop			; (mov r8, r8)
10006a28:	100057ed 	.word	0x100057ed
10006a2c:	9a0b      	ldr	r2, [sp, #44]	; 0x2c
10006a2e:	3310      	adds	r3, #16
10006a30:	0011      	movs	r1, r2
10006a32:	4399      	bics	r1, r3
10006a34:	910b      	str	r1, [sp, #44]	; 0x2c
10006a36:	0552      	lsls	r2, r2, #21
10006a38:	d5ba      	bpl.n	100069b0 <_vsnprintf+0x754>
10006a3a:	2300      	movs	r3, #0
10006a3c:	469a      	mov	sl, r3
10006a3e:	9b0b      	ldr	r3, [sp, #44]	; 0x2c
10006a40:	9306      	str	r3, [sp, #24]
10006a42:	9b0a      	ldr	r3, [sp, #40]	; 0x28
10006a44:	9305      	str	r3, [sp, #20]
10006a46:	4643      	mov	r3, r8
10006a48:	9304      	str	r3, [sp, #16]
10006a4a:	9b0c      	ldr	r3, [sp, #48]	; 0x30
10006a4c:	9303      	str	r3, [sp, #12]
10006a4e:	9b12      	ldr	r3, [sp, #72]	; 0x48
10006a50:	9302      	str	r3, [sp, #8]
10006a52:	4653      	mov	r3, sl
10006a54:	9301      	str	r3, [sp, #4]
10006a56:	ab16      	add	r3, sp, #88	; 0x58
10006a58:	002a      	movs	r2, r5
10006a5a:	9300      	str	r3, [sp, #0]
10006a5c:	0021      	movs	r1, r4
10006a5e:	464b      	mov	r3, r9
10006a60:	9808      	ldr	r0, [sp, #32]
10006a62:	f7fe ff13 	bl	1000588c <_ntoa_format>
10006a66:	3601      	adds	r6, #1
10006a68:	0005      	movs	r5, r0
10006a6a:	e41c      	b.n	100062a6 <_vsnprintf+0x4a>
10006a6c:	22ff      	movs	r2, #255	; 0xff
10006a6e:	9b09      	ldr	r3, [sp, #36]	; 0x24
10006a70:	cb02      	ldmia	r3!, {r1}
10006a72:	4011      	ands	r1, r2
10006a74:	468b      	mov	fp, r1
10006a76:	9309      	str	r3, [sp, #36]	; 0x24
10006a78:	e6c5      	b.n	10006806 <_vsnprintf+0x5aa>
10006a7a:	4653      	mov	r3, sl
10006a7c:	4645      	mov	r5, r8
10006a7e:	9309      	str	r3, [sp, #36]	; 0x24
10006a80:	3601      	adds	r6, #1
10006a82:	f7ff fc10 	bl	100062a6 <_vsnprintf+0x4a>
10006a86:	4656      	mov	r6, sl
10006a88:	465c      	mov	r4, fp
10006a8a:	46aa      	mov	sl, r5
10006a8c:	9d13      	ldr	r5, [sp, #76]	; 0x4c
10006a8e:	e7d6      	b.n	10006a3e <_vsnprintf+0x7e2>
10006a90:	2308      	movs	r3, #8
10006a92:	930c      	str	r3, [sp, #48]	; 0x30
10006a94:	910b      	str	r1, [sp, #44]	; 0x2c
10006a96:	990b      	ldr	r1, [sp, #44]	; 0x2c
10006a98:	2864      	cmp	r0, #100	; 0x64
10006a9a:	d000      	beq.n	10006a9e <_vsnprintf+0x842>
10006a9c:	e684      	b.n	100067a8 <_vsnprintf+0x54c>
10006a9e:	9b0b      	ldr	r3, [sp, #44]	; 0x2c
10006aa0:	055b      	lsls	r3, r3, #21
10006aa2:	d500      	bpl.n	10006aa6 <_vsnprintf+0x84a>
10006aa4:	e686      	b.n	100067b4 <_vsnprintf+0x558>
10006aa6:	e4b4      	b.n	10006412 <_vsnprintf+0x1b6>
10006aa8:	2207      	movs	r2, #7
10006aaa:	9b09      	ldr	r3, [sp, #36]	; 0x24
10006aac:	3307      	adds	r3, #7
10006aae:	4393      	bics	r3, r2
10006ab0:	3201      	adds	r2, #1
10006ab2:	4694      	mov	ip, r2
10006ab4:	449c      	add	ip, r3
10006ab6:	4662      	mov	r2, ip
10006ab8:	9209      	str	r2, [sp, #36]	; 0x24
10006aba:	681a      	ldr	r2, [r3, #0]
10006abc:	685b      	ldr	r3, [r3, #4]
10006abe:	0010      	movs	r0, r2
10006ac0:	469b      	mov	fp, r3
10006ac2:	0013      	movs	r3, r2
10006ac4:	465a      	mov	r2, fp
10006ac6:	4313      	orrs	r3, r2
10006ac8:	d107      	bne.n	10006ada <_vsnprintf+0x87e>
10006aca:	9a0b      	ldr	r2, [sp, #44]	; 0x2c
10006acc:	3310      	adds	r3, #16
10006ace:	0011      	movs	r1, r2
10006ad0:	4399      	bics	r1, r3
10006ad2:	910b      	str	r1, [sp, #44]	; 0x2c
10006ad4:	0552      	lsls	r2, r2, #21
10006ad6:	d500      	bpl.n	10006ada <_vsnprintf+0x87e>
10006ad8:	e6a1      	b.n	1000681e <_vsnprintf+0x5c2>
10006ada:	9a0b      	ldr	r2, [sp, #44]	; 0x2c
10006adc:	2361      	movs	r3, #97	; 0x61
10006ade:	0692      	lsls	r2, r2, #26
10006ae0:	d500      	bpl.n	10006ae4 <_vsnprintf+0x888>
10006ae2:	2341      	movs	r3, #65	; 0x41
10006ae4:	2200      	movs	r2, #0
10006ae6:	b2db      	uxtb	r3, r3
10006ae8:	a90e      	add	r1, sp, #56	; 0x38
10006aea:	3b0a      	subs	r3, #10
10006aec:	468c      	mov	ip, r1
10006aee:	4692      	mov	sl, r2
10006af0:	930d      	str	r3, [sp, #52]	; 0x34
10006af2:	4643      	mov	r3, r8
10006af4:	321f      	adds	r2, #31
10006af6:	4462      	add	r2, ip
10006af8:	465f      	mov	r7, fp
10006afa:	9512      	str	r5, [sp, #72]	; 0x48
10006afc:	46a3      	mov	fp, r4
10006afe:	4655      	mov	r5, sl
10006b00:	0004      	movs	r4, r0
10006b02:	46b2      	mov	sl, r6
10006b04:	4690      	mov	r8, r2
10006b06:	9e0c      	ldr	r6, [sp, #48]	; 0x30
10006b08:	9313      	str	r3, [sp, #76]	; 0x4c
10006b0a:	e00d      	b.n	10006b28 <_vsnprintf+0x8cc>
10006b0c:	3230      	adds	r2, #48	; 0x30
10006b0e:	b2d2      	uxtb	r2, r2
10006b10:	4643      	mov	r3, r8
10006b12:	3501      	adds	r5, #1
10006b14:	555a      	strb	r2, [r3, r5]
10006b16:	2300      	movs	r3, #0
10006b18:	42bb      	cmp	r3, r7
10006b1a:	d100      	bne.n	10006b1e <_vsnprintf+0x8c2>
10006b1c:	e100      	b.n	10006d20 <_vsnprintf+0xac4>
10006b1e:	2d20      	cmp	r5, #32
10006b20:	d100      	bne.n	10006b24 <_vsnprintf+0x8c8>
10006b22:	e100      	b.n	10006d26 <_vsnprintf+0xaca>
10006b24:	0004      	movs	r4, r0
10006b26:	000f      	movs	r7, r1
10006b28:	0032      	movs	r2, r6
10006b2a:	2300      	movs	r3, #0
10006b2c:	0020      	movs	r0, r4
10006b2e:	0039      	movs	r1, r7
10006b30:	f7fe f81c 	bl	10004b6c <__wrap___aeabi_uldivmod>
10006b34:	b2d2      	uxtb	r2, r2
10006b36:	2a09      	cmp	r2, #9
10006b38:	d9e8      	bls.n	10006b0c <_vsnprintf+0x8b0>
10006b3a:	9b0d      	ldr	r3, [sp, #52]	; 0x34
10006b3c:	469c      	mov	ip, r3
10006b3e:	4462      	add	r2, ip
10006b40:	b2d2      	uxtb	r2, r2
10006b42:	e7e5      	b.n	10006b10 <_vsnprintf+0x8b4>
10006b44:	9a0b      	ldr	r2, [sp, #44]	; 0x2c
10006b46:	2361      	movs	r3, #97	; 0x61
10006b48:	0692      	lsls	r2, r2, #26
10006b4a:	d500      	bpl.n	10006b4e <_vsnprintf+0x8f2>
10006b4c:	2341      	movs	r3, #65	; 0x41
10006b4e:	b2db      	uxtb	r3, r3
10006b50:	a90e      	add	r1, sp, #56	; 0x38
10006b52:	3b0a      	subs	r3, #10
10006b54:	221f      	movs	r2, #31
10006b56:	468c      	mov	ip, r1
10006b58:	930d      	str	r3, [sp, #52]	; 0x34
10006b5a:	0023      	movs	r3, r4
10006b5c:	4462      	add	r2, ip
10006b5e:	465c      	mov	r4, fp
10006b60:	9512      	str	r5, [sp, #72]	; 0x48
10006b62:	0017      	movs	r7, r2
10006b64:	4655      	mov	r5, sl
10006b66:	469b      	mov	fp, r3
10006b68:	46b2      	mov	sl, r6
10006b6a:	9e0c      	ldr	r6, [sp, #48]	; 0x30
10006b6c:	e008      	b.n	10006b80 <_vsnprintf+0x924>
10006b6e:	3330      	adds	r3, #48	; 0x30
10006b70:	b2db      	uxtb	r3, r3
10006b72:	3501      	adds	r5, #1
10006b74:	557b      	strb	r3, [r7, r5]
10006b76:	42b4      	cmp	r4, r6
10006b78:	d30e      	bcc.n	10006b98 <_vsnprintf+0x93c>
10006b7a:	2d20      	cmp	r5, #32
10006b7c:	d00c      	beq.n	10006b98 <_vsnprintf+0x93c>
10006b7e:	0004      	movs	r4, r0
10006b80:	0031      	movs	r1, r6
10006b82:	0020      	movs	r0, r4
10006b84:	f7fd ffb4 	bl	10004af0 <__wrap___aeabi_uidiv>
10006b88:	b2cb      	uxtb	r3, r1
10006b8a:	2909      	cmp	r1, #9
10006b8c:	d9ef      	bls.n	10006b6e <_vsnprintf+0x912>
10006b8e:	9a0d      	ldr	r2, [sp, #52]	; 0x34
10006b90:	4694      	mov	ip, r2
10006b92:	4463      	add	r3, ip
10006b94:	b2db      	uxtb	r3, r3
10006b96:	e7ec      	b.n	10006b72 <_vsnprintf+0x916>
10006b98:	4656      	mov	r6, sl
10006b9a:	465c      	mov	r4, fp
10006b9c:	46aa      	mov	sl, r5
10006b9e:	9d12      	ldr	r5, [sp, #72]	; 0x48
10006ba0:	e63f      	b.n	10006822 <_vsnprintf+0x5c6>
10006ba2:	9b09      	ldr	r3, [sp, #36]	; 0x24
10006ba4:	001a      	movs	r2, r3
10006ba6:	ca08      	ldmia	r2!, {r3}
10006ba8:	17d9      	asrs	r1, r3, #31
10006baa:	9213      	str	r2, [sp, #76]	; 0x4c
10006bac:	185a      	adds	r2, r3, r1
10006bae:	404a      	eors	r2, r1
10006bb0:	4692      	mov	sl, r2
10006bb2:	0fda      	lsrs	r2, r3, #31
10006bb4:	9212      	str	r2, [sp, #72]	; 0x48
10006bb6:	2b00      	cmp	r3, #0
10006bb8:	d108      	bne.n	10006bcc <_vsnprintf+0x970>
10006bba:	2380      	movs	r3, #128	; 0x80
10006bbc:	2210      	movs	r2, #16
10006bbe:	990b      	ldr	r1, [sp, #44]	; 0x2c
10006bc0:	00db      	lsls	r3, r3, #3
10006bc2:	400b      	ands	r3, r1
10006bc4:	4391      	bics	r1, r2
10006bc6:	910b      	str	r1, [sp, #44]	; 0x2c
10006bc8:	2b00      	cmp	r3, #0
10006bca:	d12b      	bne.n	10006c24 <_vsnprintf+0x9c8>
10006bcc:	9a0b      	ldr	r2, [sp, #44]	; 0x2c
10006bce:	2361      	movs	r3, #97	; 0x61
10006bd0:	0692      	lsls	r2, r2, #26
10006bd2:	d500      	bpl.n	10006bd6 <_vsnprintf+0x97a>
10006bd4:	2341      	movs	r3, #65	; 0x41
10006bd6:	aa0e      	add	r2, sp, #56	; 0x38
10006bd8:	271f      	movs	r7, #31
10006bda:	4694      	mov	ip, r2
10006bdc:	b2db      	uxtb	r3, r3
10006bde:	3b0a      	subs	r3, #10
10006be0:	950d      	str	r5, [sp, #52]	; 0x34
10006be2:	4467      	add	r7, ip
10006be4:	465d      	mov	r5, fp
10006be6:	9309      	str	r3, [sp, #36]	; 0x24
10006be8:	46a3      	mov	fp, r4
10006bea:	4654      	mov	r4, sl
10006bec:	46b2      	mov	sl, r6
10006bee:	9e0c      	ldr	r6, [sp, #48]	; 0x30
10006bf0:	e008      	b.n	10006c04 <_vsnprintf+0x9a8>
10006bf2:	3330      	adds	r3, #48	; 0x30
10006bf4:	b2db      	uxtb	r3, r3
10006bf6:	3501      	adds	r5, #1
10006bf8:	557b      	strb	r3, [r7, r5]
10006bfa:	42b4      	cmp	r4, r6
10006bfc:	d30e      	bcc.n	10006c1c <_vsnprintf+0x9c0>
10006bfe:	2d20      	cmp	r5, #32
10006c00:	d00c      	beq.n	10006c1c <_vsnprintf+0x9c0>
10006c02:	0004      	movs	r4, r0
10006c04:	0031      	movs	r1, r6
10006c06:	0020      	movs	r0, r4
10006c08:	f7fd ff72 	bl	10004af0 <__wrap___aeabi_uidiv>
10006c0c:	b2cb      	uxtb	r3, r1
10006c0e:	2909      	cmp	r1, #9
10006c10:	d9ef      	bls.n	10006bf2 <_vsnprintf+0x996>
10006c12:	9a09      	ldr	r2, [sp, #36]	; 0x24
10006c14:	4694      	mov	ip, r2
10006c16:	4463      	add	r3, ip
10006c18:	b2db      	uxtb	r3, r3
10006c1a:	e7ec      	b.n	10006bf6 <_vsnprintf+0x99a>
10006c1c:	4656      	mov	r6, sl
10006c1e:	465c      	mov	r4, fp
10006c20:	46ab      	mov	fp, r5
10006c22:	9d0d      	ldr	r5, [sp, #52]	; 0x34
10006c24:	9b0b      	ldr	r3, [sp, #44]	; 0x2c
10006c26:	002a      	movs	r2, r5
10006c28:	9306      	str	r3, [sp, #24]
10006c2a:	9b0a      	ldr	r3, [sp, #40]	; 0x28
10006c2c:	0021      	movs	r1, r4
10006c2e:	9305      	str	r3, [sp, #20]
10006c30:	4643      	mov	r3, r8
10006c32:	9304      	str	r3, [sp, #16]
10006c34:	9b0c      	ldr	r3, [sp, #48]	; 0x30
10006c36:	9808      	ldr	r0, [sp, #32]
10006c38:	9303      	str	r3, [sp, #12]
10006c3a:	9b12      	ldr	r3, [sp, #72]	; 0x48
10006c3c:	3601      	adds	r6, #1
10006c3e:	9302      	str	r3, [sp, #8]
10006c40:	465b      	mov	r3, fp
10006c42:	9301      	str	r3, [sp, #4]
10006c44:	ab16      	add	r3, sp, #88	; 0x58
10006c46:	9300      	str	r3, [sp, #0]
10006c48:	464b      	mov	r3, r9
10006c4a:	f7fe fe1f 	bl	1000588c <_ntoa_format>
10006c4e:	9b13      	ldr	r3, [sp, #76]	; 0x4c
10006c50:	0005      	movs	r5, r0
10006c52:	9309      	str	r3, [sp, #36]	; 0x24
10006c54:	f7ff fb27 	bl	100062a6 <_vsnprintf+0x4a>
10006c58:	2302      	movs	r3, #2
10006c5a:	930c      	str	r3, [sp, #48]	; 0x30
10006c5c:	e71a      	b.n	10006a94 <_vsnprintf+0x838>
10006c5e:	9b09      	ldr	r3, [sp, #36]	; 0x24
10006c60:	cb04      	ldmia	r3!, {r2}
10006c62:	4692      	mov	sl, r2
10006c64:	9312      	str	r3, [sp, #72]	; 0x48
10006c66:	2a00      	cmp	r2, #0
10006c68:	d108      	bne.n	10006c7c <_vsnprintf+0xa20>
10006c6a:	2380      	movs	r3, #128	; 0x80
10006c6c:	2210      	movs	r2, #16
10006c6e:	990b      	ldr	r1, [sp, #44]	; 0x2c
10006c70:	00db      	lsls	r3, r3, #3
10006c72:	400b      	ands	r3, r1
10006c74:	4391      	bics	r1, r2
10006c76:	910b      	str	r1, [sp, #44]	; 0x2c
10006c78:	2b00      	cmp	r3, #0
10006c7a:	d12b      	bne.n	10006cd4 <_vsnprintf+0xa78>
10006c7c:	9a0b      	ldr	r2, [sp, #44]	; 0x2c
10006c7e:	2361      	movs	r3, #97	; 0x61
10006c80:	0692      	lsls	r2, r2, #26
10006c82:	d500      	bpl.n	10006c86 <_vsnprintf+0xa2a>
10006c84:	2341      	movs	r3, #65	; 0x41
10006c86:	aa0e      	add	r2, sp, #56	; 0x38
10006c88:	271f      	movs	r7, #31
10006c8a:	4694      	mov	ip, r2
10006c8c:	b2db      	uxtb	r3, r3
10006c8e:	3b0a      	subs	r3, #10
10006c90:	950d      	str	r5, [sp, #52]	; 0x34
10006c92:	4467      	add	r7, ip
10006c94:	465d      	mov	r5, fp
10006c96:	9309      	str	r3, [sp, #36]	; 0x24
10006c98:	46a3      	mov	fp, r4
10006c9a:	4654      	mov	r4, sl
10006c9c:	46b2      	mov	sl, r6
10006c9e:	9e0c      	ldr	r6, [sp, #48]	; 0x30
10006ca0:	e008      	b.n	10006cb4 <_vsnprintf+0xa58>
10006ca2:	3330      	adds	r3, #48	; 0x30
10006ca4:	b2db      	uxtb	r3, r3
10006ca6:	3501      	adds	r5, #1
10006ca8:	557b      	strb	r3, [r7, r5]
10006caa:	42b4      	cmp	r4, r6
10006cac:	d30e      	bcc.n	10006ccc <_vsnprintf+0xa70>
10006cae:	2d20      	cmp	r5, #32
10006cb0:	d00c      	beq.n	10006ccc <_vsnprintf+0xa70>
10006cb2:	0004      	movs	r4, r0
10006cb4:	0031      	movs	r1, r6
10006cb6:	0020      	movs	r0, r4
10006cb8:	f7fd ff1a 	bl	10004af0 <__wrap___aeabi_uidiv>
10006cbc:	b2cb      	uxtb	r3, r1
10006cbe:	2909      	cmp	r1, #9
10006cc0:	d9ef      	bls.n	10006ca2 <_vsnprintf+0xa46>
10006cc2:	9a09      	ldr	r2, [sp, #36]	; 0x24
10006cc4:	4694      	mov	ip, r2
10006cc6:	4463      	add	r3, ip
10006cc8:	b2db      	uxtb	r3, r3
10006cca:	e7ec      	b.n	10006ca6 <_vsnprintf+0xa4a>
10006ccc:	4656      	mov	r6, sl
10006cce:	465c      	mov	r4, fp
10006cd0:	46ab      	mov	fp, r5
10006cd2:	9d0d      	ldr	r5, [sp, #52]	; 0x34
10006cd4:	9b0b      	ldr	r3, [sp, #44]	; 0x2c
10006cd6:	002a      	movs	r2, r5
10006cd8:	9306      	str	r3, [sp, #24]
10006cda:	9b0a      	ldr	r3, [sp, #40]	; 0x28
10006cdc:	0021      	movs	r1, r4
10006cde:	9305      	str	r3, [sp, #20]
10006ce0:	4643      	mov	r3, r8
10006ce2:	9304      	str	r3, [sp, #16]
10006ce4:	9b0c      	ldr	r3, [sp, #48]	; 0x30
10006ce6:	9808      	ldr	r0, [sp, #32]
10006ce8:	9303      	str	r3, [sp, #12]
10006cea:	2300      	movs	r3, #0
10006cec:	9302      	str	r3, [sp, #8]
10006cee:	465b      	mov	r3, fp
10006cf0:	9301      	str	r3, [sp, #4]
10006cf2:	ab16      	add	r3, sp, #88	; 0x58
10006cf4:	9300      	str	r3, [sp, #0]
10006cf6:	464b      	mov	r3, r9
10006cf8:	f7fe fdc8 	bl	1000588c <_ntoa_format>
10006cfc:	9b12      	ldr	r3, [sp, #72]	; 0x48
10006cfe:	0005      	movs	r5, r0
10006d00:	9309      	str	r3, [sp, #36]	; 0x24
10006d02:	3601      	adds	r6, #1
10006d04:	f7ff facf 	bl	100062a6 <_vsnprintf+0x4a>
10006d08:	42b4      	cmp	r4, r6
10006d0a:	d800      	bhi.n	10006d0e <_vsnprintf+0xab2>
10006d0c:	e671      	b.n	100069f2 <_vsnprintf+0x796>
10006d0e:	9b14      	ldr	r3, [sp, #80]	; 0x50
10006d10:	4654      	mov	r4, sl
10006d12:	960e      	str	r6, [sp, #56]	; 0x38
10006d14:	970f      	str	r7, [sp, #60]	; 0x3c
10006d16:	46aa      	mov	sl, r5
10006d18:	4698      	mov	r8, r3
10006d1a:	9e15      	ldr	r6, [sp, #84]	; 0x54
10006d1c:	9d13      	ldr	r5, [sp, #76]	; 0x4c
10006d1e:	e68e      	b.n	10006a3e <_vsnprintf+0x7e2>
10006d20:	42a6      	cmp	r6, r4
10006d22:	d800      	bhi.n	10006d26 <_vsnprintf+0xaca>
10006d24:	e6fb      	b.n	10006b1e <_vsnprintf+0x8c2>
10006d26:	9b13      	ldr	r3, [sp, #76]	; 0x4c
10006d28:	4656      	mov	r6, sl
10006d2a:	4698      	mov	r8, r3
10006d2c:	46aa      	mov	sl, r5
10006d2e:	465c      	mov	r4, fp
10006d30:	9d12      	ldr	r5, [sp, #72]	; 0x48
10006d32:	e576      	b.n	10006822 <_vsnprintf+0x5c6>
10006d34:	c908      	ldmia	r1!, {r3}
10006d36:	17d8      	asrs	r0, r3, #31
10006d38:	181a      	adds	r2, r3, r0
10006d3a:	4042      	eors	r2, r0
10006d3c:	9109      	str	r1, [sp, #36]	; 0x24
10006d3e:	f7ff fb8a 	bl	10006456 <_vsnprintf+0x1fa>
10006d42:	2300      	movs	r3, #0
10006d44:	930b      	str	r3, [sp, #44]	; 0x2c
10006d46:	e450      	b.n	100065ea <_vsnprintf+0x38e>
10006d48:	9b09      	ldr	r3, [sp, #36]	; 0x24
10006d4a:	cb04      	ldmia	r3!, {r2}
10006d4c:	4693      	mov	fp, r2
10006d4e:	9309      	str	r3, [sp, #36]	; 0x24
10006d50:	e559      	b.n	10006806 <_vsnprintf+0x5aa>
10006d52:	002f      	movs	r7, r5
10006d54:	e5bb      	b.n	100068ce <_vsnprintf+0x672>
10006d56:	930b      	str	r3, [sp, #44]	; 0x2c
10006d58:	e601      	b.n	1000695e <_vsnprintf+0x702>
10006d5a:	3b06      	subs	r3, #6
10006d5c:	930c      	str	r3, [sp, #48]	; 0x30
10006d5e:	e69a      	b.n	10006a96 <_vsnprintf+0x83a>

10006d60 <vfctprintf>:
10006d60:	b500      	push	{lr}
10006d62:	b085      	sub	sp, #20
10006d64:	9103      	str	r1, [sp, #12]
10006d66:	2101      	movs	r1, #1
10006d68:	9002      	str	r0, [sp, #8]
10006d6a:	9300      	str	r3, [sp, #0]
10006d6c:	4803      	ldr	r0, [pc, #12]	; (10006d7c <vfctprintf+0x1c>)
10006d6e:	0013      	movs	r3, r2
10006d70:	424a      	negs	r2, r1
10006d72:	a902      	add	r1, sp, #8
10006d74:	f7ff fa72 	bl	1000625c <_vsnprintf>
10006d78:	b005      	add	sp, #20
10006d7a:	bd00      	pop	{pc}
10006d7c:	10005a69 	.word	0x10005a69

10006d80 <weak_raw_vprintf>:
10006d80:	b510      	push	{r4, lr}
10006d82:	4a09      	ldr	r2, [pc, #36]	; (10006da8 <weak_raw_vprintf+0x28>)
10006d84:	0003      	movs	r3, r0
10006d86:	6814      	ldr	r4, [r2, #0]
10006d88:	b084      	sub	sp, #16
10006d8a:	2c00      	cmp	r4, #0
10006d8c:	d008      	beq.n	10006da0 <weak_raw_vprintf+0x20>
10006d8e:	2201      	movs	r2, #1
10006d90:	9100      	str	r1, [sp, #0]
10006d92:	4806      	ldr	r0, [pc, #24]	; (10006dac <weak_raw_vprintf+0x2c>)
10006d94:	4252      	negs	r2, r2
10006d96:	a903      	add	r1, sp, #12
10006d98:	47a0      	blx	r4
10006d9a:	2001      	movs	r0, #1
10006d9c:	b004      	add	sp, #16
10006d9e:	bd10      	pop	{r4, pc}
10006da0:	f000 f9a0 	bl	100070e4 <__wrap_puts>
10006da4:	2000      	movs	r0, #0
10006da6:	e7f9      	b.n	10006d9c <weak_raw_vprintf+0x1c>
10006da8:	20000748 	.word	0x20000748
10006dac:	10005a59 	.word	0x10005a59

10006db0 <_exit>:
10006db0:	be00      	bkpt	0x0000
10006db2:	e7fd      	b.n	10006db0 <_exit>

10006db4 <exit>:
10006db4:	b510      	push	{r4, lr}
10006db6:	f7ff fffb 	bl	10006db0 <_exit>
10006dba:	46c0      	nop			; (mov r8, r8)

10006dbc <runtime_init>:
10006dbc:	b570      	push	{r4, r5, r6, lr}
10006dbe:	f7fd fd83 	bl	100048c8 <runtime_run_initializers>
10006dc2:	4d07      	ldr	r5, [pc, #28]	; (10006de0 <runtime_init+0x24>)
10006dc4:	4e07      	ldr	r6, [pc, #28]	; (10006de4 <runtime_init+0x28>)
10006dc6:	42b5      	cmp	r5, r6
10006dc8:	d209      	bcs.n	10006dde <runtime_init+0x22>
10006dca:	2400      	movs	r4, #0
10006dcc:	3e01      	subs	r6, #1
10006dce:	1b76      	subs	r6, r6, r5
10006dd0:	08b6      	lsrs	r6, r6, #2
10006dd2:	cd08      	ldmia	r5!, {r3}
10006dd4:	4798      	blx	r3
10006dd6:	0023      	movs	r3, r4
10006dd8:	3401      	adds	r4, #1
10006dda:	42b3      	cmp	r3, r6
10006ddc:	d1f9      	bne.n	10006dd2 <runtime_init+0x16>
10006dde:	bd70      	pop	{r4, r5, r6, pc}
10006de0:	10007614 	.word	0x10007614
10006de4:	1000761c 	.word	0x1000761c

10006de8 <stdio_out_chars_no_crlf>:
10006de8:	0003      	movs	r3, r0
10006dea:	b510      	push	{r4, lr}
10006dec:	0008      	movs	r0, r1
10006dee:	0011      	movs	r1, r2
10006df0:	681b      	ldr	r3, [r3, #0]
10006df2:	4798      	blx	r3
10006df4:	bd10      	pop	{r4, pc}
10006df6:	46c0      	nop			; (mov r8, r8)

10006df8 <stdio_out_chars_crlf>:
10006df8:	b5f0      	push	{r4, r5, r6, r7, lr}
10006dfa:	4646      	mov	r6, r8
10006dfc:	464f      	mov	r7, r9
10006dfe:	46d6      	mov	lr, sl
10006e00:	b5c0      	push	{r6, r7, lr}
10006e02:	7d43      	ldrb	r3, [r0, #21]
10006e04:	4680      	mov	r8, r0
10006e06:	000e      	movs	r6, r1
10006e08:	0017      	movs	r7, r2
10006e0a:	2b00      	cmp	r3, #0
10006e0c:	d046      	beq.n	10006e9c <stdio_out_chars_crlf+0xa4>
10006e0e:	2a00      	cmp	r2, #0
10006e10:	dd3f      	ble.n	10006e92 <stdio_out_chars_crlf+0x9a>
10006e12:	1e4b      	subs	r3, r1, #1
10006e14:	4699      	mov	r9, r3
10006e16:	4b24      	ldr	r3, [pc, #144]	; (10006ea8 <stdio_out_chars_crlf+0xb0>)
10006e18:	2501      	movs	r5, #1
10006e1a:	2400      	movs	r4, #0
10006e1c:	2000      	movs	r0, #0
10006e1e:	469a      	mov	sl, r3
10006e20:	e00d      	b.n	10006e3e <stdio_out_chars_crlf+0x46>
10006e22:	464b      	mov	r3, r9
10006e24:	5d1b      	ldrb	r3, [r3, r4]
10006e26:	3b0d      	subs	r3, #13
10006e28:	425a      	negs	r2, r3
10006e2a:	4153      	adcs	r3, r2
10006e2c:	5d32      	ldrb	r2, [r6, r4]
10006e2e:	b2db      	uxtb	r3, r3
10006e30:	2a0a      	cmp	r2, #10
10006e32:	d00b      	beq.n	10006e4c <stdio_out_chars_crlf+0x54>
10006e34:	002b      	movs	r3, r5
10006e36:	3401      	adds	r4, #1
10006e38:	3501      	adds	r5, #1
10006e3a:	429f      	cmp	r7, r3
10006e3c:	dd1a      	ble.n	10006e74 <stdio_out_chars_crlf+0x7c>
10006e3e:	2c00      	cmp	r4, #0
10006e40:	d1ef      	bne.n	10006e22 <stdio_out_chars_crlf+0x2a>
10006e42:	4643      	mov	r3, r8
10006e44:	5d32      	ldrb	r2, [r6, r4]
10006e46:	7d1b      	ldrb	r3, [r3, #20]
10006e48:	2a0a      	cmp	r2, #10
10006e4a:	d1f3      	bne.n	10006e34 <stdio_out_chars_crlf+0x3c>
10006e4c:	2b00      	cmp	r3, #0
10006e4e:	d1f1      	bne.n	10006e34 <stdio_out_chars_crlf+0x3c>
10006e50:	42a0      	cmp	r0, r4
10006e52:	da04      	bge.n	10006e5e <stdio_out_chars_crlf+0x66>
10006e54:	4643      	mov	r3, r8
10006e56:	1a21      	subs	r1, r4, r0
10006e58:	681b      	ldr	r3, [r3, #0]
10006e5a:	1830      	adds	r0, r6, r0
10006e5c:	4798      	blx	r3
10006e5e:	4643      	mov	r3, r8
10006e60:	4650      	mov	r0, sl
10006e62:	681b      	ldr	r3, [r3, #0]
10006e64:	2102      	movs	r1, #2
10006e66:	4798      	blx	r3
10006e68:	3401      	adds	r4, #1
10006e6a:	0028      	movs	r0, r5
10006e6c:	002b      	movs	r3, r5
10006e6e:	3501      	adds	r5, #1
10006e70:	429f      	cmp	r7, r3
10006e72:	dce4      	bgt.n	10006e3e <stdio_out_chars_crlf+0x46>
10006e74:	4287      	cmp	r7, r0
10006e76:	dd04      	ble.n	10006e82 <stdio_out_chars_crlf+0x8a>
10006e78:	4643      	mov	r3, r8
10006e7a:	1a39      	subs	r1, r7, r0
10006e7c:	681b      	ldr	r3, [r3, #0]
10006e7e:	1830      	adds	r0, r6, r0
10006e80:	4798      	blx	r3
10006e82:	19f6      	adds	r6, r6, r7
10006e84:	3e01      	subs	r6, #1
10006e86:	7833      	ldrb	r3, [r6, #0]
10006e88:	3b0d      	subs	r3, #13
10006e8a:	425a      	negs	r2, r3
10006e8c:	4153      	adcs	r3, r2
10006e8e:	4642      	mov	r2, r8
10006e90:	7513      	strb	r3, [r2, #20]
10006e92:	bce0      	pop	{r5, r6, r7}
10006e94:	46ba      	mov	sl, r7
10006e96:	46b1      	mov	r9, r6
10006e98:	46a8      	mov	r8, r5
10006e9a:	bdf0      	pop	{r4, r5, r6, r7, pc}
10006e9c:	6803      	ldr	r3, [r0, #0]
10006e9e:	0011      	movs	r1, r2
10006ea0:	0030      	movs	r0, r6
10006ea2:	4798      	blx	r3
10006ea4:	e7f5      	b.n	10006e92 <stdio_out_chars_crlf+0x9a>
10006ea6:	46c0      	nop			; (mov r8, r8)
10006ea8:	10007a90 	.word	0x10007a90

10006eac <stdio_buffered_printer>:
10006eac:	b5f0      	push	{r4, r5, r6, r7, lr}
10006eae:	46c6      	mov	lr, r8
10006eb0:	000c      	movs	r4, r1
10006eb2:	6809      	ldr	r1, [r1, #0]
10006eb4:	0006      	movs	r6, r0
10006eb6:	b500      	push	{lr}
10006eb8:	2980      	cmp	r1, #128	; 0x80
10006eba:	d006      	beq.n	10006eca <stdio_buffered_printer+0x1e>
10006ebc:	1c4b      	adds	r3, r1, #1
10006ebe:	6023      	str	r3, [r4, #0]
10006ec0:	1864      	adds	r4, r4, r1
10006ec2:	7126      	strb	r6, [r4, #4]
10006ec4:	bc80      	pop	{r7}
10006ec6:	46b8      	mov	r8, r7
10006ec8:	bdf0      	pop	{r4, r5, r6, r7, pc}
10006eca:	4b0f      	ldr	r3, [pc, #60]	; (10006f08 <stdio_buffered_printer+0x5c>)
10006ecc:	681d      	ldr	r5, [r3, #0]
10006ece:	2d00      	cmp	r5, #0
10006ed0:	d016      	beq.n	10006f00 <stdio_buffered_printer+0x54>
10006ed2:	1d23      	adds	r3, r4, #4
10006ed4:	4698      	mov	r8, r3
10006ed6:	4f0d      	ldr	r7, [pc, #52]	; (10006f0c <stdio_buffered_printer+0x60>)
10006ed8:	e002      	b.n	10006ee0 <stdio_buffered_printer+0x34>
10006eda:	692d      	ldr	r5, [r5, #16]
10006edc:	2d00      	cmp	r5, #0
10006ede:	d00f      	beq.n	10006f00 <stdio_buffered_printer+0x54>
10006ee0:	682b      	ldr	r3, [r5, #0]
10006ee2:	2b00      	cmp	r3, #0
10006ee4:	d0f9      	beq.n	10006eda <stdio_buffered_printer+0x2e>
10006ee6:	683b      	ldr	r3, [r7, #0]
10006ee8:	2b00      	cmp	r3, #0
10006eea:	d001      	beq.n	10006ef0 <stdio_buffered_printer+0x44>
10006eec:	42ab      	cmp	r3, r5
10006eee:	d1f4      	bne.n	10006eda <stdio_buffered_printer+0x2e>
10006ef0:	0028      	movs	r0, r5
10006ef2:	4641      	mov	r1, r8
10006ef4:	6822      	ldr	r2, [r4, #0]
10006ef6:	f7ff ff7f 	bl	10006df8 <stdio_out_chars_crlf>
10006efa:	692d      	ldr	r5, [r5, #16]
10006efc:	2d00      	cmp	r5, #0
10006efe:	d1ef      	bne.n	10006ee0 <stdio_buffered_printer+0x34>
10006f00:	2301      	movs	r3, #1
10006f02:	2100      	movs	r1, #0
10006f04:	e7db      	b.n	10006ebe <stdio_buffered_printer+0x12>
10006f06:	46c0      	nop			; (mov r8, r8)
10006f08:	20000740 	.word	0x20000740
10006f0c:	20000744 	.word	0x20000744

10006f10 <stdio_put_string>:
10006f10:	b5f0      	push	{r4, r5, r6, r7, lr}
10006f12:	46de      	mov	lr, fp
10006f14:	4657      	mov	r7, sl
10006f16:	464e      	mov	r6, r9
10006f18:	4645      	mov	r5, r8
10006f1a:	b5e0      	push	{r5, r6, r7, lr}
10006f1c:	b085      	sub	sp, #20
10006f1e:	0017      	movs	r7, r2
10006f20:	001c      	movs	r4, r3
10006f22:	0006      	movs	r6, r0
10006f24:	000d      	movs	r5, r1
10006f26:	f7fd fad3 	bl	100044d0 <time_us_64>
10006f2a:	2300      	movs	r3, #0
10006f2c:	4a31      	ldr	r2, [pc, #196]	; (10006ff4 <stdio_put_string+0xe4>)
10006f2e:	1812      	adds	r2, r2, r0
10006f30:	414b      	adcs	r3, r1
10006f32:	2b00      	cmp	r3, #0
10006f34:	db59      	blt.n	10006fea <stdio_put_string+0xda>
10006f36:	4930      	ldr	r1, [pc, #192]	; (10006ff8 <stdio_put_string+0xe8>)
10006f38:	0008      	movs	r0, r1
10006f3a:	468a      	mov	sl, r1
10006f3c:	f000 fb44 	bl	100075c8 <__mutex_try_enter_block_until_veneer>
10006f40:	9001      	str	r0, [sp, #4]
10006f42:	1c6b      	adds	r3, r5, #1
10006f44:	d103      	bne.n	10006f4e <stdio_put_string+0x3e>
10006f46:	0030      	movs	r0, r6
10006f48:	f000 faee 	bl	10007528 <strlen>
10006f4c:	0005      	movs	r5, r0
10006f4e:	2c00      	cmp	r4, #0
10006f50:	d126      	bne.n	10006fa0 <stdio_put_string+0x90>
10006f52:	4b2a      	ldr	r3, [pc, #168]	; (10006ffc <stdio_put_string+0xec>)
10006f54:	4698      	mov	r8, r3
10006f56:	4b2a      	ldr	r3, [pc, #168]	; (10007000 <stdio_put_string+0xf0>)
10006f58:	681c      	ldr	r4, [r3, #0]
10006f5a:	2c00      	cmp	r4, #0
10006f5c:	d015      	beq.n	10006f8a <stdio_put_string+0x7a>
10006f5e:	2f00      	cmp	r7, #0
10006f60:	d121      	bne.n	10006fa6 <stdio_put_string+0x96>
10006f62:	4f28      	ldr	r7, [pc, #160]	; (10007004 <stdio_put_string+0xf4>)
10006f64:	e002      	b.n	10006f6c <stdio_put_string+0x5c>
10006f66:	6924      	ldr	r4, [r4, #16]
10006f68:	2c00      	cmp	r4, #0
10006f6a:	d00e      	beq.n	10006f8a <stdio_put_string+0x7a>
10006f6c:	6823      	ldr	r3, [r4, #0]
10006f6e:	2b00      	cmp	r3, #0
10006f70:	d0f9      	beq.n	10006f66 <stdio_put_string+0x56>
10006f72:	683b      	ldr	r3, [r7, #0]
10006f74:	2b00      	cmp	r3, #0
10006f76:	d001      	beq.n	10006f7c <stdio_put_string+0x6c>
10006f78:	42a3      	cmp	r3, r4
10006f7a:	d1f4      	bne.n	10006f66 <stdio_put_string+0x56>
10006f7c:	0020      	movs	r0, r4
10006f7e:	002a      	movs	r2, r5
10006f80:	0031      	movs	r1, r6
10006f82:	47c0      	blx	r8
10006f84:	6924      	ldr	r4, [r4, #16]
10006f86:	2c00      	cmp	r4, #0
10006f88:	d1f0      	bne.n	10006f6c <stdio_put_string+0x5c>
10006f8a:	9b01      	ldr	r3, [sp, #4]
10006f8c:	2b00      	cmp	r3, #0
10006f8e:	d128      	bne.n	10006fe2 <stdio_put_string+0xd2>
10006f90:	0028      	movs	r0, r5
10006f92:	b005      	add	sp, #20
10006f94:	bcf0      	pop	{r4, r5, r6, r7}
10006f96:	46bb      	mov	fp, r7
10006f98:	46b2      	mov	sl, r6
10006f9a:	46a9      	mov	r9, r5
10006f9c:	46a0      	mov	r8, r4
10006f9e:	bdf0      	pop	{r4, r5, r6, r7, pc}
10006fa0:	4b19      	ldr	r3, [pc, #100]	; (10007008 <stdio_put_string+0xf8>)
10006fa2:	4698      	mov	r8, r3
10006fa4:	e7d7      	b.n	10006f56 <stdio_put_string+0x46>
10006fa6:	4b17      	ldr	r3, [pc, #92]	; (10007004 <stdio_put_string+0xf4>)
10006fa8:	4699      	mov	r9, r3
10006faa:	ab02      	add	r3, sp, #8
10006fac:	1ddf      	adds	r7, r3, #7
10006fae:	230a      	movs	r3, #10
10006fb0:	469b      	mov	fp, r3
10006fb2:	e002      	b.n	10006fba <stdio_put_string+0xaa>
10006fb4:	6924      	ldr	r4, [r4, #16]
10006fb6:	2c00      	cmp	r4, #0
10006fb8:	d0e7      	beq.n	10006f8a <stdio_put_string+0x7a>
10006fba:	6823      	ldr	r3, [r4, #0]
10006fbc:	2b00      	cmp	r3, #0
10006fbe:	d0f9      	beq.n	10006fb4 <stdio_put_string+0xa4>
10006fc0:	464b      	mov	r3, r9
10006fc2:	681b      	ldr	r3, [r3, #0]
10006fc4:	2b00      	cmp	r3, #0
10006fc6:	d001      	beq.n	10006fcc <stdio_put_string+0xbc>
10006fc8:	42a3      	cmp	r3, r4
10006fca:	d1f3      	bne.n	10006fb4 <stdio_put_string+0xa4>
10006fcc:	002a      	movs	r2, r5
10006fce:	0031      	movs	r1, r6
10006fd0:	0020      	movs	r0, r4
10006fd2:	47c0      	blx	r8
10006fd4:	465b      	mov	r3, fp
10006fd6:	2201      	movs	r2, #1
10006fd8:	0039      	movs	r1, r7
10006fda:	0020      	movs	r0, r4
10006fdc:	703b      	strb	r3, [r7, #0]
10006fde:	47c0      	blx	r8
10006fe0:	e7e8      	b.n	10006fb4 <stdio_put_string+0xa4>
10006fe2:	4650      	mov	r0, sl
10006fe4:	f000 fad0 	bl	10007588 <__mutex_exit_veneer>
10006fe8:	e7d2      	b.n	10006f90 <stdio_put_string+0x80>
10006fea:	2201      	movs	r2, #1
10006fec:	4b07      	ldr	r3, [pc, #28]	; (1000700c <stdio_put_string+0xfc>)
10006fee:	4252      	negs	r2, r2
10006ff0:	e7a1      	b.n	10006f36 <stdio_put_string+0x26>
10006ff2:	46c0      	nop			; (mov r8, r8)
10006ff4:	000f4240 	.word	0x000f4240
10006ff8:	200002e0 	.word	0x200002e0
10006ffc:	10006de9 	.word	0x10006de9
10007000:	20000740 	.word	0x20000740
10007004:	20000744 	.word	0x20000744
10007008:	10006df9 	.word	0x10006df9
1000700c:	7fffffff 	.word	0x7fffffff

10007010 <stdio_set_driver_enabled>:
10007010:	4a0a      	ldr	r2, [pc, #40]	; (1000703c <stdio_set_driver_enabled+0x2c>)
10007012:	6813      	ldr	r3, [r2, #0]
10007014:	2b00      	cmp	r3, #0
10007016:	d105      	bne.n	10007024 <stdio_set_driver_enabled+0x14>
10007018:	e00c      	b.n	10007034 <stdio_set_driver_enabled+0x24>
1000701a:	001a      	movs	r2, r3
1000701c:	691b      	ldr	r3, [r3, #16]
1000701e:	3210      	adds	r2, #16
10007020:	2b00      	cmp	r3, #0
10007022:	d007      	beq.n	10007034 <stdio_set_driver_enabled+0x24>
10007024:	4298      	cmp	r0, r3
10007026:	d1f8      	bne.n	1000701a <stdio_set_driver_enabled+0xa>
10007028:	2900      	cmp	r1, #0
1000702a:	d102      	bne.n	10007032 <stdio_set_driver_enabled+0x22>
1000702c:	6903      	ldr	r3, [r0, #16]
1000702e:	6013      	str	r3, [r2, #0]
10007030:	6101      	str	r1, [r0, #16]
10007032:	4770      	bx	lr
10007034:	2900      	cmp	r1, #0
10007036:	d0fc      	beq.n	10007032 <stdio_set_driver_enabled+0x22>
10007038:	6010      	str	r0, [r2, #0]
1000703a:	e7fa      	b.n	10007032 <stdio_set_driver_enabled+0x22>
1000703c:	20000740 	.word	0x20000740

10007040 <stdio_init_all>:
10007040:	b510      	push	{r4, lr}
10007042:	f000 f9af 	bl	100073a4 <stdio_uart_init>
10007046:	2001      	movs	r0, #1
10007048:	bd10      	pop	{r4, pc}
1000704a:	46c0      	nop			; (mov r8, r8)

1000704c <__wrap_putchar>:
1000704c:	b5f0      	push	{r4, r5, r6, r7, lr}
1000704e:	46ce      	mov	lr, r9
10007050:	4647      	mov	r7, r8
10007052:	b580      	push	{r7, lr}
10007054:	b083      	sub	sp, #12
10007056:	466b      	mov	r3, sp
10007058:	0006      	movs	r6, r0
1000705a:	1ddd      	adds	r5, r3, #7
1000705c:	7028      	strb	r0, [r5, #0]
1000705e:	f7fd fa37 	bl	100044d0 <time_us_64>
10007062:	2300      	movs	r3, #0
10007064:	4a1a      	ldr	r2, [pc, #104]	; (100070d0 <__wrap_putchar+0x84>)
10007066:	1812      	adds	r2, r2, r0
10007068:	414b      	adcs	r3, r1
1000706a:	2b00      	cmp	r3, #0
1000706c:	db2b      	blt.n	100070c6 <__wrap_putchar+0x7a>
1000706e:	4919      	ldr	r1, [pc, #100]	; (100070d4 <__wrap_putchar+0x88>)
10007070:	0008      	movs	r0, r1
10007072:	4688      	mov	r8, r1
10007074:	f000 faa8 	bl	100075c8 <__mutex_try_enter_block_until_veneer>
10007078:	4b17      	ldr	r3, [pc, #92]	; (100070d8 <__wrap_putchar+0x8c>)
1000707a:	4681      	mov	r9, r0
1000707c:	681c      	ldr	r4, [r3, #0]
1000707e:	2c00      	cmp	r4, #0
10007080:	d014      	beq.n	100070ac <__wrap_putchar+0x60>
10007082:	4f16      	ldr	r7, [pc, #88]	; (100070dc <__wrap_putchar+0x90>)
10007084:	e002      	b.n	1000708c <__wrap_putchar+0x40>
10007086:	6924      	ldr	r4, [r4, #16]
10007088:	2c00      	cmp	r4, #0
1000708a:	d00f      	beq.n	100070ac <__wrap_putchar+0x60>
1000708c:	6823      	ldr	r3, [r4, #0]
1000708e:	2b00      	cmp	r3, #0
10007090:	d0f9      	beq.n	10007086 <__wrap_putchar+0x3a>
10007092:	683b      	ldr	r3, [r7, #0]
10007094:	2b00      	cmp	r3, #0
10007096:	d001      	beq.n	1000709c <__wrap_putchar+0x50>
10007098:	42a3      	cmp	r3, r4
1000709a:	d1f4      	bne.n	10007086 <__wrap_putchar+0x3a>
1000709c:	0020      	movs	r0, r4
1000709e:	2201      	movs	r2, #1
100070a0:	0029      	movs	r1, r5
100070a2:	f7ff fea9 	bl	10006df8 <stdio_out_chars_crlf>
100070a6:	6924      	ldr	r4, [r4, #16]
100070a8:	2c00      	cmp	r4, #0
100070aa:	d1ef      	bne.n	1000708c <__wrap_putchar+0x40>
100070ac:	464b      	mov	r3, r9
100070ae:	2b00      	cmp	r3, #0
100070b0:	d105      	bne.n	100070be <__wrap_putchar+0x72>
100070b2:	0030      	movs	r0, r6
100070b4:	b003      	add	sp, #12
100070b6:	bcc0      	pop	{r6, r7}
100070b8:	46b9      	mov	r9, r7
100070ba:	46b0      	mov	r8, r6
100070bc:	bdf0      	pop	{r4, r5, r6, r7, pc}
100070be:	4640      	mov	r0, r8
100070c0:	f000 fa62 	bl	10007588 <__mutex_exit_veneer>
100070c4:	e7f5      	b.n	100070b2 <__wrap_putchar+0x66>
100070c6:	2201      	movs	r2, #1
100070c8:	4b05      	ldr	r3, [pc, #20]	; (100070e0 <__wrap_putchar+0x94>)
100070ca:	4252      	negs	r2, r2
100070cc:	e7cf      	b.n	1000706e <__wrap_putchar+0x22>
100070ce:	46c0      	nop			; (mov r8, r8)
100070d0:	000f4240 	.word	0x000f4240
100070d4:	200002e0 	.word	0x200002e0
100070d8:	20000740 	.word	0x20000740
100070dc:	20000744 	.word	0x20000744
100070e0:	7fffffff 	.word	0x7fffffff

100070e4 <__wrap_puts>:
100070e4:	b570      	push	{r4, r5, r6, lr}
100070e6:	0004      	movs	r4, r0
100070e8:	f000 fa1e 	bl	10007528 <strlen>
100070ec:	2301      	movs	r3, #1
100070ee:	0001      	movs	r1, r0
100070f0:	0005      	movs	r5, r0
100070f2:	2201      	movs	r2, #1
100070f4:	0020      	movs	r0, r4
100070f6:	f7ff ff0b 	bl	10006f10 <stdio_put_string>
100070fa:	4b08      	ldr	r3, [pc, #32]	; (1000711c <__wrap_puts+0x38>)
100070fc:	681c      	ldr	r4, [r3, #0]
100070fe:	2c00      	cmp	r4, #0
10007100:	d006      	beq.n	10007110 <__wrap_puts+0x2c>
10007102:	6863      	ldr	r3, [r4, #4]
10007104:	2b00      	cmp	r3, #0
10007106:	d005      	beq.n	10007114 <__wrap_puts+0x30>
10007108:	4798      	blx	r3
1000710a:	6924      	ldr	r4, [r4, #16]
1000710c:	2c00      	cmp	r4, #0
1000710e:	d1f8      	bne.n	10007102 <__wrap_puts+0x1e>
10007110:	0028      	movs	r0, r5
10007112:	bd70      	pop	{r4, r5, r6, pc}
10007114:	6924      	ldr	r4, [r4, #16]
10007116:	2c00      	cmp	r4, #0
10007118:	d1f3      	bne.n	10007102 <__wrap_puts+0x1e>
1000711a:	e7f9      	b.n	10007110 <__wrap_puts+0x2c>
1000711c:	20000740 	.word	0x20000740

10007120 <__wrap_vprintf>:
10007120:	b5f0      	push	{r4, r5, r6, r7, lr}
10007122:	46ce      	mov	lr, r9
10007124:	4647      	mov	r7, r8
10007126:	b580      	push	{r7, lr}
10007128:	b0a5      	sub	sp, #148	; 0x94
1000712a:	0004      	movs	r4, r0
1000712c:	000d      	movs	r5, r1
1000712e:	f7fd f9cf 	bl	100044d0 <time_us_64>
10007132:	2300      	movs	r3, #0
10007134:	4a2a      	ldr	r2, [pc, #168]	; (100071e0 <__wrap_vprintf+0xc0>)
10007136:	1812      	adds	r2, r2, r0
10007138:	414b      	adcs	r3, r1
1000713a:	2b00      	cmp	r3, #0
1000713c:	db49      	blt.n	100071d2 <__wrap_vprintf+0xb2>
1000713e:	4e29      	ldr	r6, [pc, #164]	; (100071e4 <__wrap_vprintf+0xc4>)
10007140:	0030      	movs	r0, r6
10007142:	f000 fa41 	bl	100075c8 <__mutex_try_enter_block_until_veneer>
10007146:	2300      	movs	r3, #0
10007148:	0007      	movs	r7, r0
1000714a:	9303      	str	r3, [sp, #12]
1000714c:	0022      	movs	r2, r4
1000714e:	002b      	movs	r3, r5
10007150:	4825      	ldr	r0, [pc, #148]	; (100071e8 <__wrap_vprintf+0xc8>)
10007152:	a903      	add	r1, sp, #12
10007154:	f7ff fe04 	bl	10006d60 <vfctprintf>
10007158:	9b03      	ldr	r3, [sp, #12]
1000715a:	4680      	mov	r8, r0
1000715c:	2b00      	cmp	r3, #0
1000715e:	d114      	bne.n	1000718a <__wrap_vprintf+0x6a>
10007160:	4b22      	ldr	r3, [pc, #136]	; (100071ec <__wrap_vprintf+0xcc>)
10007162:	681c      	ldr	r4, [r3, #0]
10007164:	2c00      	cmp	r4, #0
10007166:	d006      	beq.n	10007176 <__wrap_vprintf+0x56>
10007168:	6863      	ldr	r3, [r4, #4]
1000716a:	2b00      	cmp	r3, #0
1000716c:	d00b      	beq.n	10007186 <__wrap_vprintf+0x66>
1000716e:	4798      	blx	r3
10007170:	6924      	ldr	r4, [r4, #16]
10007172:	2c00      	cmp	r4, #0
10007174:	d1f8      	bne.n	10007168 <__wrap_vprintf+0x48>
10007176:	2f00      	cmp	r7, #0
10007178:	d127      	bne.n	100071ca <__wrap_vprintf+0xaa>
1000717a:	4640      	mov	r0, r8
1000717c:	b025      	add	sp, #148	; 0x94
1000717e:	bcc0      	pop	{r6, r7}
10007180:	46b9      	mov	r9, r7
10007182:	46b0      	mov	r8, r6
10007184:	bdf0      	pop	{r4, r5, r6, r7, pc}
10007186:	6924      	ldr	r4, [r4, #16]
10007188:	e7ec      	b.n	10007164 <__wrap_vprintf+0x44>
1000718a:	4b18      	ldr	r3, [pc, #96]	; (100071ec <__wrap_vprintf+0xcc>)
1000718c:	681d      	ldr	r5, [r3, #0]
1000718e:	4699      	mov	r9, r3
10007190:	2d00      	cmp	r5, #0
10007192:	d022      	beq.n	100071da <__wrap_vprintf+0xba>
10007194:	4c16      	ldr	r4, [pc, #88]	; (100071f0 <__wrap_vprintf+0xd0>)
10007196:	e002      	b.n	1000719e <__wrap_vprintf+0x7e>
10007198:	692d      	ldr	r5, [r5, #16]
1000719a:	2d00      	cmp	r5, #0
1000719c:	d011      	beq.n	100071c2 <__wrap_vprintf+0xa2>
1000719e:	682b      	ldr	r3, [r5, #0]
100071a0:	2b00      	cmp	r3, #0
100071a2:	d0f9      	beq.n	10007198 <__wrap_vprintf+0x78>
100071a4:	6823      	ldr	r3, [r4, #0]
100071a6:	2b00      	cmp	r3, #0
100071a8:	d001      	beq.n	100071ae <__wrap_vprintf+0x8e>
100071aa:	429d      	cmp	r5, r3
100071ac:	d1f4      	bne.n	10007198 <__wrap_vprintf+0x78>
100071ae:	9b03      	ldr	r3, [sp, #12]
100071b0:	0028      	movs	r0, r5
100071b2:	001a      	movs	r2, r3
100071b4:	a904      	add	r1, sp, #16
100071b6:	9301      	str	r3, [sp, #4]
100071b8:	f7ff fe1e 	bl	10006df8 <stdio_out_chars_crlf>
100071bc:	692d      	ldr	r5, [r5, #16]
100071be:	2d00      	cmp	r5, #0
100071c0:	d1ed      	bne.n	1000719e <__wrap_vprintf+0x7e>
100071c2:	464b      	mov	r3, r9
100071c4:	9503      	str	r5, [sp, #12]
100071c6:	681c      	ldr	r4, [r3, #0]
100071c8:	e7cc      	b.n	10007164 <__wrap_vprintf+0x44>
100071ca:	0030      	movs	r0, r6
100071cc:	f000 f9dc 	bl	10007588 <__mutex_exit_veneer>
100071d0:	e7d3      	b.n	1000717a <__wrap_vprintf+0x5a>
100071d2:	2201      	movs	r2, #1
100071d4:	4b07      	ldr	r3, [pc, #28]	; (100071f4 <__wrap_vprintf+0xd4>)
100071d6:	4252      	negs	r2, r2
100071d8:	e7b1      	b.n	1000713e <__wrap_vprintf+0x1e>
100071da:	9503      	str	r5, [sp, #12]
100071dc:	e7cb      	b.n	10007176 <__wrap_vprintf+0x56>
100071de:	46c0      	nop			; (mov r8, r8)
100071e0:	000f4240 	.word	0x000f4240
100071e4:	200002e0 	.word	0x200002e0
100071e8:	10006ead 	.word	0x10006ead
100071ec:	20000740 	.word	0x20000740
100071f0:	20000744 	.word	0x20000744
100071f4:	7fffffff 	.word	0x7fffffff

100071f8 <__wrap_printf>:
100071f8:	b40f      	push	{r0, r1, r2, r3}
100071fa:	b500      	push	{lr}
100071fc:	b083      	sub	sp, #12
100071fe:	a904      	add	r1, sp, #16
10007200:	c901      	ldmia	r1!, {r0}
10007202:	9101      	str	r1, [sp, #4]
10007204:	f7ff ff8c 	bl	10007120 <__wrap_vprintf>
10007208:	b003      	add	sp, #12
1000720a:	bc08      	pop	{r3}
1000720c:	b004      	add	sp, #16
1000720e:	4718      	bx	r3

10007210 <stdio_uart_out_chars>:
10007210:	b5f0      	push	{r4, r5, r6, r7, lr}
10007212:	1e0d      	subs	r5, r1, #0
10007214:	dd15      	ble.n	10007242 <stdio_uart_out_chars+0x32>
10007216:	4b0e      	ldr	r3, [pc, #56]	; (10007250 <stdio_uart_out_chars+0x40>)
10007218:	270d      	movs	r7, #13
1000721a:	681a      	ldr	r2, [r3, #0]
1000721c:	4b0d      	ldr	r3, [pc, #52]	; (10007254 <stdio_uart_out_chars+0x44>)
1000721e:	1945      	adds	r5, r0, r5
10007220:	18d3      	adds	r3, r2, r3
10007222:	4259      	negs	r1, r3
10007224:	414b      	adcs	r3, r1
10007226:	490c      	ldr	r1, [pc, #48]	; (10007258 <stdio_uart_out_chars+0x48>)
10007228:	005b      	lsls	r3, r3, #1
1000722a:	5e5e      	ldrsh	r6, [r3, r1]
1000722c:	2120      	movs	r1, #32
1000722e:	7804      	ldrb	r4, [r0, #0]
10007230:	42a6      	cmp	r6, r4
10007232:	d007      	beq.n	10007244 <stdio_uart_out_chars+0x34>
10007234:	6993      	ldr	r3, [r2, #24]
10007236:	4219      	tst	r1, r3
10007238:	d1fc      	bne.n	10007234 <stdio_uart_out_chars+0x24>
1000723a:	3001      	adds	r0, #1
1000723c:	6014      	str	r4, [r2, #0]
1000723e:	42a8      	cmp	r0, r5
10007240:	d1f5      	bne.n	1000722e <stdio_uart_out_chars+0x1e>
10007242:	bdf0      	pop	{r4, r5, r6, r7, pc}
10007244:	6993      	ldr	r3, [r2, #24]
10007246:	4219      	tst	r1, r3
10007248:	d1fc      	bne.n	10007244 <stdio_uart_out_chars+0x34>
1000724a:	6017      	str	r7, [r2, #0]
1000724c:	e7f2      	b.n	10007234 <stdio_uart_out_chars+0x24>
1000724e:	46c0      	nop			; (mov r8, r8)
10007250:	20000a0c 	.word	0x20000a0c
10007254:	bffc8000 	.word	0xbffc8000
10007258:	20000a08 	.word	0x20000a08

1000725c <stdio_uart_in_chars>:
1000725c:	b530      	push	{r4, r5, lr}
1000725e:	0004      	movs	r4, r0
10007260:	1e0d      	subs	r5, r1, #0
10007262:	dd24      	ble.n	100072ae <stdio_uart_in_chars+0x52>
10007264:	2000      	movs	r0, #0
10007266:	2110      	movs	r1, #16
10007268:	4b1a      	ldr	r3, [pc, #104]	; (100072d4 <stdio_uart_in_chars+0x78>)
1000726a:	3c01      	subs	r4, #1
1000726c:	681a      	ldr	r2, [r3, #0]
1000726e:	6993      	ldr	r3, [r2, #24]
10007270:	4219      	tst	r1, r3
10007272:	d117      	bne.n	100072a4 <stdio_uart_in_chars+0x48>
10007274:	3001      	adds	r0, #1
10007276:	6993      	ldr	r3, [r2, #24]
10007278:	4219      	tst	r1, r3
1000727a:	d1fc      	bne.n	10007276 <stdio_uart_in_chars+0x1a>
1000727c:	6813      	ldr	r3, [r2, #0]
1000727e:	5423      	strb	r3, [r4, r0]
10007280:	4285      	cmp	r5, r0
10007282:	d1f4      	bne.n	1000726e <stdio_uart_in_chars+0x12>
10007284:	4b14      	ldr	r3, [pc, #80]	; (100072d8 <stdio_uart_in_chars+0x7c>)
10007286:	681b      	ldr	r3, [r3, #0]
10007288:	2b00      	cmp	r3, #0
1000728a:	d00a      	beq.n	100072a2 <stdio_uart_in_chars+0x46>
1000728c:	2350      	movs	r3, #80	; 0x50
1000728e:	6393      	str	r3, [r2, #56]	; 0x38
10007290:	6b51      	ldr	r1, [r2, #52]	; 0x34
10007292:	3b18      	subs	r3, #24
10007294:	400b      	ands	r3, r1
10007296:	4911      	ldr	r1, [pc, #68]	; (100072dc <stdio_uart_in_chars+0x80>)
10007298:	468c      	mov	ip, r1
1000729a:	4462      	add	r2, ip
1000729c:	6013      	str	r3, [r2, #0]
1000729e:	2800      	cmp	r0, #0
100072a0:	d014      	beq.n	100072cc <stdio_uart_in_chars+0x70>
100072a2:	bd30      	pop	{r4, r5, pc}
100072a4:	4b0c      	ldr	r3, [pc, #48]	; (100072d8 <stdio_uart_in_chars+0x7c>)
100072a6:	681b      	ldr	r3, [r3, #0]
100072a8:	2b00      	cmp	r3, #0
100072aa:	d1ef      	bne.n	1000728c <stdio_uart_in_chars+0x30>
100072ac:	e7f7      	b.n	1000729e <stdio_uart_in_chars+0x42>
100072ae:	4b0a      	ldr	r3, [pc, #40]	; (100072d8 <stdio_uart_in_chars+0x7c>)
100072b0:	681b      	ldr	r3, [r3, #0]
100072b2:	2b00      	cmp	r3, #0
100072b4:	d00a      	beq.n	100072cc <stdio_uart_in_chars+0x70>
100072b6:	2250      	movs	r2, #80	; 0x50
100072b8:	4b06      	ldr	r3, [pc, #24]	; (100072d4 <stdio_uart_in_chars+0x78>)
100072ba:	681b      	ldr	r3, [r3, #0]
100072bc:	639a      	str	r2, [r3, #56]	; 0x38
100072be:	6b59      	ldr	r1, [r3, #52]	; 0x34
100072c0:	3a18      	subs	r2, #24
100072c2:	400a      	ands	r2, r1
100072c4:	4905      	ldr	r1, [pc, #20]	; (100072dc <stdio_uart_in_chars+0x80>)
100072c6:	468c      	mov	ip, r1
100072c8:	4463      	add	r3, ip
100072ca:	601a      	str	r2, [r3, #0]
100072cc:	2003      	movs	r0, #3
100072ce:	4240      	negs	r0, r0
100072d0:	e7e7      	b.n	100072a2 <stdio_uart_in_chars+0x46>
100072d2:	46c0      	nop			; (mov r8, r8)
100072d4:	20000a0c 	.word	0x20000a0c
100072d8:	20000708 	.word	0x20000708
100072dc:	00001034 	.word	0x00001034

100072e0 <on_uart_rx>:
100072e0:	4b06      	ldr	r3, [pc, #24]	; (100072fc <on_uart_rx+0x1c>)
100072e2:	b510      	push	{r4, lr}
100072e4:	681b      	ldr	r3, [r3, #0]
100072e6:	2b00      	cmp	r3, #0
100072e8:	d006      	beq.n	100072f8 <on_uart_rx+0x18>
100072ea:	2100      	movs	r1, #0
100072ec:	4a04      	ldr	r2, [pc, #16]	; (10007300 <on_uart_rx+0x20>)
100072ee:	6812      	ldr	r2, [r2, #0]
100072f0:	6391      	str	r1, [r2, #56]	; 0x38
100072f2:	4a04      	ldr	r2, [pc, #16]	; (10007304 <on_uart_rx+0x24>)
100072f4:	6810      	ldr	r0, [r2, #0]
100072f6:	4798      	blx	r3
100072f8:	bd10      	pop	{r4, pc}
100072fa:	46c0      	nop			; (mov r8, r8)
100072fc:	20000708 	.word	0x20000708
10007300:	20000a0c 	.word	0x20000a0c
10007304:	2000070c 	.word	0x2000070c

10007308 <stdio_uart_out_flush>:
10007308:	2208      	movs	r2, #8
1000730a:	4b03      	ldr	r3, [pc, #12]	; (10007318 <stdio_uart_out_flush+0x10>)
1000730c:	6819      	ldr	r1, [r3, #0]
1000730e:	698b      	ldr	r3, [r1, #24]
10007310:	421a      	tst	r2, r3
10007312:	d1fc      	bne.n	1000730e <stdio_uart_out_flush+0x6>
10007314:	4770      	bx	lr
10007316:	46c0      	nop			; (mov r8, r8)
10007318:	20000a0c 	.word	0x20000a0c

1000731c <stdio_uart_set_chars_available_callback>:
1000731c:	b570      	push	{r4, r5, r6, lr}
1000731e:	4e1b      	ldr	r6, [pc, #108]	; (1000738c <stdio_uart_set_chars_available_callback+0x70>)
10007320:	4b1b      	ldr	r3, [pc, #108]	; (10007390 <stdio_uart_set_chars_available_callback+0x74>)
10007322:	6832      	ldr	r2, [r6, #0]
10007324:	0005      	movs	r5, r0
10007326:	18d3      	adds	r3, r2, r3
10007328:	4258      	negs	r0, r3
1000732a:	4143      	adcs	r3, r0
1000732c:	3314      	adds	r3, #20
1000732e:	001c      	movs	r4, r3
10007330:	2d00      	cmp	r5, #0
10007332:	d004      	beq.n	1000733e <stdio_uart_set_chars_available_callback+0x22>
10007334:	4b17      	ldr	r3, [pc, #92]	; (10007394 <stdio_uart_set_chars_available_callback+0x78>)
10007336:	681a      	ldr	r2, [r3, #0]
10007338:	2a00      	cmp	r2, #0
1000733a:	d011      	beq.n	10007360 <stdio_uart_set_chars_available_callback+0x44>
1000733c:	bd70      	pop	{r4, r5, r6, pc}
1000733e:	4e15      	ldr	r6, [pc, #84]	; (10007394 <stdio_uart_set_chars_available_callback+0x78>)
10007340:	6833      	ldr	r3, [r6, #0]
10007342:	2b00      	cmp	r3, #0
10007344:	d0fa      	beq.n	1000733c <stdio_uart_set_chars_available_callback+0x20>
10007346:	2100      	movs	r1, #0
10007348:	0020      	movs	r0, r4
1000734a:	6395      	str	r5, [r2, #56]	; 0x38
1000734c:	f7fc fbd0 	bl	10003af0 <irq_set_enabled>
10007350:	0020      	movs	r0, r4
10007352:	4911      	ldr	r1, [pc, #68]	; (10007398 <stdio_uart_set_chars_available_callback+0x7c>)
10007354:	f7fc fc14 	bl	10003b80 <irq_remove_handler>
10007358:	4b10      	ldr	r3, [pc, #64]	; (1000739c <stdio_uart_set_chars_available_callback+0x80>)
1000735a:	6035      	str	r5, [r6, #0]
1000735c:	601d      	str	r5, [r3, #0]
1000735e:	e7ed      	b.n	1000733c <stdio_uart_set_chars_available_callback+0x20>
10007360:	601d      	str	r5, [r3, #0]
10007362:	4b0e      	ldr	r3, [pc, #56]	; (1000739c <stdio_uart_set_chars_available_callback+0x80>)
10007364:	0020      	movs	r0, r4
10007366:	6019      	str	r1, [r3, #0]
10007368:	490b      	ldr	r1, [pc, #44]	; (10007398 <stdio_uart_set_chars_available_callback+0x7c>)
1000736a:	f7fc fbdf 	bl	10003b2c <irq_set_exclusive_handler>
1000736e:	2101      	movs	r1, #1
10007370:	0020      	movs	r0, r4
10007372:	f7fc fbbd 	bl	10003af0 <irq_set_enabled>
10007376:	2250      	movs	r2, #80	; 0x50
10007378:	6833      	ldr	r3, [r6, #0]
1000737a:	639a      	str	r2, [r3, #56]	; 0x38
1000737c:	6b59      	ldr	r1, [r3, #52]	; 0x34
1000737e:	3a18      	subs	r2, #24
10007380:	400a      	ands	r2, r1
10007382:	4907      	ldr	r1, [pc, #28]	; (100073a0 <stdio_uart_set_chars_available_callback+0x84>)
10007384:	468c      	mov	ip, r1
10007386:	4463      	add	r3, ip
10007388:	601a      	str	r2, [r3, #0]
1000738a:	e7d7      	b.n	1000733c <stdio_uart_set_chars_available_callback+0x20>
1000738c:	20000a0c 	.word	0x20000a0c
10007390:	bffc8000 	.word	0xbffc8000
10007394:	20000708 	.word	0x20000708
10007398:	100072e1 	.word	0x100072e1
1000739c:	2000070c 	.word	0x2000070c
100073a0:	00001034 	.word	0x00001034

100073a4 <stdio_uart_init>:
100073a4:	4b0d      	ldr	r3, [pc, #52]	; (100073dc <stdio_uart_init+0x38>)
100073a6:	b510      	push	{r4, lr}
100073a8:	781b      	ldrb	r3, [r3, #0]
100073aa:	4b0d      	ldr	r3, [pc, #52]	; (100073e0 <stdio_uart_init+0x3c>)
100073ac:	4c0d      	ldr	r4, [pc, #52]	; (100073e4 <stdio_uart_init+0x40>)
100073ae:	781b      	ldrb	r3, [r3, #0]
100073b0:	4b0d      	ldr	r3, [pc, #52]	; (100073e8 <stdio_uart_init+0x44>)
100073b2:	2102      	movs	r1, #2
100073b4:	781b      	ldrb	r3, [r3, #0]
100073b6:	4b0d      	ldr	r3, [pc, #52]	; (100073ec <stdio_uart_init+0x48>)
100073b8:	2000      	movs	r0, #0
100073ba:	6023      	str	r3, [r4, #0]
100073bc:	f7fc fb6c 	bl	10003a98 <gpio_set_function>
100073c0:	2102      	movs	r1, #2
100073c2:	2001      	movs	r0, #1
100073c4:	f7fc fb68 	bl	10003a98 <gpio_set_function>
100073c8:	21e1      	movs	r1, #225	; 0xe1
100073ca:	6820      	ldr	r0, [r4, #0]
100073cc:	0249      	lsls	r1, r1, #9
100073ce:	f7fd f9e5 	bl	1000479c <uart_init>
100073d2:	2101      	movs	r1, #1
100073d4:	4806      	ldr	r0, [pc, #24]	; (100073f0 <stdio_uart_init+0x4c>)
100073d6:	f7ff fe1b 	bl	10007010 <stdio_set_driver_enabled>
100073da:	bd10      	pop	{r4, pc}
100073dc:	10007afc 	.word	0x10007afc
100073e0:	10007b00 	.word	0x10007b00
100073e4:	20000a0c 	.word	0x20000a0c
100073e8:	10007b04 	.word	0x10007b04
100073ec:	40034000 	.word	0x40034000
100073f0:	200002c0 	.word	0x200002c0

100073f4 <spi_init>:
100073f4:	b5f0      	push	{r4, r5, r6, r7, lr}
100073f6:	4657      	mov	r7, sl
100073f8:	4682      	mov	sl, r0
100073fa:	4b45      	ldr	r3, [pc, #276]	; (10007510 <spi_init+0x11c>)
100073fc:	4645      	mov	r5, r8
100073fe:	4453      	add	r3, sl
10007400:	425a      	negs	r2, r3
10007402:	4153      	adcs	r3, r2
10007404:	2280      	movs	r2, #128	; 0x80
10007406:	46de      	mov	lr, fp
10007408:	464e      	mov	r6, r9
1000740a:	0292      	lsls	r2, r2, #10
1000740c:	4694      	mov	ip, r2
1000740e:	425b      	negs	r3, r3
10007410:	b5e0      	push	{r5, r6, r7, lr}
10007412:	0c1b      	lsrs	r3, r3, #16
10007414:	4a3f      	ldr	r2, [pc, #252]	; (10007514 <spi_init+0x120>)
10007416:	041b      	lsls	r3, r3, #16
10007418:	4463      	add	r3, ip
1000741a:	6013      	str	r3, [r2, #0]
1000741c:	4a3e      	ldr	r2, [pc, #248]	; (10007518 <spi_init+0x124>)
1000741e:	000d      	movs	r5, r1
10007420:	493e      	ldr	r1, [pc, #248]	; (1000751c <spi_init+0x128>)
10007422:	b085      	sub	sp, #20
10007424:	6013      	str	r3, [r2, #0]
10007426:	0018      	movs	r0, r3
10007428:	680a      	ldr	r2, [r1, #0]
1000742a:	4390      	bics	r0, r2
1000742c:	d1fb      	bne.n	10007426 <spi_init+0x32>
1000742e:	4681      	mov	r9, r0
10007430:	2006      	movs	r0, #6
10007432:	f7fc fae3 	bl	100039fc <clock_get_hz>
10007436:	4653      	mov	r3, sl
10007438:	685a      	ldr	r2, [r3, #4]
1000743a:	2302      	movs	r3, #2
1000743c:	401a      	ands	r2, r3
1000743e:	9201      	str	r2, [sp, #4]
10007440:	4652      	mov	r2, sl
10007442:	2180      	movs	r1, #128	; 0x80
10007444:	3204      	adds	r2, #4
10007446:	9202      	str	r2, [sp, #8]
10007448:	4a35      	ldr	r2, [pc, #212]	; (10007520 <spi_init+0x12c>)
1000744a:	0def      	lsrs	r7, r5, #23
1000744c:	4452      	add	r2, sl
1000744e:	026e      	lsls	r6, r5, #9
10007450:	6013      	str	r3, [r2, #0]
10007452:	9203      	str	r2, [sp, #12]
10007454:	003b      	movs	r3, r7
10007456:	0032      	movs	r2, r6
10007458:	2402      	movs	r4, #2
1000745a:	0049      	lsls	r1, r1, #1
1000745c:	e006      	b.n	1000746c <spi_init+0x78>
1000745e:	4290      	cmp	r0, r2
10007460:	d306      	bcc.n	10007470 <spi_init+0x7c>
10007462:	3402      	adds	r4, #2
10007464:	1992      	adds	r2, r2, r6
10007466:	417b      	adcs	r3, r7
10007468:	428c      	cmp	r4, r1
1000746a:	d001      	beq.n	10007470 <spi_init+0x7c>
1000746c:	2b00      	cmp	r3, #0
1000746e:	d0f6      	beq.n	1000745e <spi_init+0x6a>
10007470:	002b      	movs	r3, r5
10007472:	2680      	movs	r6, #128	; 0x80
10007474:	0227      	lsls	r7, r4, #8
10007476:	46a0      	mov	r8, r4
10007478:	1b3f      	subs	r7, r7, r4
1000747a:	0005      	movs	r5, r0
1000747c:	001c      	movs	r4, r3
1000747e:	0076      	lsls	r6, r6, #1
10007480:	e003      	b.n	1000748a <spi_init+0x96>
10007482:	4643      	mov	r3, r8
10007484:	1aff      	subs	r7, r7, r3
10007486:	2e01      	cmp	r6, #1
10007488:	d03d      	beq.n	10007506 <spi_init+0x112>
1000748a:	0039      	movs	r1, r7
1000748c:	0028      	movs	r0, r5
1000748e:	46b3      	mov	fp, r6
10007490:	3e01      	subs	r6, #1
10007492:	f7fd fb2d 	bl	10004af0 <__wrap___aeabi_uidiv>
10007496:	4284      	cmp	r4, r0
10007498:	d2f3      	bcs.n	10007482 <spi_init+0x8e>
1000749a:	4644      	mov	r4, r8
1000749c:	4659      	mov	r1, fp
1000749e:	0233      	lsls	r3, r6, #8
100074a0:	46a8      	mov	r8, r5
100074a2:	4699      	mov	r9, r3
100074a4:	4361      	muls	r1, r4
100074a6:	4653      	mov	r3, sl
100074a8:	464a      	mov	r2, r9
100074aa:	611c      	str	r4, [r3, #16]
100074ac:	681b      	ldr	r3, [r3, #0]
100074ae:	2580      	movs	r5, #128	; 0x80
100074b0:	4053      	eors	r3, r2
100074b2:	22ff      	movs	r2, #255	; 0xff
100074b4:	0212      	lsls	r2, r2, #8
100074b6:	4013      	ands	r3, r2
100074b8:	2280      	movs	r2, #128	; 0x80
100074ba:	0192      	lsls	r2, r2, #6
100074bc:	4694      	mov	ip, r2
100074be:	016d      	lsls	r5, r5, #5
100074c0:	4455      	add	r5, sl
100074c2:	602b      	str	r3, [r5, #0]
100074c4:	9b02      	ldr	r3, [sp, #8]
100074c6:	9a01      	ldr	r2, [sp, #4]
100074c8:	4463      	add	r3, ip
100074ca:	601a      	str	r2, [r3, #0]
100074cc:	4652      	mov	r2, sl
100074ce:	6850      	ldr	r0, [r2, #4]
100074d0:	2202      	movs	r2, #2
100074d2:	9c03      	ldr	r4, [sp, #12]
100074d4:	2607      	movs	r6, #7
100074d6:	6022      	str	r2, [r4, #0]
100074d8:	4654      	mov	r4, sl
100074da:	6824      	ldr	r4, [r4, #0]
100074dc:	4010      	ands	r0, r2
100074de:	4066      	eors	r6, r4
100074e0:	24cf      	movs	r4, #207	; 0xcf
100074e2:	4034      	ands	r4, r6
100074e4:	602c      	str	r4, [r5, #0]
100074e6:	2403      	movs	r4, #3
100074e8:	6018      	str	r0, [r3, #0]
100074ea:	480e      	ldr	r0, [pc, #56]	; (10007524 <spi_init+0x130>)
100074ec:	4450      	add	r0, sl
100074ee:	6004      	str	r4, [r0, #0]
100074f0:	4640      	mov	r0, r8
100074f2:	601a      	str	r2, [r3, #0]
100074f4:	f7fd fafc 	bl	10004af0 <__wrap___aeabi_uidiv>
100074f8:	b005      	add	sp, #20
100074fa:	bcf0      	pop	{r4, r5, r6, r7}
100074fc:	46bb      	mov	fp, r7
100074fe:	46b2      	mov	sl, r6
10007500:	46a9      	mov	r9, r5
10007502:	46a0      	mov	r8, r4
10007504:	bdf0      	pop	{r4, r5, r6, r7, pc}
10007506:	4644      	mov	r4, r8
10007508:	0019      	movs	r1, r3
1000750a:	46a8      	mov	r8, r5
1000750c:	e7cb      	b.n	100074a6 <spi_init+0xb2>
1000750e:	46c0      	nop			; (mov r8, r8)
10007510:	bffc4000 	.word	0xbffc4000
10007514:	4000e000 	.word	0x4000e000
10007518:	4000f000 	.word	0x4000f000
1000751c:	4000c008 	.word	0x4000c008
10007520:	00003004 	.word	0x00003004
10007524:	00002024 	.word	0x00002024

10007528 <strlen>:
10007528:	b510      	push	{r4, lr}
1000752a:	0783      	lsls	r3, r0, #30
1000752c:	d00a      	beq.n	10007544 <strlen+0x1c>
1000752e:	0003      	movs	r3, r0
10007530:	2103      	movs	r1, #3
10007532:	e002      	b.n	1000753a <strlen+0x12>
10007534:	3301      	adds	r3, #1
10007536:	420b      	tst	r3, r1
10007538:	d005      	beq.n	10007546 <strlen+0x1e>
1000753a:	781a      	ldrb	r2, [r3, #0]
1000753c:	2a00      	cmp	r2, #0
1000753e:	d1f9      	bne.n	10007534 <strlen+0xc>
10007540:	1a18      	subs	r0, r3, r0
10007542:	bd10      	pop	{r4, pc}
10007544:	0003      	movs	r3, r0
10007546:	6819      	ldr	r1, [r3, #0]
10007548:	4a0c      	ldr	r2, [pc, #48]	; (1000757c <strlen+0x54>)
1000754a:	4c0d      	ldr	r4, [pc, #52]	; (10007580 <strlen+0x58>)
1000754c:	188a      	adds	r2, r1, r2
1000754e:	438a      	bics	r2, r1
10007550:	4222      	tst	r2, r4
10007552:	d10f      	bne.n	10007574 <strlen+0x4c>
10007554:	6859      	ldr	r1, [r3, #4]
10007556:	4a09      	ldr	r2, [pc, #36]	; (1000757c <strlen+0x54>)
10007558:	3304      	adds	r3, #4
1000755a:	188a      	adds	r2, r1, r2
1000755c:	438a      	bics	r2, r1
1000755e:	4222      	tst	r2, r4
10007560:	d108      	bne.n	10007574 <strlen+0x4c>
10007562:	6859      	ldr	r1, [r3, #4]
10007564:	4a05      	ldr	r2, [pc, #20]	; (1000757c <strlen+0x54>)
10007566:	3304      	adds	r3, #4
10007568:	188a      	adds	r2, r1, r2
1000756a:	438a      	bics	r2, r1
1000756c:	4222      	tst	r2, r4
1000756e:	d0f1      	beq.n	10007554 <strlen+0x2c>
10007570:	e000      	b.n	10007574 <strlen+0x4c>
10007572:	3301      	adds	r3, #1
10007574:	781a      	ldrb	r2, [r3, #0]
10007576:	2a00      	cmp	r2, #0
10007578:	d1fb      	bne.n	10007572 <strlen+0x4a>
1000757a:	e7e1      	b.n	10007540 <strlen+0x18>
1000757c:	fefefeff 	.word	0xfefefeff
10007580:	80808080 	.word	0x80808080

10007584 <_fini>:
10007584:	b5f8      	push	{r3, r4, r5, r6, r7, lr}
10007586:	46c0      	nop			; (mov r8, r8)

10007588 <__mutex_exit_veneer>:
10007588:	b401      	push	{r0}
1000758a:	4802      	ldr	r0, [pc, #8]	; (10007594 <__mutex_exit_veneer+0xc>)
1000758c:	4684      	mov	ip, r0
1000758e:	bc01      	pop	{r0}
10007590:	4760      	bx	ip
10007592:	bf00      	nop
10007594:	2000015d 	.word	0x2000015d

10007598 <____aeabi_ldiv0_veneer>:
10007598:	b401      	push	{r0}
1000759a:	4802      	ldr	r0, [pc, #8]	; (100075a4 <____aeabi_ldiv0_veneer+0xc>)
1000759c:	4684      	mov	ip, r0
1000759e:	bc01      	pop	{r0}
100075a0:	4760      	bx	ip
100075a2:	bf00      	nop
100075a4:	200001f1 	.word	0x200001f1

100075a8 <____aeabi_idiv0_veneer>:
100075a8:	b401      	push	{r0}
100075aa:	4802      	ldr	r0, [pc, #8]	; (100075b4 <____aeabi_idiv0_veneer+0xc>)
100075ac:	4684      	mov	ip, r0
100075ae:	bc01      	pop	{r0}
100075b0:	4760      	bx	ip
100075b2:	bf00      	nop
100075b4:	200001f1 	.word	0x200001f1

100075b8 <__spi_read16_blocking_veneer>:
100075b8:	b401      	push	{r0}
100075ba:	4802      	ldr	r0, [pc, #8]	; (100075c4 <__spi_read16_blocking_veneer+0xc>)
100075bc:	4684      	mov	ip, r0
100075be:	bc01      	pop	{r0}
100075c0:	4760      	bx	ip
100075c2:	bf00      	nop
100075c4:	2000017d 	.word	0x2000017d

100075c8 <__mutex_try_enter_block_until_veneer>:
100075c8:	b401      	push	{r0}
100075ca:	4802      	ldr	r0, [pc, #8]	; (100075d4 <__mutex_try_enter_block_until_veneer+0xc>)
100075cc:	4684      	mov	ip, r0
100075ce:	bc01      	pop	{r0}
100075d0:	4760      	bx	ip
100075d2:	bf00      	nop
100075d4:	200000c1 	.word	0x200000c1

100075d8 <__pre_init_runtime_init_early_resets>:
100075d8:	10004919                                .I..

100075dc <__pre_init_runtime_init_usb_power_down>:
100075dc:	10004945 10004a91 100057c5 10005135     EI...J...W..5Q..
100075ec:	10005735                                5W..

100075f0 <__pre_init_runtime_init_clocks>:
100075f0:	100049b9                                .I..

100075f4 <__pre_init_runtime_init_post_clock_resets>:
100075f4:	10004961                                aI..

100075f8 <__pre_init_runtime_init_rp2040_gpio_ie_disable>:
100075f8:	10004981                                .I..

100075fc <__pre_init_runtime_init_spin_locks_reset>:
100075fc:	10004995                                .I..

10007600 <__pre_init_runtime_init_mutex>:
10007600:	10003e31                                1>..

10007604 <__pre_init_runtime_init_install_ram_vector_table>:
10007604:	1000499d                                .I..

10007608 <__pre_init_runtime_init_default_alarm_pool>:
10007608:	100041c5                                .A..

1000760c <__pre_init_first_per_core_initializer>:
1000760c:	100048b9                                .H..

10007610 <__pre_init_runtime_init_per_core_irq_priorities>:
10007610:	10003acd                                .:..

10007614 <__frame_dummy_init_array_entry>:
10007614:	100002fd 10000c81                       ........

Disassembly of section .data:

200000c0 <mutex_try_enter_block_until>:
200000c0:	b5f0      	push	{r4, r5, r6, r7, lr}
200000c2:	46c6      	mov	lr, r8
200000c4:	0015      	movs	r5, r2
200000c6:	b500      	push	{lr}
200000c8:	0004      	movs	r4, r0
200000ca:	001e      	movs	r6, r3
200000cc:	6802      	ldr	r2, [r0, #0]
200000ce:	f3ef 8810 	mrs	r8, PRIMASK
200000d2:	b672      	cpsid	i
200000d4:	6813      	ldr	r3, [r2, #0]
200000d6:	2b00      	cmp	r3, #0
200000d8:	d0fc      	beq.n	200000d4 <mutex_try_enter_block_until+0x14>
200000da:	f3bf 8f5f 	dmb	sy
200000de:	6867      	ldr	r7, [r4, #4]
200000e0:	1c7b      	adds	r3, r7, #1
200000e2:	d00e      	beq.n	20000102 <mutex_try_enter_block_until+0x42>
200000e4:	6823      	ldr	r3, [r4, #0]
200000e6:	f3bf 8f5f 	dmb	sy
200000ea:	2200      	movs	r2, #0
200000ec:	601a      	str	r2, [r3, #0]
200000ee:	f388 8810 	msr	PRIMASK, r8
200000f2:	f000 f881 	bl	200001f8 <__ulPortLockGetCurrentOwnerId_veneer>
200000f6:	42b8      	cmp	r0, r7
200000f8:	d10f      	bne.n	2000011a <mutex_try_enter_block_until+0x5a>
200000fa:	2000      	movs	r0, #0
200000fc:	bc80      	pop	{r7}
200000fe:	46b8      	mov	r8, r7
20000100:	bdf0      	pop	{r4, r5, r6, r7, pc}
20000102:	f000 f879 	bl	200001f8 <__ulPortLockGetCurrentOwnerId_veneer>
20000106:	6823      	ldr	r3, [r4, #0]
20000108:	6060      	str	r0, [r4, #4]
2000010a:	f3bf 8f5f 	dmb	sy
2000010e:	2200      	movs	r2, #0
20000110:	601a      	str	r2, [r3, #0]
20000112:	f388 8810 	msr	PRIMASK, r8
20000116:	2001      	movs	r0, #1
20000118:	e7f0      	b.n	200000fc <mutex_try_enter_block_until+0x3c>
2000011a:	f000 f86d 	bl	200001f8 <__ulPortLockGetCurrentOwnerId_veneer>
2000011e:	0007      	movs	r7, r0
20000120:	e006      	b.n	20000130 <mutex_try_enter_block_until+0x70>
20000122:	002a      	movs	r2, r5
20000124:	0033      	movs	r3, r6
20000126:	0020      	movs	r0, r4
20000128:	f000 f876 	bl	20000218 <__xPortLockInternalSpinUnlockWithBestEffortWaitOrTimeout_veneer>
2000012c:	2800      	cmp	r0, #0
2000012e:	d1e4      	bne.n	200000fa <mutex_try_enter_block_until+0x3a>
20000130:	6822      	ldr	r2, [r4, #0]
20000132:	f3ef 8110 	mrs	r1, PRIMASK
20000136:	b672      	cpsid	i
20000138:	6813      	ldr	r3, [r2, #0]
2000013a:	2b00      	cmp	r3, #0
2000013c:	d0fc      	beq.n	20000138 <mutex_try_enter_block_until+0x78>
2000013e:	f3bf 8f5f 	dmb	sy
20000142:	6863      	ldr	r3, [r4, #4]
20000144:	3301      	adds	r3, #1
20000146:	d1ec      	bne.n	20000122 <mutex_try_enter_block_until+0x62>
20000148:	6823      	ldr	r3, [r4, #0]
2000014a:	6067      	str	r7, [r4, #4]
2000014c:	f3bf 8f5f 	dmb	sy
20000150:	2200      	movs	r2, #0
20000152:	601a      	str	r2, [r3, #0]
20000154:	f381 8810 	msr	PRIMASK, r1
20000158:	2001      	movs	r0, #1
2000015a:	e7cf      	b.n	200000fc <mutex_try_enter_block_until+0x3c>

2000015c <mutex_exit>:
2000015c:	b510      	push	{r4, lr}
2000015e:	6802      	ldr	r2, [r0, #0]
20000160:	f3ef 8110 	mrs	r1, PRIMASK
20000164:	b672      	cpsid	i
20000166:	6813      	ldr	r3, [r2, #0]
20000168:	2b00      	cmp	r3, #0
2000016a:	d0fc      	beq.n	20000166 <mutex_exit+0xa>
2000016c:	f3bf 8f5f 	dmb	sy
20000170:	2301      	movs	r3, #1
20000172:	425b      	negs	r3, r3
20000174:	6043      	str	r3, [r0, #4]
20000176:	f000 f847 	bl	20000208 <__vPortLockInternalSpinUnlockWithNotify_veneer>
2000017a:	bd10      	pop	{r4, pc}

2000017c <spi_read16_blocking>:
2000017c:	b5f0      	push	{r4, r5, r6, r7, lr}
2000017e:	4647      	mov	r7, r8
20000180:	46ce      	mov	lr, r9
20000182:	0005      	movs	r5, r0
20000184:	4688      	mov	r8, r1
20000186:	0018      	movs	r0, r3
20000188:	b580      	push	{r7, lr}
2000018a:	2b00      	cmp	r3, #0
2000018c:	d017      	beq.n	200001be <spi_read16_blocking+0x42>
2000018e:	001e      	movs	r6, r3
20000190:	001c      	movs	r4, r3
20000192:	2302      	movs	r3, #2
20000194:	469c      	mov	ip, r3
20000196:	3302      	adds	r3, #2
20000198:	4699      	mov	r9, r3
2000019a:	2e00      	cmp	r6, #0
2000019c:	d013      	beq.n	200001c6 <spi_read16_blocking+0x4a>
2000019e:	0033      	movs	r3, r6
200001a0:	3308      	adds	r3, #8
200001a2:	4661      	mov	r1, ip
200001a4:	68ef      	ldr	r7, [r5, #12]
200001a6:	4239      	tst	r1, r7
200001a8:	d01a      	beq.n	200001e0 <spi_read16_blocking+0x64>
200001aa:	42a3      	cmp	r3, r4
200001ac:	d918      	bls.n	200001e0 <spi_read16_blocking+0x64>
200001ae:	4643      	mov	r3, r8
200001b0:	3e01      	subs	r6, #1
200001b2:	60ab      	str	r3, [r5, #8]
200001b4:	0033      	movs	r3, r6
200001b6:	2c00      	cmp	r4, #0
200001b8:	d114      	bne.n	200001e4 <spi_read16_blocking+0x68>
200001ba:	2b00      	cmp	r3, #0
200001bc:	d1ed      	bne.n	2000019a <spi_read16_blocking+0x1e>
200001be:	bcc0      	pop	{r6, r7}
200001c0:	46b9      	mov	r9, r7
200001c2:	46b0      	mov	r8, r6
200001c4:	bdf0      	pop	{r4, r5, r6, r7, pc}
200001c6:	2c00      	cmp	r4, #0
200001c8:	d0f9      	beq.n	200001be <spi_read16_blocking+0x42>
200001ca:	4649      	mov	r1, r9
200001cc:	68eb      	ldr	r3, [r5, #12]
200001ce:	4219      	tst	r1, r3
200001d0:	d0f9      	beq.n	200001c6 <spi_read16_blocking+0x4a>
200001d2:	68ab      	ldr	r3, [r5, #8]
200001d4:	3c01      	subs	r4, #1
200001d6:	8013      	strh	r3, [r2, #0]
200001d8:	0023      	movs	r3, r4
200001da:	3202      	adds	r2, #2
200001dc:	4333      	orrs	r3, r6
200001de:	e7ec      	b.n	200001ba <spi_read16_blocking+0x3e>
200001e0:	2c00      	cmp	r4, #0
200001e2:	d0de      	beq.n	200001a2 <spi_read16_blocking+0x26>
200001e4:	4649      	mov	r1, r9
200001e6:	68eb      	ldr	r3, [r5, #12]
200001e8:	4219      	tst	r1, r3
200001ea:	d0d6      	beq.n	2000019a <spi_read16_blocking+0x1e>
200001ec:	e7f1      	b.n	200001d2 <spi_read16_blocking+0x56>
200001ee:	46c0      	nop			; (mov r8, r8)

200001f0 <__aeabi_idiv0>:
200001f0:	4770      	bx	lr
200001f2:	46c0      	nop			; (mov r8, r8)
200001f4:	0000      	movs	r0, r0
	...

200001f8 <__ulPortLockGetCurrentOwnerId_veneer>:
200001f8:	b401      	push	{r0}
200001fa:	4802      	ldr	r0, [pc, #8]	; (20000204 <__ulPortLockGetCurrentOwnerId_veneer+0xc>)
200001fc:	4684      	mov	ip, r0
200001fe:	bc01      	pop	{r0}
20000200:	4760      	bx	ip
20000202:	bf00      	nop
20000204:	10000ae1 	.word	0x10000ae1

20000208 <__vPortLockInternalSpinUnlockWithNotify_veneer>:
20000208:	b401      	push	{r0}
2000020a:	4802      	ldr	r0, [pc, #8]	; (20000214 <__vPortLockInternalSpinUnlockWithNotify_veneer+0xc>)
2000020c:	4684      	mov	ip, r0
2000020e:	bc01      	pop	{r0}
20000210:	4760      	bx	ip
20000212:	bf00      	nop
20000214:	10000b11 	.word	0x10000b11

20000218 <__xPortLockInternalSpinUnlockWithBestEffortWaitOrTimeout_veneer>:
20000218:	b401      	push	{r0}
2000021a:	4802      	ldr	r0, [pc, #8]	; (20000224 <__xPortLockInternalSpinUnlockWithBestEffortWaitOrTimeout_veneer+0xc>)
2000021c:	4684      	mov	ip, r0
2000021e:	bc01      	pop	{r0}
20000220:	4760      	bx	ip
20000222:	bf00      	nop
20000224:	10000b95 	.word	0x10000b95

20000228 <last_core_id.0>:
20000228:	ffffffff                                ....

2000022c <last_core_id.1>:
2000022c:	ffffffff                                ....

20000230 <last_core_id.2>:
20000230:	ffffffff                                ....

20000234 <ucPrimaryCoreNum>:
20000234:	000000ff                                ....

20000238 <uxTopUsedPriority>:
20000238:	0000001f                                ....

2000023c <striped_spin_lock_num>:
2000023c:	00000010                                ....

20000240 <irq_handler_chain_slots>:
20000240:	00000000 	.word	0x00000000
20000244:	00010000 	.word	0x00010000
	...
20000250:	00020000 	.word	0x00020000
	...
2000025c:	00030000 	.word	0x00030000
	...
20000268:	00ff0000 	.word	0x00ff0000
2000026c:	00000000 	.word	0x00000000

20000270 <irq_handler_chain_first_slot>:
20000270:	b501      	push	{r0, lr}
20000272:	6848      	ldr	r0, [r1, #4]
20000274:	3101      	adds	r1, #1
20000276:	468e      	mov	lr, r1
20000278:	4700      	bx	r0

2000027a <irq_handler_chain_remove_tail>:
2000027a:	4670      	mov	r0, lr
2000027c:	3809      	subs	r0, #9
2000027e:	4901      	ldr	r1, [pc, #4]	; (20000284 <irq_handler_chain_remove_tail+0xa>)
20000280:	4788      	blx	r1
20000282:	bd01      	pop	{r0, pc}
20000284:	10003d6d 	.word	0x10003d6d

20000288 <default_alarm_pool>:
	...
2000029c:	200002e8                                ... 

200002a0 <aeabi_bits_funcs>:
200002a0:	00003350 	.word	0x00003350
200002a4:	0000334c 	.word	0x0000334c
200002a8:	00003354 	.word	0x00003354
200002ac:	00003352 	.word	0x00003352

200002b0 <aeabi_bits_funcs_end>:
200002b0:	0000534d 	.word	0x0000534d
200002b4:	0000434d 	.word	0x0000434d
200002b8:	00003453 	.word	0x00003453
200002bc:	00003443 	.word	0x00003443

200002c0 <stdio_uart>:
200002c0:	10007211 10007309 1000725d 1000731d     .r...s..]r...s..
200002d0:	00000000 00000100                       ........

200002d8 <malloc_mutex>:
	...

200002e0 <print_mutex>:
	...
